	.file	"qcc74x_sf_cfg.c"
	.option nopic
	.attribute arch, "rv32i2p0_m2p0_a2p0_f2p0_c2p0_p0p9_zpn0p9_zpsfoperand0p9_xtheade2p0"
	.attribute unaligned_access, 0
	.attribute stack_align, 16
	.text
.Ltext0:
	.cfi_sections	.debug_frame
	.section	.rodata.str1.4,"aMS",@progbits,1
	.align	2
.LC0:
	.string	"gpio"
	.section	.tcm_code../drivers/lhal/src/flash/qcc74x_sf_cfg.c2848,"ax",@progbits
	.align	1
	.weak	qcc74x_sf_cfg_init_ext_flash_gpio
	.type	qcc74x_sf_cfg_init_ext_flash_gpio, @function
qcc74x_sf_cfg_init_ext_flash_gpio:
.LFB5:
	.file 1 "./drivers/lhal/src/flash/qcc74x_sf_cfg.c"
	.loc 1 2849 1
	.cfi_startproc
.LVL0:
	.loc 1 2853 5
	.loc 1 2854 5
	.loc 1 2855 5
	.loc 1 2857 5
	.loc 1 2849 1 is_stmt 0
	addi	sp,sp,-64
	.cfi_def_cfa_offset 64
	sw	s0,56(sp)
	.cfi_offset 8, -8
	mv	s0,a0
	.loc 1 2857 12
	lui	a0,%hi(.LC0)
.LVL1:
	addi	a0,a0,%lo(.LC0)
	.loc 1 2849 1
	sw	ra,60(sp)
	sw	s1,52(sp)
	sw	s2,48(sp)
	sw	s3,44(sp)
	.cfi_offset 1, -4
	.cfi_offset 9, -12
	.cfi_offset 18, -16
	.cfi_offset 19, -20
	.loc 1 2857 12
	call	qcc74x_device_get_by_name
.LVL2:
	.loc 1 2858 5 is_stmt 1
	.loc 1 2858 8 is_stmt 0
	bne	s0,zero,.L2
	.loc 1 2859 9 is_stmt 1
	.loc 1 2860 9
	.loc 1 2861 9
	.loc 1 2862 9
	.loc 1 2863 9
	.loc 1 2864 9
	.loc 1 2859 22 is_stmt 0
	li	a5,84344832
	addi	a5,a5,1032
	sw	a5,24(sp)
	.loc 1 2863 22
	li	a5,4096
	addi	a5,a5,-1786
.L9:
	.loc 1 2902 9
	li	s1,12288
	.loc 1 2863 22
	sh	a5,28(sp)
	.loc 1 2849 1
	li	s0,0
	.loc 1 2902 9
	addi	s3,sp,24
	addi	s1,s1,-1278
	.loc 1 2901 5
	li	s2,6
.LVL3:
.L3:
	.loc 1 2902 9 is_stmt 1 discriminator 3
	lrbu	a1,s3,s0,0
	mv	a2,s1
	sw	a0,12(sp)
	.loc 1 2901 5 is_stmt 0 discriminator 3
	addi	s0,s0,1
.LVL4:
	.loc 1 2902 9 discriminator 3
	call	qcc74x_gpio_init
.LVL5:
	.loc 1 2901 40 is_stmt 1 discriminator 3
	.loc 1 2901 17 discriminator 3
	.loc 1 2901 5 is_stmt 0 discriminator 3
	lw	a0,12(sp)
	bne	s0,s2,.L3
	.loc 1 2906 12
	li	a5,0
.L1:
	.loc 1 2908 1
	lw	ra,60(sp)
	.cfi_remember_state
	.cfi_restore 1
	lw	s0,56(sp)
	.cfi_restore 8
	lw	s1,52(sp)
	.cfi_restore 9
	lw	s2,48(sp)
	.cfi_restore 18
	lw	s3,44(sp)
	.cfi_restore 19
	mv	a0,a5
	addi	sp,sp,64
	.cfi_def_cfa_offset 0
	jr	ra
.LVL6:
.L2:
	.cfi_restore_state
	.loc 1 2866 12 is_stmt 1
	.loc 1 2866 15 is_stmt 0
	li	a4,1
	.loc 1 2898 16
	li	a5,-1
	.loc 1 2866 15
	bne	s0,a4,.L1
	.loc 1 2867 9 is_stmt 1
	.loc 1 2868 9
	.loc 1 2869 9
	.loc 1 2870 9
	.loc 1 2871 9
	.loc 1 2872 9
	.loc 1 2867 22 is_stmt 0
	li	a5,319819776
	addi	a5,a5,1039
	sw	a5,24(sp)
	.loc 1 2871 22
	li	a5,4096
	addi	a5,a5,-494
	j	.L9
	.cfi_endproc
.LFE5:
	.size	qcc74x_sf_cfg_init_ext_flash_gpio, .-qcc74x_sf_cfg_init_ext_flash_gpio
	.section	.tcm_code../drivers/lhal/src/flash/qcc74x_sf_cfg.c2919,"ax",@progbits
	.align	1
	.weak	qcc74x_sf_cfg_deinit_ext_flash_gpio
	.type	qcc74x_sf_cfg_deinit_ext_flash_gpio, @function
qcc74x_sf_cfg_deinit_ext_flash_gpio:
.LFB6:
	.loc 1 2920 1 is_stmt 1
	.cfi_startproc
.LVL7:
	.loc 1 2924 5
	.loc 1 2925 5
	.loc 1 2926 5
	.loc 1 2928 5
	.loc 1 2920 1 is_stmt 0
	addi	sp,sp,-64
	.cfi_def_cfa_offset 64
	sw	s0,56(sp)
	.cfi_offset 8, -8
	mv	s0,a0
	.loc 1 2928 12
	lui	a0,%hi(.LC0)
.LVL8:
	addi	a0,a0,%lo(.LC0)
	.loc 1 2920 1
	sw	ra,60(sp)
	sw	s1,52(sp)
	sw	s2,48(sp)
	sw	s3,44(sp)
	.cfi_offset 1, -4
	.cfi_offset 9, -12
	.cfi_offset 18, -16
	.cfi_offset 19, -20
	.loc 1 2928 12
	call	qcc74x_device_get_by_name
.LVL9:
	.loc 1 2929 5 is_stmt 1
	.loc 1 2929 8 is_stmt 0
	bne	s0,zero,.L11
	.loc 1 2930 9 is_stmt 1
	.loc 1 2931 9
	.loc 1 2932 9
	.loc 1 2933 9
	.loc 1 2934 9
	.loc 1 2935 9
	.loc 1 2930 22 is_stmt 0
	li	a5,84344832
	addi	a5,a5,1032
	sw	a5,24(sp)
	.loc 1 2934 22
	li	a5,4096
	addi	a5,a5,-1786
.L18:
	.loc 1 2973 9
	li	s1,8192
	.loc 1 2934 22
	sh	a5,28(sp)
	.loc 1 2920 1
	li	s0,0
	.loc 1 2973 9
	addi	s3,sp,24
	addi	s1,s1,-1504
	.loc 1 2972 5
	li	s2,6
.LVL10:
.L12:
	.loc 1 2973 9 is_stmt 1 discriminator 3
	lrbu	a1,s3,s0,0
	mv	a2,s1
	sw	a0,12(sp)
	.loc 1 2972 5 is_stmt 0 discriminator 3
	addi	s0,s0,1
.LVL11:
	.loc 1 2973 9 discriminator 3
	call	qcc74x_gpio_init
.LVL12:
	.loc 1 2972 40 is_stmt 1 discriminator 3
	.loc 1 2972 17 discriminator 3
	.loc 1 2972 5 is_stmt 0 discriminator 3
	lw	a0,12(sp)
	bne	s0,s2,.L12
	.loc 1 2976 12
	li	a5,0
.L10:
	.loc 1 2978 1
	lw	ra,60(sp)
	.cfi_remember_state
	.cfi_restore 1
	lw	s0,56(sp)
	.cfi_restore 8
	lw	s1,52(sp)
	.cfi_restore 9
	lw	s2,48(sp)
	.cfi_restore 18
	lw	s3,44(sp)
	.cfi_restore 19
	mv	a0,a5
	addi	sp,sp,64
	.cfi_def_cfa_offset 0
	jr	ra
.LVL13:
.L11:
	.cfi_restore_state
	.loc 1 2937 12 is_stmt 1
	.loc 1 2937 15 is_stmt 0
	li	a4,1
	.loc 1 2969 16
	li	a5,-1
	.loc 1 2937 15
	bne	s0,a4,.L10
	.loc 1 2938 9 is_stmt 1
	.loc 1 2939 9
	.loc 1 2940 9
	.loc 1 2941 9
	.loc 1 2942 9
	.loc 1 2943 9
	.loc 1 2938 22 is_stmt 0
	li	a5,319819776
	addi	a5,a5,1039
	sw	a5,24(sp)
	.loc 1 2942 22
	li	a5,4096
	addi	a5,a5,-494
	j	.L18
	.cfi_endproc
.LFE6:
	.size	qcc74x_sf_cfg_deinit_ext_flash_gpio, .-qcc74x_sf_cfg_deinit_ext_flash_gpio
	.section	.tcm_code../drivers/lhal/src/flash/qcc74x_sf_cfg.c3295,"ax",@progbits
	.align	1
	.weak	qcc74x_sf_cfg_init_flash2_gpio
	.type	qcc74x_sf_cfg_init_flash2_gpio, @function
qcc74x_sf_cfg_init_flash2_gpio:
.LFB8:
	.loc 1 3296 1 is_stmt 1
	.cfi_startproc
.LVL14:
	.loc 1 3300 5
	.loc 1 3296 1 is_stmt 0
	addi	sp,sp,-16
	.cfi_def_cfa_offset 16
	sw	s0,8(sp)
	.cfi_offset 8, -8
	mv	s0,a0
	.loc 1 3300 5
	li	a0,0
.LVL15:
	.loc 1 3296 1
	sw	ra,12(sp)
	.cfi_offset 1, -4
	.loc 1 3300 5
	call	qcc74x_sf_cfg_init_ext_flash_gpio
.LVL16:
	.loc 1 3304 5 is_stmt 1
	mv	a0,s0
	call	GLB_Set_SFlash2_IO_PARM
.LVL17:
	.loc 1 3307 5
	.loc 1 3309 1 is_stmt 0
	lw	ra,12(sp)
	.cfi_restore 1
	lw	s0,8(sp)
	.cfi_restore 8
	li	a0,0
	addi	sp,sp,16
	.cfi_def_cfa_offset 0
	jr	ra
	.cfi_endproc
.LFE8:
	.size	qcc74x_sf_cfg_init_flash2_gpio, .-qcc74x_sf_cfg_init_flash2_gpio
	.section	.tcm_code../drivers/lhal/src/flash/qcc74x_sf_cfg.c2997,"ax",@progbits
	.align	1
	.weak	qcc74x_sf_cfg_init_flash_gpio
	.type	qcc74x_sf_cfg_init_flash_gpio, @function
qcc74x_sf_cfg_init_flash_gpio:
.LFB7:
	.loc 1 2998 1 is_stmt 1
	.cfi_startproc
.LVL18:
	.loc 1 3002 5
	.loc 1 3003 5
	.loc 1 3004 5
	.loc 1 3006 5
	.loc 1 2998 1 is_stmt 0
	addi	sp,sp,-16
	.cfi_def_cfa_offset 16
	sw	s0,8(sp)
	sw	ra,12(sp)
	sw	s1,4(sp)
	.cfi_offset 8, -8
	.cfi_offset 1, -4
	.cfi_offset 9, -12
	.loc 1 2998 1
	mv	s0,a0
	.loc 1 3006 8
	bne	a1,zero,.L22
.LVL19:
.L26:
	.loc 1 3021 5 is_stmt 1
	andi	s1,s0,4
	.loc 1 3021 8 is_stmt 0
	beq	s1,zero,.L36
	.loc 1 3024 9 is_stmt 1
	xori	a0,s0,32
	extu	a0,a0,5+1-1,5
	call	qcc74x_sf_cfg_init_flash2_gpio
.LVL20:
	.loc 1 3026 9
	.loc 1 3026 22 is_stmt 0
	li	s1,0
.L27:
.LVL21:
	.loc 1 3035 5 is_stmt 1
	.loc 1 3035 8 is_stmt 0
	andi	a5,s0,16
	beq	a5,zero,.L28
	.loc 1 3036 22
	li	s1,1
.LVL22:
.L28:
	.loc 1 3039 5 is_stmt 1
	.loc 1 3040 5
	.loc 1 3041 5
	.loc 1 3045 5
	xori	a1,s0,2
	andi	a2,s0,1
	extu	a1,a1,1+1-1,1
	mv	a0,s1
	call	GLB_Set_SFlash_IO_PARM
.LVL23:
	.loc 1 3047 5
	mv	a0,s0
	call	qcc74x_sf_ctrl_select_pad
.LVL24:
	.loc 1 3049 5
	.loc 1 3049 12 is_stmt 0
	j	.L25
.LVL25:
.L22:
	.loc 1 3011 9 is_stmt 1
	li	a2,0
	li	a1,1
.LVL26:
	li	a0,1
.LVL27:
	call	GLB_Set_SFlash_IO_PARM
.LVL28:
	.loc 1 3013 9
	li	a0,0
	call	qcc74x_sf_ctrl_select_pad
.LVL29:
	.loc 1 3016 9
	.loc 1 3016 12 is_stmt 0
	bne	s0,zero,.L26
.LVL30:
.L25:
	.loc 1 3051 1
	lw	ra,12(sp)
	.cfi_remember_state
	.cfi_restore 1
	lw	s0,8(sp)
	.cfi_restore 8
	lw	s1,4(sp)
	.cfi_restore 9
	li	a0,0
	addi	sp,sp,16
	.cfi_def_cfa_offset 0
	jr	ra
.LVL31:
.L36:
	.cfi_restore_state
	.loc 1 3027 12 is_stmt 1
	.loc 1 3027 15 is_stmt 0
	andi	a5,s0,8
	beq	a5,zero,.L29
	.loc 1 3029 9 is_stmt 1
	li	a0,1
	call	qcc74x_sf_cfg_init_ext_flash_gpio
.LVL32:
	.loc 1 3030 9
	j	.L27
.L29:
	.loc 1 3032 22 is_stmt 0
	li	s1,1
	j	.L27
	.cfi_endproc
.LFE7:
	.size	qcc74x_sf_cfg_init_flash_gpio, .-qcc74x_sf_cfg_init_flash_gpio
	.section	.tcm_code../drivers/lhal/src/flash/qcc74x_sf_cfg.c3326,"ax",@progbits
	.align	1
	.weak	qcc74x_sf_cfg_flash_identify
	.type	qcc74x_sf_cfg_flash_identify, @function
qcc74x_sf_cfg_flash_identify:
.LFB9:
	.loc 1 3328 1 is_stmt 1
	.cfi_startproc
.LVL33:
	.loc 1 3332 5
	.loc 1 3333 5
	.loc 1 3334 5
	.loc 1 3328 1 is_stmt 0
	addi	sp,sp,-64
	.cfi_def_cfa_offset 64
	sw	s0,56(sp)
	sw	s3,44(sp)
	.cfi_offset 8, -8
	.cfi_offset 19, -20
	mv	s0,a1
	.loc 1 3342 15
	srli	s3,a1,7
	.loc 1 3345 5
	lui	a1,%hi(.LANCHOR0)
.LVL34:
	.loc 1 3328 1
	sw	s4,40(sp)
	sw	s7,28(sp)
	.cfi_offset 20, -24
	.cfi_offset 23, -36
	mv	s4,a0
	mv	s7,a2
	.loc 1 3345 5
	addi	a1,a1,%lo(.LANCHOR0)
	li	a2,84
.LVL35:
	mv	a0,a3
.LVL36:
	.loc 1 3328 1
	sw	s1,52(sp)
	sw	s2,48(sp)
	sw	s5,36(sp)
	.cfi_offset 9, -12
	.cfi_offset 18, -16
	.cfi_offset 21, -28
	mv	s2,a5
	sw	ra,60(sp)
	sw	s6,32(sp)
	sw	s8,24(sp)
	sw	s9,20(sp)
	sw	s10,16(sp)
	.cfi_offset 1, -4
	.cfi_offset 22, -32
	.cfi_offset 24, -40
	.cfi_offset 25, -44
	.cfi_offset 26, -48
	.loc 1 3328 1
	mv	s1,a3
	mv	s5,a4
	.loc 1 3334 14
	sw	zero,8(sp)
	.loc 1 3335 5 is_stmt 1
.LVL37:
	.loc 1 3336 5
	.loc 1 3336 14 is_stmt 0
	sw	zero,12(sp)
	.loc 1 3337 5 is_stmt 1
.LVL38:
	.loc 1 3342 5
	.loc 1 3343 5
	.loc 1 3345 5
	call	arch_memcpy_fast
.LVL39:
	.loc 1 3347 5
	.loc 1 3347 8 is_stmt 0
	li	a5,1
	bne	s4,a5,.L39
	.loc 1 3348 9 is_stmt 1
	.loc 1 3348 16 is_stmt 0
	mv	a3,s2
	mv	a2,s5
	addi	a1,sp,12
	mv	a0,s1
	call	qcc74x_xip_sflash_state_save
.LVL40:
	.loc 1 3350 9 is_stmt 1
	.loc 1 3350 12 is_stmt 0
	andi	a0,a0,0xff
	beq	a0,zero,.L39
	.loc 1 3351 13 is_stmt 1
	li	a0,1
.LVL41:
	call	qcc74x_sf_ctrl_set_owner
.LVL42:
	.loc 1 3352 13
	.loc 1 3352 20 is_stmt 0
	li	a0,0
.LVL43:
.L38:
	.loc 1 3479 1
	lw	ra,60(sp)
	.cfi_remember_state
	.cfi_restore 1
	lw	s0,56(sp)
	.cfi_restore 8
	lw	s1,52(sp)
	.cfi_restore 9
.LVL44:
	lw	s2,48(sp)
	.cfi_restore 18
	lw	s3,44(sp)
	.cfi_restore 19
	lw	s4,40(sp)
	.cfi_restore 20
	lw	s5,36(sp)
	.cfi_restore 21
	lw	s6,32(sp)
	.cfi_restore 22
	lw	s7,28(sp)
	.cfi_restore 23
	lw	s8,24(sp)
	.cfi_restore 24
	lw	s9,20(sp)
	.cfi_restore 25
	lw	s10,16(sp)
	.cfi_restore 26
	addi	sp,sp,64
	.cfi_def_cfa_offset 0
	jr	ra
.LVL45:
.L39:
	.cfi_restore_state
	.loc 1 3356 5 is_stmt 1
	.loc 1 3356 8 is_stmt 0
	beq	s3,zero,.L41
	.loc 1 3436 33
	li	s3,16777216
.LVL46:
	.loc 1 3438 28
	li	s6,65536
	.loc 1 3436 33
	addi	s10,s3,-1
	.loc 1 3357 19
	li	s0,0
.LVL47:
	.loc 1 3360 16
	li	s9,4
	.loc 1 3360 136
	li	s8,8
	.loc 1 3438 28
	addi	s6,s6,-1
	.loc 1 3438 58
	addi	s3,s3,-256
.L71:
.LVL48:
	.loc 1 3358 9 is_stmt 1
	.loc 1 3360 13
	.loc 1 3360 16 is_stmt 0
	bleu	s0,s9,.L42
	.loc 1 3360 136 discriminator 1
	beq	s0,s8,.L43
	.loc 1 3360 160 discriminator 2
	addi	a4,s0,-20
	andi	a4,a4,0xff
	li	a5,1
	bleu	a4,a5,.L44
	.loc 1 3360 210 discriminator 4
	addi	a4,s0,-22
	andi	a4,a4,0xff
	bleu	a4,a5,.L45
	.loc 1 3360 260 discriminator 6
	li	a4,36
	beq	s0,a4,.L46
	.loc 1 3360 285 discriminator 7
	addi	a5,s0,-52
	andi	a5,a5,0xff
	li	a4,3
	bleu	a5,a4,.L45
.L79:
	.loc 1 3437 13 is_stmt 1
	.loc 1 3438 28 is_stmt 0
	lw	a5,8(sp)
	.loc 1 3437 22
	addi	s0,s0,1
.LVL49:
	andi	s0,s0,0xff
.LVL50:
	.loc 1 3438 17 is_stmt 1
	.loc 1 3438 28 is_stmt 0
	and	a4,a5,s6
	.loc 1 3438 9
	beq	a4,zero,.L71
	.loc 1 3438 58 discriminator 1
	and	a5,a5,s3
	.loc 1 3438 45 discriminator 1
	beq	a5,zero,.L71
	.loc 1 3438 75 discriminator 2
	beq	a4,s6,.L71
	.loc 1 3438 110 discriminator 3
	beq	a5,s3,.L71
	j	.L50
.L42:
.LVL51:
	.loc 1 3364 13 is_stmt 1
	.loc 1 3364 16 is_stmt 0
	li	a5,1
	bne	s2,a5,.L49
	.loc 1 3371 31
	li	s0,20
.L48:
.LVL52:
	.loc 1 3376 17 is_stmt 1
	.loc 1 3376 67 is_stmt 0
	srli	a0,s0,5
	.loc 1 3376 17
	xori	a0,a0,1
	call	qcc74x_sf_cfg_init_flash2_gpio
.LVL53:
.L51:
	.loc 1 3430 13 is_stmt 1
	mv	a0,s1
	call	qcc74x_sflash_release_powerdown
.LVL54:
	.loc 1 3431 13
	mv	a0,s1
	call	qcc74x_sflash_reset_continue_read
.LVL55:
	.loc 1 3432 13
	mv	a0,s1
	call	qcc74x_sflash_disable_burst_wrap
.LVL56:
	.loc 1 3433 13
	.loc 1 3434 13 is_stmt 0
	addi	a1,sp,8
	mv	a0,s1
	.loc 1 3433 22
	sw	zero,8(sp)
	.loc 1 3434 13 is_stmt 1
	call	qcc74x_sflash_get_jedecid
.LVL57:
	.loc 1 3435 13
	mv	a0,s1
	call	qcc74x_sflash_disable_burst_wrap
.LVL58:
	.loc 1 3436 13
	.loc 1 3436 33 is_stmt 0
	lw	a5,8(sp)
	and	a5,a5,s10
	.loc 1 3436 22
	sw	a5,8(sp)
	j	.L79
.LVL59:
.L52:
	.loc 1 3367 21 is_stmt 1
	.loc 1 3367 30 is_stmt 0
	sw	zero,8(sp)
	.loc 1 3368 21 is_stmt 1
.L50:
	.loc 1 3458 5
	.loc 1 3458 17
	.loc 1 3459 37 is_stmt 0
	lw	a1,8(sp)
	.loc 1 3459 27
	lui	a5,%hi(.LANCHOR1)
	.loc 1 3458 12
	li	a4,0
	.loc 1 3459 27
	addi	a5,a5,%lo(.LANCHOR1)
	li	a0,12
	.loc 1 3458 5
	li	a2,102
.LVL60:
.L59:
	.loc 1 3459 9 is_stmt 1
	.loc 1 3459 27 is_stmt 0
	mul	a3,a4,a0
	.loc 1 3459 12
	lrw	a6,a3,a5,0
	bne	a6,a1,.L56
	.loc 1 3460 13 is_stmt 1
	.loc 1 3460 57 is_stmt 0
	add	a5,a5,a3
	.loc 1 3460 13
	lw	a1,8(a5)
	li	a2,84
	mv	a0,s1
	call	arch_memcpy_fast
.LVL61:
	.loc 1 3461 13 is_stmt 1
	.loc 1 3465 5
	.loc 1 3472 9
	.loc 1 3472 12 is_stmt 0
	li	a5,1
	bne	s4,a5,.L58
	.loc 1 3473 13 is_stmt 1
	lw	a1,12(sp)
	mv	a3,s2
	mv	a2,s5
	mv	a0,s1
	call	qcc74x_xip_sflash_state_restore
.LVL62:
.L58:
	.loc 1 3476 9
	.loc 1 3476 26 is_stmt 0
	lw	a5,8(sp)
	li	a0,-2147483648
	or	a0,a0,a5
	j	.L38
.LVL63:
.L41:
	.loc 1 3442 9 is_stmt 1
	.loc 1 3442 12 is_stmt 0
	li	a5,1
	bne	s2,a5,.L54
	.loc 1 3443 13 is_stmt 1
	xori	a0,s0,32
	extu	a0,a0,5+1-1,5
	call	qcc74x_sf_cfg_init_flash2_gpio
.LVL64:
.L55:
	.loc 1 3450 9
	mv	a0,s1
	call	qcc74x_sflash_release_powerdown
.LVL65:
	.loc 1 3451 9
	mv	a0,s1
	call	qcc74x_sflash_reset_continue_read
.LVL66:
	.loc 1 3452 9
	mv	a0,s1
	call	qcc74x_sflash_disable_burst_wrap
.LVL67:
	.loc 1 3453 9
	addi	a1,sp,8
	mv	a0,s1
	call	qcc74x_sflash_get_jedecid
.LVL68:
	.loc 1 3454 9
	mv	a0,s1
	call	qcc74x_sflash_disable_burst_wrap
.LVL69:
	.loc 1 3455 9
	.loc 1 3455 29 is_stmt 0
	lw	a5,8(sp)
	li	a4,16777216
	addi	a4,a4,-1
	and	a5,a5,a4
	.loc 1 3455 18
	sw	a5,8(sp)
	j	.L50
.L54:
	.loc 1 3445 13 is_stmt 1
	mv	a1,s7
	mv	a0,s0
	call	qcc74x_sf_cfg_init_flash_gpio
.LVL70:
	j	.L55
.LVL71:
.L56:
	.loc 1 3458 67 discriminator 2
	.loc 1 3458 68 is_stmt 0 discriminator 2
	addi	a4,a4,1
.LVL72:
	.loc 1 3458 17 is_stmt 1 discriminator 2
	.loc 1 3458 5 is_stmt 0 discriminator 2
	bne	a4,a2,.L59
	.loc 1 3465 5 is_stmt 1
	.loc 1 3466 9
	.loc 1 3466 12 is_stmt 0
	li	a5,1
	bne	s4,a5,.L62
	.loc 1 3467 13 is_stmt 1
	lw	a1,12(sp)
	mv	a3,s2
	mv	a2,s5
	mv	a0,s1
	call	qcc74x_xip_sflash_state_restore
.LVL73:
.L62:
	.loc 1 3470 9
	.loc 1 3470 16 is_stmt 0
	lw	a0,8(sp)
	j	.L38
.LVL74:
.L43:
	.loc 1 3364 13 is_stmt 1
	.loc 1 3364 16 is_stmt 0
	li	a5,1
	bne	s2,a5,.L49
	j	.L48
.LVL75:
.L45:
	.loc 1 3364 13 is_stmt 1
	.loc 1 3364 16 is_stmt 0
	li	a5,1
	beq	s2,a5,.L48
	.loc 1 3379 17 is_stmt 1
	.loc 1 3379 20 is_stmt 0
	li	a5,36
	bgtu	s0,a5,.L52
	.loc 1 3383 17 is_stmt 1
	.loc 1 3383 20 is_stmt 0
	bleu	s0,s8,.L49
.L78:
	.loc 1 3384 31
	li	s0,36
.L49:
.LVL76:
	.loc 1 3386 17 is_stmt 1
	mv	a1,s7
	mv	a0,s0
	call	qcc74x_sf_cfg_init_flash_gpio
.LVL77:
	j	.L51
.L46:
.LVL78:
	.loc 1 3364 13
	.loc 1 3364 16 is_stmt 0
	bne	s2,a5,.L49
	.loc 1 3374 30
	li	s0,37
	j	.L48
.LVL79:
.L44:
	.loc 1 3364 13 is_stmt 1
	.loc 1 3364 16 is_stmt 0
	bne	s2,a5,.L78
	j	.L48
	.cfi_endproc
.LFE9:
	.size	qcc74x_sf_cfg_flash_identify, .-qcc74x_sf_cfg_flash_identify
	.section	.tcm_code../drivers/lhal/src/flash/qcc74x_sf_cfg.c3496,"ax",@progbits
	.align	1
	.weak	qcc74x_sf_cfg_flash_identify_ext
	.type	qcc74x_sf_cfg_flash_identify_ext, @function
qcc74x_sf_cfg_flash_identify_ext:
.LFB10:
	.loc 1 3498 1 is_stmt 1
	.cfi_startproc
.LVL80:
	.loc 1 3499 5
	.loc 1 3499 12 is_stmt 0
	tail	qcc74x_sf_cfg_flash_identify
.LVL81:
	.cfi_endproc
.LFE10:
	.size	qcc74x_sf_cfg_flash_identify_ext, .-qcc74x_sf_cfg_flash_identify_ext
	.section	.tcm_code../drivers/lhal/src/flash/qcc74x_sf_cfg.c3515,"ax",@progbits
	.align	1
	.weak	qcc74x_sf_cfg_get_flash_cfg_need_lock
	.type	qcc74x_sf_cfg_get_flash_cfg_need_lock, @function
qcc74x_sf_cfg_get_flash_cfg_need_lock:
.LFB11:
	.loc 1 3517 1 is_stmt 1
	.cfi_startproc
.LVL82:
	.loc 1 3521 5
	.loc 1 3522 5
	.loc 1 3523 5
	.loc 1 3524 5
	.loc 1 3525 5
	.loc 1 3525 10 is_stmt 0
	li	a5,1195786240
	.loc 1 3517 1
	addi	sp,sp,-144
	.cfi_def_cfa_offset 144
	.loc 1 3525 10
	addi	a5,a5,838
	.loc 1 3517 1
	sw	s2,128(sp)
	sw	ra,140(sp)
	sw	s0,136(sp)
	sw	s1,132(sp)
	sw	s3,124(sp)
	.cfi_offset 18, -16
	.cfi_offset 1, -4
	.cfi_offset 8, -8
	.cfi_offset 9, -12
	.cfi_offset 19, -20
	.loc 1 3525 10
	sw	a5,12(sp)
	sb	zero,16(sp)
	.loc 1 3527 5 is_stmt 1
	.loc 1 3517 1 is_stmt 0
	mv	s2,a1
	.loc 1 3527 8
	beq	a0,zero,.L89
	.loc 1 3544 31
	lui	a5,%hi(.LANCHOR1)
	li	a3,0
.LVL83:
	addi	a5,a5,%lo(.LANCHOR1)
	li	a1,12
.LVL84:
	.loc 1 3543 9
	li	a2,102
.LVL85:
.L82:
	.loc 1 3544 13 is_stmt 1
	.loc 1 3544 31 is_stmt 0
	mul	a4,a3,a1
	.loc 1 3544 16
	lrw	a6,a4,a5,0
	bne	a6,a0,.L85
	.loc 1 3545 17 is_stmt 1
	.loc 1 3545 61 is_stmt 0
	add	a5,a5,a4
	.loc 1 3545 17
	lw	a1,8(a5)
	li	a2,84
	mv	a0,s2
.LVL86:
	call	arch_memcpy_fast
.LVL87:
	.loc 1 3546 17 is_stmt 1
	.loc 1 3546 24 is_stmt 0
	li	s0,0
	j	.L81
.LVL88:
.L89:
	.loc 1 3528 22
	mv	a1,a3
.LVL89:
	mv	a0,a2
.LVL90:
	mv	s0,a2
	mv	s1,a3
	.loc 1 3528 9 is_stmt 1
	.loc 1 3528 22 is_stmt 0
	call	qcc74x_sf_ctrl_get_flash_image_offset
.LVL91:
	.loc 1 3529 9
	mv	a1,s0
	.loc 1 3528 22
	mv	s3,a0
.LVL92:
	.loc 1 3529 9 is_stmt 1
	mv	a2,s1
	li	a0,0
.LVL93:
	call	qcc74x_sf_ctrl_set_flash_image_offset
.LVL94:
	.loc 1 3530 9
	li	a0,-1610612736
	mv	a3,s0
	mv	a4,s1
	li	a2,92
	addi	a1,sp,20
	addi	a0,a0,8
	call	qcc74x_xip_sflash_read_via_cache_need_lock
.LVL95:
	.loc 1 3531 9
	mv	a1,s0
	mv	a2,s1
	mv	a0,s3
	call	qcc74x_sf_ctrl_set_flash_image_offset
.LVL96:
	.loc 1 3533 9
	.loc 1 3533 13 is_stmt 0
	li	a2,4
	addi	a1,sp,12
	addi	a0,sp,20
	call	arch_memcmp
.LVL97:
	mv	s0,a0
	.loc 1 3533 12
	bne	a0,zero,.L83
	.loc 1 3534 13 is_stmt 1
	.loc 1 3534 19 is_stmt 0
	li	a1,84
	addi	a0,sp,24
	call	qcc74x_soft_crc32
.LVL98:
	.loc 1 3535 13 is_stmt 1
	.loc 1 3537 13
	.loc 1 3537 16 is_stmt 0
	lw	a5,108(sp)
	bne	a5,a0,.L83
	.loc 1 3538 17 is_stmt 1
	li	a2,84
	addi	a1,sp,24
	mv	a0,s2
.LVL99:
	call	arch_memcpy_fast
.LVL100:
	.loc 1 3539 17
.L81:
	.loc 1 3553 1 is_stmt 0
	lw	ra,140(sp)
	.cfi_remember_state
	.cfi_restore 1
	mv	a0,s0
	lw	s0,136(sp)
	.cfi_restore 8
	lw	s1,132(sp)
	.cfi_restore 9
	lw	s2,128(sp)
	.cfi_restore 18
.LVL101:
	lw	s3,124(sp)
	.cfi_restore 19
	addi	sp,sp,144
	.cfi_def_cfa_offset 0
	jr	ra
.LVL102:
.L85:
	.cfi_restore_state
	.loc 1 3543 71 is_stmt 1 discriminator 2
	.loc 1 3543 72 is_stmt 0 discriminator 2
	addi	a3,a3,1
.LVL103:
	.loc 1 3543 21 is_stmt 1 discriminator 2
	.loc 1 3543 9 is_stmt 0 discriminator 2
	bne	a3,a2,.L82
.LVL104:
.L83:
	.loc 1 3551 12
	li	s0,-1
	j	.L81
	.cfi_endproc
.LFE11:
	.size	qcc74x_sf_cfg_get_flash_cfg_need_lock, .-qcc74x_sf_cfg_get_flash_cfg_need_lock
	.section	.tcm_code../drivers/lhal/src/flash/qcc74x_sf_cfg.c3568,"ax",@progbits
	.align	1
	.weak	qcc74x_sf_cfg_get_flash_cfg_need_lock_ext
	.type	qcc74x_sf_cfg_get_flash_cfg_need_lock_ext, @function
qcc74x_sf_cfg_get_flash_cfg_need_lock_ext:
.LFB12:
	.loc 1 3570 1 is_stmt 1
	.cfi_startproc
.LVL105:
	.loc 1 3571 5
	.loc 1 3571 12 is_stmt 0
	tail	qcc74x_sf_cfg_get_flash_cfg_need_lock
.LVL106:
	.cfi_endproc
.LFE12:
	.size	qcc74x_sf_cfg_get_flash_cfg_need_lock_ext, .-qcc74x_sf_cfg_get_flash_cfg_need_lock_ext
	.section	.tcm_code../drivers/lhal/src/flash/qcc74x_sf_cfg.c3587,"ax",@progbits
	.align	1
	.weak	qcc74x_sf_cfg_flash_init
	.type	qcc74x_sf_cfg_flash_init, @function
qcc74x_sf_cfg_flash_init:
.LFB13:
	.loc 1 3589 1 is_stmt 1
	.cfi_startproc
.LVL107:
	.loc 1 3593 5
	.loc 1 3594 5
	.loc 1 3595 5
	.loc 1 3597 5
	.loc 1 3597 8 is_stmt 0
	li	a5,55
	bgtu	a0,a5,.L106
	.loc 1 3589 1
	addi	sp,sp,-32
	.cfi_def_cfa_offset 32
	sw	s0,24(sp)
	sw	s1,20(sp)
	sw	s2,16(sp)
	sw	s3,12(sp)
	sw	ra,28(sp)
	.cfi_offset 8, -8
	.cfi_offset 9, -12
	.cfi_offset 18, -16
	.cfi_offset 19, -20
	.cfi_offset 1, -4
	andi	s1,a0,4
	mv	s3,a2
	mv	s2,a1
	mv	s0,a0
	.loc 1 3601 5 is_stmt 1
	.loc 1 3601 8 is_stmt 0
	beq	s1,zero,.L94
	.loc 1 3603 9 is_stmt 1
	.loc 1 3603 53 is_stmt 0
	srli	a0,a0,5
.LVL108:
	.loc 1 3603 9
	xori	a0,a0,1
	call	qcc74x_sf_cfg_init_flash2_gpio
.LVL109:
	.loc 1 3605 9 is_stmt 1
	.loc 1 3605 22 is_stmt 0
	li	s1,0
.L95:
.LVL110:
	.loc 1 3613 5 is_stmt 1
	.loc 1 3613 8 is_stmt 0
	andi	a5,s0,16
	beq	a5,zero,.L96
.LVL111:
	.loc 1 3614 22
	li	s1,1
.LVL112:
.L96:
	.loc 1 3617 5 is_stmt 1
	.loc 1 3618 5
	.loc 1 3619 5
	.loc 1 3623 5
	xori	a5,s0,2
	extu	a1,a5,1+1-1,1
	andi	a2,s0,1
	mv	a0,s1
	call	GLB_Set_SFlash_IO_PARM
.LVL113:
	.loc 1 3625 5
	mv	a0,s0
	call	qcc74x_sf_ctrl_select_pad
.LVL114:
	.loc 1 3627 5
	.loc 1 3627 8 is_stmt 0
	li	a5,3
	bgtu	s0,a5,.L97
	.loc 1 3629 9 is_stmt 1
	.loc 1 3629 12 is_stmt 0
	beq	s2,zero,.L98
	.loc 1 3630 13 is_stmt 1
	lbu	a3,7(s2)
	lbu	a2,6(s2)
	lbu	a1,5(s2)
	li	a0,0
.LVL115:
.L130:
	.loc 1 3635 13 is_stmt 0
	call	qcc74x_sf_ctrl_set_io_delay
.LVL116:
.L98:
	.loc 1 3648 5 is_stmt 1
	.loc 1 3648 8 is_stmt 0
	bne	s3,zero,.L104
.L103:
	.loc 1 3658 5 is_stmt 1
	mv	a0,s2
	mv	a1,s3
	call	qcc74x_sflash_init
.LVL117:
	.loc 1 3660 5
	.loc 1 3662 1 is_stmt 0
	lw	ra,28(sp)
	.cfi_remember_state
	.cfi_restore 1
	lw	s0,24(sp)
	.cfi_restore 8
	lw	s1,20(sp)
	.cfi_restore 9
	lw	s2,16(sp)
	.cfi_restore 18
.LVL118:
	lw	s3,12(sp)
	.cfi_restore 19
.LVL119:
	.loc 1 3660 12
	li	a0,0
	.loc 1 3662 1
	addi	sp,sp,32
	.cfi_def_cfa_offset 0
	jr	ra
.LVL120:
.L94:
	.cfi_restore_state
	.loc 1 3606 12 is_stmt 1
	.loc 1 3606 15 is_stmt 0
	andi	a5,a0,8
	beq	a5,zero,.L107
	.loc 1 3607 9 is_stmt 1
	li	a0,1
.LVL121:
	call	qcc74x_sf_cfg_init_ext_flash_gpio
.LVL122:
	.loc 1 3608 9
	j	.L95
.LVL123:
.L107:
	.loc 1 3610 22 is_stmt 0
	li	s1,1
	j	.L95
.LVL124:
.L97:
	.loc 1 3632 12 is_stmt 1
	.loc 1 3632 15 is_stmt 0
	li	a5,8
	bleu	s0,a5,.L99
	.loc 1 3632 27 discriminator 1
	li	a5,36
	bne	s0,a5,.L100
.L99:
	.loc 1 3634 9 is_stmt 1
	.loc 1 3634 12 is_stmt 0
	beq	s2,zero,.L98
	.loc 1 3635 13 is_stmt 1
	lbu	a3,7(s2)
	lbu	a2,6(s2)
	lbu	a1,5(s2)
	extu	a0,s0,2+2-1,2
	j	.L130
.L100:
	.loc 1 3637 12
	.loc 1 3637 15 is_stmt 0
	andi	a5,s0,220
	li	a4,20
	bne	a5,a4,.L98
	.loc 1 3639 9 is_stmt 1
	.loc 1 3639 12 is_stmt 0
	beq	s2,zero,.L101
	.loc 1 3640 13 is_stmt 1
	lbu	a3,7(s2)
	lbu	a2,6(s2)
	lbu	a1,5(s2)
	li	a0,0
	call	qcc74x_sf_ctrl_set_io_delay
.LVL125:
.L101:
	.loc 1 3642 9
	.loc 1 3642 12 is_stmt 0
	beq	s3,zero,.L103
	.loc 1 3643 13 is_stmt 1
	lbu	a3,7(s3)
	lbu	a2,6(s3)
	lbu	a1,5(s3)
	li	a0,1
	call	qcc74x_sf_ctrl_set_io_delay
.LVL126:
	.loc 1 3648 5
.L104:
	.loc 1 3649 9
	.loc 1 3649 12 is_stmt 0
	lbu	a5,0(s3)
	beq	a5,zero,.L103
	.loc 1 3650 13 is_stmt 1
	.loc 1 3650 16 is_stmt 0
	andi	s0,s0,220
	li	a5,20
	bne	s0,a5,.L103
	.loc 1 3652 17 is_stmt 1
	li	a0,1
	call	qcc74x_sf_ctrl_sbus2_replace
.LVL127:
	j	.L103
.LVL128:
.L106:
	.cfi_def_cfa_offset 0
	.cfi_restore 1
	.cfi_restore 8
	.cfi_restore 9
	.cfi_restore 18
	.cfi_restore 19
	.loc 1 3598 16 is_stmt 0
	li	a0,-1
.LVL129:
	.loc 1 3662 1
	ret
	.cfi_endproc
.LFE13:
	.size	qcc74x_sf_cfg_flash_init, .-qcc74x_sf_cfg_flash_init
	.section	.tcm_code../drivers/lhal/src/flash/qcc74x_sf_cfg.c3675,"ax",@progbits
	.align	1
	.weak	qcc74x_sf_cfg_sbus2_flash_init
	.type	qcc74x_sf_cfg_sbus2_flash_init, @function
qcc74x_sf_cfg_sbus2_flash_init:
.LFB14:
	.loc 1 3676 1 is_stmt 1
	.cfi_startproc
.LVL130:
	.loc 1 3680 5
	.loc 1 3680 20 is_stmt 0
	addi	a5,a0,-20
	.loc 1 3680 8
	andi	a5,a5,0xff
	li	a4,35
	bgtu	a5,a4,.L136
	.loc 1 3676 1
	addi	sp,sp,-16
	.cfi_def_cfa_offset 16
	sw	s0,8(sp)
	sw	s1,4(sp)
	sw	ra,12(sp)
	.cfi_offset 8, -8
	.cfi_offset 9, -12
	.cfi_offset 1, -4
	.loc 1 3685 8
	andi	a5,a0,4
	mv	s0,a1
	mv	s1,a0
	.loc 1 3685 5 is_stmt 1
	.loc 1 3685 8 is_stmt 0
	beq	a5,zero,.L133
	.loc 1 3686 9 is_stmt 1
	.loc 1 3686 53 is_stmt 0
	srli	a0,a0,5
.LVL131:
	.loc 1 3686 9
	xori	a0,a0,1
	call	qcc74x_sf_cfg_init_flash2_gpio
.LVL132:
.L133:
	.loc 1 3690 5 is_stmt 1
	lbu	a1,9(s0)
	lbu	a0,8(s0)
	.loc 1 3692 8 is_stmt 0
	andi	s1,s1,220
	.loc 1 3690 5
	call	qcc74x_sf_ctrl_remap_set
.LVL133:
	.loc 1 3692 5 is_stmt 1
	.loc 1 3692 8 is_stmt 0
	li	a5,20
	bne	s1,a5,.L134
	.loc 1 3694 9 is_stmt 1
	lbu	a3,7(s0)
	lbu	a2,6(s0)
	lbu	a1,5(s0)
	li	a0,1
	call	qcc74x_sf_ctrl_set_io_delay
.LVL134:
.L134:
	.loc 1 3696 5
	.loc 1 3696 8 is_stmt 0
	lbu	a5,0(s0)
	beq	a5,zero,.L135
	.loc 1 3697 9 is_stmt 1
	.loc 1 3697 12 is_stmt 0
	li	a5,20
	bne	s1,a5,.L135
	.loc 1 3699 13 is_stmt 1
	li	a0,1
	call	qcc74x_sf_ctrl_sbus2_replace
.LVL135:
.L135:
	.loc 1 3703 5
	mv	a1,s0
	li	a0,0
	call	qcc74x_sflash_init
.LVL136:
	.loc 1 3705 5
	.loc 1 3707 1 is_stmt 0
	lw	ra,12(sp)
	.cfi_restore 1
	lw	s0,8(sp)
	.cfi_restore 8
.LVL137:
	lw	s1,4(sp)
	.cfi_restore 9
	.loc 1 3705 12
	li	a0,0
	.loc 1 3707 1
	addi	sp,sp,16
	.cfi_def_cfa_offset 0
	jr	ra
.LVL138:
.L136:
	.loc 1 3681 16
	li	a0,-1
.LVL139:
	.loc 1 3707 1
	ret
	.cfi_endproc
.LFE14:
	.size	qcc74x_sf_cfg_sbus2_flash_init, .-qcc74x_sf_cfg_sbus2_flash_init
	.section	.tcm_const../drivers/lhal/src/flash/qcc74x_sf_cfg.c1066,"a"
	.align	2
	.type	flash_cfg_mxic, @object
	.size	flash_cfg_mxic, 84
flash_cfg_mxic:
	.byte	4
	.byte	1
	.byte	1
	.byte	63
	.byte	102
	.byte	-103
	.byte	-1
	.byte	3
	.byte	-97
	.byte	0
	.byte	-73
	.byte	-23
	.byte	4
	.byte	-62
	.half	256
	.byte	-57
	.byte	32
	.byte	82
	.byte	-40
	.byte	6
	.byte	2
	.byte	56
	.byte	2
	.byte	11
	.byte	1
	.byte	11
	.byte	1
	.byte	59
	.byte	1
	.byte	-69
	.byte	0
	.byte	107
	.byte	1
	.byte	-21
	.byte	2
	.byte	-21
	.byte	2
	.byte	2
	.byte	80
	.byte	0
	.byte	0
	.byte	0
	.byte	1
	.byte	6
	.byte	0
	.byte	0
	.byte	1
	.byte	2
	.byte	1
	.byte	-85
	.byte	1
	.string	"\0055"
	.zero	1
	.string	"\001\001"
	.zero	1
	.byte	56
	.byte	-1
	.byte	-91
	.byte	-1
	.byte	-64
	.byte	0
	.byte	0
	.byte	2
	.byte	-64
	.byte	0
	.byte	0
	.byte	16
	.half	300
	.half	1200
	.half	1200
	.half	5
	.half	20000
	.byte	45
	.byte	0
	.section	.tcm_const../drivers/lhal/src/flash/qcc74x_sf_cfg.c1170,"a"
	.align	2
	.type	flash_cfg_mxic_1635f, @object
	.size	flash_cfg_mxic_1635f, 84
flash_cfg_mxic_1635f:
	.byte	4
	.byte	1
	.byte	1
	.byte	63
	.byte	102
	.byte	-103
	.byte	-1
	.byte	3
	.byte	-97
	.byte	0
	.byte	-73
	.byte	-23
	.byte	4
	.byte	-62
	.half	256
	.byte	-57
	.byte	32
	.byte	82
	.byte	-40
	.byte	6
	.byte	2
	.byte	56
	.byte	2
	.byte	11
	.byte	1
	.byte	11
	.byte	1
	.byte	59
	.byte	1
	.byte	-69
	.byte	0
	.byte	107
	.byte	1
	.byte	-21
	.byte	2
	.byte	-21
	.byte	2
	.byte	2
	.byte	80
	.byte	0
	.byte	0
	.byte	0
	.byte	1
	.byte	6
	.byte	0
	.byte	0
	.byte	1
	.byte	1
	.byte	1
	.byte	-85
	.byte	1
	.string	"\0055"
	.zero	1
	.string	"\001\001"
	.zero	1
	.byte	56
	.byte	-1
	.byte	-91
	.byte	-1
	.byte	-64
	.byte	0
	.byte	0
	.byte	2
	.byte	-64
	.byte	0
	.byte	0
	.byte	16
	.half	300
	.half	1200
	.half	1200
	.half	5
	.half	-32536
	.byte	45
	.byte	0
	.section	.tcm_const../drivers/lhal/src/flash/qcc74x_sf_cfg.c1273,"a"
	.align	2
	.type	flash_cfg_mxic_25l256, @object
	.size	flash_cfg_mxic_25l256, 84
flash_cfg_mxic_25l256:
	.byte	36
	.byte	1
	.byte	1
	.byte	63
	.byte	102
	.byte	-103
	.byte	-1
	.byte	3
	.byte	-97
	.byte	0
	.byte	-73
	.byte	-23
	.byte	4
	.byte	-62
	.half	256
	.byte	-57
	.byte	32
	.byte	82
	.byte	-40
	.byte	6
	.byte	2
	.byte	56
	.byte	2
	.byte	11
	.byte	1
	.byte	11
	.byte	1
	.byte	59
	.byte	1
	.byte	-69
	.byte	0
	.byte	107
	.byte	1
	.byte	-21
	.byte	2
	.byte	-21
	.byte	2
	.byte	2
	.byte	80
	.byte	0
	.byte	0
	.byte	0
	.byte	1
	.byte	6
	.byte	0
	.byte	0
	.byte	1
	.byte	2
	.byte	1
	.byte	-85
	.byte	1
	.string	"\005\025"
	.zero	1
	.string	"\001\001"
	.zero	1
	.byte	56
	.byte	-1
	.byte	-91
	.byte	-1
	.byte	-64
	.byte	0
	.byte	0
	.byte	2
	.byte	-64
	.byte	0
	.byte	0
	.byte	16
	.half	400
	.half	1000
	.half	2000
	.half	5
	.half	-32536
	.byte	20
	.byte	0
	.section	.tcm_const../drivers/lhal/src/flash/qcc74x_sf_cfg.c135,"a"
	.align	2
	.set	.LANCHOR0,. + 0
	.type	flash_cfg_winb_16jv, @object
	.size	flash_cfg_winb_16jv, 84
flash_cfg_winb_16jv:
	.byte	4
	.byte	1
	.byte	1
	.byte	61
	.byte	102
	.byte	-103
	.byte	-1
	.byte	3
	.byte	-97
	.byte	0
	.byte	-73
	.byte	-23
	.byte	4
	.byte	-17
	.half	256
	.byte	-57
	.byte	32
	.byte	82
	.byte	-40
	.byte	6
	.byte	2
	.byte	50
	.byte	0
	.byte	11
	.byte	1
	.byte	11
	.byte	1
	.byte	59
	.byte	1
	.byte	-69
	.byte	0
	.byte	107
	.byte	1
	.byte	-21
	.byte	2
	.byte	-21
	.byte	2
	.byte	2
	.byte	80
	.byte	0
	.byte	1
	.byte	0
	.byte	1
	.byte	1
	.byte	0
	.byte	0
	.byte	1
	.byte	1
	.byte	1
	.byte	-85
	.byte	1
	.string	"\0055"
	.zero	1
	.string	"\0011"
	.zero	1
	.byte	56
	.byte	-1
	.byte	32
	.byte	-1
	.byte	119
	.byte	3
	.byte	2
	.byte	64
	.byte	119
	.byte	3
	.byte	2
	.byte	-16
	.half	300
	.half	1200
	.half	1200
	.half	5
	.half	20000
	.byte	3
	.byte	0
	.section	.tcm_const../drivers/lhal/src/flash/qcc74x_sf_cfg.c1376,"a"
	.align	2
	.type	flash_cfg_xtx, @object
	.size	flash_cfg_xtx, 84
flash_cfg_xtx:
	.byte	4
	.byte	1
	.byte	1
	.byte	63
	.byte	102
	.byte	-103
	.byte	-1
	.byte	3
	.byte	-97
	.byte	0
	.byte	-73
	.byte	-23
	.byte	4
	.byte	11
	.half	256
	.byte	-57
	.byte	32
	.byte	82
	.byte	-40
	.byte	6
	.byte	2
	.byte	50
	.byte	0
	.byte	11
	.byte	1
	.byte	11
	.byte	1
	.byte	59
	.byte	1
	.byte	-69
	.byte	0
	.byte	107
	.byte	1
	.byte	-21
	.byte	2
	.byte	-21
	.byte	2
	.byte	2
	.byte	80
	.byte	0
	.byte	1
	.byte	0
	.byte	1
	.byte	1
	.byte	0
	.byte	0
	.byte	1
	.byte	2
	.byte	1
	.byte	-85
	.byte	1
	.string	"\0055"
	.zero	1
	.string	"\001\001"
	.zero	1
	.byte	56
	.byte	-1
	.byte	32
	.byte	-1
	.byte	119
	.byte	3
	.byte	2
	.byte	64
	.byte	119
	.byte	3
	.byte	2
	.byte	-16
	.half	6000
	.half	4000
	.half	4000
	.half	5
	.half	-536
	.byte	20
	.byte	0
	.section	.tcm_const../drivers/lhal/src/flash/qcc74x_sf_cfg.c1478,"a"
	.align	2
	.type	flash_cfg_puya_q80l_q80h_q16h, @object
	.size	flash_cfg_puya_q80l_q80h_q16h, 84
flash_cfg_puya_q80l_q80h_q16h:
	.byte	4
	.byte	1
	.byte	1
	.byte	61
	.byte	102
	.byte	-103
	.byte	-1
	.byte	3
	.byte	-97
	.byte	0
	.byte	-73
	.byte	-23
	.byte	4
	.byte	-123
	.half	256
	.byte	-57
	.byte	32
	.byte	82
	.byte	-40
	.byte	6
	.byte	2
	.byte	50
	.byte	0
	.byte	11
	.byte	1
	.byte	11
	.byte	1
	.byte	59
	.byte	1
	.byte	-69
	.byte	0
	.byte	107
	.byte	1
	.byte	-21
	.byte	2
	.byte	-21
	.byte	2
	.byte	2
	.byte	80
	.byte	0
	.byte	1
	.byte	0
	.byte	1
	.byte	1
	.byte	0
	.byte	0
	.byte	1
	.byte	2
	.byte	1
	.byte	-85
	.byte	1
	.string	"\0055"
	.zero	1
	.string	"\001\001"
	.zero	1
	.byte	56
	.byte	-1
	.byte	32
	.byte	-1
	.byte	119
	.byte	3
	.byte	2
	.byte	64
	.byte	119
	.byte	3
	.byte	2
	.byte	-16
	.half	450
	.half	1200
	.half	1800
	.half	5
	.half	-536
	.byte	8
	.byte	0
	.section	.tcm_const../drivers/lhal/src/flash/qcc74x_sf_cfg.c1580,"a"
	.align	2
	.type	flash_cfg_puya_q32h, @object
	.size	flash_cfg_puya_q32h, 84
flash_cfg_puya_q32h:
	.byte	4
	.byte	1
	.byte	1
	.byte	63
	.byte	102
	.byte	-103
	.byte	-1
	.byte	3
	.byte	-97
	.byte	0
	.byte	-73
	.byte	-23
	.byte	4
	.byte	-123
	.half	256
	.byte	-57
	.byte	32
	.byte	82
	.byte	-40
	.byte	6
	.byte	2
	.byte	50
	.byte	0
	.byte	11
	.byte	1
	.byte	11
	.byte	1
	.byte	59
	.byte	1
	.byte	-69
	.byte	0
	.byte	107
	.byte	1
	.byte	-21
	.byte	2
	.byte	-21
	.byte	2
	.byte	2
	.byte	80
	.byte	0
	.byte	1
	.byte	0
	.byte	1
	.byte	1
	.byte	0
	.byte	0
	.byte	1
	.byte	1
	.byte	1
	.byte	-85
	.byte	1
	.string	"\0055"
	.zero	1
	.string	"\0011"
	.zero	1
	.byte	56
	.byte	-1
	.byte	32
	.byte	-1
	.byte	119
	.byte	3
	.byte	2
	.byte	64
	.byte	119
	.byte	3
	.byte	2
	.byte	-16
	.half	300
	.half	1200
	.half	1200
	.half	5
	.half	20000
	.byte	8
	.byte	0
	.section	.tcm_const../drivers/lhal/src/flash/qcc74x_sf_cfg.c1683,"a"
	.align	2
	.type	flash_cfg_boya40, @object
	.size	flash_cfg_boya40, 84
flash_cfg_boya40:
	.byte	1
	.byte	0
	.byte	1
	.byte	63
	.byte	102
	.byte	-103
	.byte	-1
	.byte	3
	.byte	-97
	.byte	0
	.byte	-73
	.byte	-23
	.byte	4
	.byte	104
	.half	256
	.byte	-57
	.byte	32
	.byte	82
	.byte	-40
	.byte	6
	.byte	2
	.byte	50
	.byte	0
	.byte	11
	.byte	1
	.byte	11
	.byte	1
	.byte	59
	.byte	1
	.byte	-69
	.byte	0
	.byte	107
	.byte	1
	.byte	-21
	.byte	2
	.byte	-21
	.byte	2
	.byte	2
	.byte	80
	.byte	0
	.byte	1
	.byte	0
	.byte	1
	.byte	1
	.byte	0
	.byte	0
	.byte	1
	.byte	2
	.byte	1
	.byte	-85
	.byte	1
	.string	"\0055"
	.zero	1
	.string	"\001\001"
	.zero	1
	.byte	56
	.byte	-1
	.byte	-96
	.byte	-1
	.byte	119
	.byte	3
	.byte	2
	.byte	64
	.byte	119
	.byte	3
	.byte	2
	.byte	-16
	.half	300
	.half	1200
	.half	1200
	.half	5
	.half	20000
	.byte	20
	.byte	0
	.section	.tcm_const../drivers/lhal/src/flash/qcc74x_sf_cfg.c1787,"a"
	.align	2
	.type	flash_cfg_boya, @object
	.size	flash_cfg_boya, 84
flash_cfg_boya:
	.byte	4
	.byte	1
	.byte	1
	.byte	63
	.byte	102
	.byte	-103
	.byte	-1
	.byte	3
	.byte	-97
	.byte	0
	.byte	-73
	.byte	-23
	.byte	4
	.byte	104
	.half	256
	.byte	-57
	.byte	32
	.byte	82
	.byte	-40
	.byte	6
	.byte	2
	.byte	50
	.byte	0
	.byte	11
	.byte	1
	.byte	11
	.byte	1
	.byte	59
	.byte	1
	.byte	-69
	.byte	0
	.byte	107
	.byte	1
	.byte	-21
	.byte	2
	.byte	-21
	.byte	2
	.byte	2
	.byte	80
	.byte	0
	.byte	1
	.byte	0
	.byte	1
	.byte	1
	.byte	0
	.byte	0
	.byte	1
	.byte	1
	.byte	1
	.byte	-85
	.byte	1
	.string	"\0055"
	.zero	1
	.string	"\0011"
	.zero	1
	.byte	56
	.byte	-1
	.byte	32
	.byte	-1
	.byte	119
	.byte	3
	.byte	2
	.byte	64
	.byte	119
	.byte	3
	.byte	2
	.byte	-16
	.half	300
	.half	1200
	.half	1200
	.half	5
	.half	-32536
	.byte	20
	.byte	0
	.section	.tcm_const../drivers/lhal/src/flash/qcc74x_sf_cfg.c1890,"a"
	.align	2
	.type	flash_cfg_mx_kh25, @object
	.size	flash_cfg_mx_kh25, 84
flash_cfg_mx_kh25:
	.byte	17
	.byte	0
	.byte	1
	.byte	63
	.byte	102
	.byte	-103
	.byte	-1
	.byte	3
	.byte	-97
	.byte	0
	.byte	-73
	.byte	-23
	.byte	4
	.byte	-62
	.half	256
	.byte	-57
	.byte	32
	.byte	82
	.byte	-40
	.byte	6
	.byte	2
	.byte	50
	.byte	0
	.byte	11
	.byte	1
	.byte	11
	.byte	1
	.byte	59
	.byte	1
	.byte	-69
	.byte	0
	.byte	107
	.byte	1
	.byte	-21
	.byte	2
	.byte	-21
	.byte	2
	.byte	2
	.byte	80
	.byte	0
	.byte	1
	.byte	0
	.byte	1
	.byte	1
	.byte	0
	.byte	0
	.byte	1
	.byte	1
	.byte	1
	.byte	-85
	.byte	1
	.string	"\005"
	.string	""
	.zero	1
	.string	"\001"
	.string	""
	.zero	1
	.byte	56
	.byte	-1
	.byte	32
	.byte	-1
	.byte	119
	.byte	3
	.byte	2
	.byte	64
	.byte	119
	.byte	3
	.byte	2
	.byte	-16
	.half	300
	.half	1200
	.half	1200
	.half	5
	.half	20000
	.byte	20
	.byte	0
	.section	.tcm_const../drivers/lhal/src/flash/qcc74x_sf_cfg.c1994,"a"
	.align	2
	.type	flash_cfg_winb_256fv, @object
	.size	flash_cfg_winb_256fv, 84
flash_cfg_winb_256fv:
	.byte	36
	.byte	1
	.byte	1
	.byte	63
	.byte	102
	.byte	-103
	.byte	-1
	.byte	3
	.byte	-97
	.byte	0
	.byte	-73
	.byte	-23
	.byte	4
	.byte	-17
	.half	256
	.byte	-57
	.byte	32
	.byte	82
	.byte	-40
	.byte	6
	.byte	2
	.byte	50
	.byte	0
	.byte	11
	.byte	1
	.byte	11
	.byte	1
	.byte	59
	.byte	1
	.byte	-69
	.byte	0
	.byte	107
	.byte	1
	.byte	-21
	.byte	2
	.byte	-21
	.byte	2
	.byte	2
	.byte	80
	.byte	0
	.byte	1
	.byte	0
	.byte	1
	.byte	1
	.byte	0
	.byte	0
	.byte	1
	.byte	1
	.byte	1
	.byte	-85
	.byte	1
	.string	"\0055"
	.zero	1
	.string	"\0011"
	.zero	1
	.byte	56
	.byte	-1
	.byte	-96
	.byte	-1
	.byte	119
	.byte	3
	.byte	2
	.byte	64
	.byte	119
	.byte	3
	.byte	2
	.byte	-16
	.half	400
	.half	1600
	.half	2000
	.half	5
	.half	-32536
	.byte	3
	.byte	0
	.section	.tcm_const../drivers/lhal/src/flash/qcc74x_sf_cfg.c2098,"a"
	.align	2
	.type	flashcfg_xtx_q80b_f16b, @object
	.size	flashcfg_xtx_q80b_f16b, 84
flashcfg_xtx_q80b_f16b:
	.byte	20
	.byte	1
	.byte	1
	.byte	1
	.byte	102
	.byte	-103
	.byte	-1
	.byte	3
	.byte	-97
	.byte	0
	.byte	-73
	.byte	-23
	.byte	4
	.byte	-123
	.half	256
	.byte	-57
	.byte	32
	.byte	82
	.byte	-40
	.byte	6
	.byte	2
	.byte	50
	.byte	0
	.byte	11
	.byte	1
	.byte	11
	.byte	1
	.byte	59
	.byte	1
	.byte	-69
	.byte	0
	.byte	107
	.byte	1
	.byte	-21
	.byte	2
	.byte	-21
	.byte	2
	.byte	2
	.byte	80
	.byte	0
	.byte	1
	.byte	0
	.byte	1
	.byte	1
	.byte	0
	.byte	0
	.byte	1
	.byte	2
	.byte	1
	.byte	-85
	.byte	1
	.string	"\0055"
	.zero	1
	.string	"\001\001"
	.zero	1
	.byte	56
	.byte	-1
	.byte	-96
	.byte	-1
	.byte	119
	.byte	3
	.byte	2
	.byte	64
	.byte	119
	.byte	3
	.byte	2
	.byte	-16
	.half	300
	.half	1200
	.half	1200
	.half	5
	.half	-32536
	.byte	20
	.byte	0
	.section	.tcm_const../drivers/lhal/src/flash/qcc74x_sf_cfg.c2201,"a"
	.align	2
	.set	.LANCHOR1,. + 0
	.type	flash_infos, @object
	.size	flash_infos, 1224
flash_infos:
	.word	1261649
	.zero	4
	.word	flash_cfg_gd_md_40d
	.word	1253570
	.zero	4
	.word	flash_cfg_mx_kh25
	.word	1261579
	.zero	4
	.word	flash_cfg_xtx
	.word	1261672
	.zero	4
	.word	flash_cfg_boya40
	.word	1258078
	.zero	4
	.word	flash_cfg_mx_kh25
	.word	1269854
	.zero	4
	.word	flash_cfg_winb_80ew_16fw_32jw_32fw_32fv
	.word	1327343
	.zero	4
	.word	flash_cfg_winb_80dv
	.word	1335535
	.zero	4
	.word	flash_cfg_winb_80ew_16fw_32jw_32fw_32fv
	.word	1327304
	.zero	4
	.word	flash_cfg_gd_q80e_q16e
	.word	1335496
	.zero	4
	.word	flash_cfg_gd_lq08c_le16c_lq32d_wq32e
	.word	1336776
	.zero	4
	.word	flash_cfg_gd_wq80e_wq16e
	.word	1319106
	.zero	4
	.word	flash_cfg_mx_kh25
	.word	1335307
	.zero	4
	.word	flashcfg_xtx_q80b_f16b
	.word	1327208
	.zero	4
	.word	flash_cfg_boya
	.word	1323614
	.zero	4
	.word	flash_cfg_mx_kh25
	.word	1335390
	.zero	4
	.word	flash_cfg_winb_80ew_16fw_32jw_32fw_32fv
	.word	1327136
	.zero	4
	.word	flash_cfg_winb_16jv
	.word	1327265
	.zero	4
	.word	flash_cfg_gd_q80e_q16e
	.word	1335429
	.zero	4
	.word	flash_cfg_puya_q80l_q80h_q16h
	.word	1335453
	.zero	4
	.word	flash_cfg_issi
	.word	1339549
	.zero	4
	.word	flash_cfg_issi
	.word	1335501
	.zero	4
	.word	flash_cfg_gd_lq08c_le16c_lq32d_wq32e
	.word	1319045
	.zero	4
	.word	flash_cfg_puya_q80l_q80h_q16h
	.word	1392879
	.zero	4
	.word	flash_cfg_puya_q80l_q80h_q16h
	.word	1405167
	.zero	4
	.word	flash_cfg_winb_16jv
	.word	1401071
	.zero	4
	.word	flash_cfg_winb_80ew_16fw_32jw_32fw_32fv
	.word	1392840
	.zero	4
	.word	flash_cfg_gd_q80e_q16e
	.word	1401032
	.zero	4
	.word	flash_cfg_gd_lq08c_le16c_lq32d_wq32e
	.word	1402312
	.zero	4
	.word	flash_cfg_gd_wq80e_wq16e
	.word	1384642
	.zero	4
	.word	flash_cfg_mx_kh25
	.word	1392651
	.zero	4
	.word	flashcfg_xtx_q80b_f16b
	.word	1402123
	.zero	4
	.word	flash_cfg_winb_16jv
	.word	1392744
	.zero	4
	.word	flash_cfg_boya
	.word	1389662
	.zero	4
	.word	flash_cfg_gd_q32e_q128e
	.word	1400926
	.zero	4
	.word	flash_cfg_gd_q32e_q128e
	.word	1392734
	.zero	4
	.word	flash_cfg_gd_q32e_q128e
	.word	1392672
	.zero	4
	.word	flash_cfg_winb_16jv
	.word	1392801
	.zero	4
	.word	flash_cfg_winb_80ew_16fw_32jw_32fw_32fv
	.word	1400965
	.zero	4
	.word	flash_cfg_puya_q80l_q80h_q16h
	.word	1384581
	.zero	4
	.word	flash_cfg_puya_q80l_q80h_q16h
	.word	1400989
	.zero	4
	.word	flash_cfg_issi
	.word	1405085
	.zero	4
	.word	flash_cfg_issi
	.word	1401067
	.zero	4
	.word	flash_cfg_gd_q80e_q16e
	.word	1401018
	.zero	4
	.word	flashcfg_xtx_q80b_f16b
	.word	1401028
	.zero	4
	.word	flash_cfg_winb_16jv
	.word	1450117
	.zero	4
	.word	flash_cfg_puya_q80l_q80h_q16h
	.word	1458415
	.zero	4
	.word	flash_cfg_winb_80ew_16fw_32jw_32fw_32fv
	.word	1466607
	.zero	4
	.word	flash_cfg_winb_80ew_16fw_32jw_32fw_32fv
	.word	1474799
	.zero	4
	.word	flash_cfg_winb_80ew_16fw_32jw_32fw_32fv
	.word	1458376
	.zero	4
	.word	flash_cfg_gd_q32e_q128e
	.word	1466568
	.zero	4
	.word	flash_cfg_gd_lq08c_le16c_lq32d_wq32e
	.word	1467848
	.zero	4
	.word	flash_cfg_gd_lq08c_le16c_lq32d_wq32e
	.word	1458187
	.zero	4
	.word	flash_cfg_xtx
	.word	1466379
	.zero	4
	.word	flash_cfg_xtx
	.word	1458280
	.zero	4
	.word	flash_cfg_boya
	.word	1458270
	.zero	4
	.word	flash_cfg_gd_q32e_q128e
	.word	1458208
	.zero	4
	.word	flash_cfg_winb_16jv
	.word	1462304
	.zero	4
	.word	flash_cfg_winb_16jv
	.word	1458337
	.zero	4
	.word	flash_cfg_gd_q80e_q16e
	.word	1466501
	.zero	4
	.word	flash_cfg_puya_q32h
	.word	1466525
	.zero	4
	.word	flash_cfg_issi
	.word	1470621
	.zero	4
	.word	flash_cfg_issi
	.word	1466564
	.zero	4
	.word	flash_cfg_winb_16jv
	.word	1466661
	.zero	4
	.word	flash_cfg_puya_q80l_q80h_q16h
	.word	1335492
	.zero	4
	.word	flash_cfg_winb_16jv
	.word	1532037
	.zero	4
	.word	flash_cfg_puya_q32h
	.word	1523951
	.zero	4
	.word	flash_cfg_winb_128jw_128jv
	.word	1523873
	.zero	4
	.word	flash_cfg_winb_80ew_16fw_32jw_32fw_32fv
	.word	1515653
	.zero	4
	.word	flash_cfg_puya_q80l_q80h_q16h
	.word	1532143
	.zero	4
	.word	flash_cfg_winb_128jw_128jv
	.word	1523912
	.zero	4
	.word	flash_cfg_gd_q32e_q128e
	.word	1532104
	.zero	4
	.word	flash_cfg_gd_lq08c_le16c_lq32d_wq32e
	.word	1523723
	.zero	4
	.word	flash_cfg_xtx
	.word	1523816
	.zero	4
	.word	flash_cfg_boya
	.word	1523806
	.zero	4
	.word	flash_cfg_gd_q32e_q128e
	.word	1523744
	.zero	4
	.word	flash_cfg_winb_16jv
	.word	1524256
	.zero	4
	.word	flash_cfg_winb_16jv
	.word	1532100
	.zero	4
	.word	flash_cfg_winb_16jv
	.word	1589409
	.zero	4
	.word	flash_cfg_winb_80ew_16fw_32jw_32fw_32fv
	.word	1581189
	.zero	4
	.word	flash_cfg_puya_q80l_q80h_q16h
	.word	1589487
	.zero	4
	.word	flash_cfg_winb_128jw_128jv
	.word	1601775
	.zero	4
	.word	flash_cfg_winb_128jw_128jv
	.word	1597679
	.zero	4
	.word	flash_cfg_winb_128jw_128jv
	.word	1605871
	.zero	4
	.word	flash_cfg_winb_128jw_128jv
	.word	1589448
	.zero	4
	.word	flash_cfg_gd_q32e_q128e
	.word	1597640
	.zero	4
	.word	flash_cfg_gd_lq08c_le16c_lq32d_wq32e
	.word	1598920
	.zero	4
	.word	flash_cfg_gd_q32e_q128e
	.word	1581250
	.zero	4
	.word	flash_cfg_mxic_1635f
	.word	1589259
	.zero	4
	.word	flash_cfg_xtx
	.word	1589352
	.zero	4
	.word	flash_cfg_boya
	.word	1589280
	.zero	4
	.word	flash_cfg_gd_q32e_q128e
	.word	1589342
	.zero	4
	.word	flash_cfg_gd_q32e_q128e
	.word	1583265
	.zero	4
	.word	flash_cfg_winb_16jv
	.word	1597573
	.zero	4
	.word	flash_cfg_puya_q32h
	.word	1655023
	.zero	4
	.word	flash_cfg_winb_256fv
	.word	1646725
	.zero	4
	.word	flash_cfg_puya_q80l_q80h_q16h
	.word	1646786
	.zero	4
	.word	flash_cfg_mxic_25l256
	.word	3417538
	.zero	4
	.word	flash_cfg_mxic
	.word	3483074
	.zero	4
	.word	flash_cfg_mxic_1635f
	.word	3548610
	.zero	4
	.word	flash_cfg_mxic
	.word	3745218
	.zero	4
	.word	flash_cfg_mxic_25l256
	.word	1533384
	.zero	4
	.word	flash_cfg_gd_q32e_q128e
	.section	.tcm_const../drivers/lhal/src/flash/qcc74x_sf_cfg.c238,"a"
	.align	2
	.type	flash_cfg_winb_80ew_16fw_32jw_32fw_32fv, @object
	.size	flash_cfg_winb_80ew_16fw_32jw_32fw_32fv, 84
flash_cfg_winb_80ew_16fw_32jw_32fw_32fv:
	.byte	4
	.byte	1
	.byte	1
	.byte	63
	.byte	102
	.byte	-103
	.byte	-1
	.byte	3
	.byte	-97
	.byte	0
	.byte	-73
	.byte	-23
	.byte	4
	.byte	-17
	.half	256
	.byte	-57
	.byte	32
	.byte	82
	.byte	-40
	.byte	6
	.byte	2
	.byte	50
	.byte	0
	.byte	11
	.byte	1
	.byte	11
	.byte	1
	.byte	59
	.byte	1
	.byte	-69
	.byte	0
	.byte	107
	.byte	1
	.byte	-21
	.byte	2
	.byte	-21
	.byte	2
	.byte	2
	.byte	80
	.byte	0
	.byte	1
	.byte	0
	.byte	1
	.byte	1
	.byte	0
	.byte	0
	.byte	1
	.byte	1
	.byte	1
	.byte	-85
	.byte	1
	.string	"\0055"
	.zero	1
	.string	"\0011"
	.zero	1
	.byte	56
	.byte	-1
	.byte	-96
	.byte	-1
	.byte	119
	.byte	3
	.byte	2
	.byte	64
	.byte	119
	.byte	3
	.byte	2
	.byte	-16
	.half	400
	.half	1600
	.half	2000
	.half	5
	.half	20000
	.byte	3
	.byte	0
	.section	.tcm_const../drivers/lhal/src/flash/qcc74x_sf_cfg.c31,"a"
	.align	2
	.type	flash_cfg_winb_80dv, @object
	.size	flash_cfg_winb_80dv, 84
flash_cfg_winb_80dv:
	.byte	4
	.byte	0
	.byte	1
	.byte	61
	.byte	102
	.byte	-103
	.byte	-1
	.byte	3
	.byte	-97
	.byte	0
	.byte	-73
	.byte	-23
	.byte	4
	.byte	-17
	.half	256
	.byte	-57
	.byte	32
	.byte	82
	.byte	-40
	.byte	6
	.byte	2
	.byte	50
	.byte	0
	.byte	11
	.byte	1
	.byte	11
	.byte	1
	.byte	59
	.byte	1
	.byte	-69
	.byte	0
	.byte	107
	.byte	1
	.byte	-21
	.byte	2
	.byte	-21
	.byte	2
	.byte	2
	.byte	80
	.byte	0
	.byte	1
	.byte	0
	.byte	1
	.byte	1
	.byte	0
	.byte	0
	.byte	1
	.byte	2
	.byte	1
	.byte	-85
	.byte	1
	.string	"\0055"
	.zero	1
	.string	"\001\001"
	.zero	1
	.byte	56
	.byte	-1
	.byte	-1
	.byte	-1
	.byte	119
	.byte	3
	.byte	2
	.byte	64
	.byte	119
	.byte	3
	.byte	2
	.byte	-16
	.half	300
	.half	1200
	.half	1200
	.half	5
	.half	20000
	.byte	3
	.byte	0
	.section	.tcm_const../drivers/lhal/src/flash/qcc74x_sf_cfg.c341,"a"
	.align	2
	.type	flash_cfg_winb_128jw_128jv, @object
	.size	flash_cfg_winb_128jw_128jv, 84
flash_cfg_winb_128jw_128jv:
	.byte	4
	.byte	0
	.byte	1
	.byte	63
	.byte	102
	.byte	-103
	.byte	-1
	.byte	3
	.byte	-97
	.byte	0
	.byte	-73
	.byte	-23
	.byte	4
	.byte	-17
	.half	256
	.byte	-57
	.byte	32
	.byte	82
	.byte	-40
	.byte	6
	.byte	2
	.byte	50
	.byte	0
	.byte	11
	.byte	1
	.byte	11
	.byte	1
	.byte	59
	.byte	1
	.byte	-69
	.byte	0
	.byte	107
	.byte	1
	.byte	-21
	.byte	2
	.byte	-21
	.byte	2
	.byte	2
	.byte	80
	.byte	0
	.byte	1
	.byte	0
	.byte	1
	.byte	1
	.byte	0
	.byte	0
	.byte	1
	.byte	1
	.byte	1
	.byte	-85
	.byte	1
	.string	"\0055"
	.zero	1
	.string	"\0011"
	.zero	1
	.byte	56
	.byte	-1
	.byte	-1
	.byte	-1
	.byte	119
	.byte	3
	.byte	2
	.byte	64
	.byte	119
	.byte	3
	.byte	2
	.byte	-16
	.half	400
	.half	1600
	.half	2000
	.half	5
	.half	-32536
	.byte	3
	.byte	0
	.section	.tcm_const../drivers/lhal/src/flash/qcc74x_sf_cfg.c444,"a"
	.align	2
	.type	flash_cfg_issi, @object
	.size	flash_cfg_issi, 84
flash_cfg_issi:
	.byte	4
	.byte	1
	.byte	1
	.byte	63
	.byte	102
	.byte	-103
	.byte	-1
	.byte	3
	.byte	-97
	.byte	0
	.byte	-73
	.byte	-23
	.byte	4
	.byte	-99
	.half	256
	.byte	-57
	.byte	32
	.byte	82
	.byte	-40
	.byte	6
	.byte	2
	.byte	50
	.byte	0
	.byte	11
	.byte	1
	.byte	11
	.byte	1
	.byte	59
	.byte	1
	.byte	-69
	.byte	0
	.byte	107
	.byte	1
	.byte	-21
	.byte	2
	.byte	-21
	.byte	2
	.byte	2
	.byte	80
	.byte	0
	.byte	0
	.byte	0
	.byte	1
	.byte	6
	.byte	0
	.byte	0
	.byte	1
	.byte	1
	.byte	1
	.byte	-85
	.byte	1
	.string	"\0055"
	.zero	1
	.string	"\0011"
	.zero	1
	.byte	56
	.byte	-1
	.byte	-96
	.byte	-1
	.byte	-64
	.byte	0
	.byte	0
	.byte	6
	.byte	-64
	.byte	0
	.byte	0
	.byte	0
	.half	300
	.half	1200
	.half	1200
	.half	5
	.half	20000
	.byte	5
	.byte	0
	.section	.tcm_const../drivers/lhal/src/flash/qcc74x_sf_cfg.c548,"a"
	.align	2
	.type	flash_cfg_gd_md_40d, @object
	.size	flash_cfg_gd_md_40d, 84
flash_cfg_gd_md_40d:
	.byte	1
	.byte	0
	.byte	1
	.byte	63
	.byte	102
	.byte	-103
	.byte	-1
	.byte	3
	.byte	-97
	.byte	0
	.byte	-73
	.byte	-23
	.byte	4
	.byte	81
	.half	256
	.byte	-57
	.byte	32
	.byte	82
	.byte	-40
	.byte	6
	.byte	2
	.byte	50
	.byte	0
	.byte	11
	.byte	1
	.byte	11
	.byte	1
	.byte	59
	.byte	1
	.byte	-69
	.byte	0
	.byte	107
	.byte	1
	.byte	-21
	.byte	2
	.byte	-21
	.byte	2
	.byte	2
	.byte	80
	.byte	0
	.byte	1
	.byte	0
	.byte	1
	.byte	1
	.byte	0
	.byte	0
	.byte	1
	.byte	2
	.byte	1
	.byte	-85
	.byte	1
	.string	"\0055"
	.zero	1
	.string	"\001\001"
	.zero	1
	.byte	56
	.byte	-1
	.byte	-96
	.byte	-1
	.byte	119
	.byte	3
	.byte	2
	.byte	64
	.byte	119
	.byte	3
	.byte	2
	.byte	-16
	.half	300
	.half	1200
	.half	1200
	.half	5
	.half	20000
	.byte	20
	.byte	0
	.section	.tcm_const../drivers/lhal/src/flash/qcc74x_sf_cfg.c652,"a"
	.align	2
	.type	flash_cfg_gd_lq08c_le16c_lq32d_wq32e, @object
	.size	flash_cfg_gd_lq08c_le16c_lq32d_wq32e, 84
flash_cfg_gd_lq08c_le16c_lq32d_wq32e:
	.byte	4
	.byte	1
	.byte	1
	.byte	63
	.byte	102
	.byte	-103
	.byte	-1
	.byte	3
	.byte	-97
	.byte	0
	.byte	-73
	.byte	-23
	.byte	4
	.byte	-56
	.half	256
	.byte	-57
	.byte	32
	.byte	82
	.byte	-40
	.byte	6
	.byte	2
	.byte	50
	.byte	0
	.byte	11
	.byte	1
	.byte	11
	.byte	1
	.byte	59
	.byte	1
	.byte	-69
	.byte	0
	.byte	107
	.byte	1
	.byte	-21
	.byte	2
	.byte	-21
	.byte	2
	.byte	2
	.byte	80
	.byte	0
	.byte	1
	.byte	0
	.byte	1
	.byte	1
	.byte	0
	.byte	0
	.byte	1
	.byte	2
	.byte	1
	.byte	-85
	.byte	1
	.string	"\0055"
	.zero	1
	.string	"\001\001"
	.zero	1
	.byte	56
	.byte	-1
	.byte	32
	.byte	-1
	.byte	119
	.byte	3
	.byte	2
	.byte	64
	.byte	119
	.byte	3
	.byte	2
	.byte	-16
	.half	300
	.half	1200
	.half	1200
	.half	5
	.half	20000
	.byte	20
	.byte	0
	.section	.tcm_const../drivers/lhal/src/flash/qcc74x_sf_cfg.c755,"a"
	.align	2
	.type	flash_cfg_gd_q80e_q16e, @object
	.size	flash_cfg_gd_q80e_q16e, 84
flash_cfg_gd_q80e_q16e:
	.byte	4
	.byte	1
	.byte	1
	.byte	63
	.byte	102
	.byte	-103
	.byte	-1
	.byte	3
	.byte	-97
	.byte	0
	.byte	-73
	.byte	-23
	.byte	4
	.byte	-56
	.half	256
	.byte	-57
	.byte	32
	.byte	82
	.byte	-40
	.byte	6
	.byte	2
	.byte	50
	.byte	0
	.byte	11
	.byte	1
	.byte	11
	.byte	1
	.byte	59
	.byte	1
	.byte	-69
	.byte	0
	.byte	107
	.byte	1
	.byte	-21
	.byte	2
	.byte	-21
	.byte	2
	.byte	2
	.byte	80
	.byte	0
	.byte	1
	.byte	0
	.byte	1
	.byte	1
	.byte	0
	.byte	0
	.byte	1
	.byte	2
	.byte	1
	.byte	-85
	.byte	1
	.string	"\0055"
	.zero	1
	.string	"\001\001"
	.zero	1
	.byte	56
	.byte	-1
	.byte	-96
	.byte	-1
	.byte	119
	.byte	3
	.byte	2
	.byte	64
	.byte	119
	.byte	3
	.byte	2
	.byte	-16
	.half	300
	.half	1200
	.half	1200
	.half	5
	.half	20000
	.byte	20
	.byte	0
	.section	.tcm_const../drivers/lhal/src/flash/qcc74x_sf_cfg.c859,"a"
	.align	2
	.type	flash_cfg_gd_wq80e_wq16e, @object
	.size	flash_cfg_gd_wq80e_wq16e, 84
flash_cfg_gd_wq80e_wq16e:
	.byte	4
	.byte	1
	.byte	1
	.byte	63
	.byte	102
	.byte	-103
	.byte	-1
	.byte	3
	.byte	-97
	.byte	0
	.byte	-73
	.byte	-23
	.byte	4
	.byte	-56
	.half	256
	.byte	-57
	.byte	32
	.byte	82
	.byte	-40
	.byte	6
	.byte	2
	.byte	50
	.byte	0
	.byte	11
	.byte	1
	.byte	11
	.byte	1
	.byte	59
	.byte	1
	.byte	-69
	.byte	1
	.byte	107
	.byte	1
	.byte	-21
	.byte	4
	.byte	-21
	.byte	2
	.byte	2
	.byte	80
	.byte	0
	.byte	1
	.byte	0
	.byte	1
	.byte	1
	.byte	0
	.byte	0
	.byte	1
	.byte	2
	.byte	1
	.byte	-85
	.byte	1
	.string	"\0055"
	.zero	1
	.string	"\001\001"
	.zero	1
	.byte	56
	.byte	-1
	.byte	-96
	.byte	-1
	.byte	119
	.byte	3
	.byte	2
	.byte	64
	.byte	119
	.byte	3
	.byte	2
	.byte	-16
	.half	300
	.half	1200
	.half	1200
	.half	5
	.half	20000
	.byte	20
	.byte	18
	.section	.tcm_const../drivers/lhal/src/flash/qcc74x_sf_cfg.c963,"a"
	.align	2
	.type	flash_cfg_gd_q32e_q128e, @object
	.size	flash_cfg_gd_q32e_q128e, 84
flash_cfg_gd_q32e_q128e:
	.byte	4
	.byte	1
	.byte	1
	.byte	63
	.byte	102
	.byte	-103
	.byte	-1
	.byte	3
	.byte	-97
	.byte	0
	.byte	-73
	.byte	-23
	.byte	4
	.byte	-56
	.half	256
	.byte	-57
	.byte	32
	.byte	82
	.byte	-40
	.byte	6
	.byte	2
	.byte	50
	.byte	0
	.byte	11
	.byte	1
	.byte	11
	.byte	1
	.byte	59
	.byte	1
	.byte	-69
	.byte	0
	.byte	107
	.byte	1
	.byte	-21
	.byte	2
	.byte	-21
	.byte	2
	.byte	2
	.byte	80
	.byte	0
	.byte	1
	.byte	0
	.byte	1
	.byte	1
	.byte	0
	.byte	0
	.byte	1
	.byte	1
	.byte	1
	.byte	-85
	.byte	1
	.string	"\0055"
	.zero	1
	.string	"\0011"
	.zero	1
	.byte	56
	.byte	-1
	.byte	32
	.byte	-1
	.byte	119
	.byte	3
	.byte	2
	.byte	64
	.byte	119
	.byte	3
	.byte	2
	.byte	-16
	.half	300
	.half	1200
	.half	1200
	.half	5
	.half	-32536
	.byte	20
	.byte	0
	.text
.Letext0:
	.file 2 "./toolchain/linux_x86_64/riscv64-unknown-elf/include/machine/_default_types.h"
	.file 3 "./toolchain/linux_x86_64/riscv64-unknown-elf/include/sys/_stdint.h"
	.file 4 "./drivers/lhal/include/qcc74x_core.h"
	.file 5 "./drivers/lhal/src/flash/qcc74x_sf_ctrl.h"
	.file 6 "./drivers/lhal/src/flash/qcc74x_sflash.h"
	.file 7 "./drivers/lhal/include/qcc74x_common.h"
	.file 8 "./drivers/lhal/src/flash/qcc74x_xip_sflash.h"
	.file 9 "./drivers/lhal/include/qcc74x_gpio.h"