	.file	"qcc743_romapi_e907.c"
	.option nopic
	.attribute arch, "rv32i2p0_m2p0_a2p0_f2p0_c2p0_p0p9_zpn0p9_zpsfoperand0p9_xtheade2p0"
	.attribute unaligned_access, 0
	.attribute stack_align, 16
	.text
.Ltext0:
	.cfi_sections	.debug_frame
	.section	.tcm_code../drivers/soc/qcc743/std/src/qcc743_romapi_e907.c3,"ax",@progbits
	.align	1
	.globl	AON_Power_Off_BG
	.type	AON_Power_Off_BG, @function
AON_Power_Off_BG:
.LFB242:
	.file 1 "./drivers/soc/qcc743/std/src/qcc743_romapi_e907.c"
	.loc 1 4 39
	.cfi_startproc
	.loc 1 5 5
	.loc 1 5 65 is_stmt 0
	li	a5,-1878958080
	.loc 1 5 13
	lw	a5,-2032(a5)
	jr	a5
.LVL0:
	.cfi_endproc
.LFE242:
	.size	AON_Power_Off_BG, .-AON_Power_Off_BG
	.section	.tcm_code../drivers/soc/qcc743/std/src/qcc743_romapi_e907.c8,"ax",@progbits
	.align	1
	.globl	AON_Power_Off_LDO15_RF
	.type	AON_Power_Off_LDO15_RF, @function
AON_Power_Off_LDO15_RF:
.LFB243:
	.loc 1 9 45 is_stmt 1
	.cfi_startproc
	.loc 1 10 5
	.loc 1 10 65 is_stmt 0
	li	a5,-1878958080
	.loc 1 10 13
	lw	a5,-2028(a5)
	jr	a5
.LVL1:
	.cfi_endproc
.LFE243:
	.size	AON_Power_Off_LDO15_RF, .-AON_Power_Off_LDO15_RF
	.section	.tcm_code../drivers/soc/qcc743/std/src/qcc743_romapi_e907.c13,"ax",@progbits
	.align	1
	.globl	AON_Power_Off_MBG
	.type	AON_Power_Off_MBG, @function
AON_Power_Off_MBG:
.LFB244:
	.loc 1 14 40 is_stmt 1
	.cfi_startproc
	.loc 1 15 5
	.loc 1 15 65 is_stmt 0
	li	a5,-1878958080
	.loc 1 15 13
	lw	a5,-2024(a5)
	jr	a5
.LVL2:
	.cfi_endproc
.LFE244:
	.size	AON_Power_Off_MBG, .-AON_Power_Off_MBG
	.section	.tcm_code../drivers/soc/qcc743/std/src/qcc743_romapi_e907.c18,"ax",@progbits
	.align	1
	.globl	AON_Power_Off_SFReg
	.type	AON_Power_Off_SFReg, @function
AON_Power_Off_SFReg:
.LFB245:
	.loc 1 19 42 is_stmt 1
	.cfi_startproc
	.loc 1 20 5
	.loc 1 20 65 is_stmt 0
	li	a5,-1878958080
	.loc 1 20 13
	lw	a5,-2020(a5)
	jr	a5
.LVL3:
	.cfi_endproc
.LFE245:
	.size	AON_Power_Off_SFReg, .-AON_Power_Off_SFReg
	.section	.tcm_code../drivers/soc/qcc743/std/src/qcc743_romapi_e907.c23,"ax",@progbits
	.align	1
	.globl	AON_Power_Off_XTAL
	.type	AON_Power_Off_XTAL, @function
AON_Power_Off_XTAL:
.LFB246:
	.loc 1 24 41 is_stmt 1
	.cfi_startproc
	.loc 1 25 5
	.loc 1 25 65 is_stmt 0
	li	a5,-1878958080
	.loc 1 25 13
	lw	a5,-2016(a5)
	jr	a5
.LVL4:
	.cfi_endproc
.LFE246:
	.size	AON_Power_Off_XTAL, .-AON_Power_Off_XTAL
	.section	.tcm_code../drivers/soc/qcc743/std/src/qcc743_romapi_e907.c28,"ax",@progbits
	.align	1
	.globl	AON_Power_On_BG
	.type	AON_Power_On_BG, @function
AON_Power_On_BG:
.LFB247:
	.loc 1 29 38 is_stmt 1
	.cfi_startproc
	.loc 1 30 5
	.loc 1 30 65 is_stmt 0
	li	a5,-1878958080
	.loc 1 30 13
	lw	a5,-2012(a5)
	jr	a5
.LVL5:
	.cfi_endproc
.LFE247:
	.size	AON_Power_On_BG, .-AON_Power_On_BG
	.section	.tcm_code../drivers/soc/qcc743/std/src/qcc743_romapi_e907.c33,"ax",@progbits
	.align	1
	.globl	AON_Power_On_LDO15_RF
	.type	AON_Power_On_LDO15_RF, @function
AON_Power_On_LDO15_RF:
.LFB248:
	.loc 1 34 44 is_stmt 1
	.cfi_startproc
	.loc 1 35 5
	.loc 1 35 65 is_stmt 0
	li	a5,-1878958080
	.loc 1 35 13
	lw	a5,-2008(a5)
	jr	a5
.LVL6:
	.cfi_endproc
.LFE248:
	.size	AON_Power_On_LDO15_RF, .-AON_Power_On_LDO15_RF
	.section	.tcm_code../drivers/soc/qcc743/std/src/qcc743_romapi_e907.c38,"ax",@progbits
	.align	1
	.globl	AON_Power_On_MBG
	.type	AON_Power_On_MBG, @function
AON_Power_On_MBG:
.LFB249:
	.loc 1 39 39 is_stmt 1
	.cfi_startproc
	.loc 1 40 5
	.loc 1 40 65 is_stmt 0
	li	a5,-1878958080
	.loc 1 40 13
	lw	a5,-2004(a5)
	jr	a5
.LVL7:
	.cfi_endproc
.LFE249:
	.size	AON_Power_On_MBG, .-AON_Power_On_MBG
	.section	.tcm_code../drivers/soc/qcc743/std/src/qcc743_romapi_e907.c43,"ax",@progbits
	.align	1
	.globl	AON_Power_On_SFReg
	.type	AON_Power_On_SFReg, @function
AON_Power_On_SFReg:
.LFB250:
	.loc 1 44 41 is_stmt 1
	.cfi_startproc
	.loc 1 45 5
	.loc 1 45 65 is_stmt 0
	li	a5,-1878958080
	.loc 1 45 13
	lw	a5,-2000(a5)
	jr	a5
.LVL8:
	.cfi_endproc
.LFE250:
	.size	AON_Power_On_SFReg, .-AON_Power_On_SFReg
	.section	.tcm_code../drivers/soc/qcc743/std/src/qcc743_romapi_e907.c48,"ax",@progbits
	.align	1
	.globl	AON_Power_On_XTAL
	.type	AON_Power_On_XTAL, @function
AON_Power_On_XTAL:
.LFB251:
	.loc 1 49 40 is_stmt 1
	.cfi_startproc
	.loc 1 50 5
	.loc 1 50 65 is_stmt 0
	li	a5,-1878958080
	.loc 1 50 13
	lw	a5,-1996(a5)
	jr	a5
.LVL9:
	.cfi_endproc
.LFE251:
	.size	AON_Power_On_XTAL, .-AON_Power_On_XTAL
	.section	.tcm_code../drivers/soc/qcc743/std/src/qcc743_romapi_e907.c53,"ax",@progbits
	.align	1
	.globl	AON_Set_Xtal_CapCode
	.type	AON_Set_Xtal_CapCode, @function
AON_Set_Xtal_CapCode:
.LFB252:
	.loc 1 54 68 is_stmt 1
	.cfi_startproc
.LVL10:
	.loc 1 55 5
	.loc 1 55 90 is_stmt 0
	li	a5,-1878958080
	.loc 1 55 13
	lw	a5,-1992(a5)
	jr	a5
.LVL11:
	.cfi_endproc
.LFE252:
	.size	AON_Set_Xtal_CapCode, .-AON_Set_Xtal_CapCode
	.section	.tcm_code../drivers/soc/qcc743/std/src/qcc743_romapi_e907.c58,"ax",@progbits
	.align	1
	.globl	AON_Trim_DcdcDis
	.type	AON_Trim_DcdcDis, @function
AON_Trim_DcdcDis:
.LFB253:
	.loc 1 59 39 is_stmt 1
	.cfi_startproc
	.loc 1 60 5
	.loc 1 60 65 is_stmt 0
	li	a5,-1878958080
	.loc 1 60 13
	lw	a5,-1988(a5)
	jr	a5
.LVL12:
	.cfi_endproc
.LFE253:
	.size	AON_Trim_DcdcDis, .-AON_Trim_DcdcDis
	.section	.tcm_code../drivers/soc/qcc743/std/src/qcc743_romapi_e907.c63,"ax",@progbits
	.align	1
	.globl	AON_Trim_DcdcVoutSel
	.type	AON_Trim_DcdcVoutSel, @function
AON_Trim_DcdcVoutSel:
.LFB254:
	.loc 1 64 43 is_stmt 1
	.cfi_startproc
	.loc 1 65 5
	.loc 1 65 65 is_stmt 0
	li	a5,-1878958080
	.loc 1 65 13
	lw	a5,-1984(a5)
	jr	a5
.LVL13:
	.cfi_endproc
.LFE254:
	.size	AON_Trim_DcdcVoutSel, .-AON_Trim_DcdcVoutSel
	.section	.tcm_code../drivers/soc/qcc743/std/src/qcc743_romapi_e907.c68,"ax",@progbits
	.align	1
	.globl	AON_Trim_DcdcVoutTrim
	.type	AON_Trim_DcdcVoutTrim, @function
AON_Trim_DcdcVoutTrim:
.LFB255:
	.loc 1 69 44 is_stmt 1
	.cfi_startproc
	.loc 1 70 5
	.loc 1 70 65 is_stmt 0
	li	a5,-1878958080
	.loc 1 70 13
	lw	a5,-1980(a5)
	jr	a5
.LVL14:
	.cfi_endproc
.LFE255:
	.size	AON_Trim_DcdcVoutTrim, .-AON_Trim_DcdcVoutTrim
	.section	.tcm_code../drivers/soc/qcc743/std/src/qcc743_romapi_e907.c73,"ax",@progbits
	.align	1
	.globl	AON_Trim_Ldo11socVoutTrim
	.type	AON_Trim_Ldo11socVoutTrim, @function
AON_Trim_Ldo11socVoutTrim:
.LFB256:
	.loc 1 74 48 is_stmt 1
	.cfi_startproc
	.loc 1 75 5
	.loc 1 75 65 is_stmt 0
	li	a5,-1878958080
	.loc 1 75 13
	lw	a5,-1976(a5)
	jr	a5
.LVL15:
	.cfi_endproc
.LFE256:
	.size	AON_Trim_Ldo11socVoutTrim, .-AON_Trim_Ldo11socVoutTrim
	.section	.tcm_code../drivers/soc/qcc743/std/src/qcc743_romapi_e907.c78,"ax",@progbits
	.align	1
	.globl	AON_Trim_Usb20RcalCode
	.type	AON_Trim_Usb20RcalCode, @function
AON_Trim_Usb20RcalCode:
.LFB257:
	.loc 1 79 45 is_stmt 1
	.cfi_startproc
	.loc 1 80 5
	.loc 1 80 65 is_stmt 0
	li	a5,-1878958080
	.loc 1 80 13
	lw	a5,-1972(a5)
	jr	a5
.LVL16:
	.cfi_endproc
.LFE257:
	.size	AON_Trim_Usb20RcalCode, .-AON_Trim_Usb20RcalCode
	.section	.tcm_code../drivers/soc/qcc743/std/src/qcc743_romapi_e907.c83,"ax",@progbits
	.align	1
	.globl	AON_Get_Xtal_CapCode
	.type	AON_Get_Xtal_CapCode, @function
AON_Get_Xtal_CapCode:
.LFB258:
	.loc 1 84 35 is_stmt 1
	.cfi_startproc
	.loc 1 85 5
	.loc 1 85 57 is_stmt 0
	li	a5,-1878958080
	.loc 1 85 13
	lw	a5,-1968(a5)
	jr	a5
.LVL17:
	.cfi_endproc
.LFE258:
	.size	AON_Get_Xtal_CapCode, .-AON_Get_Xtal_CapCode
	.section	.tcm_code../drivers/soc/qcc743/std/src/qcc743_romapi_e907.c207,"ax",@progbits
	.align	1
	.globl	EF_Ctrl_Crc_Result
	.type	EF_Ctrl_Crc_Result, @function
EF_Ctrl_Crc_Result:
.LFB259:
	.loc 1 208 41 is_stmt 1
	.cfi_startproc
	.loc 1 209 5
	.loc 1 209 65 is_stmt 0
	li	a5,-1878958080
	.loc 1 209 13
	lw	a5,-1896(a5)
	jr	a5
.LVL18:
	.cfi_endproc
.LFE259:
	.size	EF_Ctrl_Crc_Result, .-EF_Ctrl_Crc_Result
	.section	.tcm_code../drivers/soc/qcc743/std/src/qcc743_romapi_e907.c212,"ax",@progbits
	.align	1
	.globl	EF_Ctrl_Get_Customer_PIDVID
	.type	EF_Ctrl_Get_Customer_PIDVID, @function
EF_Ctrl_Get_Customer_PIDVID:
.LFB260:
	.loc 1 213 78 is_stmt 1
	.cfi_startproc
.LVL19:
	.loc 1 214 5
	.loc 1 214 93 is_stmt 0
	li	a5,-1878958080
	.loc 1 214 13
	lw	a5,-1892(a5)
	jr	a5
.LVL20:
	.cfi_endproc
.LFE260:
	.size	EF_Ctrl_Get_Customer_PIDVID, .-EF_Ctrl_Get_Customer_PIDVID
	.section	.tcm_code../drivers/soc/qcc743/std/src/qcc743_romapi_e907.c217,"ax",@progbits
	.align	1
	.globl	EF_Ctrl_Read_Chip_ID
	.type	EF_Ctrl_Read_Chip_ID, @function
EF_Ctrl_Read_Chip_ID:
.LFB261:
	.loc 1 218 56 is_stmt 1
	.cfi_startproc
.LVL21:
	.loc 1 219 5
	.loc 1 219 78 is_stmt 0
	li	a5,-1878958080
	.loc 1 219 13
	lw	a5,-1888(a5)
	jr	a5
.LVL22:
	.cfi_endproc
.LFE261:
	.size	EF_Ctrl_Read_Chip_ID, .-EF_Ctrl_Read_Chip_ID
	.section	.tcm_code../drivers/soc/qcc743/std/src/qcc743_romapi_e907.c222,"ax",@progbits
	.align	1
	.globl	EF_Ctrl_Read_MAC_Address
	.type	EF_Ctrl_Read_MAC_Address, @function
EF_Ctrl_Read_MAC_Address:
.LFB262:
	.loc 1 223 57 is_stmt 1
	.cfi_startproc
.LVL23:
	.loc 1 224 5
	.loc 1 224 75 is_stmt 0
	li	a5,-1878958080
	.loc 1 224 13
	lw	a5,-1884(a5)
	jr	a5
.LVL24:
	.cfi_endproc
.LFE262:
	.size	EF_Ctrl_Read_MAC_Address, .-EF_Ctrl_Read_MAC_Address
	.section	.tcm_code../drivers/soc/qcc743/std/src/qcc743_romapi_e907.c227,"ax",@progbits
	.align	1
	.globl	EF_Ctrl_Read_MAC_Address_Raw
	.type	EF_Ctrl_Read_MAC_Address_Raw, @function
EF_Ctrl_Read_MAC_Address_Raw:
.LFB263:
	.loc 1 228 61 is_stmt 1
	.cfi_startproc
.LVL25:
	.loc 1 229 5
	.loc 1 229 75 is_stmt 0
	li	a5,-1878958080
	.loc 1 229 13
	lw	a5,-1880(a5)
	jr	a5
.LVL26:
	.cfi_endproc
.LFE263:
	.size	EF_Ctrl_Read_MAC_Address_Raw, .-EF_Ctrl_Read_MAC_Address_Raw
	.section	.tcm_code../drivers/soc/qcc743/std/src/qcc743_romapi_e907.c232,"ax",@progbits
	.align	1
	.globl	EF_Ctrl_AutoLoad_Done
	.type	EF_Ctrl_AutoLoad_Done, @function
EF_Ctrl_AutoLoad_Done:
.LFB264:
	.loc 1 233 44 is_stmt 1
	.cfi_startproc
	.loc 1 234 5
	.loc 1 234 65 is_stmt 0
	li	a5,-1878958080
	.loc 1 234 13
	lw	a5,-1876(a5)
	jr	a5
.LVL27:
	.cfi_endproc
.LFE264:
	.size	EF_Ctrl_AutoLoad_Done, .-EF_Ctrl_AutoLoad_Done
	.section	.tcm_code../drivers/soc/qcc743/std/src/qcc743_romapi_e907.c237,"ax",@progbits
	.align	1
	.globl	EF_Ctrl_Busy
	.type	EF_Ctrl_Busy, @function
EF_Ctrl_Busy:
.LFB265:
	.loc 1 238 35 is_stmt 1
	.cfi_startproc
	.loc 1 239 5
	.loc 1 239 65 is_stmt 0
	li	a5,-1878958080
	.loc 1 239 13
	lw	a5,-1872(a5)
	jr	a5
.LVL28:
	.cfi_endproc
.LFE265:
	.size	EF_Ctrl_Busy, .-EF_Ctrl_Busy
	.section	.tcm_code../drivers/soc/qcc743/std/src/qcc743_romapi_e907.c242,"ax",@progbits
	.align	1
	.globl	EF_Ctrl_Crc_Is_Busy
	.type	EF_Ctrl_Crc_Is_Busy, @function
EF_Ctrl_Crc_Is_Busy:
.LFB266:
	.loc 1 243 42 is_stmt 1
	.cfi_startproc
	.loc 1 244 5
	.loc 1 244 65 is_stmt 0
	li	a5,-1878958080
	.loc 1 244 13
	lw	a5,-1868(a5)
	jr	a5
.LVL29:
	.cfi_endproc
.LFE266:
	.size	EF_Ctrl_Crc_Is_Busy, .-EF_Ctrl_Crc_Is_Busy
	.section	.tcm_code../drivers/soc/qcc743/std/src/qcc743_romapi_e907.c247,"ax",@progbits
	.align	1
	.globl	EF_Ctrl_Get_Trim_Parity
	.type	EF_Ctrl_Get_Trim_Parity, @function
EF_Ctrl_Get_Trim_Parity:
.LFB267:
	.loc 1 248 59 is_stmt 1
	.cfi_startproc
.LVL30:
	.loc 1 249 5
	.loc 1 249 78 is_stmt 0
	li	a5,-1878958080
	.loc 1 249 13
	lw	a5,-1864(a5)
	jr	a5
.LVL31:
	.cfi_endproc
.LFE267:
	.size	EF_Ctrl_Get_Trim_Parity, .-EF_Ctrl_Get_Trim_Parity
	.section	.tcm_code../drivers/soc/qcc743/std/src/qcc743_romapi_e907.c252,"ax",@progbits
	.align	1
	.globl	EF_Ctrl_Is_All_Bits_Zero
	.type	EF_Ctrl_Is_All_Bits_Zero, @function
EF_Ctrl_Is_All_Bits_Zero:
.LFB268:
	.loc 1 253 75 is_stmt 1
	.cfi_startproc
.LVL32:
	.loc 1 254 5
	.loc 1 254 93 is_stmt 0
	li	a5,-1878958080
	.loc 1 254 13
	lw	a5,-1860(a5)
	jr	a5
.LVL33:
	.cfi_endproc
.LFE268:
	.size	EF_Ctrl_Is_All_Bits_Zero, .-EF_Ctrl_Is_All_Bits_Zero
	.section	.tcm_code../drivers/soc/qcc743/std/src/qcc743_romapi_e907.c257,"ax",@progbits
	.align	1
	.globl	EF_Ctrl_Read_FlashDlyCoe
	.type	EF_Ctrl_Read_FlashDlyCoe, @function
EF_Ctrl_Read_FlashDlyCoe:
.LFB269:
	.loc 1 258 39 is_stmt 1
	.cfi_startproc
	.loc 1 259 5
	.loc 1 259 57 is_stmt 0
	li	a5,-1878958080
	.loc 1 259 13
	lw	a5,-1856(a5)
	jr	a5
.LVL34:
	.cfi_endproc
.LFE269:
	.size	EF_Ctrl_Read_FlashDlyCoe, .-EF_Ctrl_Read_FlashDlyCoe
	.section	.tcm_code../drivers/soc/qcc743/std/src/qcc743_romapi_e907.c262,"ax",@progbits
	.align	1
	.globl	EF_Ctrl_Clear
	.type	EF_Ctrl_Clear, @function
EF_Ctrl_Clear:
.LFB270:
	.loc 1 263 49 is_stmt 1
	.cfi_startproc
.LVL35:
	.loc 1 264 5
	.loc 1 264 78 is_stmt 0
	li	a5,-1878958080
	.loc 1 264 13
	lw	a5,-1852(a5)
	jr	a5
.LVL36:
	.cfi_endproc
.LFE270:
	.size	EF_Ctrl_Clear, .-EF_Ctrl_Clear
	.section	.tcm_code../drivers/soc/qcc743/std/src/qcc743_romapi_e907.c267,"ax",@progbits
	.align	1
	.globl	EF_Ctrl_Crc_Enable
	.type	EF_Ctrl_Crc_Enable, @function
EF_Ctrl_Crc_Enable:
.LFB271:
	.loc 1 268 30 is_stmt 1
	.cfi_startproc
	.loc 1 269 5
	.loc 1 269 54 is_stmt 0
	li	a5,-1878958080
	.loc 1 269 13
	lw	a5,-1848(a5)
	jr	a5
.LVL37:
	.cfi_endproc
.LFE271:
	.size	EF_Ctrl_Crc_Enable, .-EF_Ctrl_Crc_Enable
	.section	.tcm_code../drivers/soc/qcc743/std/src/qcc743_romapi_e907.c272,"ax",@progbits
	.align	1
	.globl	EF_Ctrl_Crc_Set_Golden
	.type	EF_Ctrl_Crc_Set_Golden, @function
EF_Ctrl_Crc_Set_Golden:
.LFB272:
	.loc 1 273 50 is_stmt 1
	.cfi_startproc
.LVL38:
	.loc 1 274 5
	.loc 1 274 70 is_stmt 0
	li	a5,-1878958080
	.loc 1 274 13
	lw	a5,-1844(a5)
	jr	a5
.LVL39:
	.cfi_endproc
.LFE272:
	.size	EF_Ctrl_Crc_Set_Golden, .-EF_Ctrl_Crc_Set_Golden
	.section	.tcm_code../drivers/soc/qcc743/std/src/qcc743_romapi_e907.c277,"ax",@progbits
	.align	1
	.globl	EF_Ctrl_Load_Efuse_R0
	.type	EF_Ctrl_Load_Efuse_R0, @function
EF_Ctrl_Load_Efuse_R0:
.LFB273:
	.loc 1 278 33 is_stmt 1
	.cfi_startproc
	.loc 1 279 5
	.loc 1 279 54 is_stmt 0
	li	a5,-1878958080
	.loc 1 279 13
	lw	a5,-1840(a5)
	jr	a5
.LVL40:
	.cfi_endproc
.LFE273:
	.size	EF_Ctrl_Load_Efuse_R0, .-EF_Ctrl_Load_Efuse_R0
	.section	.tcm_code../drivers/soc/qcc743/std/src/qcc743_romapi_e907.c295,"ax",@progbits
	.align	1
	.globl	EF_Ctrl_Read_ADC_Gain_Trim
	.type	EF_Ctrl_Read_ADC_Gain_Trim, @function
EF_Ctrl_Read_ADC_Gain_Trim:
.LFB274:
	.loc 1 296 65 is_stmt 1
	.cfi_startproc
.LVL41:
	.loc 1 297 5
	.loc 1 297 81 is_stmt 0
	li	a5,-1878958080
	.loc 1 297 13
	lw	a5,-1828(a5)
	jr	a5
.LVL42:
	.cfi_endproc
.LFE274:
	.size	EF_Ctrl_Read_ADC_Gain_Trim, .-EF_Ctrl_Read_ADC_Gain_Trim
	.section	.tcm_code../drivers/soc/qcc743/std/src/qcc743_romapi_e907.c300,"ax",@progbits
	.align	1
	.globl	EF_Ctrl_Read_AES_Key
	.type	EF_Ctrl_Read_AES_Key, @function
EF_Ctrl_Read_AES_Key:
.LFB275:
	.loc 1 301 74 is_stmt 1
	.cfi_startproc
.LVL43:
	.loc 1 302 5
	.loc 1 302 96 is_stmt 0
	li	a5,-1878958080
	.loc 1 302 13
	lw	a5,-1824(a5)
	jr	a5
.LVL44:
	.cfi_endproc
.LFE275:
	.size	EF_Ctrl_Read_AES_Key, .-EF_Ctrl_Read_AES_Key
	.section	.tcm_code../drivers/soc/qcc743/std/src/qcc743_romapi_e907.c305,"ax",@progbits
	.align	1
	.globl	EF_Ctrl_Read_Dbg_Pwd
	.type	EF_Ctrl_Read_Dbg_Pwd, @function
EF_Ctrl_Read_Dbg_Pwd:
.LFB276:
	.loc 1 306 83 is_stmt 1
	.cfi_startproc
.LVL45:
	.loc 1 307 5
	.loc 1 307 105 is_stmt 0
	li	a5,-1878958080
	.loc 1 307 13
	lw	a5,-1820(a5)
	jr	a5
.LVL46:
	.cfi_endproc
.LFE276:
	.size	EF_Ctrl_Read_Dbg_Pwd, .-EF_Ctrl_Read_Dbg_Pwd
	.section	.tcm_code../drivers/soc/qcc743/std/src/qcc743_romapi_e907.c311,"ax",@progbits
	.align	1
	.globl	EF_Ctrl_Read_DcdcDis_Trim
	.type	EF_Ctrl_Read_DcdcDis_Trim, @function
EF_Ctrl_Read_DcdcDis_Trim:
.LFB277:
	.loc 1 312 61 is_stmt 1
	.cfi_startproc
.LVL47:
	.loc 1 313 5
	.loc 1 313 78 is_stmt 0
	li	a5,-1878958080
	.loc 1 313 13
	lw	a5,-1816(a5)
	jr	a5
.LVL48:
	.cfi_endproc
.LFE277:
	.size	EF_Ctrl_Read_DcdcDis_Trim, .-EF_Ctrl_Read_DcdcDis_Trim
	.section	.tcm_code../drivers/soc/qcc743/std/src/qcc743_romapi_e907.c317,"ax",@progbits
	.align	1
	.globl	EF_Ctrl_Read_DcdcVoutSel_Trim
	.type	EF_Ctrl_Read_DcdcVoutSel_Trim, @function
EF_Ctrl_Read_DcdcVoutSel_Trim:
.LFB278:
	.loc 1 318 69 is_stmt 1
	.cfi_startproc
.LVL49:
	.loc 1 319 5
	.loc 1 319 82 is_stmt 0
	li	a5,-1878958080
	.loc 1 319 13
	lw	a5,-1812(a5)
	jr	a5
.LVL50:
	.cfi_endproc
.LFE278:
	.size	EF_Ctrl_Read_DcdcVoutSel_Trim, .-EF_Ctrl_Read_DcdcVoutSel_Trim
	.section	.tcm_code../drivers/soc/qcc743/std/src/qcc743_romapi_e907.c323,"ax",@progbits
	.align	1
	.globl	EF_Ctrl_Read_DcdcVoutTrim_Trim
	.type	EF_Ctrl_Read_DcdcVoutTrim_Trim, @function
EF_Ctrl_Read_DcdcVoutTrim_Trim:
.LFB279:
	.loc 1 324 71 is_stmt 1
	.cfi_startproc
.LVL51:
	.loc 1 325 5
	.loc 1 325 83 is_stmt 0
	li	a5,-1878958080
	.loc 1 325 13
	lw	a5,-1808(a5)
	jr	a5
.LVL52:
	.cfi_endproc
.LFE279:
	.size	EF_Ctrl_Read_DcdcVoutTrim_Trim, .-EF_Ctrl_Read_DcdcVoutTrim_Trim
	.section	.tcm_code../drivers/soc/qcc743/std/src/qcc743_romapi_e907.c343,"ax",@progbits
	.align	1
	.globl	EF_Ctrl_Read_Ldo11socVoutTrim_Trim
	.type	EF_Ctrl_Read_Ldo11socVoutTrim_Trim, @function
EF_Ctrl_Read_Ldo11socVoutTrim_Trim:
.LFB280:
	.loc 1 344 79 is_stmt 1
	.cfi_startproc
.LVL53:
	.loc 1 345 5
	.loc 1 345 87 is_stmt 0
	li	a5,-1878958080
	.loc 1 345 13
	lw	a5,-1796(a5)
	jr	a5
.LVL54:
	.cfi_endproc
.LFE280:
	.size	EF_Ctrl_Read_Ldo11socVoutTrim_Trim, .-EF_Ctrl_Read_Ldo11socVoutTrim_Trim
	.section	.tcm_code../drivers/soc/qcc743/std/src/qcc743_romapi_e907.c349,"ax",@progbits
	.align	1
	.globl	EF_Ctrl_Read_Ldo18ioBypass_Trim
	.type	EF_Ctrl_Read_Ldo18ioBypass_Trim, @function
EF_Ctrl_Read_Ldo18ioBypass_Trim:
.LFB281:
	.loc 1 350 73 is_stmt 1
	.cfi_startproc
.LVL55:
	.loc 1 351 5
	.loc 1 351 84 is_stmt 0
	li	a5,-1878958080
	.loc 1 351 13
	lw	a5,-1792(a5)
	jr	a5
.LVL56:
	.cfi_endproc
.LFE281:
	.size	EF_Ctrl_Read_Ldo18ioBypass_Trim, .-EF_Ctrl_Read_Ldo18ioBypass_Trim
	.section	.tcm_code../drivers/soc/qcc743/std/src/qcc743_romapi_e907.c355,"ax",@progbits
	.align	1
	.globl	EF_Ctrl_Read_Ldo18ioVoutSel_Trim
	.type	EF_Ctrl_Read_Ldo18ioVoutSel_Trim, @function
EF_Ctrl_Read_Ldo18ioVoutSel_Trim:
.LFB282:
	.loc 1 356 75 is_stmt 1
	.cfi_startproc
.LVL57:
	.loc 1 357 5
	.loc 1 357 85 is_stmt 0
	li	a5,-1878958080
	.loc 1 357 13
	lw	a5,-1788(a5)
	jr	a5
.LVL58:
	.cfi_endproc
.LFE282:
	.size	EF_Ctrl_Read_Ldo18ioVoutSel_Trim, .-EF_Ctrl_Read_Ldo18ioVoutSel_Trim
	.section	.tcm_code../drivers/soc/qcc743/std/src/qcc743_romapi_e907.c361,"ax",@progbits
	.align	1
	.globl	EF_Ctrl_Read_Ldo18ioVoutTrim_Trim
	.type	EF_Ctrl_Read_Ldo18ioVoutTrim_Trim, @function
EF_Ctrl_Read_Ldo18ioVoutTrim_Trim:
.LFB283:
	.loc 1 362 77 is_stmt 1
	.cfi_startproc
.LVL59:
	.loc 1 363 5
	.loc 1 363 86 is_stmt 0
	li	a5,-1878958080
	.loc 1 363 13
	lw	a5,-1784(a5)
	jr	a5
.LVL60:
	.cfi_endproc
.LFE283:
	.size	EF_Ctrl_Read_Ldo18ioVoutTrim_Trim, .-EF_Ctrl_Read_Ldo18ioVoutTrim_Trim
	.section	.tcm_code../drivers/soc/qcc743/std/src/qcc743_romapi_e907.c367,"ax",@progbits
	.align	1
	.globl	EF_Ctrl_Read_Ldo33VoutTrim_Trim
	.type	EF_Ctrl_Read_Ldo33VoutTrim_Trim, @function
EF_Ctrl_Read_Ldo33VoutTrim_Trim:
.LFB284:
	.loc 1 368 73 is_stmt 1
	.cfi_startproc
.LVL61:
	.loc 1 369 5
	.loc 1 369 84 is_stmt 0
	li	a5,-1878958080
	.loc 1 369 13
	lw	a5,-1780(a5)
	jr	a5
.LVL62:
	.cfi_endproc
.LFE284:
	.size	EF_Ctrl_Read_Ldo33VoutTrim_Trim, .-EF_Ctrl_Read_Ldo33VoutTrim_Trim
	.section	.tcm_code../drivers/soc/qcc743/std/src/qcc743_romapi_e907.c373,"ax",@progbits
	.align	1
	.globl	EF_Ctrl_Read_RC32K_Trim
	.type	EF_Ctrl_Read_RC32K_Trim, @function
EF_Ctrl_Read_RC32K_Trim:
.LFB285:
	.loc 1 374 62 is_stmt 1
	.cfi_startproc
.LVL63:
	.loc 1 375 5
	.loc 1 375 81 is_stmt 0
	li	a5,-1878958080
	.loc 1 375 13
	lw	a5,-1776(a5)
	jr	a5
.LVL64:
	.cfi_endproc
.LFE285:
	.size	EF_Ctrl_Read_RC32K_Trim, .-EF_Ctrl_Read_RC32K_Trim
	.section	.tcm_code../drivers/soc/qcc743/std/src/qcc743_romapi_e907.c379,"ax",@progbits
	.align	1
	.globl	EF_Ctrl_Read_RC32M_Trim
	.type	EF_Ctrl_Read_RC32M_Trim, @function
EF_Ctrl_Read_RC32M_Trim:
.LFB286:
	.loc 1 380 62 is_stmt 1
	.cfi_startproc
.LVL65:
	.loc 1 381 5
	.loc 1 381 81 is_stmt 0
	li	a5,-1878958080
	.loc 1 381 13
	lw	a5,-1772(a5)
	jr	a5
.LVL66:
	.cfi_endproc
.LFE286:
	.size	EF_Ctrl_Read_RC32M_Trim, .-EF_Ctrl_Read_RC32M_Trim
	.section	.tcm_code../drivers/soc/qcc743/std/src/qcc743_romapi_e907.c385,"ax",@progbits
	.align	1
	.globl	EF_Ctrl_Read_Secure_Boot
	.type	EF_Ctrl_Read_Secure_Boot, @function
EF_Ctrl_Read_Secure_Boot:
.LFB287:
	.loc 1 386 46 is_stmt 1
	.cfi_startproc
.LVL67:
	.loc 1 387 5
	.loc 1 387 64 is_stmt 0
	li	a5,-1878958080
	.loc 1 387 13
	lw	a5,-1768(a5)
	jr	a5
.LVL68:
	.cfi_endproc
.LFE287:
	.size	EF_Ctrl_Read_Secure_Boot, .-EF_Ctrl_Read_Secure_Boot
	.section	.tcm_code../drivers/soc/qcc743/std/src/qcc743_romapi_e907.c391,"ax",@progbits
	.align	1
	.globl	EF_Ctrl_Read_Secure_Cfg
	.type	EF_Ctrl_Read_Secure_Cfg, @function
EF_Ctrl_Read_Secure_Cfg:
.LFB288:
	.loc 1 392 58 is_stmt 1
	.cfi_startproc
.LVL69:
	.loc 1 393 5
	.loc 1 393 77 is_stmt 0
	li	a5,-1878958080
	.loc 1 393 13
	lw	a5,-1764(a5)
	jr	a5
.LVL70:
	.cfi_endproc
.LFE288:
	.size	EF_Ctrl_Read_Secure_Cfg, .-EF_Ctrl_Read_Secure_Cfg
	.section	.tcm_code../drivers/soc/qcc743/std/src/qcc743_romapi_e907.c396,"ax",@progbits
	.align	1
	.globl	EF_Ctrl_Read_Sw_Usage
	.type	EF_Ctrl_Read_Sw_Usage, @function
EF_Ctrl_Read_Sw_Usage:
.LFB289:
	.loc 1 397 60 is_stmt 1
	.cfi_startproc
.LVL71:
	.loc 1 398 5
	.loc 1 398 81 is_stmt 0
	li	a5,-1878958080
	.loc 1 398 13
	lw	a5,-1760(a5)
	jr	a5
.LVL72:
	.cfi_endproc
.LFE289:
	.size	EF_Ctrl_Read_Sw_Usage, .-EF_Ctrl_Read_Sw_Usage
	.section	.tcm_code../drivers/soc/qcc743/std/src/qcc743_romapi_e907.c402,"ax",@progbits
	.align	1
	.globl	EF_Ctrl_Read_TSEN_Trim
	.type	EF_Ctrl_Read_TSEN_Trim, @function
EF_Ctrl_Read_TSEN_Trim:
.LFB290:
	.loc 1 403 66 is_stmt 1
	.cfi_startproc
.LVL73:
	.loc 1 404 5
	.loc 1 404 86 is_stmt 0
	li	a5,-1878958080
	.loc 1 404 13
	lw	a5,-1756(a5)
	jr	a5
.LVL74:
	.cfi_endproc
.LFE290:
	.size	EF_Ctrl_Read_TSEN_Trim, .-EF_Ctrl_Read_TSEN_Trim
	.section	.tcm_code../drivers/soc/qcc743/std/src/qcc743_romapi_e907.c408,"ax",@progbits
	.align	1
	.globl	EF_Ctrl_Read_Usb20RcalCode_Trim
	.type	EF_Ctrl_Read_Usb20RcalCode_Trim, @function
EF_Ctrl_Read_Usb20RcalCode_Trim:
.LFB291:
	.loc 1 409 73 is_stmt 1
	.cfi_startproc
.LVL75:
	.loc 1 410 5
	.loc 1 410 84 is_stmt 0
	li	a5,-1878958080
	.loc 1 410 13
	lw	a5,-1752(a5)
	jr	a5
.LVL76:
	.cfi_endproc
.LFE291:
	.size	EF_Ctrl_Read_Usb20RcalCode_Trim, .-EF_Ctrl_Read_Usb20RcalCode_Trim
	.section	.tcm_code../drivers/soc/qcc743/std/src/qcc743_romapi_e907.c413,"ax",@progbits
	.align	1
	.globl	EF_Ctrl_Readlock_AES_Key
	.type	EF_Ctrl_Readlock_AES_Key, @function
EF_Ctrl_Readlock_AES_Key:
.LFB292:
	.loc 1 414 62 is_stmt 1
	.cfi_startproc
.LVL77:
	.loc 1 415 5
	.loc 1 415 80 is_stmt 0
	li	a5,-1878958080
	.loc 1 415 13
	lw	a5,-1748(a5)
	jr	a5
.LVL78:
	.cfi_endproc
.LFE292:
	.size	EF_Ctrl_Readlock_AES_Key, .-EF_Ctrl_Readlock_AES_Key
	.section	.tcm_code../drivers/soc/qcc743/std/src/qcc743_romapi_e907.c418,"ax",@progbits
	.align	1
	.globl	EF_Ctrl_Readlock_Dbg_Pwd
	.type	EF_Ctrl_Readlock_Dbg_Pwd, @function
EF_Ctrl_Readlock_Dbg_Pwd:
.LFB293:
	.loc 1 419 47 is_stmt 1
	.cfi_startproc
.LVL79:
	.loc 1 420 5
	.loc 1 420 65 is_stmt 0
	li	a5,-1878958080
	.loc 1 420 13
	lw	a5,-1744(a5)
	jr	a5
.LVL80:
	.cfi_endproc
.LFE293:
	.size	EF_Ctrl_Readlock_Dbg_Pwd, .-EF_Ctrl_Readlock_Dbg_Pwd
	.section	.tcm_code../drivers/soc/qcc743/std/src/qcc743_romapi_e907.c423,"ax",@progbits
	.align	1
	.globl	EF_Ctrl_Set_sf_key_re_sel
	.type	EF_Ctrl_Set_sf_key_re_sel, @function
EF_Ctrl_Set_sf_key_re_sel:
.LFB294:
	.loc 1 424 57 is_stmt 1
	.cfi_startproc
.LVL81:
	.loc 1 425 5
	.loc 1 425 74 is_stmt 0
	li	a5,-1878958080
	.loc 1 425 13
	lw	a5,-1740(a5)
	jr	a5
.LVL82:
	.cfi_endproc
.LFE294:
	.size	EF_Ctrl_Set_sf_key_re_sel, .-EF_Ctrl_Set_sf_key_re_sel
	.section	.tcm_code../drivers/soc/qcc743/std/src/qcc743_romapi_e907.c428,"ax",@progbits
	.align	1
	.globl	EF_Ctrl_Sw_AHB_Clk_0
	.type	EF_Ctrl_Sw_AHB_Clk_0, @function
EF_Ctrl_Sw_AHB_Clk_0:
.LFB295:
	.loc 1 429 32 is_stmt 1
	.cfi_startproc
	.loc 1 430 5
	.loc 1 430 54 is_stmt 0
	li	a5,-1878958080
	.loc 1 430 13
	lw	a5,-1736(a5)
	jr	a5
.LVL83:
	.cfi_endproc
.LFE295:
	.size	EF_Ctrl_Sw_AHB_Clk_0, .-EF_Ctrl_Sw_AHB_Clk_0
	.section	.tcm_code../drivers/soc/qcc743/std/src/qcc743_romapi_e907.c433,"ax",@progbits
	.align	1
	.globl	EF_Ctrl_Write_AES_Key
	.type	EF_Ctrl_Write_AES_Key, @function
EF_Ctrl_Write_AES_Key:
.LFB296:
	.loc 1 434 92 is_stmt 1
	.cfi_startproc
.LVL84:
	.loc 1 435 5
	.loc 1 435 113 is_stmt 0
	li	a5,-1878958080
	.loc 1 435 13
	lw	a5,-1732(a5)
	jr	a5
.LVL85:
	.cfi_endproc
.LFE296:
	.size	EF_Ctrl_Write_AES_Key, .-EF_Ctrl_Write_AES_Key
	.section	.tcm_code../drivers/soc/qcc743/std/src/qcc743_romapi_e907.c438,"ax",@progbits
	.align	1
	.globl	EF_Ctrl_Write_Dbg_Pwd
	.type	EF_Ctrl_Write_Dbg_Pwd, @function
EF_Ctrl_Write_Dbg_Pwd:
.LFB297:
	.loc 1 439 99 is_stmt 1
	.cfi_startproc
.LVL86:
	.loc 1 440 5
	.loc 1 440 120 is_stmt 0
	li	a5,-1878958080
	.loc 1 440 13
	lw	a5,-1728(a5)
	jr	a5
.LVL87:
	.cfi_endproc
.LFE297:
	.size	EF_Ctrl_Write_Dbg_Pwd, .-EF_Ctrl_Write_Dbg_Pwd
	.section	.tcm_code../drivers/soc/qcc743/std/src/qcc743_romapi_e907.c443,"ax",@progbits
	.align	1
	.globl	EF_Ctrl_Write_MAC_Address
	.type	EF_Ctrl_Write_MAC_Address, @function
EF_Ctrl_Write_MAC_Address:
.LFB298:
	.loc 1 444 64 is_stmt 1
	.cfi_startproc
.LVL88:
	.loc 1 445 5
	.loc 1 445 81 is_stmt 0
	li	a5,-1878958080
	.loc 1 445 13
	lw	a5,-1724(a5)
	jr	a5
.LVL89:
	.cfi_endproc
.LFE298:
	.size	EF_Ctrl_Write_MAC_Address, .-EF_Ctrl_Write_MAC_Address
	.section	.tcm_code../drivers/soc/qcc743/std/src/qcc743_romapi_e907.c449,"ax",@progbits
	.align	1
	.globl	EF_Ctrl_Write_Secure_Boot
	.type	EF_Ctrl_Write_Secure_Boot, @function
EF_Ctrl_Write_Secure_Boot:
.LFB299:
	.loc 1 450 81 is_stmt 1
	.cfi_startproc
.LVL90:
	.loc 1 451 5
	.loc 1 451 98 is_stmt 0
	li	a5,-1878958080
	.loc 1 451 13
	lw	a5,-1720(a5)
	jr	a5
.LVL91:
	.cfi_endproc
.LFE299:
	.size	EF_Ctrl_Write_Secure_Boot, .-EF_Ctrl_Write_Secure_Boot
	.section	.tcm_code../drivers/soc/qcc743/std/src/qcc743_romapi_e907.c455,"ax",@progbits
	.align	1
	.globl	EF_Ctrl_Write_Secure_Cfg
	.type	EF_Ctrl_Write_Secure_Cfg, @function
EF_Ctrl_Write_Secure_Cfg:
.LFB300:
	.loc 1 456 76 is_stmt 1
	.cfi_startproc
.LVL92:
	.loc 1 457 5
	.loc 1 457 94 is_stmt 0
	li	a5,-1878958080
	.loc 1 457 13
	lw	a5,-1716(a5)
	jr	a5
.LVL93:
	.cfi_endproc
.LFE300:
	.size	EF_Ctrl_Write_Secure_Cfg, .-EF_Ctrl_Write_Secure_Cfg
	.section	.tcm_code../drivers/soc/qcc743/std/src/qcc743_romapi_e907.c460,"ax",@progbits
	.align	1
	.globl	EF_Ctrl_Write_Sw_Usage
	.type	EF_Ctrl_Write_Sw_Usage, @function
EF_Ctrl_Write_Sw_Usage:
.LFB301:
	.loc 1 461 77 is_stmt 1
	.cfi_startproc
.LVL94:
	.loc 1 462 5
	.loc 1 462 97 is_stmt 0
	li	a5,-1878958080
	.loc 1 462 13
	lw	a5,-1712(a5)
	jr	a5
.LVL95:
	.cfi_endproc
.LFE301:
	.size	EF_Ctrl_Write_Sw_Usage, .-EF_Ctrl_Write_Sw_Usage
	.section	.tcm_code../drivers/soc/qcc743/std/src/qcc743_romapi_e907.c465,"ax",@progbits
	.align	1
	.globl	EF_Ctrl_Writelock_AES_Key
	.type	EF_Ctrl_Writelock_AES_Key, @function
EF_Ctrl_Writelock_AES_Key:
.LFB302:
	.loc 1 466 63 is_stmt 1
	.cfi_startproc
.LVL96:
	.loc 1 467 5
	.loc 1 467 80 is_stmt 0
	li	a5,-1878958080
	.loc 1 467 13
	lw	a5,-1708(a5)
	jr	a5
.LVL97:
	.cfi_endproc
.LFE302:
	.size	EF_Ctrl_Writelock_AES_Key, .-EF_Ctrl_Writelock_AES_Key
	.section	.tcm_code../drivers/soc/qcc743/std/src/qcc743_romapi_e907.c470,"ax",@progbits
	.align	1
	.globl	EF_Ctrl_Writelock_Dbg_Pwd
	.type	EF_Ctrl_Writelock_Dbg_Pwd, @function
EF_Ctrl_Writelock_Dbg_Pwd:
.LFB303:
	.loc 1 471 48 is_stmt 1
	.cfi_startproc
.LVL98:
	.loc 1 472 5
	.loc 1 472 65 is_stmt 0
	li	a5,-1878958080
	.loc 1 472 13
	lw	a5,-1704(a5)
	jr	a5
.LVL99:
	.cfi_endproc
.LFE303:
	.size	EF_Ctrl_Writelock_Dbg_Pwd, .-EF_Ctrl_Writelock_Dbg_Pwd
	.section	.tcm_code../drivers/soc/qcc743/std/src/qcc743_romapi_e907.c475,"ax",@progbits
	.align	1
	.globl	EF_Ctrl_Writelock_MAC_Address
	.type	EF_Ctrl_Writelock_MAC_Address, @function
EF_Ctrl_Writelock_MAC_Address:
.LFB304:
	.loc 1 476 52 is_stmt 1
	.cfi_startproc
.LVL100:
	.loc 1 477 5
	.loc 1 477 65 is_stmt 0
	li	a5,-1878958080
	.loc 1 477 13
	lw	a5,-1700(a5)
	jr	a5
.LVL101:
	.cfi_endproc
.LFE304:
	.size	EF_Ctrl_Writelock_MAC_Address, .-EF_Ctrl_Writelock_MAC_Address
	.section	.tcm_code../drivers/soc/qcc743/std/src/qcc743_romapi_e907.c480,"ax",@progbits
	.align	1
	.globl	EF_Ctrl_Writelock_Sw_Usage
	.type	EF_Ctrl_Writelock_Sw_Usage, @function
EF_Ctrl_Writelock_Sw_Usage:
.LFB305:
	.loc 1 481 65 is_stmt 1
	.cfi_startproc
.LVL102:
	.loc 1 482 5
	.loc 1 482 81 is_stmt 0
	li	a5,-1878958080
	.loc 1 482 13
	lw	a5,-1696(a5)
	jr	a5
.LVL103:
	.cfi_endproc
.LFE305:
	.size	EF_Ctrl_Writelock_Sw_Usage, .-EF_Ctrl_Writelock_Sw_Usage
	.section	.tcm_code../drivers/soc/qcc743/std/src/qcc743_romapi_e907.c485,"ax",@progbits
	.align	1
	.globl	GLB_AHB_MCU_Software_Reset
	.type	GLB_AHB_MCU_Software_Reset, @function
GLB_AHB_MCU_Software_Reset:
.LFB306:
	.loc 1 486 58 is_stmt 1
	.cfi_startproc
.LVL104:
	.loc 1 487 5
	.loc 1 487 74 is_stmt 0
	li	a5,-1878958080
	.loc 1 487 13
	lw	a5,-1692(a5)
	jr	a5
.LVL105:
	.cfi_endproc
.LFE306:
	.size	GLB_AHB_MCU_Software_Reset, .-GLB_AHB_MCU_Software_Reset
	.section	.tcm_code../drivers/soc/qcc743/std/src/qcc743_romapi_e907.c490,"ax",@progbits
	.align	1
	.globl	GLB_AUPLL_Ref_Clk_Sel
	.type	GLB_AUPLL_Ref_Clk_Sel, @function
GLB_AUPLL_Ref_Clk_Sel:
.LFB307:
	.loc 1 491 54 is_stmt 1
	.cfi_startproc
.LVL106:
	.loc 1 492 5
	.loc 1 492 75 is_stmt 0
	li	a5,-1878958080
	.loc 1 492 13
	lw	a5,-1688(a5)
	jr	a5
.LVL107:
	.cfi_endproc
.LFE307:
	.size	GLB_AUPLL_Ref_Clk_Sel, .-GLB_AUPLL_Ref_Clk_Sel
	.section	.tcm_code../drivers/soc/qcc743/std/src/qcc743_romapi_e907.c502,"ax",@progbits
	.align	1
	.globl	GLB_Clr_BMX_TO_Status
	.type	GLB_Clr_BMX_TO_Status, @function
GLB_Clr_BMX_TO_Status:
.LFB308:
	.loc 1 503 44 is_stmt 1
	.cfi_startproc
	.loc 1 504 5
	.loc 1 504 65 is_stmt 0
	li	a5,-1878958080
	.loc 1 504 13
	lw	a5,-1680(a5)
	jr	a5
.LVL108:
	.cfi_endproc
.LFE308:
	.size	GLB_Clr_BMX_TO_Status, .-GLB_Clr_BMX_TO_Status
	.section	.tcm_code../drivers/soc/qcc743/std/src/qcc743_romapi_e907.c507,"ax",@progbits
	.align	1
	.globl	GLB_Clr_EMI_Reset_Gate
	.type	GLB_Clr_EMI_Reset_Gate, @function
GLB_Clr_EMI_Reset_Gate:
.LFB309:
	.loc 1 508 45 is_stmt 1
	.cfi_startproc
	.loc 1 509 5
	.loc 1 509 65 is_stmt 0
	li	a5,-1878958080
	.loc 1 509 13
	lw	a5,-1676(a5)
	jr	a5
.LVL109:
	.cfi_endproc
.LFE309:
	.size	GLB_Clr_EMI_Reset_Gate, .-GLB_Clr_EMI_Reset_Gate
	.section	.tcm_code../drivers/soc/qcc743/std/src/qcc743_romapi_e907.c512,"ax",@progbits
	.align	1
	.globl	GLB_Clr_Reset_Reason
	.type	GLB_Clr_Reset_Reason, @function
GLB_Clr_Reset_Reason:
.LFB310:
	.loc 1 513 43 is_stmt 1
	.cfi_startproc
	.loc 1 514 5
	.loc 1 514 65 is_stmt 0
	li	a5,-1878958080
	.loc 1 514 13
	lw	a5,-1672(a5)
	jr	a5
.LVL110:
	.cfi_endproc
.LFE310:
	.size	GLB_Clr_Reset_Reason, .-GLB_Clr_Reset_Reason
	.section	.tcm_code../drivers/soc/qcc743/std/src/qcc743_romapi_e907.c517,"ax",@progbits
	.align	1
	.globl	GLB_Config_SDIO_Host_Interrupt_CPU
	.type	GLB_Config_SDIO_Host_Interrupt_CPU, @function
GLB_Config_SDIO_Host_Interrupt_CPU:
.LFB311:
	.loc 1 518 67 is_stmt 1
	.cfi_startproc
.LVL111:
	.loc 1 519 5
	.loc 1 519 75 is_stmt 0
	li	a5,-1878958080
	.loc 1 519 13
	lw	a5,-1668(a5)
	jr	a5
.LVL112:
	.cfi_endproc
.LFE311:
	.size	GLB_Config_SDIO_Host_Interrupt_CPU, .-GLB_Config_SDIO_Host_Interrupt_CPU
	.section	.tcm_code../drivers/soc/qcc743/std/src/qcc743_romapi_e907.c522,"ax",@progbits
	.align	1
	.globl	GLB_Config_SDIO_Host_Reset_SDU
	.type	GLB_Config_SDIO_Host_Reset_SDU, @function
GLB_Config_SDIO_Host_Reset_SDU:
.LFB312:
	.loc 1 523 63 is_stmt 1
	.cfi_startproc
.LVL113:
	.loc 1 524 5
	.loc 1 524 75 is_stmt 0
	li	a5,-1878958080
	.loc 1 524 13
	lw	a5,-1664(a5)
	jr	a5
.LVL114:
	.cfi_endproc
.LFE312:
	.size	GLB_Config_SDIO_Host_Reset_SDU, .-GLB_Config_SDIO_Host_Reset_SDU
	.section	.tcm_code../drivers/soc/qcc743/std/src/qcc743_romapi_e907.c527,"ax",@progbits
	.align	1
	.globl	GLB_Config_SDIO_Host_Reset_System
	.type	GLB_Config_SDIO_Host_Reset_System, @function
GLB_Config_SDIO_Host_Reset_System:
.LFB313:
	.loc 1 528 66 is_stmt 1
	.cfi_startproc
.LVL115:
	.loc 1 529 5
	.loc 1 529 75 is_stmt 0
	li	a5,-1878958080
	.loc 1 529 13
	lw	a5,-1660(a5)
	jr	a5
.LVL116:
	.cfi_endproc
.LFE313:
	.size	GLB_Config_SDIO_Host_Reset_System, .-GLB_Config_SDIO_Host_Reset_System
	.section	.tcm_code../drivers/soc/qcc743/std/src/qcc743_romapi_e907.c532,"ax",@progbits
	.align	1
	.globl	GLB_Get_Auto_Calc_Xtal_Type
	.type	GLB_Get_Auto_Calc_Xtal_Type, @function
GLB_Get_Auto_Calc_Xtal_Type:
.LFB314:
	.loc 1 533 67 is_stmt 1
	.cfi_startproc
.LVL117:
	.loc 1 534 5
	.loc 1 534 82 is_stmt 0
	li	a5,-1878958080
	.loc 1 534 13
	lw	a5,-1656(a5)
	jr	a5
.LVL118:
	.cfi_endproc
.LFE314:
	.size	GLB_Get_Auto_Calc_Xtal_Type, .-GLB_Get_Auto_Calc_Xtal_Type
	.section	.tcm_code../drivers/soc/qcc743/std/src/qcc743_romapi_e907.c537,"ax",@progbits
	.align	1
	.globl	GLB_Get_MCU_System_CLK_Div
	.type	GLB_Get_MCU_System_CLK_Div, @function
GLB_Get_MCU_System_CLK_Div:
.LFB315:
	.loc 1 538 85 is_stmt 1
	.cfi_startproc
.LVL119:
	.loc 1 539 5
	.loc 1 539 101 is_stmt 0
	li	a5,-1878958080
	.loc 1 539 13
	lw	a5,-1652(a5)
	jr	a5
.LVL120:
	.cfi_endproc
.LFE315:
	.size	GLB_Get_MCU_System_CLK_Div, .-GLB_Get_MCU_System_CLK_Div
	.section	.tcm_code../drivers/soc/qcc743/std/src/qcc743_romapi_e907.c543,"ax",@progbits
	.align	1
	.globl	GLB_Get_Reset_Reason
	.type	GLB_Get_Reset_Reason, @function
GLB_Get_Reset_Reason:
.LFB316:
	.loc 1 544 68 is_stmt 1
	.cfi_startproc
.LVL121:
	.loc 1 545 5
	.loc 1 545 90 is_stmt 0
	li	a5,-1878958080
	.loc 1 545 13
	lw	a5,-1648(a5)
	jr	a5
.LVL122:
	.cfi_endproc
.LFE316:
	.size	GLB_Get_Reset_Reason, .-GLB_Get_Reset_Reason
	.section	.tcm_code../drivers/soc/qcc743/std/src/qcc743_romapi_e907.c548,"ax",@progbits
	.align	1
	.globl	GLB_IR_RX_GPIO_Sel
	.type	GLB_IR_RX_GPIO_Sel, @function
GLB_IR_RX_GPIO_Sel:
.LFB317:
	.loc 1 549 49 is_stmt 1
	.cfi_startproc
.LVL123:
	.loc 1 550 5
	.loc 1 550 73 is_stmt 0
	li	a5,-1878958080
	.loc 1 550 13
	lw	a5,-1644(a5)
	jr	a5
.LVL124:
	.cfi_endproc
.LFE317:
	.size	GLB_IR_RX_GPIO_Sel, .-GLB_IR_RX_GPIO_Sel
	.section	.tcm_code../drivers/soc/qcc743/std/src/qcc743_romapi_e907.c553,"ax",@progbits
	.align	1
	.globl	GLB_Invert_ETH_REF_O_CLK
	.type	GLB_Invert_ETH_REF_O_CLK, @function
GLB_Invert_ETH_REF_O_CLK:
.LFB318:
	.loc 1 554 57 is_stmt 1
	.cfi_startproc
.LVL125:
	.loc 1 555 5
	.loc 1 555 75 is_stmt 0
	li	a5,-1878958080
	.loc 1 555 13
	lw	a5,-1640(a5)
	jr	a5
.LVL126:
	.cfi_endproc
.LFE318:
	.size	GLB_Invert_ETH_REF_O_CLK, .-GLB_Invert_ETH_REF_O_CLK
	.section	.tcm_code../drivers/soc/qcc743/std/src/qcc743_romapi_e907.c558,"ax",@progbits
	.align	1
	.globl	GLB_Invert_ETH_RX_CLK
	.type	GLB_Invert_ETH_RX_CLK, @function
GLB_Invert_ETH_RX_CLK:
.LFB319:
	.loc 1 559 54 is_stmt 1
	.cfi_startproc
.LVL127:
	.loc 1 560 5
	.loc 1 560 75 is_stmt 0
	li	a5,-1878958080
	.loc 1 560 13
	lw	a5,-1636(a5)
	jr	a5
.LVL128:
	.cfi_endproc
.LFE319:
	.size	GLB_Invert_ETH_RX_CLK, .-GLB_Invert_ETH_RX_CLK
	.section	.tcm_code../drivers/soc/qcc743/std/src/qcc743_romapi_e907.c563,"ax",@progbits
	.align	1
	.globl	GLB_Invert_ETH_TX_CLK
	.type	GLB_Invert_ETH_TX_CLK, @function
GLB_Invert_ETH_TX_CLK:
.LFB320:
	.loc 1 564 54 is_stmt 1
	.cfi_startproc
.LVL129:
	.loc 1 565 5
	.loc 1 565 75 is_stmt 0
	li	a5,-1878958080
	.loc 1 565 13
	lw	a5,-1632(a5)
	jr	a5
.LVL130:
	.cfi_endproc
.LFE320:
	.size	GLB_Invert_ETH_TX_CLK, .-GLB_Invert_ETH_TX_CLK
	.section	.tcm_code../drivers/soc/qcc743/std/src/qcc743_romapi_e907.c568,"ax",@progbits
	.align	1
	.globl	GLB_MCU_SW_System_Reset
	.type	GLB_MCU_SW_System_Reset, @function
GLB_MCU_SW_System_Reset:
.LFB321:
	.loc 1 569 57 is_stmt 1
	.cfi_startproc
.LVL131:
	.loc 1 570 5
	.loc 1 570 76 is_stmt 0
	li	a5,-1878958080
	.loc 1 570 13
	lw	a5,-1628(a5)
	jr	a5
.LVL132:
	.cfi_endproc
.LFE321:
	.size	GLB_MCU_SW_System_Reset, .-GLB_MCU_SW_System_Reset
	.section	.tcm_code../drivers/soc/qcc743/std/src/qcc743_romapi_e907.c573,"ax",@progbits
	.align	1
	.globl	GLB_PER_Clock_Gate
	.type	GLB_PER_Clock_Gate, @function
GLB_PER_Clock_Gate:
.LFB322:
	.loc 1 574 49 is_stmt 1
	.cfi_startproc
.LVL133:
	.loc 1 575 5
	.loc 1 575 73 is_stmt 0
	li	a5,-1878958080
	.loc 1 575 13
	lw	a5,-1624(a5)
	jr	a5
.LVL134:
	.cfi_endproc
.LFE322:
	.size	GLB_PER_Clock_Gate, .-GLB_PER_Clock_Gate
	.section	.tcm_code../drivers/soc/qcc743/std/src/qcc743_romapi_e907.c578,"ax",@progbits
	.align	1
	.globl	GLB_PER_Clock_UnGate
	.type	GLB_PER_Clock_UnGate, @function
GLB_PER_Clock_UnGate:
.LFB323:
	.loc 1 579 51 is_stmt 1
	.cfi_startproc
.LVL135:
	.loc 1 580 5
	.loc 1 580 73 is_stmt 0
	li	a5,-1878958080
	.loc 1 580 13
	lw	a5,-1620(a5)
	jr	a5
.LVL136:
	.cfi_endproc
.LFE323:
	.size	GLB_PER_Clock_UnGate, .-GLB_PER_Clock_UnGate
	.section	.tcm_code../drivers/soc/qcc743/std/src/qcc743_romapi_e907.c583,"ax",@progbits
	.align	1
	.globl	GLB_PLL_CGEN_Clock_Gate
	.type	GLB_PLL_CGEN_Clock_Gate, @function
GLB_PLL_CGEN_Clock_Gate:
.LFB324:
	.loc 1 584 53 is_stmt 1
	.cfi_startproc
.LVL137:
	.loc 1 585 5
	.loc 1 585 72 is_stmt 0
	li	a5,-1878958080
	.loc 1 585 13
	lw	a5,-1616(a5)
	jr	a5
.LVL138:
	.cfi_endproc
.LFE324:
	.size	GLB_PLL_CGEN_Clock_Gate, .-GLB_PLL_CGEN_Clock_Gate
	.section	.tcm_code../drivers/soc/qcc743/std/src/qcc743_romapi_e907.c588,"ax",@progbits
	.align	1
	.globl	GLB_PLL_CGEN_Clock_UnGate
	.type	GLB_PLL_CGEN_Clock_UnGate, @function
GLB_PLL_CGEN_Clock_UnGate:
.LFB325:
	.loc 1 589 55 is_stmt 1
	.cfi_startproc
.LVL139:
	.loc 1 590 5
	.loc 1 590 72 is_stmt 0
	li	a5,-1878958080
	.loc 1 590 13
	lw	a5,-1612(a5)
	jr	a5
.LVL140:
	.cfi_endproc
.LFE325:
	.size	GLB_PLL_CGEN_Clock_UnGate, .-GLB_PLL_CGEN_Clock_UnGate
	.section	.tcm_code../drivers/soc/qcc743/std/src/qcc743_romapi_e907.c593,"ax",@progbits
	.align	1
	.globl	GLB_Platform_Wakeup_PDS_Enable
	.type	GLB_Platform_Wakeup_PDS_Enable, @function
GLB_Platform_Wakeup_PDS_Enable:
.LFB326:
	.loc 1 594 63 is_stmt 1
	.cfi_startproc
.LVL141:
	.loc 1 595 5
	.loc 1 595 75 is_stmt 0
	li	a5,-1878958080
	.loc 1 595 13
	lw	a5,-1608(a5)
	jr	a5
.LVL142:
	.cfi_endproc
.LFE326:
	.size	GLB_Platform_Wakeup_PDS_Enable, .-GLB_Platform_Wakeup_PDS_Enable
	.section	.tcm_code../drivers/soc/qcc743/std/src/qcc743_romapi_e907.c598,"ax",@progbits
	.align	1
	.globl	GLB_Power_Off_AUPLL
	.type	GLB_Power_Off_AUPLL, @function
GLB_Power_Off_AUPLL:
.LFB327:
	.loc 1 599 42 is_stmt 1
	.cfi_startproc
	.loc 1 600 5
	.loc 1 600 65 is_stmt 0
	li	a5,-1878958080
	.loc 1 600 13
	lw	a5,-1604(a5)
	jr	a5
.LVL143:
	.cfi_endproc
.LFE327:
	.size	GLB_Power_Off_AUPLL, .-GLB_Power_Off_AUPLL
	.section	.tcm_code../drivers/soc/qcc743/std/src/qcc743_romapi_e907.c603,"ax",@progbits
	.align	1
	.globl	GLB_Power_Off_WIFIPLL
	.type	GLB_Power_Off_WIFIPLL, @function
GLB_Power_Off_WIFIPLL:
.LFB328:
	.loc 1 604 44 is_stmt 1
	.cfi_startproc
	.loc 1 605 5
	.loc 1 605 65 is_stmt 0
	li	a5,-1878958080
	.loc 1 605 13
	lw	a5,-1600(a5)
	jr	a5
.LVL144:
	.cfi_endproc
.LFE328:
	.size	GLB_Power_Off_WIFIPLL, .-GLB_Power_Off_WIFIPLL
	.section	.tcm_code../drivers/soc/qcc743/std/src/qcc743_romapi_e907.c609,"ax",@progbits
	.align	1
	.globl	GLB_Power_On_AUPLL
	.type	GLB_Power_On_AUPLL, @function
GLB_Power_On_AUPLL:
.LFB329:
	.loc 1 610 93 is_stmt 1
	.cfi_startproc
.LVL145:
	.loc 1 611 5
	.loc 1 611 117 is_stmt 0
	li	a5,-1878958080
	.loc 1 611 13
	lw	a5,-1596(a5)
	jr	a5
.LVL146:
	.cfi_endproc
.LFE329:
	.size	GLB_Power_On_AUPLL, .-GLB_Power_On_AUPLL
	.section	.tcm_code../drivers/soc/qcc743/std/src/qcc743_romapi_e907.c615,"ax",@progbits
	.align	1
	.globl	GLB_Power_On_WIFIPLL
	.type	GLB_Power_On_WIFIPLL, @function
GLB_Power_On_WIFIPLL:
.LFB330:
	.loc 1 616 95 is_stmt 1
	.cfi_startproc
.LVL147:
	.loc 1 617 5
	.loc 1 617 117 is_stmt 0
	li	a5,-1878958080
	.loc 1 617 13
	lw	a5,-1592(a5)
	jr	a5
.LVL148:
	.cfi_endproc
.LFE330:
	.size	GLB_Power_On_WIFIPLL, .-GLB_Power_On_WIFIPLL
	.section	.tcm_code../drivers/soc/qcc743/std/src/qcc743_romapi_e907.c620,"ax",@progbits
	.align	1
	.globl	GLB_Power_On_XTAL_And_PLL_CLK
	.type	GLB_Power_On_XTAL_And_PLL_CLK, @function
GLB_Power_On_XTAL_And_PLL_CLK:
.LFB331:
	.loc 1 621 81 is_stmt 1
	.cfi_startproc
.LVL149:
	.loc 1 622 5
	.loc 1 622 94 is_stmt 0
	li	a5,-1878958080
	.loc 1 622 13
	lw	a5,-1588(a5)
	jr	a5
.LVL150:
	.cfi_endproc
.LFE331:
	.size	GLB_Power_On_XTAL_And_PLL_CLK, .-GLB_Power_On_XTAL_And_PLL_CLK
	.section	.tcm_code../drivers/soc/qcc743/std/src/qcc743_romapi_e907.c625,"ax",@progbits
	.align	1
	.globl	GLB_SPI_Sig_Swap_Set
	.type	GLB_SPI_Sig_Swap_Set, @function
GLB_SPI_Sig_Swap_Set:
.LFB332:
	.loc 1 626 66 is_stmt 1
	.cfi_startproc
.LVL151:
	.loc 1 627 5
	.loc 1 627 88 is_stmt 0
	li	a5,-1878958080
	.loc 1 627 13
	lw	a5,-1584(a5)
	jr	a5
.LVL152:
	.cfi_endproc
.LFE332:
	.size	GLB_SPI_Sig_Swap_Set, .-GLB_SPI_Sig_Swap_Set
	.section	.tcm_code../drivers/soc/qcc743/std/src/qcc743_romapi_e907.c630,"ax",@progbits
	.align	1
	.globl	GLB_SW_CPU_Reset
	.type	GLB_SW_CPU_Reset, @function
GLB_SW_CPU_Reset:
.LFB333:
	.loc 1 631 39 is_stmt 1
	.cfi_startproc
	.loc 1 632 5
	.loc 1 632 65 is_stmt 0
	li	a5,-1878958080
	.loc 1 632 13
	lw	a5,-1580(a5)
	jr	a5
.LVL153:
	.cfi_endproc
.LFE333:
	.size	GLB_SW_CPU_Reset, .-GLB_SW_CPU_Reset
	.section	.tcm_code../drivers/soc/qcc743/std/src/qcc743_romapi_e907.c635,"ax",@progbits
	.align	1
	.globl	GLB_SW_POR_Reset
	.type	GLB_SW_POR_Reset, @function
GLB_SW_POR_Reset:
.LFB334:
	.loc 1 636 39 is_stmt 1
	.cfi_startproc
	.loc 1 637 5
	.loc 1 637 65 is_stmt 0
	li	a5,-1878958080
	.loc 1 637 13
	lw	a5,-1576(a5)
	jr	a5
.LVL154:
	.cfi_endproc
.LFE334:
	.size	GLB_SW_POR_Reset, .-GLB_SW_POR_Reset
	.section	.tcm_code../drivers/soc/qcc743/std/src/qcc743_romapi_e907.c640,"ax",@progbits
	.align	1
	.globl	GLB_SW_System_Reset
	.type	GLB_SW_System_Reset, @function
GLB_SW_System_Reset:
.LFB335:
	.loc 1 641 42 is_stmt 1
	.cfi_startproc
	.loc 1 642 5
	.loc 1 642 65 is_stmt 0
	li	a5,-1878958080
	.loc 1 642 13
	lw	a5,-1572(a5)
	jr	a5
.LVL155:
	.cfi_endproc
.LFE335:
	.size	GLB_SW_System_Reset, .-GLB_SW_System_Reset
	.section	.tcm_code../drivers/soc/qcc743/std/src/qcc743_romapi_e907.c645,"ax",@progbits
	.align	1
	.globl	GLB_Sel_MCU_TMR_GPIO_Clock
	.type	GLB_Sel_MCU_TMR_GPIO_Clock, @function
GLB_Sel_MCU_TMR_GPIO_Clock:
.LFB336:
	.loc 1 646 60 is_stmt 1
	.cfi_startproc
.LVL156:
	.loc 1 647 5
	.loc 1 647 76 is_stmt 0
	li	a5,-1878958080
	.loc 1 647 13
	lw	a5,-1568(a5)
	jr	a5
.LVL157:
	.cfi_endproc
.LFE336:
	.size	GLB_Sel_MCU_TMR_GPIO_Clock, .-GLB_Sel_MCU_TMR_GPIO_Clock
	.section	.tcm_code../drivers/soc/qcc743/std/src/qcc743_romapi_e907.c678,"ax",@progbits
	.align	1
	.globl	GLB_Set_Auto_Calc_Xtal_Type
	.type	GLB_Set_Auto_Calc_Xtal_Type, @function
GLB_Set_Auto_Calc_Xtal_Type:
.LFB337:
	.loc 1 679 66 is_stmt 1
	.cfi_startproc
.LVL158:
	.loc 1 680 5
	.loc 1 680 81 is_stmt 0
	li	a5,-1878958080
	.loc 1 680 13
	lw	a5,-1548(a5)
	jr	a5
.LVL159:
	.cfi_endproc
.LFE337:
	.size	GLB_Set_Auto_Calc_Xtal_Type, .-GLB_Set_Auto_Calc_Xtal_Type
	.section	.tcm_code../drivers/soc/qcc743/std/src/qcc743_romapi_e907.c690,"ax",@progbits
	.align	1
	.globl	GLB_Set_CPU_Reset_Address
	.type	GLB_Set_CPU_Reset_Address, @function
GLB_Set_CPU_Reset_Address:
.LFB338:
	.loc 1 691 73 is_stmt 1
	.cfi_startproc
.LVL160:
	.loc 1 692 5
	.loc 1 692 90 is_stmt 0
	li	a5,-1878958080
	.loc 1 692 13
	lw	a5,-1540(a5)
	jr	a5
.LVL161:
	.cfi_endproc
.LFE338:
	.size	GLB_Set_CPU_Reset_Address, .-GLB_Set_CPU_Reset_Address
	.section	.tcm_code../drivers/soc/qcc743/std/src/qcc743_romapi_e907.c702,"ax",@progbits
	.align	1
	.globl	GLB_Set_DIG_32K_CLK
	.type	GLB_Set_DIG_32K_CLK, @function
GLB_Set_DIG_32K_CLK:
.LFB339:
	.loc 1 703 90 is_stmt 1
	.cfi_startproc
.LVL162:
	.loc 1 704 5
	.loc 1 704 113 is_stmt 0
	li	a5,-1878958080
	.loc 1 704 13
	lw	a5,-1528(a5)
	jr	a5
.LVL163:
	.cfi_endproc
.LFE339:
	.size	GLB_Set_DIG_32K_CLK, .-GLB_Set_DIG_32K_CLK
	.section	.tcm_code../drivers/soc/qcc743/std/src/qcc743_romapi_e907.c707,"ax",@progbits
	.align	1
	.globl	GLB_Set_DIG_512K_CLK
	.type	GLB_Set_DIG_512K_CLK, @function
GLB_Set_DIG_512K_CLK:
.LFB340:
	.loc 1 708 90 is_stmt 1
	.cfi_startproc
.LVL164:
	.loc 1 709 5
	.loc 1 709 112 is_stmt 0
	li	a5,-1878958080
	.loc 1 709 13
	lw	a5,-1524(a5)
	jr	a5
.LVL165:
	.cfi_endproc
.LFE340:
	.size	GLB_Set_DIG_512K_CLK, .-GLB_Set_DIG_512K_CLK
	.section	.tcm_code../drivers/soc/qcc743/std/src/qcc743_romapi_e907.c712,"ax",@progbits
	.align	1
	.globl	GLB_Set_DIG_CLK_Sel
	.type	GLB_Set_DIG_CLK_Sel, @function
GLB_Set_DIG_CLK_Sel:
.LFB341:
	.loc 1 713 52 is_stmt 1
	.cfi_startproc
.LVL166:
	.loc 1 714 5
	.loc 1 714 75 is_stmt 0
	li	a5,-1878958080
	.loc 1 714 13
	lw	a5,-1520(a5)
	jr	a5
.LVL167:
	.cfi_endproc
.LFE341:
	.size	GLB_Set_DIG_CLK_Sel, .-GLB_Set_DIG_CLK_Sel
	.section	.tcm_code../drivers/soc/qcc743/std/src/qcc743_romapi_e907.c717,"ax",@progbits
	.align	1
	.globl	GLB_Set_DMA_CLK
	.type	GLB_Set_DMA_CLK, @function
GLB_Set_DMA_CLK:
.LFB342:
	.loc 1 718 61 is_stmt 1
	.cfi_startproc
.LVL168:
	.loc 1 719 5
	.loc 1 719 88 is_stmt 0
	li	a5,-1878958080
	.loc 1 719 13
	lw	a5,-1516(a5)
	jr	a5
.LVL169:
	.cfi_endproc
.LFE342:
	.size	GLB_Set_DMA_CLK, .-GLB_Set_DMA_CLK
	.section	.tcm_code../drivers/soc/qcc743/std/src/qcc743_romapi_e907.c722,"ax",@progbits
	.align	1
	.globl	GLB_Set_EM_Sel
	.type	GLB_Set_EM_Sel, @function
GLB_Set_EM_Sel:
.LFB343:
	.loc 1 723 47 is_stmt 1
	.cfi_startproc
.LVL170:
	.loc 1 724 5
	.loc 1 724 75 is_stmt 0
	li	a5,-1878958080
	.loc 1 724 13
	lw	a5,-1512(a5)
	jr	a5
.LVL171:
	.cfi_endproc
.LFE343:
	.size	GLB_Set_EM_Sel, .-GLB_Set_EM_Sel
	.section	.tcm_code../drivers/soc/qcc743/std/src/qcc743_romapi_e907.c727,"ax",@progbits
	.align	1
	.globl	GLB_Set_ETH_REF_O_CLK_Sel
	.type	GLB_Set_ETH_REF_O_CLK_Sel, @function
GLB_Set_ETH_REF_O_CLK_Sel:
.LFB344:
	.loc 1 728 58 is_stmt 1
	.cfi_startproc
.LVL172:
	.loc 1 729 5
	.loc 1 729 75 is_stmt 0
	li	a5,-1878958080
	.loc 1 729 13
	lw	a5,-1508(a5)
	jr	a5
.LVL173:
	.cfi_endproc
.LFE344:
	.size	GLB_Set_ETH_REF_O_CLK_Sel, .-GLB_Set_ETH_REF_O_CLK_Sel
	.section	.tcm_code../drivers/soc/qcc743/std/src/qcc743_romapi_e907.c739,"ax",@progbits
	.align	1
	.globl	GLB_Set_I2S_CLK
	.type	GLB_Set_I2S_CLK, @function
GLB_Set_I2S_CLK:
.LFB345:
	.loc 1 740 100 is_stmt 1
	.cfi_startproc
.LVL174:
	.loc 1 741 5
	.loc 1 741 127 is_stmt 0
	li	a5,-1878958080
	.loc 1 741 13
	lw	a5,-1496(a5)
	jr	a5
.LVL175:
	.cfi_endproc
.LFE345:
	.size	GLB_Set_I2S_CLK, .-GLB_Set_I2S_CLK
	.section	.tcm_code../drivers/soc/qcc743/std/src/qcc743_romapi_e907.c751,"ax",@progbits
	.align	1
	.globl	GLB_Set_ISP_Muxpll_80M_Sel
	.type	GLB_Set_ISP_Muxpll_80M_Sel, @function
GLB_Set_ISP_Muxpll_80M_Sel:
.LFB346:
	.loc 1 752 59 is_stmt 1
	.cfi_startproc
.LVL176:
	.loc 1 753 5
	.loc 1 753 75 is_stmt 0
	li	a5,-1878958080
	.loc 1 753 13
	lw	a5,-1488(a5)
	jr	a5
.LVL177:
	.cfi_endproc
.LFE346:
	.size	GLB_Set_ISP_Muxpll_80M_Sel, .-GLB_Set_ISP_Muxpll_80M_Sel
	.section	.tcm_code../drivers/soc/qcc743/std/src/qcc743_romapi_e907.c756,"ax",@progbits
	.align	1
	.globl	GLB_Set_MCU_Muxpll_160M_Sel
	.type	GLB_Set_MCU_Muxpll_160M_Sel, @function
GLB_Set_MCU_Muxpll_160M_Sel:
.LFB347:
	.loc 1 757 60 is_stmt 1
	.cfi_startproc
.LVL178:
	.loc 1 758 5
	.loc 1 758 75 is_stmt 0
	li	a5,-1878958080
	.loc 1 758 13
	lw	a5,-1484(a5)
	jr	a5
.LVL179:
	.cfi_endproc
.LFE347:
	.size	GLB_Set_MCU_Muxpll_160M_Sel, .-GLB_Set_MCU_Muxpll_160M_Sel
	.section	.tcm_code../drivers/soc/qcc743/std/src/qcc743_romapi_e907.c761,"ax",@progbits
	.align	1
	.globl	GLB_Set_MCU_Muxpll_80M_Sel
	.type	GLB_Set_MCU_Muxpll_80M_Sel, @function
GLB_Set_MCU_Muxpll_80M_Sel:
.LFB348:
	.loc 1 762 59 is_stmt 1
	.cfi_startproc
.LVL180:
	.loc 1 763 5
	.loc 1 763 75 is_stmt 0
	li	a5,-1878958080
	.loc 1 763 13
	lw	a5,-1480(a5)
	jr	a5
.LVL181:
	.cfi_endproc
.LFE348:
	.size	GLB_Set_MCU_Muxpll_80M_Sel, .-GLB_Set_MCU_Muxpll_80M_Sel
	.section	.tcm_code../drivers/soc/qcc743/std/src/qcc743_romapi_e907.c766,"ax",@progbits
	.align	1
	.globl	GLB_Set_MCU_SPI_0_ACT_MOD_Sel
	.type	GLB_Set_MCU_SPI_0_ACT_MOD_Sel, @function
GLB_Set_MCU_SPI_0_ACT_MOD_Sel:
.LFB349:
	.loc 1 767 59 is_stmt 1
	.cfi_startproc
.LVL182:
	.loc 1 768 5
	.loc 1 768 72 is_stmt 0
	li	a5,-1878958080
	.loc 1 768 13
	lw	a5,-1476(a5)
	jr	a5
.LVL183:
	.cfi_endproc
.LFE349:
	.size	GLB_Set_MCU_SPI_0_ACT_MOD_Sel, .-GLB_Set_MCU_SPI_0_ACT_MOD_Sel
	.section	.tcm_code../drivers/soc/qcc743/std/src/qcc743_romapi_e907.c771,"ax",@progbits
	.align	1
	.globl	GLB_Set_MCU_System_CLK
	.type	GLB_Set_MCU_System_CLK, @function
GLB_Set_MCU_System_CLK:
.LFB350:
	.loc 1 772 56 is_stmt 1
	.cfi_startproc
.LVL184:
	.loc 1 773 5
	.loc 1 773 76 is_stmt 0
	li	a5,-1878958080
	.loc 1 773 13
	lw	a5,-1472(a5)
	jr	a5
.LVL185:
	.cfi_endproc
.LFE350:
	.size	GLB_Set_MCU_System_CLK, .-GLB_Set_MCU_System_CLK
	.section	.tcm_code../drivers/soc/qcc743/std/src/qcc743_romapi_e907.c776,"ax",@progbits
	.align	1
	.globl	GLB_Set_MCU_System_CLK_Div
	.type	GLB_Set_MCU_System_CLK_Div, @function
GLB_Set_MCU_System_CLK_Div:
.LFB351:
	.loc 1 777 83 is_stmt 1
	.cfi_startproc
.LVL186:
	.loc 1 778 5
	.loc 1 778 99 is_stmt 0
	li	a5,-1878958080
	.loc 1 778 13
	lw	a5,-1468(a5)
	jr	a5
.LVL187:
	.cfi_endproc
.LFE351:
	.size	GLB_Set_MCU_System_CLK_Div, .-GLB_Set_MCU_System_CLK_Div
	.section	.tcm_code../drivers/soc/qcc743/std/src/qcc743_romapi_e907.c781,"ax",@progbits
	.align	1
	.globl	GLB_Set_PDM_IO_Sel
	.type	GLB_Set_PDM_IO_Sel, @function
GLB_Set_PDM_IO_Sel:
.LFB352:
	.loc 1 782 50 is_stmt 1
	.cfi_startproc
.LVL188:
	.loc 1 783 5
	.loc 1 783 74 is_stmt 0
	li	a5,-1878958080
	.loc 1 783 13
	lw	a5,-1464(a5)
	jr	a5
.LVL189:
	.cfi_endproc
.LFE352:
	.size	GLB_Set_PDM_IO_Sel, .-GLB_Set_PDM_IO_Sel
	.section	.tcm_code../drivers/soc/qcc743/std/src/qcc743_romapi_e907.c786,"ax",@progbits
	.align	1
	.globl	GLB_Set_PKA_CLK_Sel
	.type	GLB_Set_PKA_CLK_Sel, @function
GLB_Set_PKA_CLK_Sel:
.LFB353:
	.loc 1 787 52 is_stmt 1
	.cfi_startproc
.LVL190:
	.loc 1 788 5
	.loc 1 788 75 is_stmt 0
	li	a5,-1878958080
	.loc 1 788 13
	lw	a5,-1460(a5)
	jr	a5
.LVL191:
	.cfi_endproc
.LFE353:
	.size	GLB_Set_PKA_CLK_Sel, .-GLB_Set_PKA_CLK_Sel
	.section	.tcm_code../drivers/soc/qcc743/std/src/qcc743_romapi_e907.c798,"ax",@progbits
	.align	1
	.globl	GLB_Set_PWM1_IO_Sel
	.type	GLB_Set_PWM1_IO_Sel, @function
GLB_Set_PWM1_IO_Sel:
.LFB354:
	.loc 1 799 51 is_stmt 1
	.cfi_startproc
.LVL192:
	.loc 1 800 5
	.loc 1 800 74 is_stmt 0
	li	a5,-1878958080
	.loc 1 800 13
	lw	a5,-1452(a5)
	jr	a5
.LVL193:
	.cfi_endproc
.LFE354:
	.size	GLB_Set_PWM1_IO_Sel, .-GLB_Set_PWM1_IO_Sel
	.section	.tcm_code../drivers/soc/qcc743/std/src/qcc743_romapi_e907.c803,"ax",@progbits
	.align	1
	.globl	GLB_Set_Peripheral_DMA_CN
	.type	GLB_Set_Peripheral_DMA_CN, @function
GLB_Set_Peripheral_DMA_CN:
.LFB355:
	.loc 1 804 68 is_stmt 1
	.cfi_startproc
.LVL194:
	.loc 1 805 5
	.loc 1 805 85 is_stmt 0
	li	a5,-1878958080
	.loc 1 805 13
	lw	a5,-1448(a5)
	jr	a5
.LVL195:
	.cfi_endproc
.LFE355:
	.size	GLB_Set_Peripheral_DMA_CN, .-GLB_Set_Peripheral_DMA_CN
	.section	.tcm_code../drivers/soc/qcc743/std/src/qcc743_romapi_e907.c815,"ax",@progbits
	.align	1
	.globl	GLB_Set_SF_CLK
	.type	GLB_Set_SF_CLK, @function
GLB_Set_SF_CLK:
.LFB356:
	.loc 1 816 76 is_stmt 1
	.cfi_startproc
.LVL196:
	.loc 1 817 5
	.loc 1 817 104 is_stmt 0
	li	a5,-1878958080
	.loc 1 817 13
	lw	a5,-1440(a5)
	jr	a5
.LVL197:
	.cfi_endproc
.LFE356:
	.size	GLB_Set_SF_CLK, .-GLB_Set_SF_CLK
	.section	.tcm_code../drivers/soc/qcc743/std/src/qcc743_romapi_e907.c820,"ax",@progbits
	.align	1
	.globl	GLB_Set_SFlash2_IO_PARM
	.type	GLB_Set_SFlash2_IO_PARM, @function
GLB_Set_SFlash2_IO_PARM:
.LFB357:
	.loc 1 821 60 is_stmt 1
	.cfi_startproc
.LVL198:
	.loc 1 822 5
	.loc 1 822 79 is_stmt 0
	li	a5,-1878958080
	.loc 1 822 13
	lw	a5,-1436(a5)
	jr	a5
.LVL199:
	.cfi_endproc
.LFE357:
	.size	GLB_Set_SFlash2_IO_PARM, .-GLB_Set_SFlash2_IO_PARM
	.section	.tcm_code../drivers/soc/qcc743/std/src/qcc743_romapi_e907.c825,"ax",@progbits
	.align	1
	.globl	GLB_Set_SFlash_IO_PARM
	.type	GLB_Set_SFlash_IO_PARM, @function
GLB_Set_SFlash_IO_PARM:
.LFB358:
	.loc 1 826 99 is_stmt 1
	.cfi_startproc
.LVL200:
	.loc 1 827 5
	.loc 1 827 119 is_stmt 0
	li	a5,-1878958080
	.loc 1 827 13
	lw	a5,-1432(a5)
	jr	a5
.LVL201:
	.cfi_endproc
.LFE358:
	.size	GLB_Set_SFlash_IO_PARM, .-GLB_Set_SFlash_IO_PARM
	.section	.tcm_code../drivers/soc/qcc743/std/src/qcc743_romapi_e907.c837,"ax",@progbits
	.align	1
	.globl	GLB_Set_SRAM_PARM
	.type	GLB_Set_SRAM_PARM, @function
GLB_Set_SRAM_PARM:
.LFB359:
	.loc 1 838 50 is_stmt 1
	.cfi_startproc
.LVL202:
	.loc 1 839 5
	.loc 1 839 75 is_stmt 0
	li	a5,-1878958080
	.loc 1 839 13
	lw	a5,-1424(a5)
	jr	a5
.LVL203:
	.cfi_endproc
.LFE359:
	.size	GLB_Set_SRAM_PARM, .-GLB_Set_SRAM_PARM
	.section	.tcm_code../drivers/soc/qcc743/std/src/qcc743_romapi_e907.c842,"ax",@progbits
	.align	1
	.globl	GLB_Set_SRAM_RET
	.type	GLB_Set_SRAM_RET, @function
GLB_Set_SRAM_RET:
.LFB360:
	.loc 1 843 49 is_stmt 1
	.cfi_startproc
.LVL204:
	.loc 1 844 5
	.loc 1 844 75 is_stmt 0
	li	a5,-1878958080
	.loc 1 844 13
	lw	a5,-1420(a5)
	jr	a5
.LVL205:
	.cfi_endproc
.LFE360:
	.size	GLB_Set_SRAM_RET, .-GLB_Set_SRAM_RET
	.section	.tcm_code../drivers/soc/qcc743/std/src/qcc743_romapi_e907.c847,"ax",@progbits
	.align	1
	.globl	GLB_Set_SRAM_SLP
	.type	GLB_Set_SRAM_SLP, @function
GLB_Set_SRAM_SLP:
.LFB361:
	.loc 1 848 49 is_stmt 1
	.cfi_startproc
.LVL206:
	.loc 1 849 5
	.loc 1 849 75 is_stmt 0
	li	a5,-1878958080
	.loc 1 849 13
	lw	a5,-1416(a5)
	jr	a5
.LVL207:
	.cfi_endproc
.LFE361:
	.size	GLB_Set_SRAM_SLP, .-GLB_Set_SRAM_SLP
	.section	.tcm_code../drivers/soc/qcc743/std/src/qcc743_romapi_e907.c852,"ax",@progbits
	.align	1
	.globl	GLB_Set_SSC_CLK_From_WIFIPLL
	.type	GLB_Set_SSC_CLK_From_WIFIPLL, @function
GLB_Set_SSC_CLK_From_WIFIPLL:
.LFB362:
	.loc 1 853 61 is_stmt 1
	.cfi_startproc
.LVL208:
	.loc 1 854 5
	.loc 1 854 75 is_stmt 0
	li	a5,-1878958080
	.loc 1 854 13
	lw	a5,-1412(a5)
	jr	a5
.LVL209:
	.cfi_endproc
.LFE362:
	.size	GLB_Set_SSC_CLK_From_WIFIPLL, .-GLB_Set_SSC_CLK_From_WIFIPLL
	.section	.tcm_code../drivers/soc/qcc743/std/src/qcc743_romapi_e907.c864,"ax",@progbits
	.align	1
	.globl	GLB_Set_UART_CLK
	.type	GLB_Set_UART_CLK, @function
GLB_Set_UART_CLK:
.LFB363:
	.loc 1 865 78 is_stmt 1
	.cfi_startproc
.LVL210:
	.loc 1 866 5
	.loc 1 866 104 is_stmt 0
	li	a5,-1878958080
	.loc 1 866 13
	lw	a5,-1404(a5)
	jr	a5
.LVL211:
	.cfi_endproc
.LFE363:
	.size	GLB_Set_UART_CLK, .-GLB_Set_UART_CLK
	.section	.tcm_code../drivers/soc/qcc743/std/src/qcc743_romapi_e907.c869,"ax",@progbits
	.align	1
	.globl	GLB_Set_USB_CLK_From_WIFIPLL
	.type	GLB_Set_USB_CLK_From_WIFIPLL, @function
GLB_Set_USB_CLK_From_WIFIPLL:
.LFB364:
	.loc 1 870 61 is_stmt 1
	.cfi_startproc
.LVL212:
	.loc 1 871 5
	.loc 1 871 75 is_stmt 0
	li	a5,-1878958080
	.loc 1 871 13
	lw	a5,-1400(a5)
	jr	a5
.LVL213:
	.cfi_endproc
.LFE364:
	.size	GLB_Set_USB_CLK_From_WIFIPLL, .-GLB_Set_USB_CLK_From_WIFIPLL
	.section	.tcm_code../drivers/soc/qcc743/std/src/qcc743_romapi_e907.c874,"ax",@progbits
	.align	1
	.globl	GLB_Swap_MCU_SPI_0_MOSI_With_MISO
	.type	GLB_Swap_MCU_SPI_0_MOSI_With_MISO, @function
GLB_Swap_MCU_SPI_0_MOSI_With_MISO:
.LFB365:
	.loc 1 875 76 is_stmt 1
	.cfi_startproc
.LVL214:
	.loc 1 876 5
	.loc 1 876 85 is_stmt 0
	li	a5,-1878958080
	.loc 1 876 13
	lw	a5,-1396(a5)
	jr	a5
.LVL215:
	.cfi_endproc
.LFE365:
	.size	GLB_Swap_MCU_SPI_0_MOSI_With_MISO, .-GLB_Swap_MCU_SPI_0_MOSI_With_MISO
	.section	.tcm_code../drivers/soc/qcc743/std/src/qcc743_romapi_e907.c879,"ax",@progbits
	.align	1
	.globl	GLB_Trim_Ldo18ioBypass
	.type	GLB_Trim_Ldo18ioBypass, @function
GLB_Trim_Ldo18ioBypass:
.LFB366:
	.loc 1 880 45 is_stmt 1
	.cfi_startproc
	.loc 1 881 5
	.loc 1 881 65 is_stmt 0
	li	a5,-1878958080
	.loc 1 881 13
	lw	a5,-1392(a5)
	jr	a5
.LVL216:
	.cfi_endproc
.LFE366:
	.size	GLB_Trim_Ldo18ioBypass, .-GLB_Trim_Ldo18ioBypass
	.section	.tcm_code../drivers/soc/qcc743/std/src/qcc743_romapi_e907.c884,"ax",@progbits
	.align	1
	.globl	GLB_Trim_Ldo18ioVoutSel
	.type	GLB_Trim_Ldo18ioVoutSel, @function
GLB_Trim_Ldo18ioVoutSel:
.LFB367:
	.loc 1 885 46 is_stmt 1
	.cfi_startproc
	.loc 1 886 5
	.loc 1 886 65 is_stmt 0
	li	a5,-1878958080
	.loc 1 886 13
	lw	a5,-1388(a5)
	jr	a5
.LVL217:
	.cfi_endproc
.LFE367:
	.size	GLB_Trim_Ldo18ioVoutSel, .-GLB_Trim_Ldo18ioVoutSel
	.section	.tcm_code../drivers/soc/qcc743/std/src/qcc743_romapi_e907.c889,"ax",@progbits
	.align	1
	.globl	GLB_Trim_Ldo18ioVoutTrim
	.type	GLB_Trim_Ldo18ioVoutTrim, @function
GLB_Trim_Ldo18ioVoutTrim:
.LFB368:
	.loc 1 890 47 is_stmt 1
	.cfi_startproc
	.loc 1 891 5
	.loc 1 891 65 is_stmt 0
	li	a5,-1878958080
	.loc 1 891 13
	lw	a5,-1384(a5)
	jr	a5
.LVL218:
	.cfi_endproc
.LFE368:
	.size	GLB_Trim_Ldo18ioVoutTrim, .-GLB_Trim_Ldo18ioVoutTrim
	.section	.tcm_code../drivers/soc/qcc743/std/src/qcc743_romapi_e907.c894,"ax",@progbits
	.align	1
	.globl	GLB_UART_Fun_Sel
	.type	GLB_UART_Fun_Sel, @function
GLB_UART_Fun_Sel:
.LFB369:
	.loc 1 895 59 is_stmt 1
	.cfi_startproc
.LVL219:
	.loc 1 896 5
	.loc 1 896 85 is_stmt 0
	li	a5,-1878958080
	.loc 1 896 13
	lw	a5,-1380(a5)
	jr	a5
.LVL220:
	.cfi_endproc
.LFE369:
	.size	GLB_UART_Fun_Sel, .-GLB_UART_Fun_Sel
	.section	.tcm_code../drivers/soc/qcc743/std/src/qcc743_romapi_e907.c899,"ax",@progbits
	.align	1
	.globl	GLB_UART_Sig_Swap_Set
	.type	GLB_UART_Sig_Swap_Set, @function
GLB_UART_Sig_Swap_Set:
.LFB370:
	.loc 1 900 67 is_stmt 1
	.cfi_startproc
.LVL221:
	.loc 1 901 5
	.loc 1 901 88 is_stmt 0
	li	a5,-1878958080
	.loc 1 901 13
	lw	a5,-1376(a5)
	jr	a5
.LVL222:
	.cfi_endproc
.LFE370:
	.size	GLB_UART_Sig_Swap_Set, .-GLB_UART_Sig_Swap_Set
	.section	.tcm_code../drivers/soc/qcc743/std/src/qcc743_romapi_e907.c904,"ax",@progbits
	.align	1
	.globl	GLB_WIFIPLL_Ref_Clk_Sel
	.type	GLB_WIFIPLL_Ref_Clk_Sel, @function
GLB_WIFIPLL_Ref_Clk_Sel:
.LFB371:
	.loc 1 905 56 is_stmt 1
	.cfi_startproc
.LVL223:
	.loc 1 906 5
	.loc 1 906 75 is_stmt 0
	li	a5,-1878958080
	.loc 1 906 13
	lw	a5,-1372(a5)
	jr	a5
.LVL224:
	.cfi_endproc
.LFE371:
	.size	GLB_WIFIPLL_Ref_Clk_Sel, .-GLB_WIFIPLL_Ref_Clk_Sel
	.section	.tcm_code../drivers/soc/qcc743/std/src/qcc743_romapi_e907.c909,"ax",@progbits
	.align	1
	.globl	GLB_Get_Core_Type
	.type	GLB_Get_Core_Type, @function
GLB_Get_Core_Type:
.LFB372:
	.loc 1 910 32 is_stmt 1
	.cfi_startproc
	.loc 1 911 5
	.loc 1 911 57 is_stmt 0
	li	a5,-1878958080
	.loc 1 911 13
	lw	a5,-1368(a5)
	jr	a5
.LVL225:
	.cfi_endproc
.LFE372:
	.size	GLB_Get_Core_Type, .-GLB_Get_Core_Type
	.section	.tcm_code../drivers/soc/qcc743/std/src/qcc743_romapi_e907.c914,"ax",@progbits
	.align	1
	.globl	GLB_Get_MCU_Muxpll_160M_Sel
	.type	GLB_Get_MCU_Muxpll_160M_Sel, @function
GLB_Get_MCU_Muxpll_160M_Sel:
.LFB373:
	.loc 1 915 42 is_stmt 1
	.cfi_startproc
	.loc 1 916 5
	.loc 1 916 57 is_stmt 0
	li	a5,-1878958080
	.loc 1 916 13
	lw	a5,-1364(a5)
	jr	a5
.LVL226:
	.cfi_endproc
.LFE373:
	.size	GLB_Get_MCU_Muxpll_160M_Sel, .-GLB_Get_MCU_Muxpll_160M_Sel
	.section	.tcm_code../drivers/soc/qcc743/std/src/qcc743_romapi_e907.c919,"ax",@progbits
	.align	1
	.globl	GLB_Get_MCU_Muxpll_80M_Sel
	.type	GLB_Get_MCU_Muxpll_80M_Sel, @function
GLB_Get_MCU_Muxpll_80M_Sel:
.LFB374:
	.loc 1 920 41 is_stmt 1
	.cfi_startproc
	.loc 1 921 5
	.loc 1 921 57 is_stmt 0
	li	a5,-1878958080
	.loc 1 921 13
	lw	a5,-1360(a5)
	jr	a5
.LVL227:
	.cfi_endproc
.LFE374:
	.size	GLB_Get_MCU_Muxpll_80M_Sel, .-GLB_Get_MCU_Muxpll_80M_Sel
	.section	.tcm_code../drivers/soc/qcc743/std/src/qcc743_romapi_e907.c924,"ax",@progbits
	.align	1
	.globl	GLB_Get_SRAM_PARM
	.type	GLB_Get_SRAM_PARM, @function
GLB_Get_SRAM_PARM:
.LFB375:
	.loc 1 925 33 is_stmt 1
	.cfi_startproc
	.loc 1 926 5
	.loc 1 926 58 is_stmt 0
	li	a5,-1878958080
	.loc 1 926 13
	lw	a5,-1356(a5)
	jr	a5
.LVL228:
	.cfi_endproc
.LFE375:
	.size	GLB_Get_SRAM_PARM, .-GLB_Get_SRAM_PARM
	.section	.tcm_code../drivers/soc/qcc743/std/src/qcc743_romapi_e907.c929,"ax",@progbits
	.align	1
	.globl	GLB_Get_SRAM_RET
	.type	GLB_Get_SRAM_RET, @function
GLB_Get_SRAM_RET:
.LFB376:
	.loc 1 930 32 is_stmt 1
	.cfi_startproc
	.loc 1 931 5
	.loc 1 931 58 is_stmt 0
	li	a5,-1878958080
	.loc 1 931 13
	lw	a5,-1352(a5)
	jr	a5
.LVL229:
	.cfi_endproc
.LFE376:
	.size	GLB_Get_SRAM_RET, .-GLB_Get_SRAM_RET
	.section	.tcm_code../drivers/soc/qcc743/std/src/qcc743_romapi_e907.c934,"ax",@progbits
	.align	1
	.globl	GLB_Get_SRAM_SLP
	.type	GLB_Get_SRAM_SLP, @function
GLB_Get_SRAM_SLP:
.LFB377:
	.loc 1 935 32 is_stmt 1
	.cfi_startproc
	.loc 1 936 5
	.loc 1 936 58 is_stmt 0
	li	a5,-1878958080
	.loc 1 936 13
	lw	a5,-1348(a5)
	jr	a5
.LVL230:
	.cfi_endproc
.LFE377:
	.size	GLB_Get_SRAM_SLP, .-GLB_Get_SRAM_SLP
	.section	.tcm_code../drivers/soc/qcc743/std/src/qcc743_romapi_e907.c939,"ax",@progbits
	.align	1
	.globl	GLB_Get_BMX_TO_Status
	.type	GLB_Get_BMX_TO_Status, @function
GLB_Get_BMX_TO_Status:
.LFB378:
	.loc 1 940 36 is_stmt 1
	.cfi_startproc
	.loc 1 941 5
	.loc 1 941 57 is_stmt 0
	li	a5,-1878958080
	.loc 1 941 13
	lw	a5,-1344(a5)
	jr	a5
.LVL231:
	.cfi_endproc
.LFE378:
	.size	GLB_Get_BMX_TO_Status, .-GLB_Get_BMX_TO_Status
	.section	.tcm_code../drivers/soc/qcc743/std/src/qcc743_romapi_e907.c944,"ax",@progbits
	.align	1
	.globl	GLB_Clr_GPIO_IntStatus
	.type	GLB_Clr_GPIO_IntStatus, @function
GLB_Clr_GPIO_IntStatus:
.LFB379:
	.loc 1 945 56 is_stmt 1
	.cfi_startproc
.LVL232:
	.loc 1 946 5
	.loc 1 946 76 is_stmt 0
	li	a5,-1878958080
	.loc 1 946 13
	lw	a5,-1340(a5)
	jr	a5
.LVL233:
	.cfi_endproc
.LFE379:
	.size	GLB_Clr_GPIO_IntStatus, .-GLB_Clr_GPIO_IntStatus
	.section	.tcm_code../drivers/soc/qcc743/std/src/qcc743_romapi_e907.c949,"ax",@progbits
	.align	1
	.globl	GLB_Embedded_Flash_Pad_Enable
	.type	GLB_Embedded_Flash_Pad_Enable, @function
GLB_Embedded_Flash_Pad_Enable:
.LFB380:
	.loc 1 950 65 is_stmt 1
	.cfi_startproc
.LVL234:
	.loc 1 951 5
	.loc 1 951 78 is_stmt 0
	li	a5,-1878958080
	.loc 1 951 13
	lw	a5,-1336(a5)
	jr	a5
.LVL235:
	.cfi_endproc
.LFE380:
	.size	GLB_Embedded_Flash_Pad_Enable, .-GLB_Embedded_Flash_Pad_Enable
	.section	.tcm_code../drivers/soc/qcc743/std/src/qcc743_romapi_e907.c961,"ax",@progbits
	.align	1
	.globl	GLB_GPIO_Fifo_Clear
	.type	GLB_GPIO_Fifo_Clear, @function
GLB_GPIO_Fifo_Clear:
.LFB381:
	.loc 1 962 42 is_stmt 1
	.cfi_startproc
	.loc 1 963 5
	.loc 1 963 65 is_stmt 0
	li	a5,-1878958080
	.loc 1 963 13
	lw	a5,-1328(a5)
	jr	a5
.LVL236:
	.cfi_endproc
.LFE381:
	.size	GLB_GPIO_Fifo_Clear, .-GLB_GPIO_Fifo_Clear
	.section	.tcm_code../drivers/soc/qcc743/std/src/qcc743_romapi_e907.c967,"ax",@progbits
	.align	1
	.globl	GLB_GPIO_Fifo_Init
	.type	GLB_GPIO_Fifo_Init, @function
GLB_GPIO_Fifo_Init:
.LFB382:
	.loc 1 968 64 is_stmt 1
	.cfi_startproc
.LVL237:
	.loc 1 969 5
	.loc 1 969 88 is_stmt 0
	li	a5,-1878958080
	.loc 1 969 13
	lw	a5,-1324(a5)
	jr	a5
.LVL238:
	.cfi_endproc
.LFE382:
	.size	GLB_GPIO_Fifo_Init, .-GLB_GPIO_Fifo_Init
	.section	.tcm_code../drivers/soc/qcc743/std/src/qcc743_romapi_e907.c972,"ax",@progbits
	.align	1
	.globl	GLB_GPIO_Fifo_IntClear
	.type	GLB_GPIO_Fifo_IntClear, @function
GLB_GPIO_Fifo_IntClear:
.LFB383:
	.loc 1 973 56 is_stmt 1
	.cfi_startproc
.LVL239:
	.loc 1 974 5
	.loc 1 974 76 is_stmt 0
	li	a5,-1878958080
	.loc 1 974 13
	lw	a5,-1320(a5)
	jr	a5
.LVL240:
	.cfi_endproc
.LFE383:
	.size	GLB_GPIO_Fifo_IntClear, .-GLB_GPIO_Fifo_IntClear
	.section	.tcm_code../drivers/soc/qcc743/std/src/qcc743_romapi_e907.c977,"ax",@progbits
	.align	1
	.globl	GLB_GPIO_Fifo_IntMask
	.type	GLB_GPIO_Fifo_IntMask, @function
GLB_GPIO_Fifo_IntMask:
.LFB384:
	.loc 1 978 81 is_stmt 1
	.cfi_startproc
.LVL241:
	.loc 1 979 5
	.loc 1 979 102 is_stmt 0
	li	a5,-1878958080
	.loc 1 979 13
	lw	a5,-1316(a5)
	jr	a5
.LVL242:
	.cfi_endproc
.LFE384:
	.size	GLB_GPIO_Fifo_IntMask, .-GLB_GPIO_Fifo_IntMask
	.section	.tcm_code../drivers/soc/qcc743/std/src/qcc743_romapi_e907.c982,"ax",@progbits
	.align	1
	.globl	GLB_GPIO_Fifo_Push
	.type	GLB_GPIO_Fifo_Push, @function
GLB_GPIO_Fifo_Push:
.LFB385:
	.loc 1 983 65 is_stmt 1
	.cfi_startproc
.LVL243:
	.loc 1 984 5
	.loc 1 984 89 is_stmt 0
	li	a5,-1878958080
	.loc 1 984 13
	lw	a5,-1312(a5)
	jr	a5
.LVL244:
	.cfi_endproc
.LFE385:
	.size	GLB_GPIO_Fifo_Push, .-GLB_GPIO_Fifo_Push
	.section	.tcm_code../drivers/soc/qcc743/std/src/qcc743_romapi_e907.c987,"ax",@progbits
	.align	1
	.globl	GLB_GPIO_Func_Init
	.type	GLB_GPIO_Func_Init, @function
GLB_GPIO_Func_Init:
.LFB386:
	.loc 1 988 83 is_stmt 1
	.cfi_startproc
.LVL245:
	.loc 1 989 5
	.loc 1 989 107 is_stmt 0
	li	a5,-1878958080
	.loc 1 989 13
	lw	a5,-1308(a5)
	jr	a5
.LVL246:
	.cfi_endproc
.LFE386:
	.size	GLB_GPIO_Func_Init, .-GLB_GPIO_Func_Init
	.section	.tcm_code../drivers/soc/qcc743/std/src/qcc743_romapi_e907.c993,"ax",@progbits
	.align	1
	.globl	GLB_GPIO_Init
	.type	GLB_GPIO_Init, @function
GLB_GPIO_Init:
.LFB387:
	.loc 1 994 54 is_stmt 1
	.cfi_startproc
.LVL247:
	.loc 1 995 5
	.loc 1 996 5
	.loc 1 994 54 is_stmt 0
	addi	sp,sp,-16
	.cfi_def_cfa_offset 16
	sw	s0,8(sp)
.LVL248:
	sw	ra,12(sp)
	.cfi_offset 8, -8
	.cfi_offset 1, -4
	.loc 1 994 54
	mv	s0,a0
	.loc 1 996 18
	lbu	a0,0(a0)
.LVL249:
	call	GLB_GPIO_Pad_LeadOut_Sts
.LVL250:
	.loc 1 996 8
	beq	a0,zero,.L147
	.loc 1 999 5 is_stmt 1
	.loc 1 999 83 is_stmt 0
	li	a5,-1878958080
	.loc 1 999 13
	mv	a0,s0
	.loc 1 1000 1
	lw	s0,8(sp)
	.cfi_remember_state
	.cfi_restore 8
.LVL251:
	lw	ra,12(sp)
	.cfi_restore 1
	.loc 1 999 13
	lw	a5,-1304(a5)
	.loc 1 1000 1
	addi	sp,sp,16
	.cfi_def_cfa_offset 0
	.loc 1 999 13
	jr	a5
.LVL252:
.L147:
	.cfi_restore_state
	.loc 1 1000 1
	lw	ra,12(sp)
	.cfi_restore 1
	lw	s0,8(sp)
	.cfi_restore 8
.LVL253:
	li	a0,1
	addi	sp,sp,16
	.cfi_def_cfa_offset 0
	jr	ra
	.cfi_endproc
.LFE387:
	.size	GLB_GPIO_Init, .-GLB_GPIO_Init
	.section	.tcm_code../drivers/soc/qcc743/std/src/qcc743_romapi_e907.c1002,"ax",@progbits
	.align	1
	.globl	GLB_GPIO_Input_Disable
	.type	GLB_GPIO_Input_Disable, @function
GLB_GPIO_Input_Disable:
.LFB388:
	.loc 1 1003 56 is_stmt 1
	.cfi_startproc
.LVL254:
	.loc 1 1004 5
	.loc 1 1004 76 is_stmt 0
	li	a5,-1878958080
	.loc 1 1004 13
	lw	a5,-1300(a5)
	jr	a5
.LVL255:
	.cfi_endproc
.LFE388:
	.size	GLB_GPIO_Input_Disable, .-GLB_GPIO_Input_Disable
	.section	.tcm_code../drivers/soc/qcc743/std/src/qcc743_romapi_e907.c1007,"ax",@progbits
	.align	1
	.globl	GLB_GPIO_Input_Enable
	.type	GLB_GPIO_Input_Enable, @function
GLB_GPIO_Input_Enable:
.LFB389:
	.loc 1 1008 55 is_stmt 1
	.cfi_startproc
.LVL256:
	.loc 1 1009 5
	.loc 1 1009 76 is_stmt 0
	li	a5,-1878958080
	.loc 1 1009 13
	lw	a5,-1296(a5)
	jr	a5
.LVL257:
	.cfi_endproc
.LFE389:
	.size	GLB_GPIO_Input_Enable, .-GLB_GPIO_Input_Enable
	.section	.tcm_code../drivers/soc/qcc743/std/src/qcc743_romapi_e907.c1012,"ax",@progbits
	.align	1
	.globl	GLB_GPIO_IntMask
	.type	GLB_GPIO_IntMask, @function
GLB_GPIO_IntMask:
.LFB390:
	.loc 1 1013 76 is_stmt 1
	.cfi_startproc
.LVL258:
	.loc 1 1014 5
	.loc 1 1014 102 is_stmt 0
	li	a5,-1878958080
	.loc 1 1014 13
	lw	a5,-1292(a5)
	jr	a5
.LVL259:
	.cfi_endproc
.LFE390:
	.size	GLB_GPIO_IntMask, .-GLB_GPIO_IntMask
	.section	.tcm_code../drivers/soc/qcc743/std/src/qcc743_romapi_e907.c1018,"ax",@progbits
	.align	1
	.globl	GLB_GPIO_Int_Init
	.type	GLB_GPIO_Int_Init, @function
GLB_GPIO_Int_Init:
.LFB391:
	.loc 1 1019 65 is_stmt 1
	.cfi_startproc
.LVL260:
	.loc 1 1020 5
	.loc 1 1021 5
	.loc 1 1019 65 is_stmt 0
	addi	sp,sp,-16
	.cfi_def_cfa_offset 16
	sw	s0,8(sp)
.LVL261:
	sw	ra,12(sp)
	.cfi_offset 8, -8
	.cfi_offset 1, -4
	.loc 1 1019 65
	mv	s0,a0
	.loc 1 1021 18
	lbu	a0,0(a0)
.LVL262:
	call	GLB_GPIO_Pad_LeadOut_Sts
.LVL263:
	.loc 1 1021 8
	beq	a0,zero,.L153
	.loc 1 1024 5 is_stmt 1
	.loc 1 1024 90 is_stmt 0
	li	a5,-1878958080
	.loc 1 1024 13
	mv	a0,s0
	.loc 1 1025 1
	lw	s0,8(sp)
	.cfi_remember_state
	.cfi_restore 8
.LVL264:
	lw	ra,12(sp)
	.cfi_restore 1
	.loc 1 1024 13
	lw	a5,-1288(a5)
	.loc 1 1025 1
	addi	sp,sp,16
	.cfi_def_cfa_offset 0
	.loc 1 1024 13
	jr	a5
.LVL265:
.L153:
	.cfi_restore_state
	.loc 1 1025 1
	lw	ra,12(sp)
	.cfi_restore 1
	lw	s0,8(sp)
	.cfi_restore 8
.LVL266:
	li	a0,1
	addi	sp,sp,16
	.cfi_def_cfa_offset 0
	jr	ra
	.cfi_endproc
.LFE391:
	.size	GLB_GPIO_Int_Init, .-GLB_GPIO_Int_Init
	.section	.tcm_code../drivers/soc/qcc743/std/src/qcc743_romapi_e907.c1027,"ax",@progbits
	.align	1
	.globl	GLB_GPIO_Output_Disable
	.type	GLB_GPIO_Output_Disable, @function
GLB_GPIO_Output_Disable:
.LFB392:
	.loc 1 1028 57 is_stmt 1
	.cfi_startproc
.LVL267:
	.loc 1 1029 5
	.loc 1 1029 76 is_stmt 0
	li	a5,-1878958080
	.loc 1 1029 13
	lw	a5,-1284(a5)
	jr	a5
.LVL268:
	.cfi_endproc
.LFE392:
	.size	GLB_GPIO_Output_Disable, .-GLB_GPIO_Output_Disable
	.section	.tcm_code../drivers/soc/qcc743/std/src/qcc743_romapi_e907.c1032,"ax",@progbits
	.align	1
	.globl	GLB_GPIO_Output_Enable
	.type	GLB_GPIO_Output_Enable, @function
GLB_GPIO_Output_Enable:
.LFB393:
	.loc 1 1033 56 is_stmt 1
	.cfi_startproc
.LVL269:
	.loc 1 1034 5
	.loc 1 1033 56 is_stmt 0
	addi	sp,sp,-16
	.cfi_def_cfa_offset 16
	sw	s0,8(sp)
	sw	ra,12(sp)
	.cfi_offset 8, -8
	.cfi_offset 1, -4
	.loc 1 1033 56
	mv	s0,a0
	.loc 1 1034 18
	call	GLB_GPIO_Pad_LeadOut_Sts
.LVL270:
	.loc 1 1034 8
	beq	a0,zero,.L157
	.loc 1 1037 5 is_stmt 1
	.loc 1 1037 76 is_stmt 0
	li	a5,-1878958080
	.loc 1 1037 13
	mv	a0,s0
	.loc 1 1038 1
	lw	s0,8(sp)
	.cfi_remember_state
	.cfi_restore 8
	lw	ra,12(sp)
	.cfi_restore 1
	.loc 1 1037 13
	lw	a5,-1280(a5)
	.loc 1 1038 1
	addi	sp,sp,16
	.cfi_def_cfa_offset 0
	.loc 1 1037 13
	jr	a5
.LVL271:
.L157:
	.cfi_restore_state
	.loc 1 1038 1
	lw	ra,12(sp)
	.cfi_restore 1
	lw	s0,8(sp)
	.cfi_restore 8
	li	a0,1
	addi	sp,sp,16
	.cfi_def_cfa_offset 0
	jr	ra
	.cfi_endproc
.LFE393:
	.size	GLB_GPIO_Output_Enable, .-GLB_GPIO_Output_Enable
	.section	.tcm_code../drivers/soc/qcc743/std/src/qcc743_romapi_e907.c1047,"ax",@progbits
	.align	1
	.globl	GLB_GPIO_Set_HZ
	.type	GLB_GPIO_Set_HZ, @function
GLB_GPIO_Set_HZ:
.LFB394:
	.loc 1 1048 49 is_stmt 1
	.cfi_startproc
.LVL272:
	.loc 1 1049 5
	.loc 1 1048 49 is_stmt 0
	addi	sp,sp,-16
	.cfi_def_cfa_offset 16
	sw	s0,8(sp)
	sw	ra,12(sp)
	.cfi_offset 8, -8
	.cfi_offset 1, -4
	.loc 1 1048 49
	mv	s0,a0
	.loc 1 1049 18
	call	GLB_GPIO_Pad_LeadOut_Sts
.LVL273:
	.loc 1 1049 8
	beq	a0,zero,.L160
	.loc 1 1052 5 is_stmt 1
	.loc 1 1052 76 is_stmt 0
	li	a5,-1878958080
	.loc 1 1052 13
	mv	a0,s0
	.loc 1 1053 1
	lw	s0,8(sp)
	.cfi_remember_state
	.cfi_restore 8
	lw	ra,12(sp)
	.cfi_restore 1
	.loc 1 1052 13
	lw	a5,-1272(a5)
	.loc 1 1053 1
	addi	sp,sp,16
	.cfi_def_cfa_offset 0
	.loc 1 1052 13
	jr	a5
.LVL274:
.L160:
	.cfi_restore_state
	.loc 1 1053 1
	lw	ra,12(sp)
	.cfi_restore 1
	lw	s0,8(sp)
	.cfi_restore 8
	li	a0,1
	addi	sp,sp,16
	.cfi_def_cfa_offset 0
	jr	ra
	.cfi_endproc
.LFE394:
	.size	GLB_GPIO_Set_HZ, .-GLB_GPIO_Set_HZ
	.section	.tcm_code../drivers/soc/qcc743/std/src/qcc743_romapi_e907.c1055,"ax",@progbits
	.align	1
	.globl	GLB_GPIO_Write
	.type	GLB_GPIO_Write, @function
GLB_GPIO_Write:
.LFB395:
	.loc 1 1056 62 is_stmt 1
	.cfi_startproc
.LVL275:
	.loc 1 1057 5
	.loc 1 1056 62 is_stmt 0
	addi	sp,sp,-32
	.cfi_def_cfa_offset 32
	sw	s0,24(sp)
	sw	ra,28(sp)
	.cfi_offset 8, -8
	.cfi_offset 1, -4
	.loc 1 1056 62
	mv	s0,a0
	sw	a1,12(sp)
	.loc 1 1057 18
	call	GLB_GPIO_Pad_LeadOut_Sts
.LVL276:
	.loc 1 1057 8
	beq	a0,zero,.L163
	.loc 1 1060 5 is_stmt 1
	.loc 1 1060 90 is_stmt 0
	li	a5,-1878958080
	.loc 1 1060 13
	mv	a0,s0
	.loc 1 1061 1
	lw	s0,24(sp)
	.cfi_remember_state
	.cfi_restore 8
	.loc 1 1060 13
	lw	a1,12(sp)
	.loc 1 1061 1
	lw	ra,28(sp)
	.cfi_restore 1
	.loc 1 1060 13
	lw	a5,-1268(a5)
	.loc 1 1061 1
	addi	sp,sp,32
	.cfi_def_cfa_offset 0
.LVL277:
	.loc 1 1060 13
	jr	a5
.LVL278:
.L163:
	.cfi_restore_state
	.loc 1 1061 1
	lw	ra,28(sp)
	.cfi_restore 1
	lw	s0,24(sp)
	.cfi_restore 8
	li	a0,1
	addi	sp,sp,32
	.cfi_def_cfa_offset 0
.LVL279:
	jr	ra
	.cfi_endproc
.LFE395:
	.size	GLB_GPIO_Write, .-GLB_GPIO_Write
	.section	.tcm_code../drivers/soc/qcc743/std/src/qcc743_romapi_e907.c1063,"ax",@progbits
	.align	1
	.globl	GLB_GPIO_Fifo_Disable
	.type	GLB_GPIO_Fifo_Disable, @function
GLB_GPIO_Fifo_Disable:
.LFB396:
	.loc 1 1064 44 is_stmt 1
	.cfi_startproc
	.loc 1 1065 5
	.loc 1 1065 65 is_stmt 0
	li	a5,-1878958080
	.loc 1 1065 13
	lw	a5,-1264(a5)
	jr	a5
.LVL280:
	.cfi_endproc
.LFE396:
	.size	GLB_GPIO_Fifo_Disable, .-GLB_GPIO_Fifo_Disable
	.section	.tcm_code../drivers/soc/qcc743/std/src/qcc743_romapi_e907.c1068,"ax",@progbits
	.align	1
	.globl	GLB_GPIO_Fifo_Enable
	.type	GLB_GPIO_Fifo_Enable, @function
GLB_GPIO_Fifo_Enable:
.LFB397:
	.loc 1 1069 43 is_stmt 1
	.cfi_startproc
	.loc 1 1070 5
	.loc 1 1070 65 is_stmt 0
	li	a5,-1878958080
	.loc 1 1070 13
	lw	a5,-1260(a5)
	jr	a5
.LVL281:
	.cfi_endproc
.LFE397:
	.size	GLB_GPIO_Fifo_Enable, .-GLB_GPIO_Fifo_Enable
	.section	.tcm_code../drivers/soc/qcc743/std/src/qcc743_romapi_e907.c1073,"ax",@progbits
	.align	1
	.globl	GLB_GPIO_Fifo_GetIntStatus
	.type	GLB_GPIO_Fifo_GetIntStatus, @function
GLB_GPIO_Fifo_GetIntStatus:
.LFB398:
	.loc 1 1074 60 is_stmt 1
	.cfi_startproc
.LVL282:
	.loc 1 1075 5
	.loc 1 1075 76 is_stmt 0
	li	a5,-1878958080
	.loc 1 1075 13
	lw	a5,-1256(a5)
	jr	a5
.LVL283:
	.cfi_endproc
.LFE398:
	.size	GLB_GPIO_Fifo_GetIntStatus, .-GLB_GPIO_Fifo_GetIntStatus
	.section	.tcm_code../drivers/soc/qcc743/std/src/qcc743_romapi_e907.c1078,"ax",@progbits
	.align	1
	.globl	GLB_Get_GPIO_IntStatus
	.type	GLB_Get_GPIO_IntStatus, @function
GLB_Get_GPIO_IntStatus:
.LFB399:
	.loc 1 1079 56 is_stmt 1
	.cfi_startproc
.LVL284:
	.loc 1 1080 5
	.loc 1 1080 76 is_stmt 0
	li	a5,-1878958080
	.loc 1 1080 13
	lw	a5,-1252(a5)
	jr	a5
.LVL285:
	.cfi_endproc
.LFE399:
	.size	GLB_Get_GPIO_IntStatus, .-GLB_Get_GPIO_IntStatus
	.section	.tcm_code../drivers/soc/qcc743/std/src/qcc743_romapi_e907.c1083,"ax",@progbits
	.align	1
	.globl	GLB_GPIO_Fifo_GetCount
	.type	GLB_GPIO_Fifo_GetCount, @function
GLB_GPIO_Fifo_GetCount:
.LFB400:
	.loc 1 1084 38 is_stmt 1
	.cfi_startproc
	.loc 1 1085 5
	.loc 1 1085 58 is_stmt 0
	li	a5,-1878958080
	.loc 1 1085 13
	lw	a5,-1248(a5)
	jr	a5
.LVL286:
	.cfi_endproc
.LFE400:
	.size	GLB_GPIO_Fifo_GetCount, .-GLB_GPIO_Fifo_GetCount
	.section	.tcm_code../drivers/soc/qcc743/std/src/qcc743_romapi_e907.c1088,"ax",@progbits
	.align	1
	.globl	GLB_GPIO_Read
	.type	GLB_GPIO_Read, @function
GLB_GPIO_Read:
.LFB401:
	.loc 1 1089 40 is_stmt 1
	.cfi_startproc
.LVL287:
	.loc 1 1090 5
	.loc 1 1090 69 is_stmt 0
	li	a5,-1878958080
	.loc 1 1090 13
	lw	a5,-1244(a5)
	jr	a5
.LVL288:
	.cfi_endproc
.LFE401:
	.size	GLB_GPIO_Read, .-GLB_GPIO_Read
	.section	.tcm_code../drivers/soc/qcc743/std/src/qcc743_romapi_e907.c1093,"ax",@progbits
	.align	1
	.globl	GLB_GPIO_Get_Fun
	.type	GLB_GPIO_Get_Fun, @function
GLB_GPIO_Get_Fun:
.LFB402:
	.loc 1 1094 42 is_stmt 1
	.cfi_startproc
.LVL289:
	.loc 1 1095 5
	.loc 1 1095 68 is_stmt 0
	li	a5,-1878958080
	.loc 1 1095 13
	lw	a5,-1240(a5)
	jr	a5
.LVL290:
	.cfi_endproc
.LFE402:
	.size	GLB_GPIO_Get_Fun, .-GLB_GPIO_Get_Fun
	.section	.tcm_code../drivers/soc/qcc743/std/src/qcc743_romapi_e907.c1106,"ax",@progbits
	.align	1
	.globl	HBN_Aon_Pad_Cfg
	.type	HBN_Aon_Pad_Cfg, @function
HBN_Aon_Pad_Cfg:
.LFB403:
	.loc 1 1107 106 is_stmt 1
	.cfi_startproc
.LVL291:
	.loc 1 1108 5
	.loc 1 1107 106 is_stmt 0
	addi	sp,sp,-32
	.cfi_def_cfa_offset 32
	sw	s0,24(sp)
	sw	a1,12(sp)
	sw	a2,8(sp)
	sw	ra,28(sp)
	.cfi_offset 8, -8
	.cfi_offset 1, -4
	.loc 1 1107 106
	mv	s0,a0
	.loc 1 1108 16
	call	GLB_Get_Package_Type
.LVL292:
	.loc 1 1108 8
	li	a5,2
	lw	a2,8(sp)
	lw	a1,12(sp)
	beq	a0,a5,.L173
	.loc 1 1109 9 is_stmt 1
	.loc 1 1109 30 is_stmt 0
	addi	a5,a1,-2
	.loc 1 1109 12
	andi	a5,a5,0xff
	li	a4,1
	bleu	a5,a4,.L174
.L173:
	.loc 1 1113 5 is_stmt 1
	.loc 1 1113 133 is_stmt 0
	li	a5,-1878958080
	.loc 1 1113 13
	mv	a0,s0
	.loc 1 1114 1
	lw	s0,24(sp)
	.cfi_remember_state
	.cfi_restore 8
	lw	ra,28(sp)
	.cfi_restore 1
	.loc 1 1113 13
	lw	a5,-1232(a5)
	.loc 1 1114 1
	addi	sp,sp,32
	.cfi_def_cfa_offset 0
.LVL293:
	.loc 1 1113 13
	jr	a5
.LVL294:
.L174:
	.cfi_restore_state
	.loc 1 1114 1
	lw	ra,28(sp)
	.cfi_restore 1
	lw	s0,24(sp)
	.cfi_restore 8
	li	a0,1
	addi	sp,sp,32
	.cfi_def_cfa_offset 0
.LVL295:
	jr	ra
	.cfi_endproc
.LFE403:
	.size	HBN_Aon_Pad_Cfg, .-HBN_Aon_Pad_Cfg
	.section	.tcm_code../drivers/soc/qcc743/std/src/qcc743_romapi_e907.c1137,"ax",@progbits
	.align	1
	.globl	HBN_Clear_Gpio_Keep
	.type	HBN_Clear_Gpio_Keep, @function
HBN_Clear_Gpio_Keep:
.LFB404:
	.loc 1 1138 54 is_stmt 1
	.cfi_startproc
.LVL296:
	.loc 1 1139 5
	.loc 1 1139 77 is_stmt 0
	li	a5,-1878958080
	.loc 1 1139 13
	lw	a5,-1216(a5)
	jr	a5
.LVL297:
	.cfi_endproc
.LFE404:
	.size	HBN_Clear_Gpio_Keep, .-HBN_Clear_Gpio_Keep
	.section	.tcm_code../drivers/soc/qcc743/std/src/qcc743_romapi_e907.c1142,"ax",@progbits
	.align	1
	.globl	HBN_Clear_IRQ
	.type	HBN_Clear_IRQ, @function
HBN_Clear_IRQ:
.LFB405:
	.loc 1 1143 47 is_stmt 1
	.cfi_startproc
.LVL298:
	.loc 1 1144 5
	.loc 1 1144 76 is_stmt 0
	li	a5,-1878958080
	.loc 1 1144 13
	lw	a5,-1212(a5)
	jr	a5
.LVL299:
	.cfi_endproc
.LFE405:
	.size	HBN_Clear_IRQ, .-HBN_Clear_IRQ
	.section	.tcm_code../drivers/soc/qcc743/std/src/qcc743_romapi_e907.c1147,"ax",@progbits
	.align	1
	.globl	HBN_Clear_PDS_Gpio_Keep
	.type	HBN_Clear_PDS_Gpio_Keep, @function
HBN_Clear_PDS_Gpio_Keep:
.LFB406:
	.loc 1 1148 58 is_stmt 1
	.cfi_startproc
.LVL300:
	.loc 1 1149 5
	.loc 1 1149 77 is_stmt 0
	li	a5,-1878958080
	.loc 1 1149 13
	lw	a5,-1208(a5)
	jr	a5
.LVL301:
	.cfi_endproc
.LFE406:
	.size	HBN_Clear_PDS_Gpio_Keep, .-HBN_Clear_PDS_Gpio_Keep
	.section	.tcm_code../drivers/soc/qcc743/std/src/qcc743_romapi_e907.c1152,"ax",@progbits
	.align	1
	.globl	HBN_Clear_RTC_Counter
	.type	HBN_Clear_RTC_Counter, @function
HBN_Clear_RTC_Counter:
.LFB407:
	.loc 1 1153 44 is_stmt 1
	.cfi_startproc
	.loc 1 1154 5
	.loc 1 1154 65 is_stmt 0
	li	a5,-1878958080
	.loc 1 1154 13
	lw	a5,-1204(a5)
	jr	a5
.LVL302:
	.cfi_endproc
.LFE407:
	.size	HBN_Clear_RTC_Counter, .-HBN_Clear_RTC_Counter
	.section	.tcm_code../drivers/soc/qcc743/std/src/qcc743_romapi_e907.c1157,"ax",@progbits
	.align	1
	.globl	HBN_Clear_RTC_INT
	.type	HBN_Clear_RTC_INT, @function
HBN_Clear_RTC_INT:
.LFB408:
	.loc 1 1158 40 is_stmt 1
	.cfi_startproc
	.loc 1 1159 5
	.loc 1 1159 65 is_stmt 0
	li	a5,-1878958080
	.loc 1 1159 13
	lw	a5,-1200(a5)
	jr	a5
.LVL303:
	.cfi_endproc
.LFE408:
	.size	HBN_Clear_RTC_INT, .-HBN_Clear_RTC_INT
	.section	.tcm_code../drivers/soc/qcc743/std/src/qcc743_romapi_e907.c1204,"ax",@progbits
	.align	1
	.globl	HBN_Enable_RTC_Counter
	.type	HBN_Enable_RTC_Counter, @function
HBN_Enable_RTC_Counter:
.LFB409:
	.loc 1 1205 45 is_stmt 1
	.cfi_startproc
	.loc 1 1206 5
	.loc 1 1206 65 is_stmt 0
	li	a5,-1878958080
	.loc 1 1206 13
	lw	a5,-1172(a5)
	jr	a5
.LVL304:
	.cfi_endproc
.LFE409:
	.size	HBN_Enable_RTC_Counter, .-HBN_Enable_RTC_Counter
	.section	.tcm_code../drivers/soc/qcc743/std/src/qcc743_romapi_e907.c1223,"ax",@progbits
	.align	1
	.globl	HBN_Get_Flash_Power_Delay
	.type	HBN_Get_Flash_Power_Delay, @function
HBN_Get_Flash_Power_Delay:
.LFB410:
	.loc 1 1224 64 is_stmt 1
	.cfi_startproc
.LVL305:
	.loc 1 1225 5
	.loc 1 1225 81 is_stmt 0
	li	a5,-1878958080
	.loc 1 1225 13
	lw	a5,-1160(a5)
	jr	a5
.LVL306:
	.cfi_endproc
.LFE410:
	.size	HBN_Get_Flash_Power_Delay, .-HBN_Get_Flash_Power_Delay
	.section	.tcm_code../drivers/soc/qcc743/std/src/qcc743_romapi_e907.c1228,"ax",@progbits
	.align	1
	.globl	HBN_Get_Gpio_Keep
	.type	HBN_Get_Gpio_Keep, @function
HBN_Get_Gpio_Keep:
.LFB411:
	.loc 1 1229 53 is_stmt 1
	.cfi_startproc
.LVL307:
	.loc 1 1230 5
	.loc 1 1230 78 is_stmt 0
	li	a5,-1878958080
	.loc 1 1230 13
	lw	a5,-1156(a5)
	jr	a5
.LVL308:
	.cfi_endproc
.LFE411:
	.size	HBN_Get_Gpio_Keep, .-HBN_Get_Gpio_Keep
	.section	.tcm_code../drivers/soc/qcc743/std/src/qcc743_romapi_e907.c1233,"ax",@progbits
	.align	1
	.globl	HBN_Get_Ldo18io_Power_Delay_Config
	.type	HBN_Get_Ldo18io_Power_Delay_Config, @function
HBN_Get_Ldo18io_Power_Delay_Config:
.LFB412:
	.loc 1 1234 92 is_stmt 1
	.cfi_startproc
.LVL309:
	.loc 1 1235 5
	.loc 1 1235 100 is_stmt 0
	li	a5,-1878958080
	.loc 1 1235 13
	lw	a5,-1152(a5)
	jr	a5
.LVL310:
	.cfi_endproc
.LFE412:
	.size	HBN_Get_Ldo18io_Power_Delay_Config, .-HBN_Get_Ldo18io_Power_Delay_Config
	.section	.tcm_code../drivers/soc/qcc743/std/src/qcc743_romapi_e907.c1238,"ax",@progbits
	.align	1
	.globl	HBN_Get_PDS_Gpio_Keep
	.type	HBN_Get_PDS_Gpio_Keep, @function
HBN_Get_PDS_Gpio_Keep:
.LFB413:
	.loc 1 1239 57 is_stmt 1
	.cfi_startproc
.LVL311:
	.loc 1 1240 5
	.loc 1 1240 78 is_stmt 0
	li	a5,-1878958080
	.loc 1 1240 13
	lw	a5,-1148(a5)
	jr	a5
.LVL312:
	.cfi_endproc
.LFE413:
	.size	HBN_Get_PDS_Gpio_Keep, .-HBN_Get_PDS_Gpio_Keep
	.section	.tcm_code../drivers/soc/qcc743/std/src/qcc743_romapi_e907.c1243,"ax",@progbits
	.align	1
	.globl	HBN_Get_RTC_Timer_Val
	.type	HBN_Get_RTC_Timer_Val, @function
HBN_Get_RTC_Timer_Val:
.LFB414:
	.loc 1 1244 75 is_stmt 1
	.cfi_startproc
.LVL313:
	.loc 1 1245 5
	.loc 1 1245 96 is_stmt 0
	li	a5,-1878958080
	.loc 1 1245 13
	lw	a5,-1144(a5)
	jr	a5
.LVL314:
	.cfi_endproc
.LFE414:
	.size	HBN_Get_RTC_Timer_Val, .-HBN_Get_RTC_Timer_Val
	.section	.tcm_code../drivers/soc/qcc743/std/src/qcc743_romapi_e907.c1248,"ax",@progbits
	.align	1
	.globl	HBN_Get_Xtal_Type
	.type	HBN_Get_Xtal_Type, @function
HBN_Get_Xtal_Type:
.LFB415:
	.loc 1 1249 53 is_stmt 1
	.cfi_startproc
.LVL315:
	.loc 1 1250 5
	.loc 1 1250 78 is_stmt 0
	li	a5,-1878958080
	.loc 1 1250 13
	lw	a5,-1140(a5)
	jr	a5
.LVL316:
	.cfi_endproc
.LFE415:
	.size	HBN_Get_Xtal_Type, .-HBN_Get_Xtal_Type
	.section	.tcm_code../drivers/soc/qcc743/std/src/qcc743_romapi_e907.c1253,"ax",@progbits
	.align	1
	.globl	HBN_Hw_Pu_Pd_Cfg
	.type	HBN_Hw_Pu_Pd_Cfg, @function
HBN_Hw_Pu_Pd_Cfg:
.LFB416:
	.loc 1 1254 49 is_stmt 1
	.cfi_startproc
.LVL317:
	.loc 1 1255 5
	.loc 1 1255 75 is_stmt 0
	li	a5,-1878958080
	.loc 1 1255 13
	lw	a5,-1136(a5)
	jr	a5
.LVL318:
	.cfi_endproc
.LFE416:
	.size	HBN_Hw_Pu_Pd_Cfg, .-HBN_Hw_Pu_Pd_Cfg
	.section	.tcm_code../drivers/soc/qcc743/std/src/qcc743_romapi_e907.c1300,"ax",@progbits
	.align	1
	.globl	HBN_Pin_WakeUp_Mask
	.type	HBN_Pin_WakeUp_Mask, @function
HBN_Pin_WakeUp_Mask:
.LFB417:
	.loc 1 1301 53 is_stmt 1
	.cfi_startproc
.LVL319:
	.loc 1 1302 5
	.loc 1 1302 76 is_stmt 0
	li	a5,-1878958080
	.loc 1 1302 13
	lw	a5,-1108(a5)
	jr	a5
.LVL320:
	.cfi_endproc
.LFE417:
	.size	HBN_Pin_WakeUp_Mask, .-HBN_Pin_WakeUp_Mask
	.section	.tcm_code../drivers/soc/qcc743/std/src/qcc743_romapi_e907.c1305,"ax",@progbits
	.align	1
	.globl	HBN_Power_Off_RC32K
	.type	HBN_Power_Off_RC32K, @function
HBN_Power_Off_RC32K:
.LFB418:
	.loc 1 1306 42 is_stmt 1
	.cfi_startproc
	.loc 1 1307 5
	.loc 1 1307 65 is_stmt 0
	li	a5,-1878958080
	.loc 1 1307 13
	lw	a5,-1104(a5)
	jr	a5
.LVL321:
	.cfi_endproc
.LFE418:
	.size	HBN_Power_Off_RC32K, .-HBN_Power_Off_RC32K
	.section	.tcm_code../drivers/soc/qcc743/std/src/qcc743_romapi_e907.c1310,"ax",@progbits
	.align	1
	.globl	HBN_Power_Off_Xtal_32K
	.type	HBN_Power_Off_Xtal_32K, @function
HBN_Power_Off_Xtal_32K:
.LFB419:
	.loc 1 1311 45 is_stmt 1
	.cfi_startproc
	.loc 1 1312 5
	.loc 1 1312 65 is_stmt 0
	li	a5,-1878958080
	.loc 1 1312 13
	lw	a5,-1100(a5)
	jr	a5
.LVL322:
	.cfi_endproc
.LFE419:
	.size	HBN_Power_Off_Xtal_32K, .-HBN_Power_Off_Xtal_32K
	.section	.tcm_code../drivers/soc/qcc743/std/src/qcc743_romapi_e907.c1322,"ax",@progbits
	.align	1
	.globl	HBN_Reset
	.type	HBN_Reset, @function
HBN_Reset:
.LFB420:
	.loc 1 1323 32 is_stmt 1
	.cfi_startproc
	.loc 1 1324 5
	.loc 1 1324 65 is_stmt 0
	li	a5,-1878958080
	.loc 1 1324 13
	lw	a5,-1092(a5)
	jr	a5
.LVL323:
	.cfi_endproc
.LFE420:
	.size	HBN_Reset, .-HBN_Reset
	.section	.tcm_code../drivers/soc/qcc743/std/src/qcc743_romapi_e907.c1341,"ax",@progbits
	.align	1
	.globl	HBN_Set_Core_Reboot_Config
	.type	HBN_Set_Core_Reboot_Config, @function
HBN_Set_Core_Reboot_Config:
.LFB421:
	.loc 1 1342 71 is_stmt 1
	.cfi_startproc
.LVL324:
	.loc 1 1343 5
	.loc 1 1343 87 is_stmt 0
	li	a5,-1878958080
	.loc 1 1343 13
	lw	a5,-1080(a5)
	jr	a5
.LVL325:
	.cfi_endproc
.LFE421:
	.size	HBN_Set_Core_Reboot_Config, .-HBN_Set_Core_Reboot_Config
	.section	.tcm_code../drivers/soc/qcc743/std/src/qcc743_romapi_e907.c1353,"ax",@progbits
	.align	1
	.globl	HBN_Set_GPADC_CLK_Sel
	.type	HBN_Set_GPADC_CLK_Sel, @function
HBN_Set_GPADC_CLK_Sel:
.LFB422:
	.loc 1 1354 54 is_stmt 1
	.cfi_startproc
.LVL326:
	.loc 1 1355 5
	.loc 1 1355 75 is_stmt 0
	li	a5,-1878958080
	.loc 1 1355 13
	lw	a5,-1072(a5)
	jr	a5
.LVL327:
	.cfi_endproc
.LFE422:
	.size	HBN_Set_GPADC_CLK_Sel, .-HBN_Set_GPADC_CLK_Sel
	.section	.tcm_code../drivers/soc/qcc743/std/src/qcc743_romapi_e907.c1365,"ax",@progbits
	.align	1
	.globl	HBN_Set_HRAM_Ret
	.type	HBN_Set_HRAM_Ret, @function
HBN_Set_HRAM_Ret:
.LFB423:
	.loc 1 1366 39 is_stmt 1
	.cfi_startproc
	.loc 1 1367 5
	.loc 1 1367 65 is_stmt 0
	li	a5,-1878958080
	.loc 1 1367 13
	lw	a5,-1064(a5)
	jr	a5
.LVL328:
	.cfi_endproc
.LFE423:
	.size	HBN_Set_HRAM_Ret, .-HBN_Set_HRAM_Ret
	.section	.tcm_code../drivers/soc/qcc743/std/src/qcc743_romapi_e907.c1370,"ax",@progbits
	.align	1
	.globl	HBN_Set_HRAM_slp
	.type	HBN_Set_HRAM_slp, @function
HBN_Set_HRAM_slp:
.LFB424:
	.loc 1 1371 39 is_stmt 1
	.cfi_startproc
	.loc 1 1372 5
	.loc 1 1372 65 is_stmt 0
	li	a5,-1878958080
	.loc 1 1372 13
	lw	a5,-1060(a5)
	jr	a5
.LVL329:
	.cfi_endproc
.LFE424:
	.size	HBN_Set_HRAM_slp, .-HBN_Set_HRAM_slp
	.section	.tcm_code../drivers/soc/qcc743/std/src/qcc743_romapi_e907.c1375,"ax",@progbits
	.align	1
	.globl	HBN_Set_Ldo11_All_Vout
	.type	HBN_Set_Ldo11_All_Vout, @function
HBN_Set_Ldo11_All_Vout:
.LFB425:
	.loc 1 1376 57 is_stmt 1
	.cfi_startproc
.LVL330:
	.loc 1 1377 5
	.loc 1 1377 77 is_stmt 0
	li	a5,-1878958080
	.loc 1 1377 13
	lw	a5,-1056(a5)
	jr	a5
.LVL331:
	.cfi_endproc
.LFE425:
	.size	HBN_Set_Ldo11_All_Vout, .-HBN_Set_Ldo11_All_Vout
	.section	.tcm_code../drivers/soc/qcc743/std/src/qcc743_romapi_e907.c1380,"ax",@progbits
	.align	1
	.globl	HBN_Set_Ldo11_Aon_Vout
	.type	HBN_Set_Ldo11_Aon_Vout, @function
HBN_Set_Ldo11_Aon_Vout:
.LFB426:
	.loc 1 1381 57 is_stmt 1
	.cfi_startproc
.LVL332:
	.loc 1 1382 5
	.loc 1 1382 77 is_stmt 0
	li	a5,-1878958080
	.loc 1 1382 13
	lw	a5,-1052(a5)
	jr	a5
.LVL333:
	.cfi_endproc
.LFE426:
	.size	HBN_Set_Ldo11_Aon_Vout, .-HBN_Set_Ldo11_Aon_Vout
	.section	.tcm_code../drivers/soc/qcc743/std/src/qcc743_romapi_e907.c1385,"ax",@progbits
	.align	1
	.globl	HBN_Set_Ldo11_Rt_Vout
	.type	HBN_Set_Ldo11_Rt_Vout, @function
HBN_Set_Ldo11_Rt_Vout:
.LFB427:
	.loc 1 1386 56 is_stmt 1
	.cfi_startproc
.LVL334:
	.loc 1 1387 5
	.loc 1 1387 77 is_stmt 0
	li	a5,-1878958080
	.loc 1 1387 13
	lw	a5,-1048(a5)
	jr	a5
.LVL335:
	.cfi_endproc
.LFE427:
	.size	HBN_Set_Ldo11_Rt_Vout, .-HBN_Set_Ldo11_Rt_Vout
	.section	.tcm_code../drivers/soc/qcc743/std/src/qcc743_romapi_e907.c1390,"ax",@progbits
	.align	1
	.globl	HBN_Set_Ldo11_Soc_Vout
	.type	HBN_Set_Ldo11_Soc_Vout, @function
HBN_Set_Ldo11_Soc_Vout:
.LFB428:
	.loc 1 1391 57 is_stmt 1
	.cfi_startproc
.LVL336:
	.loc 1 1392 5
	.loc 1 1392 77 is_stmt 0
	li	a5,-1878958080
	.loc 1 1392 13
	lw	a5,-1044(a5)
	jr	a5
.LVL337:
	.cfi_endproc
.LFE428:
	.size	HBN_Set_Ldo11_Soc_Vout, .-HBN_Set_Ldo11_Soc_Vout
	.section	.tcm_code../drivers/soc/qcc743/std/src/qcc743_romapi_e907.c1395,"ax",@progbits
	.align	1
	.globl	HBN_Set_Ldo18io_Power_Delay_Config
	.type	HBN_Set_Ldo18io_Power_Delay_Config, @function
HBN_Set_Ldo18io_Power_Delay_Config:
.LFB429:
	.loc 1 1396 90 is_stmt 1
	.cfi_startproc
.LVL338:
	.loc 1 1397 5
	.loc 1 1397 98 is_stmt 0
	li	a5,-1878958080
	.loc 1 1397 13
	lw	a5,-1040(a5)
	jr	a5
.LVL339:
	.cfi_endproc
.LFE429:
	.size	HBN_Set_Ldo18io_Power_Delay_Config, .-HBN_Set_Ldo18io_Power_Delay_Config
	.section	.tcm_code../drivers/soc/qcc743/std/src/qcc743_romapi_e907.c1400,"ax",@progbits
	.align	1
	.globl	HBN_Set_MCU_Root_CLK_Sel
	.type	HBN_Set_MCU_Root_CLK_Sel, @function
HBN_Set_MCU_Root_CLK_Sel:
.LFB430:
	.loc 1 1401 58 is_stmt 1
	.cfi_startproc
.LVL340:
	.loc 1 1402 5
	.loc 1 1402 76 is_stmt 0
	li	a5,-1878958080
	.loc 1 1402 13
	lw	a5,-1036(a5)
	jr	a5
.LVL341:
	.cfi_endproc
.LFE430:
	.size	HBN_Set_MCU_Root_CLK_Sel, .-HBN_Set_MCU_Root_CLK_Sel
	.section	.tcm_code../drivers/soc/qcc743/std/src/qcc743_romapi_e907.c1405,"ax",@progbits
	.align	1
	.globl	HBN_Set_MCU_XCLK_Sel
	.type	HBN_Set_MCU_XCLK_Sel, @function
HBN_Set_MCU_XCLK_Sel:
.LFB431:
	.loc 1 1406 51 is_stmt 1
	.cfi_startproc
.LVL342:
	.loc 1 1407 5
	.loc 1 1407 73 is_stmt 0
	li	a5,-1878958080
	.loc 1 1407 13
	lw	a5,-1032(a5)
	jr	a5
.LVL343:
	.cfi_endproc
.LFE431:
	.size	HBN_Set_MCU_XCLK_Sel, .-HBN_Set_MCU_XCLK_Sel
	.section	.tcm_code../drivers/soc/qcc743/std/src/qcc743_romapi_e907.c1410,"ax",@progbits
	.align	1
	.globl	HBN_Set_PDS_Gpio_Keep
	.type	HBN_Set_PDS_Gpio_Keep, @function
HBN_Set_PDS_Gpio_Keep:
.LFB432:
	.loc 1 1411 56 is_stmt 1
	.cfi_startproc
.LVL344:
	.loc 1 1412 5
	.loc 1 1412 77 is_stmt 0
	li	a5,-1878958080
	.loc 1 1412 13
	lw	a5,-1028(a5)
	jr	a5
.LVL345:
	.cfi_endproc
.LFE432:
	.size	HBN_Set_PDS_Gpio_Keep, .-HBN_Set_PDS_Gpio_Keep
	.section	.tcm_code../drivers/soc/qcc743/std/src/qcc743_romapi_e907.c1429,"ax",@progbits
	.align	1
	.globl	HBN_Set_RTC_Timer
	.type	HBN_Set_RTC_Timer, @function
HBN_Set_RTC_Timer:
.LFB433:
	.loc 1 1430 110 is_stmt 1
	.cfi_startproc
.LVL346:
	.loc 1 1431 5
	.loc 1 1431 135 is_stmt 0
	li	a5,-1878958080
	.loc 1 1431 13
	lw	a5,-1016(a5)
	jr	a5
.LVL347:
	.cfi_endproc
.LFE433:
	.size	HBN_Set_RTC_Timer, .-HBN_Set_RTC_Timer
	.section	.tcm_code../drivers/soc/qcc743/std/src/qcc743_romapi_e907.c1434,"ax",@progbits
	.align	1
	.globl	HBN_Set_Status_Flag
	.type	HBN_Set_Status_Flag, @function
HBN_Set_Status_Flag:
.LFB434:
	.loc 1 1435 51 is_stmt 1
	.cfi_startproc
.LVL348:
	.loc 1 1436 5
	.loc 1 1436 74 is_stmt 0
	li	a5,-1878958080
	.loc 1 1436 13
	lw	a5,-1012(a5)
	jr	a5
.LVL349:
	.cfi_endproc
.LFE434:
	.size	HBN_Set_Status_Flag, .-HBN_Set_Status_Flag
	.section	.tcm_code../drivers/soc/qcc743/std/src/qcc743_romapi_e907.c1439,"ax",@progbits
	.align	1
	.globl	HBN_Set_UART_CLK_Sel
	.type	HBN_Set_UART_CLK_Sel, @function
HBN_Set_UART_CLK_Sel:
.LFB435:
	.loc 1 1440 53 is_stmt 1
	.cfi_startproc
.LVL350:
	.loc 1 1441 5
	.loc 1 1441 75 is_stmt 0
	li	a5,-1878958080
	.loc 1 1441 13
	lw	a5,-1008(a5)
	jr	a5
.LVL351:
	.cfi_endproc
.LFE435:
	.size	HBN_Set_UART_CLK_Sel, .-HBN_Set_UART_CLK_Sel
	.section	.tcm_code../drivers/soc/qcc743/std/src/qcc743_romapi_e907.c1444,"ax",@progbits
	.align	1
	.globl	HBN_Set_User_Boot_Config
	.type	HBN_Set_User_Boot_Config, @function
HBN_Set_User_Boot_Config:
.LFB436:
	.loc 1 1445 56 is_stmt 1
	.cfi_startproc
.LVL352:
	.loc 1 1446 5
	.loc 1 1446 74 is_stmt 0
	li	a5,-1878958080
	.loc 1 1446 13
	lw	a5,-1004(a5)
	jr	a5
.LVL353:
	.cfi_endproc
.LFE436:
	.size	HBN_Set_User_Boot_Config, .-HBN_Set_User_Boot_Config
	.section	.tcm_code../drivers/soc/qcc743/std/src/qcc743_romapi_e907.c1449,"ax",@progbits
	.align	1
	.globl	HBN_Set_Wakeup_Addr
	.type	HBN_Set_Wakeup_Addr, @function
HBN_Set_Wakeup_Addr:
.LFB437:
	.loc 1 1450 51 is_stmt 1
	.cfi_startproc
.LVL354:
	.loc 1 1451 5
	.loc 1 1451 74 is_stmt 0
	li	a5,-1878958080
	.loc 1 1451 13
	lw	a5,-1000(a5)
	jr	a5
.LVL355:
	.cfi_endproc
.LFE437:
	.size	HBN_Set_Wakeup_Addr, .-HBN_Set_Wakeup_Addr
	.section	.tcm_code../drivers/soc/qcc743/std/src/qcc743_romapi_e907.c1454,"ax",@progbits
	.align	1
	.globl	HBN_Set_Xtal_Type
	.type	HBN_Set_Xtal_Type, @function
HBN_Set_Xtal_Type:
.LFB438:
	.loc 1 1455 52 is_stmt 1
	.cfi_startproc
.LVL356:
	.loc 1 1456 5
	.loc 1 1456 77 is_stmt 0
	li	a5,-1878958080
	.loc 1 1456 13
	lw	a5,-996(a5)
	jr	a5
.LVL357:
	.cfi_endproc
.LFE438:
	.size	HBN_Set_Xtal_Type, .-HBN_Set_Xtal_Type
	.section	.tcm_code../drivers/soc/qcc743/std/src/qcc743_romapi_e907.c1459,"ax",@progbits
	.align	1
	.globl	HBN_Trim_Ldo33VoutTrim
	.type	HBN_Trim_Ldo33VoutTrim, @function
HBN_Trim_Ldo33VoutTrim:
.LFB439:
	.loc 1 1460 45 is_stmt 1
	.cfi_startproc
	.loc 1 1461 5
	.loc 1 1461 65 is_stmt 0
	li	a5,-1878958080
	.loc 1 1461 13
	lw	a5,-992(a5)
	jr	a5
.LVL358:
	.cfi_endproc
.LFE439:
	.size	HBN_Trim_Ldo33VoutTrim, .-HBN_Trim_Ldo33VoutTrim
	.section	.tcm_code../drivers/soc/qcc743/std/src/qcc743_romapi_e907.c1464,"ax",@progbits
	.align	1
	.globl	HBN_Trim_RC32K
	.type	HBN_Trim_RC32K, @function
HBN_Trim_RC32K:
.LFB440:
	.loc 1 1465 37 is_stmt 1
	.cfi_startproc
	.loc 1 1466 5
	.loc 1 1466 65 is_stmt 0
	li	a5,-1878958080
	.loc 1 1466 13
	lw	a5,-988(a5)
	jr	a5
.LVL359:
	.cfi_endproc
.LFE440:
	.size	HBN_Trim_RC32K, .-HBN_Trim_RC32K
	.section	.tcm_code../drivers/soc/qcc743/std/src/qcc743_romapi_e907.c1469,"ax",@progbits
	.align	1
	.globl	HBN_Get_BOD_OUT_State
	.type	HBN_Get_BOD_OUT_State, @function
HBN_Get_BOD_OUT_State:
.LFB441:
	.loc 1 1470 44 is_stmt 1
	.cfi_startproc
	.loc 1 1471 5
	.loc 1 1471 65 is_stmt 0
	li	a5,-1878958080
	.loc 1 1471 13
	lw	a5,-984(a5)
	jr	a5
.LVL360:
	.cfi_endproc
.LFE441:
	.size	HBN_Get_BOD_OUT_State, .-HBN_Get_BOD_OUT_State
	.section	.tcm_code../drivers/soc/qcc743/std/src/qcc743_romapi_e907.c1474,"ax",@progbits
	.align	1
	.globl	HBN_Get_INT_State
	.type	HBN_Get_INT_State, @function
HBN_Get_INT_State:
.LFB442:
	.loc 1 1475 51 is_stmt 1
	.cfi_startproc
.LVL361:
	.loc 1 1476 5
	.loc 1 1476 76 is_stmt 0
	li	a5,-1878958080
	.loc 1 1476 13
	lw	a5,-980(a5)
	jr	a5
.LVL362:
	.cfi_endproc
.LFE442:
	.size	HBN_Get_INT_State, .-HBN_Get_INT_State
	.section	.tcm_code../drivers/soc/qcc743/std/src/qcc743_romapi_e907.c1479,"ax",@progbits
	.align	1
	.globl	HBN_Get_MCU_Root_CLK_Sel
	.type	HBN_Get_MCU_Root_CLK_Sel, @function
HBN_Get_MCU_Root_CLK_Sel:
.LFB443:
	.loc 1 1480 39 is_stmt 1
	.cfi_startproc
	.loc 1 1481 5
	.loc 1 1481 57 is_stmt 0
	li	a5,-1878958080
	.loc 1 1481 13
	lw	a5,-976(a5)
	jr	a5
.LVL363:
	.cfi_endproc
.LFE443:
	.size	HBN_Get_MCU_Root_CLK_Sel, .-HBN_Get_MCU_Root_CLK_Sel
	.section	.tcm_code../drivers/soc/qcc743/std/src/qcc743_romapi_e907.c1484,"ax",@progbits
	.align	1
	.globl	HBN_Get_MCU_XCLK_Sel
	.type	HBN_Get_MCU_XCLK_Sel, @function
HBN_Get_MCU_XCLK_Sel:
.LFB444:
	.loc 1 1485 35 is_stmt 1
	.cfi_startproc
	.loc 1 1486 5
	.loc 1 1486 57 is_stmt 0
	li	a5,-1878958080
	.loc 1 1486 13
	lw	a5,-972(a5)
	jr	a5
.LVL364:
	.cfi_endproc
.LFE444:
	.size	HBN_Get_MCU_XCLK_Sel, .-HBN_Get_MCU_XCLK_Sel
	.section	.tcm_code../drivers/soc/qcc743/std/src/qcc743_romapi_e907.c1489,"ax",@progbits
	.align	1
	.globl	HBN_Get_PIR_Interval
	.type	HBN_Get_PIR_Interval, @function
HBN_Get_PIR_Interval:
.LFB445:
	.loc 1 1490 36 is_stmt 1
	.cfi_startproc
	.loc 1 1491 5
	.loc 1 1491 58 is_stmt 0
	li	a5,-1878958080
	.loc 1 1491 13
	lw	a5,-968(a5)
	jr	a5
.LVL365:
	.cfi_endproc
.LFE445:
	.size	HBN_Get_PIR_Interval, .-HBN_Get_PIR_Interval
	.section	.tcm_code../drivers/soc/qcc743/std/src/qcc743_romapi_e907.c1494,"ax",@progbits
	.align	1
	.globl	HBN_Get_PIR_Threshold
	.type	HBN_Get_PIR_Threshold, @function
HBN_Get_PIR_Threshold:
.LFB446:
	.loc 1 1495 37 is_stmt 1
	.cfi_startproc
	.loc 1 1496 5
	.loc 1 1496 58 is_stmt 0
	li	a5,-1878958080
	.loc 1 1496 13
	lw	a5,-964(a5)
	jr	a5
.LVL366:
	.cfi_endproc
.LFE446:
	.size	HBN_Get_PIR_Threshold, .-HBN_Get_PIR_Threshold
	.section	.tcm_code../drivers/soc/qcc743/std/src/qcc743_romapi_e907.c1499,"ax",@progbits
	.align	1
	.globl	HBN_Get_Status_Flag
	.type	HBN_Get_Status_Flag, @function
HBN_Get_Status_Flag:
.LFB447:
	.loc 1 1500 35 is_stmt 1
	.cfi_startproc
	.loc 1 1501 5
	.loc 1 1501 58 is_stmt 0
	li	a5,-1878958080
	.loc 1 1501 13
	lw	a5,-960(a5)
	jr	a5
.LVL367:
	.cfi_endproc
.LFE447:
	.size	HBN_Get_Status_Flag, .-HBN_Get_Status_Flag
	.section	.tcm_code../drivers/soc/qcc743/std/src/qcc743_romapi_e907.c1504,"ax",@progbits
	.align	1
	.globl	HBN_Get_Wakeup_Addr
	.type	HBN_Get_Wakeup_Addr, @function
HBN_Get_Wakeup_Addr:
.LFB448:
	.loc 1 1505 35 is_stmt 1
	.cfi_startproc
	.loc 1 1506 5
	.loc 1 1506 58 is_stmt 0
	li	a5,-1878958080
	.loc 1 1506 13
	lw	a5,-956(a5)
	jr	a5
.LVL368:
	.cfi_endproc
.LFE448:
	.size	HBN_Get_Wakeup_Addr, .-HBN_Get_Wakeup_Addr
	.section	.tcm_code../drivers/soc/qcc743/std/src/qcc743_romapi_e907.c1509,"ax",@progbits
	.align	1
	.globl	HBN_Get_Core_Unhalt_Config
	.type	HBN_Get_Core_Unhalt_Config, @function
HBN_Get_Core_Unhalt_Config:
.LFB449:
	.loc 1 1510 41 is_stmt 1
	.cfi_startproc
	.loc 1 1511 5
	.loc 1 1511 57 is_stmt 0
	li	a5,-1878958080
	.loc 1 1511 13
	lw	a5,-952(a5)
	jr	a5
.LVL369:
	.cfi_endproc
.LFE449:
	.size	HBN_Get_Core_Unhalt_Config, .-HBN_Get_Core_Unhalt_Config
	.section	.tcm_code../drivers/soc/qcc743/std/src/qcc743_romapi_e907.c1514,"ax",@progbits
	.align	1
	.globl	HBN_Get_Pin_Wakeup_Mode
	.type	HBN_Get_Pin_Wakeup_Mode, @function
HBN_Get_Pin_Wakeup_Mode:
.LFB450:
	.loc 1 1515 38 is_stmt 1
	.cfi_startproc
	.loc 1 1516 5
	.loc 1 1516 57 is_stmt 0
	li	a5,-1878958080
	.loc 1 1516 13
	lw	a5,-948(a5)
	jr	a5
.LVL370:
	.cfi_endproc
.LFE450:
	.size	HBN_Get_Pin_Wakeup_Mode, .-HBN_Get_Pin_Wakeup_Mode
	.section	.tcm_code../drivers/soc/qcc743/std/src/qcc743_romapi_e907.c1519,"ax",@progbits
	.align	1
	.globl	HBN_Get_User_Boot_Config
	.type	HBN_Get_User_Boot_Config, @function
HBN_Get_User_Boot_Config:
.LFB451:
	.loc 1 1520 39 is_stmt 1
	.cfi_startproc
	.loc 1 1521 5
	.loc 1 1521 57 is_stmt 0
	li	a5,-1878958080
	.loc 1 1521 13
	lw	a5,-944(a5)
	jr	a5
.LVL371:
	.cfi_endproc
.LFE451:
	.size	HBN_Get_User_Boot_Config, .-HBN_Get_User_Boot_Config
	.section	.tcm_code../drivers/soc/qcc743/std/src/qcc743_romapi_e907.c1545,"ax",@progbits
	.align	1
	.globl	L1C_DCache_Clean_All
	.type	L1C_DCache_Clean_All, @function
L1C_DCache_Clean_All:
.LFB452:
	.loc 1 1546 43 is_stmt 1
	.cfi_startproc
	.loc 1 1547 5
	.loc 1 1547 65 is_stmt 0
	li	a5,-1878958080
	.loc 1 1547 13
	lw	a5,-928(a5)
	jr	a5
.LVL372:
	.cfi_endproc
.LFE452:
	.size	L1C_DCache_Clean_All, .-L1C_DCache_Clean_All
	.section	.tcm_code../drivers/soc/qcc743/std/src/qcc743_romapi_e907.c1550,"ax",@progbits
	.align	1
	.globl	L1C_DCache_Clean_By_Addr
	.type	L1C_DCache_Clean_By_Addr, @function
L1C_DCache_Clean_By_Addr:
.LFB453:
	.loc 1 1551 71 is_stmt 1
	.cfi_startproc
.LVL373:
	.loc 1 1552 5
	.loc 1 1552 89 is_stmt 0
	li	a5,-1878958080
	.loc 1 1552 13
	lw	a5,-924(a5)
	jr	a5
.LVL374:
	.cfi_endproc
.LFE453:
	.size	L1C_DCache_Clean_By_Addr, .-L1C_DCache_Clean_By_Addr
	.section	.tcm_code../drivers/soc/qcc743/std/src/qcc743_romapi_e907.c1555,"ax",@progbits
	.align	1
	.globl	L1C_DCache_Clean_Invalid_All
	.type	L1C_DCache_Clean_Invalid_All, @function
L1C_DCache_Clean_Invalid_All:
.LFB454:
	.loc 1 1556 51 is_stmt 1
	.cfi_startproc
	.loc 1 1557 5
	.loc 1 1557 65 is_stmt 0
	li	a5,-1878958080
	.loc 1 1557 13
	lw	a5,-920(a5)
	jr	a5
.LVL375:
	.cfi_endproc
.LFE454:
	.size	L1C_DCache_Clean_Invalid_All, .-L1C_DCache_Clean_Invalid_All
	.section	.tcm_code../drivers/soc/qcc743/std/src/qcc743_romapi_e907.c1560,"ax",@progbits
	.align	1
	.globl	L1C_DCache_Clean_Invalid_By_Addr
	.type	L1C_DCache_Clean_Invalid_By_Addr, @function
L1C_DCache_Clean_Invalid_By_Addr:
.LFB455:
	.loc 1 1561 79 is_stmt 1
	.cfi_startproc
.LVL376:
	.loc 1 1562 5
	.loc 1 1562 89 is_stmt 0
	li	a5,-1878958080
	.loc 1 1562 13
	lw	a5,-916(a5)
	jr	a5
.LVL377:
	.cfi_endproc
.LFE455:
	.size	L1C_DCache_Clean_Invalid_By_Addr, .-L1C_DCache_Clean_Invalid_By_Addr
	.section	.tcm_code../drivers/soc/qcc743/std/src/qcc743_romapi_e907.c1565,"ax",@progbits
	.align	1
	.globl	L1C_DCache_Disable
	.type	L1C_DCache_Disable, @function
L1C_DCache_Disable:
.LFB456:
	.loc 1 1566 41 is_stmt 1
	.cfi_startproc
	.loc 1 1567 5
	.loc 1 1567 65 is_stmt 0
	li	a5,-1878958080
	.loc 1 1567 13
	lw	a5,-912(a5)
	jr	a5
.LVL378:
	.cfi_endproc
.LFE456:
	.size	L1C_DCache_Disable, .-L1C_DCache_Disable
	.section	.tcm_code../drivers/soc/qcc743/std/src/qcc743_romapi_e907.c1570,"ax",@progbits
	.align	1
	.globl	L1C_DCache_Enable
	.type	L1C_DCache_Enable, @function
L1C_DCache_Enable:
.LFB457:
	.loc 1 1571 54 is_stmt 1
	.cfi_startproc
.LVL379:
	.loc 1 1572 5
	.loc 1 1572 79 is_stmt 0
	li	a5,-1878958080
	.loc 1 1572 13
	lw	a5,-908(a5)
	jr	a5
.LVL380:
	.cfi_endproc
.LFE457:
	.size	L1C_DCache_Enable, .-L1C_DCache_Enable
	.section	.tcm_code../drivers/soc/qcc743/std/src/qcc743_romapi_e907.c1575,"ax",@progbits
	.align	1
	.globl	L1C_DCache_Invalid_All
	.type	L1C_DCache_Invalid_All, @function
L1C_DCache_Invalid_All:
.LFB458:
	.loc 1 1576 45 is_stmt 1
	.cfi_startproc
	.loc 1 1577 5
	.loc 1 1577 65 is_stmt 0
	li	a5,-1878958080
	.loc 1 1577 13
	lw	a5,-904(a5)
	jr	a5
.LVL381:
	.cfi_endproc
.LFE458:
	.size	L1C_DCache_Invalid_All, .-L1C_DCache_Invalid_All
	.section	.tcm_code../drivers/soc/qcc743/std/src/qcc743_romapi_e907.c1580,"ax",@progbits
	.align	1
	.globl	L1C_DCache_Invalid_By_Addr
	.type	L1C_DCache_Invalid_By_Addr, @function
L1C_DCache_Invalid_By_Addr:
.LFB459:
	.loc 1 1581 73 is_stmt 1
	.cfi_startproc
.LVL382:
	.loc 1 1582 5
	.loc 1 1582 89 is_stmt 0
	li	a5,-1878958080
	.loc 1 1582 13
	lw	a5,-900(a5)
	jr	a5
.LVL383:
	.cfi_endproc
.LFE459:
	.size	L1C_DCache_Invalid_By_Addr, .-L1C_DCache_Invalid_By_Addr
	.section	.tcm_code../drivers/soc/qcc743/std/src/qcc743_romapi_e907.c1585,"ax",@progbits
	.align	1
	.globl	L1C_ICache_Disable
	.type	L1C_ICache_Disable, @function
L1C_ICache_Disable:
.LFB460:
	.loc 1 1586 41 is_stmt 1
	.cfi_startproc
	.loc 1 1587 5
	.loc 1 1587 65 is_stmt 0
	li	a5,-1878958080
	.loc 1 1587 13
	lw	a5,-896(a5)
	jr	a5
.LVL384:
	.cfi_endproc
.LFE460:
	.size	L1C_ICache_Disable, .-L1C_ICache_Disable
	.section	.tcm_code../drivers/soc/qcc743/std/src/qcc743_romapi_e907.c1590,"ax",@progbits
	.align	1
	.globl	L1C_ICache_Enable
	.type	L1C_ICache_Enable, @function
L1C_ICache_Enable:
.LFB461:
	.loc 1 1591 54 is_stmt 1
	.cfi_startproc
.LVL385:
	.loc 1 1592 5
	.loc 1 1592 79 is_stmt 0
	li	a5,-1878958080
	.loc 1 1592 13
	lw	a5,-892(a5)
	jr	a5
.LVL386:
	.cfi_endproc
.LFE461:
	.size	L1C_ICache_Enable, .-L1C_ICache_Enable
	.section	.tcm_code../drivers/soc/qcc743/std/src/qcc743_romapi_e907.c1595,"ax",@progbits
	.align	1
	.globl	L1C_ICache_Invalid_All
	.type	L1C_ICache_Invalid_All, @function
L1C_ICache_Invalid_All:
.LFB462:
	.loc 1 1596 45 is_stmt 1
	.cfi_startproc
	.loc 1 1597 5
	.loc 1 1597 65 is_stmt 0
	li	a5,-1878958080
	.loc 1 1597 13
	lw	a5,-888(a5)
	jr	a5
.LVL387:
	.cfi_endproc
.LFE462:
	.size	L1C_ICache_Invalid_All, .-L1C_ICache_Invalid_All
	.section	.tcm_code../drivers/soc/qcc743/std/src/qcc743_romapi_e907.c1608,"ax",@progbits
	.align	1
	.globl	L1C_Set_Cache_Setting_By_ID
	.type	L1C_Set_Cache_Setting_By_ID, @function
L1C_Set_Cache_Setting_By_ID:
.LFB463:
	.loc 1 1609 92 is_stmt 1
	.cfi_startproc
.LVL388:
	.loc 1 1610 5
	.loc 1 1610 107 is_stmt 0
	li	a5,-1878958080
	.loc 1 1610 13
	lw	a5,-880(a5)
	jr	a5
.LVL389:
	.cfi_endproc
.LFE463:
	.size	L1C_Set_Cache_Setting_By_ID, .-L1C_Set_Cache_Setting_By_ID
	.section	.tcm_code../drivers/soc/qcc743/std/src/qcc743_romapi_e907.c1613,"ax",@progbits
	.align	1
	.globl	L1C_Set_Wrap
	.type	L1C_Set_Wrap, @function
L1C_Set_Wrap:
.LFB464:
	.loc 1 1614 41 is_stmt 1
	.cfi_startproc
.LVL390:
	.loc 1 1615 5
	.loc 1 1615 71 is_stmt 0
	li	a5,-1878958080
	.loc 1 1615 13
	lw	a5,-876(a5)
	jr	a5
.LVL391:
	.cfi_endproc
.LFE464:
	.size	L1C_Set_Wrap, .-L1C_Set_Wrap
	.section	.tcm_code../drivers/soc/qcc743/std/src/qcc743_romapi_e907.c1618,"ax",@progbits
	.align	1
	.globl	L1C_DCache_Write_Set
	.type	L1C_DCache_Write_Set, @function
L1C_DCache_Write_Set:
.LFB465:
	.loc 1 1619 92 is_stmt 1
	.cfi_startproc
.LVL392:
	.loc 1 1620 5
	.loc 1 1620 114 is_stmt 0
	li	a5,-1878958080
	.loc 1 1620 13
	lw	a5,-872(a5)
	jr	a5
.LVL393:
	.cfi_endproc
.LFE465:
	.size	L1C_DCache_Write_Set, .-L1C_DCache_Write_Set
	.section	.tcm_code../drivers/soc/qcc743/std/src/qcc743_romapi_e907.c1630,"ax",@progbits
	.align	1
	.globl	PDS_Disable_GPIO_Keep
	.type	PDS_Disable_GPIO_Keep, @function
PDS_Disable_GPIO_Keep:
.LFB466:
	.loc 1 1631 44 is_stmt 1
	.cfi_startproc
	.loc 1 1632 5
	.loc 1 1632 65 is_stmt 0
	li	a5,-1878958080
	.loc 1 1632 13
	lw	a5,-864(a5)
	jr	a5
.LVL394:
	.cfi_endproc
.LFE466:
	.size	PDS_Disable_GPIO_Keep, .-PDS_Disable_GPIO_Keep
	.section	.tcm_code../drivers/soc/qcc743/std/src/qcc743_romapi_e907.c1643,"ax",@progbits
	.align	1
	.globl	PDS_Force_Config
	.type	PDS_Force_Config, @function
PDS_Force_Config:
.LFB467:
	.loc 1 1644 96 is_stmt 1
	.cfi_startproc
.LVL395:
	.loc 1 1645 5
	.loc 1 1645 122 is_stmt 0
	li	a5,-1878958080
	.loc 1 1645 13
	lw	a5,-856(a5)
	jr	a5
.LVL396:
	.cfi_endproc
.LFE467:
	.size	PDS_Force_Config, .-PDS_Force_Config
	.section	.tcm_code../drivers/soc/qcc743/std/src/qcc743_romapi_e907.c1648,"ax",@progbits
	.align	1
	.globl	PDS_IntClear
	.type	PDS_IntClear, @function
PDS_IntClear:
.LFB468:
	.loc 1 1649 35 is_stmt 1
	.cfi_startproc
	.loc 1 1650 5
	.loc 1 1650 65 is_stmt 0
	li	a5,-1878958080
	.loc 1 1650 13
	lw	a5,-852(a5)
	jr	a5
.LVL397:
	.cfi_endproc
.LFE468:
	.size	PDS_IntClear, .-PDS_IntClear
	.section	.tcm_code../drivers/soc/qcc743/std/src/qcc743_romapi_e907.c1653,"ax",@progbits
	.align	1
	.globl	PDS_IntMask
	.type	PDS_IntMask, @function
PDS_IntMask:
.LFB469:
	.loc 1 1654 71 is_stmt 1
	.cfi_startproc
.LVL398:
	.loc 1 1655 5
	.loc 1 1655 102 is_stmt 0
	li	a5,-1878958080
	.loc 1 1655 13
	lw	a5,-848(a5)
	jr	a5
.LVL399:
	.cfi_endproc
.LFE469:
	.size	PDS_IntMask, .-PDS_IntMask
	.section	.tcm_code../drivers/soc/qcc743/std/src/qcc743_romapi_e907.c1659,"ax",@progbits
	.align	1
	.globl	PDS_RAM_Config
	.type	PDS_RAM_Config, @function
PDS_RAM_Config:
.LFB470:
	.loc 1 1660 147 is_stmt 1
	.cfi_startproc
.LVL400:
	.loc 1 1661 5
	.loc 1 1661 175 is_stmt 0
	li	a5,-1878958080
	.loc 1 1661 13
	lw	a5,-844(a5)
	jr	a5
.LVL401:
	.cfi_endproc
.LFE470:
	.size	PDS_RAM_Config, .-PDS_RAM_Config
	.section	.tcm_code../drivers/soc/qcc743/std/src/qcc743_romapi_e907.c1664,"ax",@progbits
	.align	1
	.globl	PDS_Set_Flash_Pad_Pull_None
	.type	PDS_Set_Flash_Pad_Pull_None, @function
PDS_Set_Flash_Pad_Pull_None:
.LFB471:
	.loc 1 1665 60 is_stmt 1
	.cfi_startproc
.LVL402:
	.loc 1 1666 5
	.loc 1 1666 75 is_stmt 0
	li	a5,-1878958080
	.loc 1 1666 13
	lw	a5,-840(a5)
	jr	a5
.LVL403:
	.cfi_endproc
.LFE471:
	.size	PDS_Set_Flash_Pad_Pull_None, .-PDS_Set_Flash_Pad_Pull_None
	.section	.tcm_code../drivers/soc/qcc743/std/src/qcc743_romapi_e907.c1669,"ax",@progbits
	.align	1
	.globl	PDS_Set_Flash_Pad_Pull_None_Fast
	.type	PDS_Set_Flash_Pad_Pull_None_Fast, @function
PDS_Set_Flash_Pad_Pull_None_Fast:
.LFB472:
	.loc 1 1670 65 is_stmt 1
	.cfi_startproc
.LVL404:
	.loc 1 1671 5
	.loc 1 1671 75 is_stmt 0
	li	a5,-1878958080
	.loc 1 1671 13
	lw	a5,-836(a5)
	jr	a5
.LVL405:
	.cfi_endproc
.LFE472:
	.size	PDS_Set_Flash_Pad_Pull_None_Fast, .-PDS_Set_Flash_Pad_Pull_None_Fast
	.section	.tcm_code../drivers/soc/qcc743/std/src/qcc743_romapi_e907.c1674,"ax",@progbits
	.align	1
	.globl	PDS_Set_GPIO_Pad_IntClr
	.type	PDS_Set_GPIO_Pad_IntClr, @function
PDS_Set_GPIO_Pad_IntClr:
.LFB473:
	.loc 1 1675 53 is_stmt 1
	.cfi_startproc
.LVL406:
	.loc 1 1676 5
	.loc 1 1676 72 is_stmt 0
	li	a5,-1878958080
	.loc 1 1676 13
	lw	a5,-832(a5)
	jr	a5
.LVL407:
	.cfi_endproc
.LFE473:
	.size	PDS_Set_GPIO_Pad_IntClr, .-PDS_Set_GPIO_Pad_IntClr
	.section	.tcm_code../drivers/soc/qcc743/std/src/qcc743_romapi_e907.c1686,"ax",@progbits
	.align	1
	.globl	PDS_Set_GPIO_Pad_IntMode
	.type	PDS_Set_GPIO_Pad_IntMode, @function
PDS_Set_GPIO_Pad_IntMode:
.LFB474:
	.loc 1 1687 68 is_stmt 1
	.cfi_startproc
.LVL408:
	.loc 1 1688 5
	.loc 1 1688 86 is_stmt 0
	li	a5,-1878958080
	.loc 1 1688 13
	lw	a5,-824(a5)
	jr	a5
.LVL409:
	.cfi_endproc
.LFE474:
	.size	PDS_Set_GPIO_Pad_IntMode, .-PDS_Set_GPIO_Pad_IntMode
	.section	.tcm_code../drivers/soc/qcc743/std/src/qcc743_romapi_e907.c1697,"ax",@progbits
	.align	1
	.globl	PDS_Set_MCU0_Clock_Disable
	.type	PDS_Set_MCU0_Clock_Disable, @function
PDS_Set_MCU0_Clock_Disable:
.LFB475:
	.loc 1 1698 49 is_stmt 1
	.cfi_startproc
	.loc 1 1699 5
	.loc 1 1699 65 is_stmt 0
	li	a5,-1878958080
	.loc 1 1699 13
	lw	a5,-816(a5)
	jr	a5
.LVL410:
	.cfi_endproc
.LFE475:
	.size	PDS_Set_MCU0_Clock_Disable, .-PDS_Set_MCU0_Clock_Disable
	.section	.tcm_code../drivers/soc/qcc743/std/src/qcc743_romapi_e907.c1702,"ax",@progbits
	.align	1
	.globl	PDS_Set_MCU0_Clock_Enable
	.type	PDS_Set_MCU0_Clock_Enable, @function
PDS_Set_MCU0_Clock_Enable:
.LFB476:
	.loc 1 1703 48 is_stmt 1
	.cfi_startproc
	.loc 1 1704 5
	.loc 1 1704 65 is_stmt 0
	li	a5,-1878958080
	.loc 1 1704 13
	lw	a5,-812(a5)
	jr	a5
.LVL411:
	.cfi_endproc
.LFE476:
	.size	PDS_Set_MCU0_Clock_Enable, .-PDS_Set_MCU0_Clock_Enable
	.section	.tcm_code../drivers/soc/qcc743/std/src/qcc743_romapi_e907.c1707,"ax",@progbits
	.align	1
	.globl	PDS_Set_MCU0_Reset_Address
	.type	PDS_Set_MCU0_Reset_Address, @function
PDS_Set_MCU0_Reset_Address:
.LFB477:
	.loc 1 1708 58 is_stmt 1
	.cfi_startproc
.LVL412:
	.loc 1 1709 5
	.loc 1 1709 74 is_stmt 0
	li	a5,-1878958080
	.loc 1 1709 13
	lw	a5,-808(a5)
	jr	a5
.LVL413:
	.cfi_endproc
.LFE477:
	.size	PDS_Set_MCU0_Reset_Address, .-PDS_Set_MCU0_Reset_Address
	.section	.tcm_code../drivers/soc/qcc743/std/src/qcc743_romapi_e907.c1712,"ax",@progbits
	.align	1
	.globl	PDS_Set_USB_Resume
	.type	PDS_Set_USB_Resume, @function
PDS_Set_USB_Resume:
.LFB478:
	.loc 1 1713 41 is_stmt 1
	.cfi_startproc
	.loc 1 1714 5
	.loc 1 1714 65 is_stmt 0
	li	a5,-1878958080
	.loc 1 1714 13
	lw	a5,-804(a5)
	jr	a5
.LVL414:
	.cfi_endproc
.LFE478:
	.size	PDS_Set_USB_Resume, .-PDS_Set_USB_Resume
	.section	.tcm_code../drivers/soc/qcc743/std/src/qcc743_romapi_e907.c1717,"ax",@progbits
	.align	1
	.globl	PDS_Set_USB_Suspend
	.type	PDS_Set_USB_Suspend, @function
PDS_Set_USB_Suspend:
.LFB479:
	.loc 1 1718 42 is_stmt 1
	.cfi_startproc
	.loc 1 1719 5
	.loc 1 1719 65 is_stmt 0
	li	a5,-1878958080
	.loc 1 1719 13
	lw	a5,-800(a5)
	jr	a5
.LVL415:
	.cfi_endproc
.LFE479:
	.size	PDS_Set_USB_Suspend, .-PDS_Set_USB_Suspend
	.section	.tcm_code../drivers/soc/qcc743/std/src/qcc743_romapi_e907.c1722,"ax",@progbits
	.align	1
	.globl	PDS_Trim_RC32M
	.type	PDS_Trim_RC32M, @function
PDS_Trim_RC32M:
.LFB480:
	.loc 1 1723 37 is_stmt 1
	.cfi_startproc
	.loc 1 1724 5
	.loc 1 1724 65 is_stmt 0
	li	a5,-1878958080
	.loc 1 1724 13
	lw	a5,-796(a5)
	jr	a5
.LVL416:
	.cfi_endproc
.LFE480:
	.size	PDS_Trim_RC32M, .-PDS_Trim_RC32M
	.section	.tcm_code../drivers/soc/qcc743/std/src/qcc743_romapi_e907.c1727,"ax",@progbits
	.align	1
	.globl	PDS_Turn_Off_USB
	.type	PDS_Turn_Off_USB, @function
PDS_Turn_Off_USB:
.LFB481:
	.loc 1 1728 39 is_stmt 1
	.cfi_startproc
	.loc 1 1729 5
	.loc 1 1729 65 is_stmt 0
	li	a5,-1878958080
	.loc 1 1729 13
	lw	a5,-792(a5)
	jr	a5
.LVL417:
	.cfi_endproc
.LFE481:
	.size	PDS_Turn_Off_USB, .-PDS_Turn_Off_USB
	.section	.tcm_code../drivers/soc/qcc743/std/src/qcc743_romapi_e907.c1732,"ax",@progbits
	.align	1
	.globl	PDS_Turn_On_USB
	.type	PDS_Turn_On_USB, @function
PDS_Turn_On_USB:
.LFB482:
	.loc 1 1733 51 is_stmt 1
	.cfi_startproc
.LVL418:
	.loc 1 1734 5
	.loc 1 1734 78 is_stmt 0
	li	a5,-1878958080
	.loc 1 1734 13
	lw	a5,-788(a5)
	jr	a5
.LVL419:
	.cfi_endproc
.LFE482:
	.size	PDS_Turn_On_USB, .-PDS_Turn_On_USB
	.section	.tcm_code../drivers/soc/qcc743/std/src/qcc743_romapi_e907.c1744,"ax",@progbits
	.align	1
	.globl	PDS_Get_IntStatus
	.type	PDS_Get_IntStatus, @function
PDS_Get_IntStatus:
.LFB483:
	.loc 1 1745 51 is_stmt 1
	.cfi_startproc
.LVL420:
	.loc 1 1746 5
	.loc 1 1746 76 is_stmt 0
	li	a5,-1878958080
	.loc 1 1746 13
	lw	a5,-780(a5)
	jr	a5
.LVL421:
	.cfi_endproc
.LFE483:
	.size	PDS_Get_IntStatus, .-PDS_Get_IntStatus
	.section	.tcm_code../drivers/soc/qcc743/std/src/qcc743_romapi_e907.c1749,"ax",@progbits
	.align	1
	.globl	qcc74x_sf_cfg_deinit_ext_flash_gpio
	.type	qcc74x_sf_cfg_deinit_ext_flash_gpio, @function
qcc74x_sf_cfg_deinit_ext_flash_gpio:
.LFB484:
	.loc 1 1750 63 is_stmt 1
	.cfi_startproc
.LVL422:
	.loc 1 1751 5
	.loc 1 1751 68 is_stmt 0
	li	a5,-1878958080
	.loc 1 1751 13
	lw	a5,-776(a5)
	jr	a5
.LVL423:
	.cfi_endproc
.LFE484:
	.size	qcc74x_sf_cfg_deinit_ext_flash_gpio, .-qcc74x_sf_cfg_deinit_ext_flash_gpio
	.section	.tcm_code../drivers/soc/qcc743/std/src/qcc743_romapi_e907.c1755,"ax",@progbits
	.align	1
	.globl	qcc74x_sf_cfg_flash_init
	.type	qcc74x_sf_cfg_flash_init, @function
qcc74x_sf_cfg_flash_init:
.LFB485:
	.loc 1 1756 133 is_stmt 1
	.cfi_startproc
.LVL424:
	.loc 1 1757 5
	.loc 1 1757 146 is_stmt 0
	li	a5,-1878958080
	.loc 1 1757 13
	lw	a5,-772(a5)
	jr	a5
.LVL425:
	.cfi_endproc
.LFE485:
	.size	qcc74x_sf_cfg_flash_init, .-qcc74x_sf_cfg_flash_init
	.section	.text.qcc74x_sf_cfg_init_ext_flash_gpio,"ax",@progbits
	.align	1
	.globl	qcc74x_sf_cfg_init_ext_flash_gpio
	.type	qcc74x_sf_cfg_init_ext_flash_gpio, @function
qcc74x_sf_cfg_init_ext_flash_gpio:
.LFB486:
	.loc 1 1768 61 is_stmt 1
	.cfi_startproc
.LVL426:
	.loc 1 1769 5
	.loc 1 1769 68 is_stmt 0
	li	a5,-1878958080
	.loc 1 1769 13
	lw	a5,-764(a5)
	jr	a5
.LVL427:
	.cfi_endproc
.LFE486:
	.size	qcc74x_sf_cfg_init_ext_flash_gpio, .-qcc74x_sf_cfg_init_ext_flash_gpio
	.section	.tcm_code../drivers/soc/qcc743/std/src/qcc743_romapi_e907.c1772,"ax",@progbits
	.align	1
	.globl	qcc74x_sf_cfg_init_flash2_gpio
	.type	qcc74x_sf_cfg_init_flash2_gpio, @function
qcc74x_sf_cfg_init_flash2_gpio:
.LFB487:
	.loc 1 1773 49 is_stmt 1
	.cfi_startproc
.LVL428:
	.loc 1 1774 5
	.loc 1 1774 61 is_stmt 0
	li	a5,-1878958080
	.loc 1 1774 13
	lw	a5,-760(a5)
	jr	a5
.LVL429:
	.cfi_endproc
.LFE487:
	.size	qcc74x_sf_cfg_init_flash2_gpio, .-qcc74x_sf_cfg_init_flash2_gpio
	.section	.tcm_code../drivers/soc/qcc743/std/src/qcc743_romapi_e907.c1777,"ax",@progbits
	.align	1
	.globl	qcc74x_sf_cfg_init_flash_gpio
	.type	qcc74x_sf_cfg_init_flash_gpio, @function
qcc74x_sf_cfg_init_flash_gpio:
.LFB488:
	.loc 1 1778 82 is_stmt 1
	.cfi_startproc
.LVL430:
	.loc 1 1779 5
	.loc 1 1779 92 is_stmt 0
	li	a5,-1878958080
	.loc 1 1779 13
	lw	a5,-756(a5)
	jr	a5
.LVL431:
	.cfi_endproc
.LFE488:
	.size	qcc74x_sf_cfg_init_flash_gpio, .-qcc74x_sf_cfg_init_flash_gpio
	.section	.tcm_code../drivers/soc/qcc743/std/src/qcc743_romapi_e907.c1783,"ax",@progbits
	.align	1
	.globl	qcc74x_sf_cfg_sbus2_flash_init
	.type	qcc74x_sf_cfg_sbus2_flash_init, @function
qcc74x_sf_cfg_sbus2_flash_init:
.LFB489:
	.loc 1 1784 93 is_stmt 1
	.cfi_startproc
.LVL432:
	.loc 1 1785 5
	.loc 1 1785 103 is_stmt 0
	li	a5,-1878958080
	.loc 1 1785 13
	lw	a5,-752(a5)
	jr	a5
.LVL433:
	.cfi_endproc
.LFE489:
	.size	qcc74x_sf_cfg_sbus2_flash_init, .-qcc74x_sf_cfg_sbus2_flash_init
	.section	.tcm_code../drivers/soc/qcc743/std/src/qcc743_romapi_e907.c1789,"ax",@progbits
	.align	1
	.globl	qcc74x_sf_cfg_flash_identify
	.type	qcc74x_sf_cfg_flash_identify, @function
qcc74x_sf_cfg_flash_identify:
.LFB490:
	.loc 1 1790 171 is_stmt 1
	.cfi_startproc
.LVL434:
	.loc 1 1791 5
	.loc 1 1791 180 is_stmt 0
	li	a6,-1878958080
	.loc 1 1791 13
	lw	a6,-748(a6)
	jr	a6
.LVL435:
	.cfi_endproc
.LFE490:
	.size	qcc74x_sf_cfg_flash_identify, .-qcc74x_sf_cfg_flash_identify
	.section	.tcm_code../drivers/soc/qcc743/std/src/qcc743_romapi_e907.c1794,"ax",@progbits
	.align	1
	.globl	qcc74x_sf_ctrl_get_busy_state
	.type	qcc74x_sf_ctrl_get_busy_state, @function
qcc74x_sf_ctrl_get_busy_state:
.LFB491:
	.loc 1 1795 44 is_stmt 1
	.cfi_startproc
	.loc 1 1796 5
	.loc 1 1796 53 is_stmt 0
	li	a5,-1878958080
	.loc 1 1796 13
	lw	a5,-744(a5)
	.loc 1 1795 44
	addi	sp,sp,-16
	.cfi_def_cfa_offset 16
	sw	ra,12(sp)
	.cfi_offset 1, -4
	.loc 1 1796 13
	jalr	a5
.LVL436:
	.loc 1 1797 1
	lw	ra,12(sp)
	.cfi_restore 1
	andi	a0,a0,0xff
	addi	sp,sp,16
	.cfi_def_cfa_offset 0
	jr	ra
	.cfi_endproc
.LFE491:
	.size	qcc74x_sf_ctrl_get_busy_state, .-qcc74x_sf_ctrl_get_busy_state
	.section	.tcm_code../drivers/soc/qcc743/std/src/qcc743_romapi_e907.c1799,"ax",@progbits
	.align	1
	.globl	qcc74x_sf_ctrl_is_aes_enable
	.type	qcc74x_sf_ctrl_is_aes_enable, @function
qcc74x_sf_ctrl_is_aes_enable:
.LFB492:
	.loc 1 1800 43 is_stmt 1
	.cfi_startproc
	.loc 1 1801 5
	.loc 1 1801 53 is_stmt 0
	li	a5,-1878958080
	.loc 1 1801 13
	lw	a5,-740(a5)
	.loc 1 1800 43
	addi	sp,sp,-16
	.cfi_def_cfa_offset 16
	sw	ra,12(sp)
	.cfi_offset 1, -4
	.loc 1 1801 13
	jalr	a5
.LVL437:
	.loc 1 1802 1
	lw	ra,12(sp)
	.cfi_restore 1
	andi	a0,a0,0xff
	addi	sp,sp,16
	.cfi_def_cfa_offset 0
	jr	ra
	.cfi_endproc
.LFE492:
	.size	qcc74x_sf_ctrl_is_aes_enable, .-qcc74x_sf_ctrl_is_aes_enable
	.section	.tcm_code../drivers/soc/qcc743/std/src/qcc743_romapi_e907.c1809,"ax",@progbits
	.align	1
	.globl	qcc74x_sf_ctrl_get_flash_image_offset
	.type	qcc74x_sf_ctrl_get_flash_image_offset, @function
qcc74x_sf_ctrl_get_flash_image_offset:
.LFB494:
	.loc 1 1810 76 is_stmt 1
	.cfi_startproc
.LVL438:
	.loc 1 1811 5
	.loc 1 1811 81 is_stmt 0
	li	a5,-1878958080
	.loc 1 1811 13
	lw	a5,-732(a5)
	jr	a5
.LVL439:
	.cfi_endproc
.LFE494:
	.size	qcc74x_sf_ctrl_get_flash_image_offset, .-qcc74x_sf_ctrl_get_flash_image_offset
	.section	.tcm_code../drivers/soc/qcc743/std/src/qcc743_romapi_e907.c1814,"ax",@progbits
	.align	1
	.globl	qcc74x_sf_ctrl_get_clock_delay
	.type	qcc74x_sf_ctrl_get_clock_delay, @function
qcc74x_sf_ctrl_get_clock_delay:
.LFB495:
	.loc 1 1815 45 is_stmt 1
	.cfi_startproc
	.loc 1 1816 5
	.loc 1 1816 57 is_stmt 0
	li	a5,-1878958080
	.loc 1 1816 13
	lw	a5,-728(a5)
	jr	a5
.LVL440:
	.cfi_endproc
.LFE495:
	.size	qcc74x_sf_ctrl_get_clock_delay, .-qcc74x_sf_ctrl_get_clock_delay
	.section	.tcm_code../drivers/soc/qcc743/std/src/qcc743_romapi_e907.c1819,"ax",@progbits
	.align	1
	.globl	qcc74x_sf_ctrl_get_wrap_queue_value
	.type	qcc74x_sf_ctrl_get_wrap_queue_value, @function
qcc74x_sf_ctrl_get_wrap_queue_value:
.LFB496:
	.loc 1 1820 50 is_stmt 1
	.cfi_startproc
	.loc 1 1821 5
	.loc 1 1821 57 is_stmt 0
	li	a5,-1878958080
	.loc 1 1821 13
	lw	a5,-724(a5)
	jr	a5
.LVL441:
	.cfi_endproc
.LFE496:
	.size	qcc74x_sf_ctrl_get_wrap_queue_value, .-qcc74x_sf_ctrl_get_wrap_queue_value
	.section	.tcm_code../drivers/soc/qcc743/std/src/qcc743_romapi_e907.c1824,"ax",@progbits
	.align	1
	.globl	qcc74x_sf_ctrl_32bits_addr_en
	.type	qcc74x_sf_ctrl_32bits_addr_en, @function
qcc74x_sf_ctrl_32bits_addr_en:
.LFB497:
	.loc 1 1825 59 is_stmt 1
	.cfi_startproc
.LVL442:
	.loc 1 1826 5
	.loc 1 1826 78 is_stmt 0
	li	a5,-1878958080
	.loc 1 1826 13
	lw	a5,-720(a5)
	jr	a5
.LVL443:
	.cfi_endproc
.LFE497:
	.size	qcc74x_sf_ctrl_32bits_addr_en, .-qcc74x_sf_ctrl_32bits_addr_en
	.section	.tcm_code../drivers/soc/qcc743/std/src/qcc743_romapi_e907.c1829,"ax",@progbits
	.align	1
	.globl	qcc74x_sf_ctrl_aes_disable
	.type	qcc74x_sf_ctrl_aes_disable, @function
qcc74x_sf_ctrl_aes_disable:
.LFB498:
	.loc 1 1830 38 is_stmt 1
	.cfi_startproc
	.loc 1 1831 5
	.loc 1 1831 54 is_stmt 0
	li	a5,-1878958080
	.loc 1 1831 13
	lw	a5,-716(a5)
	jr	a5
.LVL444:
	.cfi_endproc
.LFE498:
	.size	qcc74x_sf_ctrl_aes_disable, .-qcc74x_sf_ctrl_aes_disable
	.section	.tcm_code../drivers/soc/qcc743/std/src/qcc743_romapi_e907.c1834,"ax",@progbits
	.align	1
	.globl	qcc74x_sf_ctrl_aes_enable
	.type	qcc74x_sf_ctrl_aes_enable, @function
qcc74x_sf_ctrl_aes_enable:
.LFB499:
	.loc 1 1835 37 is_stmt 1
	.cfi_startproc
	.loc 1 1836 5
	.loc 1 1836 54 is_stmt 0
	li	a5,-1878958080
	.loc 1 1836 13
	lw	a5,-712(a5)
	jr	a5
.LVL445:
	.cfi_endproc
.LFE499:
	.size	qcc74x_sf_ctrl_aes_enable, .-qcc74x_sf_ctrl_aes_enable
	.section	.tcm_code../drivers/soc/qcc743/std/src/qcc743_romapi_e907.c1839,"ax",@progbits
	.align	1
	.globl	qcc74x_sf_ctrl_aes_enable_be
	.type	qcc74x_sf_ctrl_aes_enable_be, @function
qcc74x_sf_ctrl_aes_enable_be:
.LFB500:
	.loc 1 1840 40 is_stmt 1
	.cfi_startproc
	.loc 1 1841 5
	.loc 1 1841 54 is_stmt 0
	li	a5,-1878958080
	.loc 1 1841 13
	lw	a5,-708(a5)
	jr	a5
.LVL446:
	.cfi_endproc
.LFE500:
	.size	qcc74x_sf_ctrl_aes_enable_be, .-qcc74x_sf_ctrl_aes_enable_be
	.section	.tcm_code../drivers/soc/qcc743/std/src/qcc743_romapi_e907.c1844,"ax",@progbits
	.align	1
	.globl	qcc74x_sf_ctrl_aes_enable_le
	.type	qcc74x_sf_ctrl_aes_enable_le, @function
qcc74x_sf_ctrl_aes_enable_le:
.LFB501:
	.loc 1 1845 40 is_stmt 1
	.cfi_startproc
	.loc 1 1846 5
	.loc 1 1846 54 is_stmt 0
	li	a5,-1878958080
	.loc 1 1846 13
	lw	a5,-704(a5)
	jr	a5
.LVL447:
	.cfi_endproc
.LFE501:
	.size	qcc74x_sf_ctrl_aes_enable_le, .-qcc74x_sf_ctrl_aes_enable_le
	.section	.tcm_code../drivers/soc/qcc743/std/src/qcc743_romapi_e907.c1849,"ax",@progbits
	.align	1
	.globl	qcc74x_sf_ctrl_aes_set_iv
	.type	qcc74x_sf_ctrl_aes_set_iv, @function
qcc74x_sf_ctrl_aes_set_iv:
.LFB502:
	.loc 1 1850 82 is_stmt 1
	.cfi_startproc
.LVL448:
	.loc 1 1851 5
	.loc 1 1851 98 is_stmt 0
	li	a5,-1878958080
	.loc 1 1851 13
	lw	a5,-700(a5)
	jr	a5
.LVL449:
	.cfi_endproc
.LFE502:
	.size	qcc74x_sf_ctrl_aes_set_iv, .-qcc74x_sf_ctrl_aes_set_iv
	.section	.tcm_code../drivers/soc/qcc743/std/src/qcc743_romapi_e907.c1854,"ax",@progbits
	.align	1
	.globl	qcc74x_sf_ctrl_aes_set_iv_be
	.type	qcc74x_sf_ctrl_aes_set_iv_be, @function
qcc74x_sf_ctrl_aes_set_iv_be:
.LFB503:
	.loc 1 1855 85 is_stmt 1
	.cfi_startproc
.LVL450:
	.loc 1 1856 5
	.loc 1 1856 98 is_stmt 0
	li	a5,-1878958080
	.loc 1 1856 13
	lw	a5,-696(a5)
	jr	a5
.LVL451:
	.cfi_endproc
.LFE503:
	.size	qcc74x_sf_ctrl_aes_set_iv_be, .-qcc74x_sf_ctrl_aes_set_iv_be
	.section	.tcm_code../drivers/soc/qcc743/std/src/qcc743_romapi_e907.c1859,"ax",@progbits
	.align	1
	.globl	qcc74x_sf_ctrl_aes_set_key
	.type	qcc74x_sf_ctrl_aes_set_key, @function
qcc74x_sf_ctrl_aes_set_key:
.LFB504:
	.loc 1 1860 80 is_stmt 1
	.cfi_startproc
.LVL452:
	.loc 1 1861 5
	.loc 1 1861 95 is_stmt 0
	li	a5,-1878958080
	.loc 1 1861 13
	lw	a5,-692(a5)
	jr	a5
.LVL453:
	.cfi_endproc
.LFE504:
	.size	qcc74x_sf_ctrl_aes_set_key, .-qcc74x_sf_ctrl_aes_set_key
	.section	.tcm_code../drivers/soc/qcc743/std/src/qcc743_romapi_e907.c1864,"ax",@progbits
	.align	1
	.globl	qcc74x_sf_ctrl_aes_set_key_be
	.type	qcc74x_sf_ctrl_aes_set_key_be, @function
qcc74x_sf_ctrl_aes_set_key_be:
.LFB505:
	.loc 1 1865 83 is_stmt 1
	.cfi_startproc
.LVL454:
	.loc 1 1866 5
	.loc 1 1866 95 is_stmt 0
	li	a5,-1878958080
	.loc 1 1866 13
	lw	a5,-688(a5)
	jr	a5
.LVL455:
	.cfi_endproc
.LFE505:
	.size	qcc74x_sf_ctrl_aes_set_key_be, .-qcc74x_sf_ctrl_aes_set_key_be
	.section	.tcm_code../drivers/soc/qcc743/std/src/qcc743_romapi_e907.c1869,"ax",@progbits
	.align	1
	.globl	qcc74x_sf_ctrl_aes_set_mode
	.type	qcc74x_sf_ctrl_aes_set_mode, @function
qcc74x_sf_ctrl_aes_set_mode:
.LFB506:
	.loc 1 1870 47 is_stmt 1
	.cfi_startproc
.LVL456:
	.loc 1 1871 5
	.loc 1 1871 62 is_stmt 0
	li	a5,-1878958080
	.loc 1 1871 13
	lw	a5,-684(a5)
	jr	a5
.LVL457:
	.cfi_endproc
.LFE506:
	.size	qcc74x_sf_ctrl_aes_set_mode, .-qcc74x_sf_ctrl_aes_set_mode
	.section	.tcm_code../drivers/soc/qcc743/std/src/qcc743_romapi_e907.c1874,"ax",@progbits
	.align	1
	.globl	qcc74x_sf_ctrl_aes_set_region
	.type	qcc74x_sf_ctrl_aes_set_region, @function
qcc74x_sf_ctrl_aes_set_region:
.LFB507:
	.loc 1 1875 138 is_stmt 1
	.cfi_startproc
.LVL458:
	.loc 1 1876 5
	.loc 1 1876 149 is_stmt 0
	li	a6,-1878958080
	.loc 1 1876 13
	lw	a6,-680(a6)
	jr	a6
.LVL459:
	.cfi_endproc
.LFE507:
	.size	qcc74x_sf_ctrl_aes_set_region, .-qcc74x_sf_ctrl_aes_set_region
	.section	.tcm_code../drivers/soc/qcc743/std/src/qcc743_romapi_e907.c1879,"ax",@progbits
	.align	1
	.globl	qcc74x_sf_ctrl_aes_xts_set_iv
	.type	qcc74x_sf_ctrl_aes_xts_set_iv, @function
qcc74x_sf_ctrl_aes_xts_set_iv:
.LFB508:
	.loc 1 1880 86 is_stmt 1
	.cfi_startproc
.LVL460:
	.loc 1 1881 5
	.loc 1 1881 98 is_stmt 0
	li	a5,-1878958080
	.loc 1 1881 13
	lw	a5,-676(a5)
	jr	a5
.LVL461:
	.cfi_endproc
.LFE508:
	.size	qcc74x_sf_ctrl_aes_xts_set_iv, .-qcc74x_sf_ctrl_aes_xts_set_iv
	.section	.tcm_code../drivers/soc/qcc743/std/src/qcc743_romapi_e907.c1884,"ax",@progbits
	.align	1
	.globl	qcc74x_sf_ctrl_aes_xts_set_iv_be
	.type	qcc74x_sf_ctrl_aes_xts_set_iv_be, @function
qcc74x_sf_ctrl_aes_xts_set_iv_be:
.LFB509:
	.loc 1 1885 89 is_stmt 1
	.cfi_startproc
.LVL462:
	.loc 1 1886 5
	.loc 1 1886 98 is_stmt 0
	li	a5,-1878958080
	.loc 1 1886 13
	lw	a5,-672(a5)
	jr	a5
.LVL463:
	.cfi_endproc
.LFE509:
	.size	qcc74x_sf_ctrl_aes_xts_set_iv_be, .-qcc74x_sf_ctrl_aes_xts_set_iv_be
	.section	.tcm_code../drivers/soc/qcc743/std/src/qcc743_romapi_e907.c1889,"ax",@progbits
	.align	1
	.globl	qcc74x_sf_ctrl_aes_xts_set_key
	.type	qcc74x_sf_ctrl_aes_xts_set_key, @function
qcc74x_sf_ctrl_aes_xts_set_key:
.LFB510:
	.loc 1 1890 84 is_stmt 1
	.cfi_startproc
.LVL464:
	.loc 1 1891 5
	.loc 1 1891 95 is_stmt 0
	li	a5,-1878958080
	.loc 1 1891 13
	lw	a5,-668(a5)
	jr	a5
.LVL465:
	.cfi_endproc
.LFE510:
	.size	qcc74x_sf_ctrl_aes_xts_set_key, .-qcc74x_sf_ctrl_aes_xts_set_key
	.section	.tcm_code../drivers/soc/qcc743/std/src/qcc743_romapi_e907.c1894,"ax",@progbits
	.align	1
	.globl	qcc74x_sf_ctrl_aes_xts_set_key_be
	.type	qcc74x_sf_ctrl_aes_xts_set_key_be, @function
qcc74x_sf_ctrl_aes_xts_set_key_be:
.LFB511:
	.loc 1 1895 87 is_stmt 1
	.cfi_startproc
.LVL466:
	.loc 1 1896 5
	.loc 1 1896 95 is_stmt 0
	li	a5,-1878958080
	.loc 1 1896 13
	lw	a5,-664(a5)
	jr	a5
.LVL467:
	.cfi_endproc
.LFE511:
	.size	qcc74x_sf_ctrl_aes_xts_set_key_be, .-qcc74x_sf_ctrl_aes_xts_set_key_be
	.section	.tcm_code../drivers/soc/qcc743/std/src/qcc743_romapi_e907.c1900,"ax",@progbits
	.align	1
	.globl	qcc74x_sf_ctrl_bank2_enable
	.type	qcc74x_sf_ctrl_bank2_enable, @function
qcc74x_sf_ctrl_bank2_enable:
.LFB512:
	.loc 1 1901 76 is_stmt 1
	.cfi_startproc
.LVL468:
	.loc 1 1902 5
	.loc 1 1902 90 is_stmt 0
	li	a5,-1878958080
	.loc 1 1902 13
	lw	a5,-660(a5)
	jr	a5
.LVL469:
	.cfi_endproc
.LFE512:
	.size	qcc74x_sf_ctrl_bank2_enable, .-qcc74x_sf_ctrl_bank2_enable
	.section	.tcm_code../drivers/soc/qcc743/std/src/qcc743_romapi_e907.c1906,"ax",@progbits
	.align	1
	.globl	qcc74x_sf_ctrl_cmds_set
	.type	qcc74x_sf_ctrl_cmds_set, @function
qcc74x_sf_ctrl_cmds_set:
.LFB513:
	.loc 1 1907 78 is_stmt 1
	.cfi_startproc
.LVL470:
	.loc 1 1908 5
	.loc 1 1908 96 is_stmt 0
	li	a5,-1878958080
	.loc 1 1908 13
	lw	a5,-656(a5)
	jr	a5
.LVL471:
	.cfi_endproc
.LFE513:
	.size	qcc74x_sf_ctrl_cmds_set, .-qcc74x_sf_ctrl_cmds_set
	.section	.tcm_code../drivers/soc/qcc743/std/src/qcc743_romapi_e907.c1911,"ax",@progbits
	.align	1
	.globl	qcc74x_sf_ctrl_disable
	.type	qcc74x_sf_ctrl_disable, @function
qcc74x_sf_ctrl_disable:
.LFB514:
	.loc 1 1912 34 is_stmt 1
	.cfi_startproc
	.loc 1 1913 5
	.loc 1 1913 54 is_stmt 0
	li	a5,-1878958080
	.loc 1 1913 13
	lw	a5,-652(a5)
	jr	a5
.LVL472:
	.cfi_endproc
.LFE514:
	.size	qcc74x_sf_ctrl_disable, .-qcc74x_sf_ctrl_disable
	.section	.tcm_code../drivers/soc/qcc743/std/src/qcc743_romapi_e907.c1916,"ax",@progbits
	.align	1
	.globl	qcc74x_sf_ctrl_disable_wrap_access
	.type	qcc74x_sf_ctrl_disable_wrap_access, @function
qcc74x_sf_ctrl_disable_wrap_access:
.LFB515:
	.loc 1 1917 57 is_stmt 1
	.cfi_startproc
.LVL473:
	.loc 1 1918 5
	.loc 1 1918 65 is_stmt 0
	li	a5,-1878958080
	.loc 1 1918 13
	lw	a5,-648(a5)
	jr	a5
.LVL474:
	.cfi_endproc
.LFE515:
	.size	qcc74x_sf_ctrl_disable_wrap_access, .-qcc74x_sf_ctrl_disable_wrap_access
	.section	.tcm_code../drivers/soc/qcc743/std/src/qcc743_romapi_e907.c1922,"ax",@progbits
	.align	1
	.globl	qcc74x_sf_ctrl_enable
	.type	qcc74x_sf_ctrl_enable, @function
qcc74x_sf_ctrl_enable:
.LFB516:
	.loc 1 1923 63 is_stmt 1
	.cfi_startproc
.LVL475:
	.loc 1 1924 5
	.loc 1 1924 84 is_stmt 0
	li	a5,-1878958080
	.loc 1 1924 13
	lw	a5,-644(a5)
	jr	a5
.LVL476:
	.cfi_endproc
.LFE516:
	.size	qcc74x_sf_ctrl_enable, .-qcc74x_sf_ctrl_enable
	.section	.tcm_code../drivers/soc/qcc743/std/src/qcc743_romapi_e907.c1928,"ax",@progbits
	.align	1
	.globl	qcc74x_sf_ctrl_xip2_set
	.type	qcc74x_sf_ctrl_xip2_set, @function
qcc74x_sf_ctrl_xip2_set:
.LFB517:
	.loc 1 1929 82 is_stmt 1
	.cfi_startproc
.LVL477:
	.loc 1 1930 5
	.loc 1 1930 100 is_stmt 0
	li	a5,-1878958080
	.loc 1 1930 13
	lw	a5,-640(a5)
	jr	a5
.LVL478:
	.cfi_endproc
.LFE517:
	.size	qcc74x_sf_ctrl_xip2_set, .-qcc74x_sf_ctrl_xip2_set
	.section	.tcm_code../drivers/soc/qcc743/std/src/qcc743_romapi_e907.c1934,"ax",@progbits
	.align	1
	.globl	qcc74x_sf_ctrl_xip_set
	.type	qcc74x_sf_ctrl_xip_set, @function
qcc74x_sf_ctrl_xip_set:
.LFB518:
	.loc 1 1935 81 is_stmt 1
	.cfi_startproc
.LVL479:
	.loc 1 1936 5
	.loc 1 1936 100 is_stmt 0
	li	a5,-1878958080
	.loc 1 1936 13
	lw	a5,-636(a5)
	jr	a5
.LVL480:
	.cfi_endproc
.LFE518:
	.size	qcc74x_sf_ctrl_xip_set, .-qcc74x_sf_ctrl_xip_set
	.section	.tcm_code../drivers/soc/qcc743/std/src/qcc743_romapi_e907.c1939,"ax",@progbits
	.align	1
	.globl	qcc74x_sf_ctrl_lock_flash_image_offset
	.type	qcc74x_sf_ctrl_lock_flash_image_offset, @function
qcc74x_sf_ctrl_lock_flash_image_offset:
.LFB519:
	.loc 1 1940 58 is_stmt 1
	.cfi_startproc
.LVL481:
	.loc 1 1941 5
	.loc 1 1941 62 is_stmt 0
	li	a5,-1878958080
	.loc 1 1941 13
	lw	a5,-632(a5)
	jr	a5
.LVL482:
	.cfi_endproc
.LFE519:
	.size	qcc74x_sf_ctrl_lock_flash_image_offset, .-qcc74x_sf_ctrl_lock_flash_image_offset
	.section	.tcm_code../drivers/soc/qcc743/std/src/qcc743_romapi_e907.c1944,"ax",@progbits
	.align	1
	.globl	qcc74x_sf_ctrl_remap_set
	.type	qcc74x_sf_ctrl_remap_set, @function
qcc74x_sf_ctrl_remap_set:
.LFB520:
	.loc 1 1945 59 is_stmt 1
	.cfi_startproc
.LVL483:
	.loc 1 1946 5
	.loc 1 1946 77 is_stmt 0
	li	a5,-1878958080
	.loc 1 1946 13
	lw	a5,-628(a5)
	jr	a5
.LVL484:
	.cfi_endproc
.LFE520:
	.size	qcc74x_sf_ctrl_remap_set, .-qcc74x_sf_ctrl_remap_set
	.section	.tcm_code../drivers/soc/qcc743/std/src/qcc743_romapi_e907.c1949,"ax",@progbits
	.align	1
	.globl	qcc74x_sf_ctrl_sbus2_hold_sram
	.type	qcc74x_sf_ctrl_sbus2_hold_sram, @function
qcc74x_sf_ctrl_sbus2_hold_sram:
.LFB521:
	.loc 1 1950 42 is_stmt 1
	.cfi_startproc
	.loc 1 1951 5
	.loc 1 1951 54 is_stmt 0
	li	a5,-1878958080
	.loc 1 1951 13
	lw	a5,-624(a5)
	jr	a5
.LVL485:
	.cfi_endproc
.LFE521:
	.size	qcc74x_sf_ctrl_sbus2_hold_sram, .-qcc74x_sf_ctrl_sbus2_hold_sram
	.section	.tcm_code../drivers/soc/qcc743/std/src/qcc743_romapi_e907.c1954,"ax",@progbits
	.align	1
	.globl	qcc74x_sf_ctrl_sbus2_release_sram
	.type	qcc74x_sf_ctrl_sbus2_release_sram, @function
qcc74x_sf_ctrl_sbus2_release_sram:
.LFB522:
	.loc 1 1955 45 is_stmt 1
	.cfi_startproc
	.loc 1 1956 5
	.loc 1 1956 54 is_stmt 0
	li	a5,-1878958080
	.loc 1 1956 13
	lw	a5,-620(a5)
	jr	a5
.LVL486:
	.cfi_endproc
.LFE522:
	.size	qcc74x_sf_ctrl_sbus2_release_sram, .-qcc74x_sf_ctrl_sbus2_release_sram
	.section	.tcm_code../drivers/soc/qcc743/std/src/qcc743_romapi_e907.c1959,"ax",@progbits
	.align	1
	.globl	qcc74x_sf_ctrl_sbus2_replace
	.type	qcc74x_sf_ctrl_sbus2_replace, @function
qcc74x_sf_ctrl_sbus2_replace:
.LFB523:
	.loc 1 1960 47 is_stmt 1
	.cfi_startproc
.LVL487:
	.loc 1 1961 5
	.loc 1 1961 61 is_stmt 0
	li	a5,-1878958080
	.loc 1 1961 13
	lw	a5,-616(a5)
	jr	a5
.LVL488:
	.cfi_endproc
.LFE523:
	.size	qcc74x_sf_ctrl_sbus2_replace, .-qcc74x_sf_ctrl_sbus2_replace
	.section	.tcm_code../drivers/soc/qcc743/std/src/qcc743_romapi_e907.c1964,"ax",@progbits
	.align	1
	.globl	qcc74x_sf_ctrl_sbus2_revoke_replace
	.type	qcc74x_sf_ctrl_sbus2_revoke_replace, @function
qcc74x_sf_ctrl_sbus2_revoke_replace:
.LFB524:
	.loc 1 1965 47 is_stmt 1
	.cfi_startproc
	.loc 1 1966 5
	.loc 1 1966 54 is_stmt 0
	li	a5,-1878958080
	.loc 1 1966 13
	lw	a5,-612(a5)
	jr	a5
.LVL489:
	.cfi_endproc
.LFE524:
	.size	qcc74x_sf_ctrl_sbus2_revoke_replace, .-qcc74x_sf_ctrl_sbus2_revoke_replace
	.section	.tcm_code../drivers/soc/qcc743/std/src/qcc743_romapi_e907.c1969,"ax",@progbits
	.align	1
	.globl	qcc74x_sf_ctrl_sbus2_set_delay
	.type	qcc74x_sf_ctrl_sbus2_set_delay, @function
qcc74x_sf_ctrl_sbus2_set_delay:
.LFB525:
	.loc 1 1970 78 is_stmt 1
	.cfi_startproc
.LVL490:
	.loc 1 1971 5
	.loc 1 1971 87 is_stmt 0
	li	a5,-1878958080
	.loc 1 1971 13
	lw	a5,-608(a5)
	jr	a5
.LVL491:
	.cfi_endproc
.LFE525:
	.size	qcc74x_sf_ctrl_sbus2_set_delay, .-qcc74x_sf_ctrl_sbus2_set_delay
	.section	.tcm_code../drivers/soc/qcc743/std/src/qcc743_romapi_e907.c1974,"ax",@progbits
	.align	1
	.globl	qcc74x_sf_ctrl_sbus_select_bank
	.type	qcc74x_sf_ctrl_sbus_select_bank, @function
qcc74x_sf_ctrl_sbus_select_bank:
.LFB526:
	.loc 1 1975 51 is_stmt 1
	.cfi_startproc
.LVL492:
	.loc 1 1976 5
	.loc 1 1976 62 is_stmt 0
	li	a5,-1878958080
	.loc 1 1976 13
	lw	a5,-604(a5)
	jr	a5
.LVL493:
	.cfi_endproc
.LFE526:
	.size	qcc74x_sf_ctrl_sbus_select_bank, .-qcc74x_sf_ctrl_sbus_select_bank
	.section	.tcm_code../drivers/soc/qcc743/std/src/qcc743_romapi_e907.c1979,"ax",@progbits
	.align	1
	.globl	qcc74x_sf_ctrl_select_pad
	.type	qcc74x_sf_ctrl_select_pad, @function
qcc74x_sf_ctrl_select_pad:
.LFB527:
	.loc 1 1980 44 is_stmt 1
	.cfi_startproc
.LVL494:
	.loc 1 1981 5
	.loc 1 1981 61 is_stmt 0
	li	a5,-1878958080
	.loc 1 1981 13
	lw	a5,-600(a5)
	jr	a5
.LVL495:
	.cfi_endproc
.LFE527:
	.size	qcc74x_sf_ctrl_select_pad, .-qcc74x_sf_ctrl_select_pad
	.section	.tcm_code../drivers/soc/qcc743/std/src/qcc743_romapi_e907.c1985,"ax",@progbits
	.align	1
	.globl	qcc74x_sf_ctrl_sendcmd
	.type	qcc74x_sf_ctrl_sendcmd, @function
qcc74x_sf_ctrl_sendcmd:
.LFB528:
	.loc 1 1986 62 is_stmt 1
	.cfi_startproc
.LVL496:
	.loc 1 1987 5
	.loc 1 1987 82 is_stmt 0
	li	a5,-1878958080
	.loc 1 1987 13
	lw	a5,-596(a5)
	jr	a5
.LVL497:
	.cfi_endproc
.LFE528:
	.size	qcc74x_sf_ctrl_sendcmd, .-qcc74x_sf_ctrl_sendcmd
	.section	.tcm_code../drivers/soc/qcc743/std/src/qcc743_romapi_e907.c1990,"ax",@progbits
	.align	1
	.globl	qcc74x_sf_ctrl_set_clock_delay
	.type	qcc74x_sf_ctrl_set_clock_delay, @function
qcc74x_sf_ctrl_set_clock_delay:
.LFB529:
	.loc 1 1991 51 is_stmt 1
	.cfi_startproc
.LVL498:
	.loc 1 1992 5
	.loc 1 1992 63 is_stmt 0
	li	a5,-1878958080
	.loc 1 1992 13
	lw	a5,-592(a5)
	jr	a5
.LVL499:
	.cfi_endproc
.LFE529:
	.size	qcc74x_sf_ctrl_set_clock_delay, .-qcc74x_sf_ctrl_set_clock_delay
	.section	.tcm_code../drivers/soc/qcc743/std/src/qcc743_romapi_e907.c1995,"ax",@progbits
	.align	1
	.globl	qcc74x_sf_ctrl_set_flash_image_offset
	.type	qcc74x_sf_ctrl_set_flash_image_offset, @function
qcc74x_sf_ctrl_set_flash_image_offset:
.LFB530:
	.loc 1 1996 94 is_stmt 1
	.cfi_startproc
.LVL500:
	.loc 1 1997 5
	.loc 1 1997 98 is_stmt 0
	li	a5,-1878958080
	.loc 1 1997 13
	lw	a5,-588(a5)
	jr	a5
.LVL501:
	.cfi_endproc
.LFE530:
	.size	qcc74x_sf_ctrl_set_flash_image_offset, .-qcc74x_sf_ctrl_set_flash_image_offset
	.section	.tcm_code../drivers/soc/qcc743/std/src/qcc743_romapi_e907.c2000,"ax",@progbits
	.align	1
	.globl	qcc74x_sf_ctrl_set_io_delay
	.type	qcc74x_sf_ctrl_set_io_delay, @function
qcc74x_sf_ctrl_set_io_delay:
.LFB531:
	.loc 1 2001 100 is_stmt 1
	.cfi_startproc
.LVL502:
	.loc 1 2002 5
	.loc 1 2002 112 is_stmt 0
	li	a5,-1878958080
	.loc 1 2002 13
	lw	a5,-584(a5)
	jr	a5
.LVL503:
	.cfi_endproc
.LFE531:
	.size	qcc74x_sf_ctrl_set_io_delay, .-qcc74x_sf_ctrl_set_io_delay
	.section	.tcm_code../drivers/soc/qcc743/std/src/qcc743_romapi_e907.c2005,"ax",@progbits
	.align	1
	.globl	qcc74x_sf_ctrl_set_owner
	.type	qcc74x_sf_ctrl_set_owner, @function
qcc74x_sf_ctrl_set_owner:
.LFB532:
	.loc 1 2006 45 is_stmt 1
	.cfi_startproc
.LVL504:
	.loc 1 2007 5
	.loc 1 2007 63 is_stmt 0
	li	a5,-1878958080
	.loc 1 2007 13
	lw	a5,-580(a5)
	jr	a5
.LVL505:
	.cfi_endproc
.LFE532:
	.size	qcc74x_sf_ctrl_set_owner, .-qcc74x_sf_ctrl_set_owner
	.section	.tcm_code../drivers/soc/qcc743/std/src/qcc743_romapi_e907.c2018,"ax",@progbits
	.align	1
	.globl	qcc74x_sflash_blk64_erase
	.type	qcc74x_sflash_blk64_erase, @function
qcc74x_sflash_blk64_erase:
.LFB533:
	.loc 1 2019 79 is_stmt 1
	.cfi_startproc
.LVL506:
	.loc 1 2020 5
	.loc 1 2020 94 is_stmt 0
	li	a5,-1878958080
	.loc 1 2020 13
	lw	a5,-572(a5)
	jr	a5
.LVL507:
	.cfi_endproc
.LFE533:
	.size	qcc74x_sflash_blk64_erase, .-qcc74x_sflash_blk64_erase
	.section	.tcm_code../drivers/soc/qcc743/std/src/qcc743_romapi_e907.c2024,"ax",@progbits
	.align	1
	.globl	qcc74x_sflash_chip_erase
	.type	qcc74x_sflash_chip_erase, @function
qcc74x_sflash_chip_erase:
.LFB534:
	.loc 1 2025 60 is_stmt 1
	.cfi_startproc
.LVL508:
	.loc 1 2026 5
	.loc 1 2026 77 is_stmt 0
	li	a5,-1878958080
	.loc 1 2026 13
	lw	a5,-568(a5)
	jr	a5
.LVL509:
	.cfi_endproc
.LFE534:
	.size	qcc74x_sflash_chip_erase, .-qcc74x_sflash_chip_erase
	.section	.tcm_code../drivers/soc/qcc743/std/src/qcc743_romapi_e907.c2037,"ax",@progbits
	.align	1
	.globl	qcc74x_sflash_erase_security_register
	.type	qcc74x_sflash_erase_security_register, @function
qcc74x_sflash_erase_security_register:
.LFB535:
	.loc 1 2038 115 is_stmt 1
	.cfi_startproc
.LVL510:
	.loc 1 2039 5
	.loc 1 2039 117 is_stmt 0
	li	a5,-1878958080
	.loc 1 2039 13
	lw	a5,-560(a5)
	jr	a5
.LVL511:
	.cfi_endproc
.LFE535:
	.size	qcc74x_sflash_erase_security_register, .-qcc74x_sflash_erase_security_register
	.section	.tcm_code../drivers/soc/qcc743/std/src/qcc743_romapi_e907.c2049,"ax",@progbits
	.align	1
	.globl	qcc74x_sflash_program
	.type	qcc74x_sflash_program, @function
qcc74x_sflash_program:
.LFB537:
	.loc 1 2050 118 is_stmt 1
	.cfi_startproc
.LVL512:
	.loc 1 2051 5
	.loc 1 2051 137 is_stmt 0
	li	a5,-1878958080
	.loc 1 2051 13
	lw	a5,-552(a5)
	jr	a5
.LVL513:
	.cfi_endproc
.LFE537:
	.size	qcc74x_sflash_program, .-qcc74x_sflash_program
	.section	.tcm_code../drivers/soc/qcc743/std/src/qcc743_romapi_e907.c2055,"ax",@progbits
	.align	1
	.globl	qcc74x_sflash_program_security_register
	.type	qcc74x_sflash_program_security_register, @function
qcc74x_sflash_program_security_register:
.LFB538:
	.loc 1 2056 117 is_stmt 1
	.cfi_startproc
.LVL514:
	.loc 1 2057 5
	.loc 1 2057 117 is_stmt 0
	li	a5,-1878958080
	.loc 1 2057 13
	lw	a5,-548(a5)
	jr	a5
.LVL515:
	.cfi_endproc
.LFE538:
	.size	qcc74x_sflash_program_security_register, .-qcc74x_sflash_program_security_register
	.section	.tcm_code../drivers/soc/qcc743/std/src/qcc743_romapi_e907.c2061,"ax",@progbits
	.align	1
	.globl	qcc74x_sflash_qspi_disable
	.type	qcc74x_sflash_qspi_disable, @function
qcc74x_sflash_qspi_disable:
.LFB539:
	.loc 1 2062 62 is_stmt 1
	.cfi_startproc
.LVL516:
	.loc 1 2063 5
	.loc 1 2063 77 is_stmt 0
	li	a5,-1878958080
	.loc 1 2063 13
	lw	a5,-544(a5)
	jr	a5
.LVL517:
	.cfi_endproc
.LFE539:
	.size	qcc74x_sflash_qspi_disable, .-qcc74x_sflash_qspi_disable
	.section	.tcm_code../drivers/soc/qcc743/std/src/qcc743_romapi_e907.c2067,"ax",@progbits
	.align	1
	.globl	qcc74x_sflash_qspi_enable
	.type	qcc74x_sflash_qspi_enable, @function
qcc74x_sflash_qspi_enable:
.LFB540:
	.loc 1 2068 61 is_stmt 1
	.cfi_startproc
.LVL518:
	.loc 1 2069 5
	.loc 1 2069 77 is_stmt 0
	li	a5,-1878958080
	.loc 1 2069 13
	lw	a5,-540(a5)
	jr	a5
.LVL519:
	.cfi_endproc
.LFE540:
	.size	qcc74x_sflash_qspi_enable, .-qcc74x_sflash_qspi_enable
	.section	.tcm_code../drivers/soc/qcc743/std/src/qcc743_romapi_e907.c2073,"ax",@progbits
	.align	1
	.globl	qcc74x_sflash_rcv_enable
	.type	qcc74x_sflash_rcv_enable, @function
qcc74x_sflash_rcv_enable:
.LFB541:
	.loc 1 2074 107 is_stmt 1
	.cfi_startproc
.LVL520:
	.loc 1 2075 5
	.loc 1 2075 122 is_stmt 0
	li	a5,-1878958080
	.loc 1 2075 13
	lw	a5,-536(a5)
	jr	a5
.LVL521:
	.cfi_endproc
.LFE541:
	.size	qcc74x_sflash_rcv_enable, .-qcc74x_sflash_rcv_enable
	.section	.tcm_code../drivers/soc/qcc743/std/src/qcc743_romapi_e907.c2079,"ax",@progbits
	.align	1
	.globl	qcc74x_sflash_read
	.type	qcc74x_sflash_read, @function
qcc74x_sflash_read:
.LFB542:
	.loc 1 2080 134 is_stmt 1
	.cfi_startproc
.LVL522:
	.loc 1 2081 5
	.loc 1 2081 155 is_stmt 0
	li	a6,-1878958080
	.loc 1 2081 13
	lw	a6,-532(a6)
	jr	a6
.LVL523:
	.cfi_endproc
.LFE542:
	.size	qcc74x_sflash_read, .-qcc74x_sflash_read
	.section	.tcm_code../drivers/soc/qcc743/std/src/qcc743_romapi_e907.c2085,"ax",@progbits
	.align	1
	.globl	qcc74x_sflash_read_reg
	.type	qcc74x_sflash_read_reg, @function
qcc74x_sflash_read_reg:
.LFB543:
	.loc 1 2086 114 is_stmt 1
	.cfi_startproc
.LVL524:
	.loc 1 2087 5
	.loc 1 2087 130 is_stmt 0
	li	a5,-1878958080
	.loc 1 2087 13
	lw	a5,-528(a5)
	jr	a5
.LVL525:
	.cfi_endproc
.LFE543:
	.size	qcc74x_sflash_read_reg, .-qcc74x_sflash_read_reg
	.section	.tcm_code../drivers/soc/qcc743/std/src/qcc743_romapi_e907.c2091,"ax",@progbits
	.align	1
	.globl	qcc74x_sflash_read_reg_with_cmd
	.type	qcc74x_sflash_read_reg_with_cmd, @function
qcc74x_sflash_read_reg_with_cmd:
.LFB544:
	.loc 1 2092 126 is_stmt 1
	.cfi_startproc
.LVL526:
	.loc 1 2093 5
	.loc 1 2093 132 is_stmt 0
	li	a5,-1878958080
	.loc 1 2093 13
	lw	a5,-524(a5)
	jr	a5
.LVL527:
	.cfi_endproc
.LFE544:
	.size	qcc74x_sflash_read_reg_with_cmd, .-qcc74x_sflash_read_reg_with_cmd
	.section	.tcm_code../drivers/soc/qcc743/std/src/qcc743_romapi_e907.c2097,"ax",@progbits
	.align	1
	.globl	qcc74x_sflash_read_security_register
	.type	qcc74x_sflash_read_security_register, @function
qcc74x_sflash_read_security_register:
.LFB545:
	.loc 1 2098 83 is_stmt 1
	.cfi_startproc
.LVL528:
	.loc 1 2099 5
	.loc 1 2099 86 is_stmt 0
	li	a5,-1878958080
	.loc 1 2099 13
	lw	a5,-520(a5)
	jr	a5
.LVL529:
	.cfi_endproc
.LFE545:
	.size	qcc74x_sflash_read_security_register, .-qcc74x_sflash_read_security_register
	.section	.tcm_code../drivers/soc/qcc743/std/src/qcc743_romapi_e907.c2103,"ax",@progbits
	.align	1
	.globl	qcc74x_sflash_restore_from_powerdown
	.type	qcc74x_sflash_restore_from_powerdown, @function
qcc74x_sflash_restore_from_powerdown:
.LFB546:
	.loc 1 2104 111 is_stmt 1
	.cfi_startproc
.LVL530:
	.loc 1 2105 5
	.loc 1 2105 115 is_stmt 0
	li	a5,-1878958080
	.loc 1 2105 13
	lw	a5,-516(a5)
	jr	a5
.LVL531:
	.cfi_endproc
.LFE546:
	.size	qcc74x_sflash_restore_from_powerdown, .-qcc74x_sflash_restore_from_powerdown
	.section	.tcm_code../drivers/soc/qcc743/std/src/qcc743_romapi_e907.c2109,"ax",@progbits
	.align	1
	.globl	qcc74x_sflash_sector_erase
	.type	qcc74x_sflash_sector_erase, @function
qcc74x_sflash_sector_erase:
.LFB547:
	.loc 1 2110 80 is_stmt 1
	.cfi_startproc
.LVL532:
	.loc 1 2111 5
	.loc 1 2111 94 is_stmt 0
	li	a5,-1878958080
	.loc 1 2111 13
	lw	a5,-512(a5)
	jr	a5
.LVL533:
	.cfi_endproc
.LFE547:
	.size	qcc74x_sflash_sector_erase, .-qcc74x_sflash_sector_erase
	.section	.tcm_code../drivers/soc/qcc743/std/src/qcc743_romapi_e907.c2115,"ax",@progbits
	.align	1
	.globl	qcc74x_sflash_set_32bits_addr_mode
	.type	qcc74x_sflash_set_32bits_addr_mode, @function
qcc74x_sflash_set_32bits_addr_mode:
.LFB548:
	.loc 1 2116 94 is_stmt 1
	.cfi_startproc
.LVL534:
	.loc 1 2117 5
	.loc 1 2117 99 is_stmt 0
	li	a5,-1878958080
	.loc 1 2117 13
	lw	a5,-508(a5)
	jr	a5
.LVL535:
	.cfi_endproc
.LFE548:
	.size	qcc74x_sflash_set_32bits_addr_mode, .-qcc74x_sflash_set_32bits_addr_mode
	.section	.tcm_code../drivers/soc/qcc743/std/src/qcc743_romapi_e907.c2120,"ax",@progbits
	.align	1
	.globl	qcc74x_sflash_set_spi_mode
	.type	qcc74x_sflash_set_spi_mode, @function
qcc74x_sflash_set_spi_mode:
.LFB549:
	.loc 1 2121 45 is_stmt 1
	.cfi_startproc
.LVL536:
	.loc 1 2122 5
	.loc 1 2122 61 is_stmt 0
	li	a5,-1878958080
	.loc 1 2122 13
	lw	a5,-504(a5)
	jr	a5
.LVL537:
	.cfi_endproc
.LFE549:
	.size	qcc74x_sflash_set_spi_mode, .-qcc74x_sflash_set_spi_mode
	.section	.tcm_code../drivers/soc/qcc743/std/src/qcc743_romapi_e907.c2126,"ax",@progbits
	.align	1
	.globl	qcc74x_sflash_set_xip_cfg
	.type	qcc74x_sflash_set_xip_cfg, @function
qcc74x_sflash_set_xip_cfg:
.LFB550:
	.loc 1 2127 140 is_stmt 1
	.cfi_startproc
.LVL538:
	.loc 1 2128 5
	.loc 1 2128 154 is_stmt 0
	li	a6,-1878958080
	.loc 1 2128 13
	lw	a6,-500(a6)
	jr	a6
.LVL539:
	.cfi_endproc
.LFE550:
	.size	qcc74x_sflash_set_xip_cfg, .-qcc74x_sflash_set_xip_cfg
	.section	.tcm_code../drivers/soc/qcc743/std/src/qcc743_romapi_e907.c2132,"ax",@progbits
	.align	1
	.globl	qcc74x_sflash_software_reset
	.type	qcc74x_sflash_software_reset, @function
qcc74x_sflash_software_reset:
.LFB551:
	.loc 1 2133 64 is_stmt 1
	.cfi_startproc
.LVL540:
	.loc 1 2134 5
	.loc 1 2134 77 is_stmt 0
	li	a5,-1878958080
	.loc 1 2134 13
	lw	a5,-496(a5)
	jr	a5
.LVL541:
	.cfi_endproc
.LFE551:
	.size	qcc74x_sflash_software_reset, .-qcc74x_sflash_software_reset
	.section	.tcm_code../drivers/soc/qcc743/std/src/qcc743_romapi_e907.c2138,"ax",@progbits
	.align	1
	.globl	qcc74x_sflash_write_enable
	.type	qcc74x_sflash_write_enable, @function
qcc74x_sflash_write_enable:
.LFB552:
	.loc 1 2139 62 is_stmt 1
	.cfi_startproc
.LVL542:
	.loc 1 2140 5
	.loc 1 2140 77 is_stmt 0
	li	a5,-1878958080
	.loc 1 2140 13
	lw	a5,-492(a5)
	jr	a5
.LVL543:
	.cfi_endproc
.LFE552:
	.size	qcc74x_sflash_write_enable, .-qcc74x_sflash_write_enable
	.section	.tcm_code../drivers/soc/qcc743/std/src/qcc743_romapi_e907.c2144,"ax",@progbits
	.align	1
	.globl	qcc74x_sflash_write_reg
	.type	qcc74x_sflash_write_reg, @function
qcc74x_sflash_write_reg:
.LFB553:
	.loc 1 2145 115 is_stmt 1
	.cfi_startproc
.LVL544:
	.loc 1 2146 5
	.loc 1 2146 130 is_stmt 0
	li	a5,-1878958080
	.loc 1 2146 13
	lw	a5,-488(a5)
	jr	a5
.LVL545:
	.cfi_endproc
.LFE553:
	.size	qcc74x_sflash_write_reg, .-qcc74x_sflash_write_reg
	.section	.tcm_code../drivers/soc/qcc743/std/src/qcc743_romapi_e907.c2150,"ax",@progbits
	.align	1
	.globl	qcc74x_sflash_write_reg_with_cmd
	.type	qcc74x_sflash_write_reg_with_cmd, @function
qcc74x_sflash_write_reg_with_cmd:
.LFB554:
	.loc 1 2151 128 is_stmt 1
	.cfi_startproc
.LVL546:
	.loc 1 2152 5
	.loc 1 2152 133 is_stmt 0
	li	a5,-1878958080
	.loc 1 2152 13
	lw	a5,-484(a5)
	jr	a5
.LVL547:
	.cfi_endproc
.LFE554:
	.size	qcc74x_sflash_write_reg_with_cmd, .-qcc74x_sflash_write_reg_with_cmd
	.section	.tcm_code../drivers/soc/qcc743/std/src/qcc743_romapi_e907.c2156,"ax",@progbits
	.align	1
	.globl	qcc74x_sflash_busy
	.type	qcc74x_sflash_busy, @function
qcc74x_sflash_busy:
.LFB555:
	.loc 1 2157 54 is_stmt 1
	.cfi_startproc
.LVL548:
	.loc 1 2158 5
	.loc 1 2158 77 is_stmt 0
	li	a5,-1878958080
	.loc 1 2158 13
	lw	a5,-480(a5)
	jr	a5
.LVL549:
	.cfi_endproc
.LFE555:
	.size	qcc74x_sflash_busy, .-qcc74x_sflash_busy
	.section	.tcm_code../drivers/soc/qcc743/std/src/qcc743_romapi_e907.c2162,"ax",@progbits
	.align	1
	.globl	qcc74x_sflash_disable_burst_wrap
	.type	qcc74x_sflash_disable_burst_wrap, @function
qcc74x_sflash_disable_burst_wrap:
.LFB556:
	.loc 1 2163 69 is_stmt 1
	.cfi_startproc
.LVL550:
	.loc 1 2164 5
	.loc 1 2164 78 is_stmt 0
	li	a5,-1878958080
	.loc 1 2164 13
	lw	a5,-476(a5)
	jr	a5
.LVL551:
	.cfi_endproc
.LFE556:
	.size	qcc74x_sflash_disable_burst_wrap, .-qcc74x_sflash_disable_burst_wrap
	.section	.tcm_code../drivers/soc/qcc743/std/src/qcc743_romapi_e907.c2167,"ax",@progbits
	.align	1
	.globl	qcc74x_sflash_get_deviceid
	.type	qcc74x_sflash_get_deviceid, @function
qcc74x_sflash_get_deviceid:
.LFB557:
	.loc 1 2168 71 is_stmt 1
	.cfi_startproc
.LVL552:
	.loc 1 2169 5
	.loc 1 2169 85 is_stmt 0
	li	a5,-1878958080
	.loc 1 2169 13
	lw	a5,-472(a5)
	jr	a5
.LVL553:
	.cfi_endproc
.LFE557:
	.size	qcc74x_sflash_get_deviceid, .-qcc74x_sflash_get_deviceid
	.section	.tcm_code../drivers/soc/qcc743/std/src/qcc743_romapi_e907.c2173,"ax",@progbits
	.align	1
	.globl	qcc74x_sflash_get_jedecid
	.type	qcc74x_sflash_get_jedecid, @function
qcc74x_sflash_get_jedecid:
.LFB558:
	.loc 1 2174 77 is_stmt 1
	.cfi_startproc
.LVL554:
	.loc 1 2175 5
	.loc 1 2175 93 is_stmt 0
	li	a5,-1878958080
	.loc 1 2175 13
	lw	a5,-468(a5)
	jr	a5
.LVL555:
	.cfi_endproc
.LFE558:
	.size	qcc74x_sflash_get_jedecid, .-qcc74x_sflash_get_jedecid
	.section	.tcm_code../drivers/soc/qcc743/std/src/qcc743_romapi_e907.c2178,"ax",@progbits
	.align	1
	.globl	qcc74x_sflash_get_uniqueid
	.type	qcc74x_sflash_get_uniqueid, @function
qcc74x_sflash_get_uniqueid:
.LFB559:
	.loc 1 2179 63 is_stmt 1
	.cfi_startproc
.LVL556:
	.loc 1 2180 5
	.loc 1 2180 78 is_stmt 0
	li	a5,-1878958080
	.loc 1 2180 13
	lw	a5,-464(a5)
	jr	a5
.LVL557:
	.cfi_endproc
.LFE559:
	.size	qcc74x_sflash_get_uniqueid, .-qcc74x_sflash_get_uniqueid
	.section	.tcm_code../drivers/soc/qcc743/std/src/qcc743_romapi_e907.c2189,"ax",@progbits
	.align	1
	.globl	qcc74x_sflash_init
	.type	qcc74x_sflash_init, @function
qcc74x_sflash_init:
.LFB561:
	.loc 1 2190 115 is_stmt 1
	.cfi_startproc
.LVL558:
	.loc 1 2191 5
	.loc 1 2191 134 is_stmt 0
	li	a5,-1878958080
	.loc 1 2191 13
	lw	a5,-456(a5)
	jr	a5
.LVL559:
	.cfi_endproc
.LFE561:
	.size	qcc74x_sflash_init, .-qcc74x_sflash_init
	.section	.tcm_code../drivers/soc/qcc743/std/src/qcc743_romapi_e907.c2194,"ax",@progbits
	.align	1
	.globl	qcc74x_sflash_powerdown
	.type	qcc74x_sflash_powerdown, @function
qcc74x_sflash_powerdown:
.LFB562:
	.loc 1 2195 35 is_stmt 1
	.cfi_startproc
	.loc 1 2196 5
	.loc 1 2196 54 is_stmt 0
	li	a5,-1878958080
	.loc 1 2196 13
	lw	a5,-452(a5)
	jr	a5
.LVL560:
	.cfi_endproc
.LFE562:
	.size	qcc74x_sflash_powerdown, .-qcc74x_sflash_powerdown
	.section	.tcm_code../drivers/soc/qcc743/std/src/qcc743_romapi_e907.c2200,"ax",@progbits
	.align	1
	.globl	qcc74x_sflash_release_powerdown
	.type	qcc74x_sflash_release_powerdown, @function
qcc74x_sflash_release_powerdown:
.LFB563:
	.loc 1 2201 68 is_stmt 1
	.cfi_startproc
.LVL561:
	.loc 1 2202 5
	.loc 1 2202 78 is_stmt 0
	li	a5,-1878958080
	.loc 1 2202 13
	lw	a5,-448(a5)
	jr	a5
.LVL562:
	.cfi_endproc
.LFE563:
	.size	qcc74x_sflash_release_powerdown, .-qcc74x_sflash_release_powerdown
	.section	.tcm_code../drivers/soc/qcc743/std/src/qcc743_romapi_e907.c2206,"ax",@progbits
	.align	1
	.globl	qcc74x_sflash_reset_continue_read
	.type	qcc74x_sflash_reset_continue_read, @function
qcc74x_sflash_reset_continue_read:
.LFB564:
	.loc 1 2207 70 is_stmt 1
	.cfi_startproc
.LVL563:
	.loc 1 2208 5
	.loc 1 2208 78 is_stmt 0
	li	a5,-1878958080
	.loc 1 2208 13
	lw	a5,-444(a5)
	jr	a5
.LVL564:
	.cfi_endproc
.LFE564:
	.size	qcc74x_sflash_reset_continue_read, .-qcc74x_sflash_reset_continue_read
	.section	.tcm_code../drivers/soc/qcc743/std/src/qcc743_romapi_e907.c2212,"ax",@progbits
	.align	1
	.globl	qcc74x_sflash_set_burst_wrap
	.type	qcc74x_sflash_set_burst_wrap, @function
qcc74x_sflash_set_burst_wrap:
.LFB565:
	.loc 1 2213 65 is_stmt 1
	.cfi_startproc
.LVL565:
	.loc 1 2214 5
	.loc 1 2214 78 is_stmt 0
	li	a5,-1878958080
	.loc 1 2214 13
	lw	a5,-440(a5)
	jr	a5
.LVL566:
	.cfi_endproc
.LFE565:
	.size	qcc74x_sflash_set_burst_wrap, .-qcc74x_sflash_set_burst_wrap
	.section	.tcm_code../drivers/soc/qcc743/std/src/qcc743_romapi_e907.c2218,"ax",@progbits
	.align	1
	.globl	qcc74x_sflash_volatile_reg_write_enable
	.type	qcc74x_sflash_volatile_reg_write_enable, @function
qcc74x_sflash_volatile_reg_write_enable:
.LFB566:
	.loc 1 2219 76 is_stmt 1
	.cfi_startproc
.LVL567:
	.loc 1 2220 5
	.loc 1 2220 78 is_stmt 0
	li	a5,-1878958080
	.loc 1 2220 13
	lw	a5,-436(a5)
	jr	a5
.LVL568:
	.cfi_endproc
.LFE566:
	.size	qcc74x_sflash_volatile_reg_write_enable, .-qcc74x_sflash_volatile_reg_write_enable
	.section	.tcm_code../drivers/soc/qcc743/std/src/qcc743_romapi_e907.c2266,"ax",@progbits
	.align	1
	.globl	qcc74x_xip_sflash_state_restore
	.type	qcc74x_xip_sflash_state_restore, @function
qcc74x_xip_sflash_state_restore:
.LFB567:
	.loc 1 2267 113 is_stmt 1
	.cfi_startproc
.LVL569:
	.loc 1 2268 5
	.loc 1 2268 136 is_stmt 0
	li	a5,-1878958080
	.loc 1 2268 13
	lw	a5,-264(a5)
	.loc 1 2267 113
	addi	sp,sp,-16
	.cfi_def_cfa_offset 16
	sw	ra,12(sp)
	.cfi_offset 1, -4
	.loc 1 2268 13
	jalr	a5
.LVL570:
	.loc 1 2269 1
	lw	ra,12(sp)
	.cfi_restore 1
	addi	sp,sp,16
	.cfi_def_cfa_offset 0
	jr	ra
	.cfi_endproc
.LFE567:
	.size	qcc74x_xip_sflash_state_restore, .-qcc74x_xip_sflash_state_restore
	.section	.tcm_code../drivers/soc/qcc743/std/src/qcc743_romapi_e907.c2285,"ax",@progbits
	.align	1
	.globl	qcc74x_xip_sflash_opt_enter
	.type	qcc74x_xip_sflash_opt_enter, @function
qcc74x_xip_sflash_opt_enter:
.LFB568:
	.loc 1 2286 54 is_stmt 1
	.cfi_startproc
.LVL571:
	.loc 1 2287 5
	.loc 1 2287 68 is_stmt 0
	li	a5,-1878958080
	.loc 1 2287 13
	lw	a5,-252(a5)
	jr	a5
.LVL572:
	.cfi_endproc
.LFE568:
	.size	qcc74x_xip_sflash_opt_enter, .-qcc74x_xip_sflash_opt_enter
	.section	.tcm_code../drivers/soc/qcc743/std/src/qcc743_romapi_e907.c2290,"ax",@progbits
	.align	1
	.globl	qcc74x_xip_sflash_opt_exit
	.type	qcc74x_xip_sflash_opt_exit, @function
qcc74x_xip_sflash_opt_exit:
.LFB569:
	.loc 1 2291 52 is_stmt 1
	.cfi_startproc
.LVL573:
	.loc 1 2292 5
	.loc 1 2292 67 is_stmt 0
	li	a5,-1878958080
	.loc 1 2292 13
	lw	a5,-248(a5)
	jr	a5
.LVL574:
	.cfi_endproc
.LFE569:
	.size	qcc74x_xip_sflash_opt_exit, .-qcc74x_xip_sflash_opt_exit
	.text
.Letext0:
	.file 2 "./toolchain/linux_x86_64/riscv64-unknown-elf/include/machine/_default_types.h"
	.file 3 "./toolchain/linux_x86_64/riscv64-unknown-elf/include/sys/_stdint.h"
	.file 4 "./drivers/soc/qcc743/std/include/qcc743_gpio.h"
	.file 5 "./drivers/soc/qcc743/std/include/qcc743_common.h"
	.file 6 "./drivers/soc/qcc743/std/include/qcc743_l1c.h"
	.file 7 "./drivers/lhal/src/flash/qcc74x_sf_ctrl.h"
	.file 8 "./drivers/lhal/src/flash/qcc74x_sflash.h"
	.file 9 "./drivers/soc/qcc743/std/include/qcc743_hbn.h"
	.file 10 "./drivers/soc/qcc743/std/include/qcc743_pds.h"
	.file 11 "./drivers/soc/qcc743/std/include/qcc743_glb.h"
	.file 12 "./drivers/soc/qcc743/std/include/qcc743_glb_gpio.h"
	.file 13 "./drivers/soc/qcc743/std/include/qcc743_ef_ctrl.h"
	.file 14 "./drivers/soc/qcc743/std/include/qcc743_romdriver_e907.h"