	.file	"coredump.c"
	.option nopic
	.attribute arch, "rv32i2p0_m2p0_a2p0_f2p0_c2p0_p0p9_zpn0p9_zpsfoperand0p9_xtheade2p0"
	.attribute unaligned_access, 0
	.attribute stack_align, 16
	.text
.Ltext0:
	.cfi_sections	.debug_frame
	.section	.text.coredump_xip_flash_write,"ax",@progbits
	.align	1
	.globl	coredump_xip_flash_write
	.type	coredump_xip_flash_write, @function
coredump_xip_flash_write:
.LFB8:
	.file 1 "./components/utils/coredump/coredump.c"
	.loc 1 94 1
	.cfi_startproc
.LVL0:
	.loc 1 95 5
	.loc 1 96 5
	.loc 1 97 5
	.loc 1 98 5
	.loc 1 100 5
	.loc 1 94 1 is_stmt 0
	addi	sp,sp,-64
	.cfi_def_cfa_offset 64
	sw	s0,56(sp)
	sw	s3,44(sp)
	sw	s4,40(sp)
	sw	s5,36(sp)
	sw	s6,32(sp)
	sw	ra,60(sp)
	sw	s1,52(sp)
	sw	s2,48(sp)
	.cfi_offset 8, -8
	.cfi_offset 19, -20
	.cfi_offset 20, -24
	.cfi_offset 21, -28
	.cfi_offset 22, -32
	.cfi_offset 1, -4
	.cfi_offset 9, -12
	.cfi_offset 18, -16
	.loc 1 94 1
	mv	s4,a0
	mv	s5,a1
	mv	s3,a2
	.loc 1 96 12
	mv	s0,a2
	.loc 1 101 17
	li	s6,32
.LVL1:
.L2:
	.loc 1 100 10 is_stmt 1
	bne	s0,zero,.L5
	li	a0,0
	.loc 1 109 5
.LVL2:
.L1:
	.loc 1 110 1 is_stmt 0
	lw	ra,60(sp)
	.cfi_remember_state
	.cfi_restore 1
	lw	s0,56(sp)
	.cfi_restore 8
.LVL3:
	lw	s1,52(sp)
	.cfi_restore 9
	lw	s2,48(sp)
	.cfi_restore 18
	lw	s3,44(sp)
	.cfi_restore 19
.LVL4:
	lw	s4,40(sp)
	.cfi_restore 20
.LVL5:
	lw	s5,36(sp)
	.cfi_restore 21
.LVL6:
	lw	s6,32(sp)
	.cfi_restore 22
	addi	sp,sp,64
	.cfi_def_cfa_offset 0
	jr	ra
.LVL7:
.L5:
	.cfi_restore_state
	.loc 1 101 9 is_stmt 1
	.loc 1 101 17 is_stmt 0
	mv	s1,s0
	bleu	s0,s6,.L3
	li	s1,32
.L3:
.LVL8:
	.loc 1 102 9 is_stmt 1
	.loc 1 102 42 is_stmt 0
	sub	s2,s3,s0
	.loc 1 102 9
	mv	a2,s1
	add	a1,s5,s2
	mv	a0,sp
	call	memcpy
.LVL9:
	.loc 1 103 9 is_stmt 1
	.loc 1 103 15 is_stmt 0
	mv	a2,s1
	mv	a1,sp
	add	a0,s2,s4
	call	qcc74x_flash_write
.LVL10:
	.loc 1 104 9 is_stmt 1
	.loc 1 104 11 is_stmt 0
	bne	a0,zero,.L1
	.loc 1 106 9 is_stmt 1
	.loc 1 106 14 is_stmt 0
	sub	s0,s0,s1
.LVL11:
	j	.L2
	.cfi_endproc
.LFE8:
	.size	coredump_xip_flash_write, .-coredump_xip_flash_write
	.section	.rodata.coredump_run.str1.4,"aMS",@progbits,1
	.align	2
.LC0:
	.string	"\r\ncheck build_id with `riscv64-unknown-elf-readelf -n *.elf` output \r\n"
	.align	2
.LC1:
	.string	"build_id: %02x%02x%02x%02x%02x%02x%02x%02x%02x%02x%02x%02x%02x%02x%02x%02x%02x%02x%02x%02x\r\n"
	.align	2
.LC2:
	.string	"predefined"
	.align	2
.LC3:
	.string	"\r\n-+-+-+- QCC74x COREDUMP END +-+-+-+\r\n"
	.section	.text.coredump_run,"ax",@progbits
	.align	1
	.globl	coredump_run
	.type	coredump_run, @function
coredump_run:
.LFB9:
	.loc 1 112 25 is_stmt 1
	.cfi_startproc
	.loc 1 113 4
.LVL12:
	.loc 1 114 5
	.loc 1 115 5
	.loc 1 116 5
	.loc 1 117 5
	.loc 1 119 5
	.loc 1 120 5
	.loc 1 121 5
	.loc 1 131 5
	.loc 1 139 9
	.loc 1 140 9
	.loc 1 143 5
	.loc 1 112 25 is_stmt 0
	addi	sp,sp,-96
	.cfi_def_cfa_offset 96
	sw	s0,88(sp)
	.loc 1 143 5
	lui	a0,%hi(.LANCHOR0)
	.cfi_offset 8, -8
	lui	s0,%hi(elf_build_id)
	addi	a1,s0,%lo(elf_build_id)
	li	a2,20
	addi	a0,a0,%lo(.LANCHOR0)
	.loc 1 112 25
	sw	ra,92(sp)
	sw	s4,72(sp)
	sw	s5,68(sp)
	sw	s6,64(sp)
	sw	s1,84(sp)
	sw	s2,80(sp)
	sw	s3,76(sp)
	.cfi_offset 1, -4
	.cfi_offset 20, -24
	.cfi_offset 21, -28
	.cfi_offset 22, -32
	.cfi_offset 9, -12
	.cfi_offset 18, -16
	.cfi_offset 19, -20
	.loc 1 143 5
	call	memcpy
.LVL13:
	.loc 1 144 5 is_stmt 1
.LBB7:
.LBB8:
	.loc 1 23 5
	lui	a0,%hi(.LC0)
	addi	a0,a0,%lo(.LC0)
	call	printf
.LVL14:
	.loc 1 24 5
	.loc 1 28 38 is_stmt 0
	addi	a2,s0,%lo(elf_build_id)
	.loc 1 24 5
	lbu	a5,19(a2)
	lui	a0,%hi(.LC1)
	addi	a0,a0,%lo(.LC1)
	sw	a5,48(sp)
	lbu	a5,18(a2)
.LBE8:
.LBE7:
.LBB11:
	.loc 1 148 12
	li	s4,-3
.LBB12:
.LBB13:
	.loc 1 40 104
	li	s5,1024
.LBE13:
.LBE12:
.LBE11:
.LBB18:
.LBB9:
	.loc 1 24 5
	sw	a5,44(sp)
	lbu	a5,17(a2)
.LBE9:
.LBE18:
.LBB19:
.LBB16:
.LBB14:
	.loc 1 40 9
	lui	s6,%hi(.LC2)
.LBE14:
.LBE16:
.LBE19:
.LBB20:
.LBB10:
	.loc 1 24 5
	sw	a5,40(sp)
	lbu	a5,16(a2)
	sw	a5,36(sp)
	lbu	a5,15(a2)
	sw	a5,32(sp)
	lbu	a5,14(a2)
	sw	a5,28(sp)
	lbu	a5,13(a2)
	sw	a5,24(sp)
	lbu	a5,12(a2)
	sw	a5,20(sp)
	lbu	a5,11(a2)
	sw	a5,16(sp)
	lbu	a5,10(a2)
	sw	a5,12(sp)
	lbu	a5,9(a2)
	sw	a5,8(sp)
	lbu	a5,8(a2)
	sw	a5,4(sp)
	lbu	a5,7(a2)
	sw	a5,0(sp)
	lbu	a7,6(a2)
	lbu	a6,5(a2)
	lbu	a5,4(a2)
	lbu	a4,3(a2)
	lbu	a3,2(a2)
	lbu	a2,1(a2)
	lbu	a1,%lo(elf_build_id)(s0)
	lui	s0,%hi(_dump_sections)
	addi	s0,s0,%lo(_dump_sections)
	call	printf
.LVL15:
.L8:
.LBE10:
.LBE20:
.LBB21:
	.loc 1 147 21 is_stmt 1 discriminator 1
	.loc 1 147 40 is_stmt 0 discriminator 1
	lw	s3,0(s0)
	.loc 1 148 9 is_stmt 1 discriminator 1
	.loc 1 148 12 is_stmt 0 discriminator 1
	addi	a5,s3,-1
	bleu	a5,s4,.L12
.LBE21:
	.loc 1 156 5 is_stmt 1
	.loc 1 166 5
	.loc 1 170 5
	lui	a0,%hi(.LC3)
	addi	a0,a0,%lo(.LC3)
	call	printf
.LVL16:
	.loc 1 172 5
	.loc 1 173 5
	call	qcc74x_sys_reset_por
.LVL17:
.L13:
	.loc 1 174 5 discriminator 1
	.loc 1 175 9 discriminator 1
 #APP
# 175 "/home/sai/QCCSDK-QCC74x/components/utils/coredump/coredump.c" 1
	nop
# 0 "" 2
	.loc 1 174 11 discriminator 1
 #NO_APP
	j	.L13
.L12:
.LBB22:
	.loc 1 150 9
	.loc 1 150 32 is_stmt 0
	lw	s2,4(s0)
	.loc 1 150 12
	bne	s2,zero,.L14
.L11:
	.loc 1 147 62 is_stmt 1
	addi	s0,s0,8
	j	.L8
.L14:
	li	s1,0
.L9:
.LBB17:
.LBB15:
	.loc 1 39 9
.LVL18:
	.loc 1 40 9
	.loc 1 40 72 is_stmt 0
	sub	a2,s2,s1
	.loc 1 40 29
	add	a1,s3,s1
	.loc 1 40 104
	bleu	a2,s5,.L10
	li	a2,1024
.L10:
	.loc 1 40 9
	addi	a3,s6,%lo(.LC2)
	mv	a0,a1
	addi	s1,s1,1024
.LVL19:
	call	coredump_print
.LVL20:
	.loc 1 38 40 is_stmt 1
	.loc 1 38 18
	.loc 1 38 5 is_stmt 0
	bgtu	s2,s1,.L9
	j	.L11
.LBE15:
.LBE17:
.LBE22:
	.cfi_endproc
.LFE9:
	.size	coredump_run, .-coredump_run
	.globl	core_build_id
	.section	.bss.core_build_id,"aw",@nobits
	.align	2
	.set	.LANCHOR0,. + 0
	.type	core_build_id, @object
	.size	core_build_id, 20
core_build_id:
	.zero	20
	.weak	_dump_sections
	.weak	elf_build_id
	.text
.Letext0:
	.file 2 "./toolchain/linux_x86_64/lib/gcc/riscv64-unknown-elf/10.4.0/include/stddef.h"
	.file 3 "./toolchain/linux_x86_64/riscv64-unknown-elf/include/machine/_default_types.h"
	.file 4 "./toolchain/linux_x86_64/riscv64-unknown-elf/include/sys/_stdint.h"
	.file 5 "./components/utils/coredump/coredump.h"
	.file 6 "./toolchain/linux_x86_64/riscv64-unknown-elf/include/stdio.h"
	.file 7 "./toolchain/linux_x86_64/riscv64-unknown-elf/include/string.h"
	.file 8 "./drivers/lhal/include/qcc74x_flash.h"