	.file	"encoder_v1.c"
	.option nopic
	.attribute arch, "rv32i2p0_m2p0_a2p0_f2p0_c2p0_p0p9_zpn0p9_zpsfoperand0p9_xtheade2p0"
	.attribute unaligned_access, 0
	.attribute stack_align, 16
	.text
.Ltext0:
	.cfi_sections	.debug_frame
	.section	.rodata.cd_base64_write_block.str1.4,"aMS",@progbits,1
	.align	2
.LC0:
	.string	"\r\n"
	.section	.text.cd_base64_write_block,"ax",@progbits
	.align	1
	.type	cd_base64_write_block, @function
cd_base64_write_block:
.LFB4:
	.file 1 "./components/utils/coredump/encoder_v1.c"
	.loc 1 28 71
	.cfi_startproc
.LVL0:
	.loc 1 29 5
	.loc 1 28 71 is_stmt 0
	addi	sp,sp,-16
	.cfi_def_cfa_offset 16
	sw	ra,12(sp)
	sw	s0,8(sp)
	sw	s1,4(sp)
	.cfi_offset 1, -4
	.cfi_offset 8, -8
	.cfi_offset 9, -12
	.loc 1 28 71
	mv	s0,a0
	.loc 1 30 5
	lbu	a0,0(a0)
.LVL1:
	.loc 1 28 71
	mv	s1,a1
.LVL2:
	.loc 1 30 5 is_stmt 1
	call	putchar
.LVL3:
	.loc 1 31 5
	lbu	a0,1(s0)
	call	putchar
.LVL4:
	.loc 1 32 5
	lbu	a0,2(s0)
	call	putchar
.LVL5:
	.loc 1 33 5
	lbu	a0,3(s0)
	call	putchar
.LVL6:
	.loc 1 34 5
	.loc 1 34 9 is_stmt 0
	lw	a5,0(s1)
	.loc 1 34 8
	li	a4,25
	.loc 1 34 9
	addi	a5,a5,1
	.loc 1 34 8
	sw	a5,0(s1)
	ble	a5,a4,.L1
	.loc 1 35 9 is_stmt 1
	lui	a0,%hi(.LC0)
	addi	a0,a0,%lo(.LC0)
	call	puts
.LVL7:
	.loc 1 36 9
	.loc 1 36 20 is_stmt 0
	sw	zero,0(s1)
.L1:
	.loc 1 38 1
	lw	ra,12(sp)
	.cfi_restore 1
	lw	s0,8(sp)
	.cfi_restore 8
.LVL8:
	lw	s1,4(sp)
	.cfi_restore 9
.LVL9:
	addi	sp,sp,16
	.cfi_def_cfa_offset 0
	jr	ra
	.cfi_endproc
.LFE4:
	.size	cd_base64_write_block, .-cd_base64_write_block
	.section	.text.read_word_cb,"ax",@progbits
	.align	1
	.type	read_word_cb, @function
read_word_cb:
.LFB5:
	.loc 1 52 54 is_stmt 1
	.cfi_startproc
.LVL10:
	.loc 1 53 5
	.loc 1 54 5
	.loc 1 56 5
	.loc 1 56 12 is_stmt 0
	lw	a4,8(a1)
	.loc 1 56 8
	lw	a5,12(a1)
	bgeu	a4,a5,.L7
	.loc 1 57 9 is_stmt 1
	.loc 1 58 12 is_stmt 0
	lw	a3,4(a1)
	.loc 1 52 54
	addi	sp,sp,-16
	.cfi_def_cfa_offset 16
	sw	ra,12(sp)
	.cfi_offset 1, -4
	.loc 1 57 14
	andi	a5,a4,-4
.LVL11:
	.loc 1 58 9 is_stmt 1
	.loc 1 58 12 is_stmt 0
	beq	a3,a5,.L6
	.loc 1 59 13 is_stmt 1
	.loc 1 59 28 is_stmt 0
	sw	a5,4(a1)
	.loc 1 60 13 is_stmt 1
	.loc 1 60 37 is_stmt 0
	lw	a5,0(a5)
.LVL12:
	.loc 1 60 35
	sw	a5,16(a1)
.LVL13:
.L6:
	.loc 1 63 41
	andi	a4,a4,3
.LVL14:
	.loc 1 63 25
	add	a4,a1,a4
	lbu	a4,16(a4)
	mv	a5,a1
	.loc 1 63 9 is_stmt 1
	.loc 1 63 15 is_stmt 0
	sb	a4,0(a0)
.LVL15:
	.loc 1 64 9 is_stmt 1
	.loc 1 64 23 is_stmt 0
	lw	a4,8(a1)
	addi	a4,a4,1
	sw	a4,8(a1)
	.loc 1 67 9 is_stmt 1
	lbu	a1,0(a0)
.LVL16:
	lw	a0,20(a5)
.LVL17:
	call	utils_crc32_stream_feed
.LVL18:
	.loc 1 69 9
	.loc 1 73 1 is_stmt 0
	lw	ra,12(sp)
	.cfi_restore 1
	.loc 1 69 16
	li	a0,0
	.loc 1 73 1
	addi	sp,sp,16
	.cfi_def_cfa_offset 0
	jr	ra
.LVL19:
.L7:
	.loc 1 71 16
	li	a0,1
.LVL20:
	.loc 1 73 1
	ret
	.cfi_endproc
.LFE5:
	.size	read_word_cb, .-read_word_cb
	.section	.rodata.coredump_print.str1.4,"aMS",@progbits,1
	.align	2
.LC1:
	.string	"\r\n-+-+-+- QCC74x COREDUMP v0.0.1 +-+-+-+\r\n"
	.align	2
.LC2:
	.string	"\r\n------ DATA BEGIN "
	.align	2
.LC3:
	.string	" ------\r\n"
	.align	2
.LC4:
	.string	"\r\n------ END "
	.section	.text.coredump_print,"ax",@progbits
	.align	1
	.globl	coredump_print
	.type	coredump_print, @function
coredump_print:
.LFB7:
	.loc 1 88 1 is_stmt 1
	.cfi_startproc
.LVL21:
	.loc 1 89 5
	.loc 1 90 5
	.loc 1 88 1 is_stmt 0
	addi	sp,sp,-80
	.cfi_def_cfa_offset 80
	sw	s1,68(sp)
	.cfi_offset 9, -12
	.loc 1 90 14
	lui	s1,%hi(.LANCHOR0)
	addi	s1,s1,%lo(.LANCHOR0)
	.loc 1 90 8
	lw	a5,0(s1)
	.loc 1 88 1
	sw	s0,72(sp)
	sw	s2,64(sp)
	sw	s3,60(sp)
	sw	s4,56(sp)
	sw	ra,76(sp)
	sw	s5,52(sp)
	.cfi_offset 8, -8
	.cfi_offset 18, -16
	.cfi_offset 19, -20
	.cfi_offset 20, -24
	.cfi_offset 1, -4
	.cfi_offset 21, -28
	.loc 1 88 1
	mv	s2,a0
	mv	s3,a1
	mv	s0,a2
	mv	s4,a3
	.loc 1 90 8
	bne	a5,zero,.L13
	.loc 1 91 9 is_stmt 1
	lui	a0,%hi(.LC1)
.LVL22:
	addi	a0,a0,%lo(.LC1)
	call	puts
.LVL23:
	.loc 1 92 9
	.loc 1 92 14 is_stmt 0
	li	a5,1
	sw	a5,0(s1)
.L13:
	.loc 1 94 5 is_stmt 1
	.loc 1 95 5
	.loc 1 97 5
	.loc 1 98 5
	.loc 1 101 5 is_stmt 0
	lui	a0,%hi(.LC2)
	rev	s2, s2
.LVL24:
	addi	a0,a0,%lo(.LC2)
	.loc 1 98 10
	sw	zero,16(sp)
	sw	zero,20(sp)
	.loc 1 101 5 is_stmt 1
	call	puts
.LVL25:
	.loc 1 104 5
	.loc 1 104 9 is_stmt 0
	sw	s2,12(sp)
	.loc 1 105 5 is_stmt 1
	addi	s2,sp,12
	li	a2,4
	mv	a1,s2
	addi	a0,sp,16
	call	utils_bin2hex
.LVL26:
	.loc 1 106 5
.LBB8:
	.loc 1 106 9
	.loc 1 106 18
	.loc 1 106 13 is_stmt 0
	li	s1,0
	.loc 1 106 5
	li	s5,8
.LVL27:
.L14:
	.loc 1 107 9 is_stmt 1 discriminator 3
	addi	a5,sp,16
	lrbu	a0,a5,s1,0
	.loc 1 106 41 is_stmt 0 discriminator 3
	addi	s1,s1,1
.LVL28:
	.loc 1 107 9 discriminator 3
	call	putchar
.LVL29:
	.loc 1 106 40 is_stmt 1 discriminator 3
	.loc 1 106 18 discriminator 3
	.loc 1 106 5 is_stmt 0 discriminator 3
	bne	s1,s5,.L14
.LBE8:
	.loc 1 109 5 is_stmt 1
	li	a0,64
	call	putchar
.LVL30:
	.loc 1 111 5
	rev	a5, s0
	.loc 1 112 5 is_stmt 0
	li	a2,4
	mv	a1,s2
	addi	a0,sp,16
	.loc 1 111 9
	sw	a5,12(sp)
	.loc 1 112 5 is_stmt 1
.LBB9:
	.loc 1 113 13 is_stmt 0
	li	s1,0
.LVL31:
.LBE9:
	.loc 1 112 5
	call	utils_bin2hex
.LVL32:
	.loc 1 113 5 is_stmt 1
.LBB10:
	.loc 1 113 9
	.loc 1 113 18
	.loc 1 113 5 is_stmt 0
	li	s5,8
.LVL33:
.L15:
	.loc 1 114 9 is_stmt 1 discriminator 3
	addi	a5,sp,16
	lrbu	a0,a5,s1,0
	.loc 1 113 41 is_stmt 0 discriminator 3
	addi	s1,s1,1
.LVL34:
	.loc 1 114 9 discriminator 3
	call	putchar
.LVL35:
	.loc 1 113 40 is_stmt 1 discriminator 3
	.loc 1 113 18 discriminator 3
	.loc 1 113 5 is_stmt 0 discriminator 3
	bne	s1,s5,.L15
.LBE10:
	.loc 1 116 5 is_stmt 1
	.loc 1 116 8 is_stmt 0
	beq	s4,zero,.L16
	.loc 1 117 9 is_stmt 1
	li	a0,64
	call	putchar
.LVL36:
	.loc 1 118 9
	mv	a0,s4
	call	puts
.LVL37:
.L16:
	.loc 1 121 5
	lui	s1,%hi(.LC3)
.LVL38:
	addi	a0,s1,%lo(.LC3)
	call	puts
.LVL39:
	.loc 1 124 5
	addi	a0,sp,4
	call	utils_crc32_stream_init
.LVL40:
	.loc 1 127 5
.LBB11:
.LBB12:
	.loc 1 76 5
	.loc 1 78 44 is_stmt 0
	andi	a5,s3,-4
	.loc 1 78 19
	sw	a5,28(sp)
	.loc 1 80 34
	add	s0,s0,a5
.LVL41:
	.loc 1 81 26
	lw	a5,0(a5)
	.loc 1 79 19
	sw	s3,32(sp)
	.loc 1 80 18
	sw	s0,36(sp)
	.loc 1 84 5
	lui	s3,%hi(cd_base64_write_block)
.LVL42:
	lui	s0,%hi(read_word_cb)
	addi	a2,sp,24
	addi	a1,s3,%lo(cd_base64_write_block)
	.loc 1 81 26
	sw	a5,40(sp)
	.loc 1 84 5
	addi	a0,s0,%lo(read_word_cb)
	.loc 1 82 17
	addi	a5,sp,4
.LVL43:
	sw	a5,44(sp)
	.loc 1 76 28
	sw	zero,24(sp)
	.loc 1 78 5 is_stmt 1
	.loc 1 79 5
	.loc 1 80 5
	.loc 1 81 5
	.loc 1 82 5
	.loc 1 84 5
	call	utils_base64_encode_stream
.LVL44:
.LBE12:
.LBE11:
	.loc 1 130 5
	lui	a0,%hi(.LC4)
	addi	a0,a0,%lo(.LC4)
	call	puts
.LVL45:
	.loc 1 132 5
	.loc 1 132 11 is_stmt 0
	addi	a0,sp,4
	call	utils_crc32_stream_results
.LVL46:
.LBB13:
.LBB14:
	.loc 1 78 19
	addi	a5,sp,8
.LBE14:
.LBE13:
	.loc 1 132 9
	sw	a0,8(sp)
	.loc 1 134 5 is_stmt 1
.LVL47:
.LBB16:
.LBB15:
	.loc 1 76 5
	.loc 1 78 19 is_stmt 0
	sw	a5,28(sp)
	.loc 1 79 19
	sw	a5,32(sp)
	.loc 1 81 26
	sw	a0,40(sp)
	.loc 1 82 17
	addi	a5,sp,4
.LVL48:
	.loc 1 84 5
	addi	a2,sp,24
	addi	a1,s3,%lo(cd_base64_write_block)
	addi	a0,s0,%lo(read_word_cb)
	.loc 1 80 18
	sw	s2,36(sp)
	.loc 1 82 17
	sw	a5,44(sp)
	.loc 1 76 28
	sw	zero,24(sp)
	.loc 1 78 5 is_stmt 1
	.loc 1 79 5
	.loc 1 80 5
	.loc 1 81 5
	.loc 1 82 5
	.loc 1 84 5
	call	utils_base64_encode_stream
.LVL49:
.LBE15:
.LBE16:
	.loc 1 136 5
	addi	a0,s1,%lo(.LC3)
	call	puts
.LVL50:
	.loc 1 137 1 is_stmt 0
	lw	ra,76(sp)
	.cfi_restore 1
	lw	s0,72(sp)
	.cfi_restore 8
	lw	s1,68(sp)
	.cfi_restore 9
	lw	s2,64(sp)
	.cfi_restore 18
	lw	s3,60(sp)
	.cfi_restore 19
	lw	s4,56(sp)
	.cfi_restore 20
.LVL51:
	lw	s5,52(sp)
	.cfi_restore 21
	addi	sp,sp,80
	.cfi_def_cfa_offset 0
	jr	ra
	.cfi_endproc
.LFE7:
	.size	coredump_print, .-coredump_print
	.section	.bss.init.0,"aw",@nobits
	.align	2
	.set	.LANCHOR0,. + 0
	.type	init.0, @object
	.size	init.0, 4
init.0:
	.zero	4
	.text
.Letext0:
	.file 2 "./toolchain/linux_x86_64/lib/gcc/riscv64-unknown-elf/10.4.0/include/stddef.h"
	.file 3 "./toolchain/linux_x86_64/riscv64-unknown-elf/include/machine/_default_types.h"
	.file 4 "./toolchain/linux_x86_64/riscv64-unknown-elf/include/sys/_types.h"
	.file 5 "./toolchain/linux_x86_64/riscv64-unknown-elf/include/sys/_stdint.h"
	.file 6 "./components/libc/./sys/types.h"
	.file 7 "./toolchain/linux_x86_64/riscv64-unknown-elf/include/stdio.h"
	.file 8 "./components/utils/math/include/utils_base64.h"
	.file 9 "./components/utils/math/include/utils_hex.h"
	.file 10 "./components/utils/math/include/utils_crc.h"