	.file	"interrupt.c"
	.option nopic
	.attribute arch, "rv32i2p0_m2p0_a2p0_f2p0_c2p0_p0p9_zpn0p9_zpsfoperand0p9_xtheade2p0"
	.attribute unaligned_access, 0
	.attribute stack_align, 16
	.section	.rodata.str1.4,"aMS",@progbits,1
	.align	2
.LC0:
	.string	"Instruction address misaligned"
	.align	2
.LC1:
	.string	"Instruction access fault"
	.align	2
.LC2:
	.string	"Illegal instruction"
	.align	2
.LC3:
	.string	"Breakpoint"
	.align	2
.LC4:
	.string	"Load address misaligned"
	.align	2
.LC5:
	.string	"Load access fault"
	.align	2
.LC6:
	.string	"Store/AMO address misaligned"
	.align	2
.LC7:
	.string	"Store/AMO access fault"
	.align	2
.LC8:
	.string	"Environment call from U-mode"
	.align	2
.LC9:
	.string	"Environment call from S-mode"
	.align	2
.LC10:
	.string	"RSVD"
	.align	2
.LC11:
	.string	"Environment call from M-mode"
	.align	2
.LC12:
	.string	"Instruction page fault"
	.align	2
.LC13:
	.string	"Load page fault"
	.align	2
.LC14:
	.string	"Store/AMO page fault"
	.text
.Ltext0:
	.cfi_sections	.debug_frame
	.section	.rodata.exception_entry.str1.4,"aMS",@progbits,1
	.align	2
.LC16:
	.string	"exception_entry\r\n"
	.align	2
.LC17:
	.string	"mcause=%08x\r\n"
	.align	2
.LC18:
	.string	"mepc:%08x\r\n"
	.align	2
.LC19:
	.string	"mtval:%08x\r\n"
	.align	2
.LC21:
	.string	"%s\r\n"
	.section	.text.exception_entry,"ax",@progbits
	.align	1
	.globl	exception_entry
	.type	exception_entry, @function
exception_entry:
.LFB242:
	.file 1 "./drivers/soc/qcc743/std/startup/interrupt.c"
	.loc 1 98 1
	.cfi_startproc
.LVL0:
	.loc 1 99 5
	.loc 1 100 5
	.loc 1 101 5
	.loc 1 103 5
	lui	a0,%hi(.LC16)
.LVL1:
	.loc 1 98 1 is_stmt 0
	addi	sp,sp,-80
	.cfi_def_cfa_offset 80
	.loc 1 103 5
	addi	a0,a0,%lo(.LC16)
	.loc 1 98 1
	sw	ra,76(sp)
	sw	s0,72(sp)
	sw	s1,68(sp)
	sw	s2,64(sp)
	.cfi_offset 1, -4
	.cfi_offset 8, -8
	.cfi_offset 9, -12
	.cfi_offset 18, -16
	.loc 1 103 5
	call	printf
.LVL2:
	.loc 1 105 5 is_stmt 1
.LBB2:
	.loc 1 105 16
	.loc 1 105 35
 #APP
# 105 "/home/sai/QCCSDK-QCC74x/drivers/soc/qcc743/std/startup/interrupt.c" 1
	csrr s0, 0x342
# 0 "" 2
.LVL3:
	.loc 1 105 82
 #NO_APP
.LBE2:
	.loc 1 106 5
	lui	a0,%hi(.LC17)
	mv	a1,s0
	addi	a0,a0,%lo(.LC17)
	call	printf
.LVL4:
	.loc 1 107 5
.LBB3:
	.loc 1 107 14
	.loc 1 107 33
 #APP
# 107 "/home/sai/QCCSDK-QCC74x/drivers/soc/qcc743/std/startup/interrupt.c" 1
	csrr s1, 0x341
# 0 "" 2
.LVL5:
	.loc 1 107 80
 #NO_APP
.LBE3:
	.loc 1 108 5
	lui	a0,%hi(.LC18)
	mv	a1,s1
	addi	a0,a0,%lo(.LC18)
	call	printf
.LVL6:
	.loc 1 109 5
.LBB4:
	.loc 1 109 15
	.loc 1 109 34
 #APP
# 109 "/home/sai/QCCSDK-QCC74x/drivers/soc/qcc743/std/startup/interrupt.c" 1
	csrr a1, 0x343
# 0 "" 2
.LVL7:
	.loc 1 109 81
 #NO_APP
.LBE4:
	.loc 1 110 5
	lui	a0,%hi(.LC19)
	addi	a0,a0,%lo(.LC19)
	call	printf
.LVL8:
	.loc 1 112 5
	.loc 1 115 17 is_stmt 0
	lui	a1,%hi(.LANCHOR0)
	li	a2,64
	addi	a1,a1,%lo(.LANCHOR0)
	mv	a0,sp
	call	memcpy
.LVL9:
	.loc 1 112 11
	andi	s2,s0,1023
.LVL10:
	.loc 1 115 5 is_stmt 1
	.loc 1 134 5
	.loc 1 134 39 is_stmt 0
	andi	s0,s0,15
.LVL11:
	.loc 1 134 5
	lrw	a1,sp,s0,2
	lui	a0,%hi(.LC21)
	addi	a0,a0,%lo(.LC21)
	call	printf
.LVL12:
	.loc 1 136 5 is_stmt 1
	.loc 1 136 8 is_stmt 0
	li	a5,8
	beq	s2,a5,.L2
	.loc 1 136 22 discriminator 1
	li	a5,11
	beq	s2,a5,.L2
.LBB5:
	.loc 1 146 13
	lui	s0,%hi(__freertos_irq_stack_top)
	addi	s0,s0,%lo(__freertos_irq_stack_top)
.L3:
.LBE5:
	.loc 1 140 9 is_stmt 1 discriminator 1
.LBB6:
	.loc 1 143 13 discriminator 1
	.loc 1 146 13 discriminator 1
 #APP
# 146 "/home/sai/QCCSDK-QCC74x/drivers/soc/qcc743/std/startup/interrupt.c" 1
	add sp, x0, s0
# 0 "" 2
	.loc 1 147 13 discriminator 1
	.loc 1 148 13 discriminator 1
 #NO_APP
	call	coredump_run
.LVL13:
.LBE6:
	.loc 1 140 15 discriminator 1
	j	.L3
.L2:
	.loc 1 137 9
.LVL14:
	.loc 1 138 9
	.loc 1 137 13 is_stmt 0
	addi	s1,s1,4
.LVL15:
	.loc 1 138 12
 #APP
# 138 "/home/sai/QCCSDK-QCC74x/drivers/soc/qcc743/std/startup/interrupt.c" 1
	csrw 0x341, s1
# 0 "" 2
	.loc 1 152 1
 #NO_APP
	lw	ra,76(sp)
	.cfi_restore 1
	lw	s0,72(sp)
	.cfi_restore 8
	lw	s1,68(sp)
	.cfi_restore 9
.LVL16:
	lw	s2,64(sp)
	.cfi_restore 18
.LVL17:
	addi	sp,sp,80
	.cfi_def_cfa_offset 0
	jr	ra
	.cfi_endproc
.LFE242:
	.size	exception_entry, .-exception_entry
	.section	.text.interrupt_entry,"ax",@progbits
	.align	1
	.globl	interrupt_entry
	.type	interrupt_entry, @function
interrupt_entry:
.LFB243:
	.loc 1 155 1 is_stmt 1
	.cfi_startproc
	.loc 1 156 5
	.loc 1 157 5
	.loc 1 158 5
	.loc 1 155 1 is_stmt 0
	addi	sp,sp,-16
	.cfi_def_cfa_offset 16
	.loc 1 158 23
	sw	zero,12(sp)
	.loc 1 159 5 is_stmt 1
	.loc 1 161 5
.LBB7:
	.loc 1 161 17
	.loc 1 161 36
 #APP
# 161 "/home/sai/QCCSDK-QCC74x/drivers/soc/qcc743/std/startup/interrupt.c" 1
	csrr a5, 0x342
# 0 "" 2
.LVL18:
	.loc 1 161 83
 #NO_APP
.LBE7:
	.loc 1 161 12 is_stmt 0
	sw	a5,12(sp)
	.loc 1 162 5 is_stmt 1
	.loc 1 162 22 is_stmt 0
	lw	a0,12(sp)
	.loc 1 164 8
	li	a5,79
.LVL19:
	.loc 1 162 13
	andi	a0,a0,1023
.LVL20:
	.loc 1 164 5 is_stmt 1
	.loc 1 164 8 is_stmt 0
	bgtu	a0,a5,.L7
	.loc 1 165 9 is_stmt 1
	.loc 1 165 17 is_stmt 0
	lui	a5,%hi(.LANCHOR1)
	addi	a5,a5,%lo(.LANCHOR1)
	lrw	a4,a5,a0,3
.LVL21:
	.loc 1 166 9 is_stmt 1
	.loc 1 167 9
	.loc 1 167 12 is_stmt 0
	beq	a4,zero,.L7
	.loc 1 168 13 is_stmt 1
	.loc 1 166 13 is_stmt 0
	addsl	a5, a5, a0, 3
	.loc 1 168 13
	lw	a1,4(a5)
	.loc 1 173 1
	addi	sp,sp,16
	.cfi_remember_state
	.cfi_def_cfa_offset 0
.LVL22:
	.loc 1 168 13
	jr	a4
.LVL23:
.L7:
	.cfi_restore_state
	.loc 1 173 1
	addi	sp,sp,16
	.cfi_def_cfa_offset 0
.LVL24:
	jr	ra
	.cfi_endproc
.LFE243:
	.size	interrupt_entry, .-interrupt_entry
	.globl	g_irqvector
	.section	.rodata
	.align	2
	.set	.LANCHOR0,. + 0
.LC20:
	.word	.LC0
	.word	.LC1
	.word	.LC2
	.word	.LC3
	.word	.LC4
	.word	.LC5
	.word	.LC6
	.word	.LC7
	.word	.LC8
	.word	.LC9
	.word	.LC10
	.word	.LC11
	.word	.LC12
	.word	.LC13
	.word	.LC10
	.word	.LC14
	.section	.bss.g_irqvector,"aw",@nobits
	.align	2
	.set	.LANCHOR1,. + 0
	.type	g_irqvector, @object
	.size	g_irqvector, 640
g_irqvector:
	.zero	640
	.text
.Letext0:
	.file 2 "./toolchain/linux_x86_64/riscv64-unknown-elf/include/machine/_default_types.h"
	.file 3 "./toolchain/linux_x86_64/riscv64-unknown-elf/include/sys/_stdint.h"
	.file 4 "./drivers/lhal/include/qcc74x_irq.h"
	.file 5 "./toolchain/linux_x86_64/riscv64-unknown-elf/include/stdio.h"
	.file 6 "<built-in>"