	.file	"lib_qsort.c"
	.option nopic
	.attribute arch, "rv32i2p0_m2p0_a2p0_f2p0_c2p0_p0p9_zpn0p9_zpsfoperand0p9_xtheade2p0"
	.attribute unaligned_access, 0
	.attribute stack_align, 16
	.text
.Ltext0:
	.cfi_sections	.debug_frame
	.section	.text.swapfunc,"ax",@progbits
	.align	1
	.type	swapfunc, @function
swapfunc:
.LFB4:
	.file 1 "./components/libc/nuttx/libc/stdlib/lib_qsort.c"
	.loc 1 102 1
	.cfi_startproc
.LVL0:
	.loc 1 103 3
	.loc 1 103 6 is_stmt 0
	li	a4,2
	li	a5,0
	beq	a3,a4,.L2
.LVL1:
.LBB14:
.LBB15:
	.loc 1 105 9 is_stmt 1
	.loc 1 105 22 is_stmt 0
	srli	a2,a2,2
.LVL2:
	.loc 1 105 39 is_stmt 1
	.loc 1 105 72
.L3:
	.loc 1 105 105
.LBB16:
	.loc 1 105 110
	.loc 1 105 141 is_stmt 0
	lrw	a3,a1,a5,2
	.loc 1 105 124
	lrw	a4,a0,a5,2
.LVL3:
	.loc 1 105 133 is_stmt 1
	.loc 1 105 139 is_stmt 0
	srw	a3,a0,a5,2
	.loc 1 105 146 is_stmt 1
.LVL4:
	.loc 1 105 152 is_stmt 0
	srw	a4,a1,a5,2
.LBE16:
	.loc 1 105 165 is_stmt 1
.LVL5:
	.loc 1 105 7 is_stmt 0
	addi	a5,a5,1
.LVL6:
	sub	a4,a2,a5
.LVL7:
	bgt	a4,zero,.L3
	ret
.LVL8:
.L2:
.LBE15:
.LBE14:
.LBB17:
	.loc 1 109 105 is_stmt 1 discriminator 2
.LBB18:
	.loc 1 109 110 discriminator 2
	.loc 1 109 141 is_stmt 0 discriminator 2
	lrbu	a3,a1,a5,0
	.loc 1 109 124 discriminator 2
	lrbu	a4,a0,a5,0
.LVL9:
	.loc 1 109 133 is_stmt 1 discriminator 2
	.loc 1 109 139 is_stmt 0 discriminator 2
	srb	a3,a0,a5,0
	.loc 1 109 146 is_stmt 1 discriminator 2
.LVL10:
	.loc 1 109 152 is_stmt 0 discriminator 2
	srb	a4,a1,a5,0
.LBE18:
	.loc 1 109 165 is_stmt 1 discriminator 2
.LVL11:
	.loc 1 109 7 is_stmt 0 discriminator 2
	addi	a5,a5,1
.LVL12:
	sub	a4,a2,a5
.LVL13:
	bgt	a4,zero,.L2
.LBE17:
	.loc 1 111 1
	ret
	.cfi_endproc
.LFE4:
	.size	swapfunc, .-swapfunc
	.section	.text.med3,"ax",@progbits
	.align	1
	.type	med3, @function
med3:
.LFB5:
	.loc 1 116 1 is_stmt 1
	.cfi_startproc
.LVL14:
	addi	sp,sp,-32
	.cfi_def_cfa_offset 32
	sw	s0,24(sp)
	sw	s1,20(sp)
	sw	s2,16(sp)
	sw	s3,12(sp)
	.cfi_offset 8, -8
	.cfi_offset 9, -12
	.cfi_offset 18, -16
	.cfi_offset 19, -20
	mv	s0,a1
	mv	s1,a2
	sw	ra,28(sp)
	.cfi_offset 1, -4
	.loc 1 116 1 is_stmt 0
	mv	s3,a0
	.loc 1 117 3 is_stmt 1
	.loc 1 116 1 is_stmt 0
	mv	s2,a3
	.loc 1 117 10
	jalr	a3
.LVL15:
	.loc 1 118 11
	mv	a1,s1
	.loc 1 118 62
	bge	a0,zero,.L10
	.loc 1 118 11 discriminator 1
	mv	a0,s0
	jalr	s2
.LVL16:
	.loc 1 118 32 discriminator 1
	blt	a0,zero,.L12
.LVL17:
.LBB21:
.LBB22:
	.loc 1 118 35
	mv	a1,s1
	mv	a0,s3
	jalr	s2
.LVL18:
	.loc 1 118 56
	blt	a0,zero,.L13
.LVL19:
.L15:
	mv	s0,s3
.LVL20:
.L12:
.LBE22:
.LBE21:
	.loc 1 120 1 discriminator 10
	lw	ra,28(sp)
	.cfi_remember_state
	.cfi_restore 1
	mv	a0,s0
	lw	s0,24(sp)
	.cfi_restore 8
	lw	s1,20(sp)
	.cfi_restore 9
.LVL21:
	lw	s2,16(sp)
	.cfi_restore 18
.LVL22:
	lw	s3,12(sp)
	.cfi_restore 19
.LVL23:
	addi	sp,sp,32
	.cfi_def_cfa_offset 0
	jr	ra
.LVL24:
.L10:
	.cfi_restore_state
	.loc 1 119 11
	mv	a0,s0
	jalr	s2
.LVL25:
	.loc 1 119 32
	bgt	a0,zero,.L12
	.loc 1 119 35 discriminator 1
	mv	a1,s1
	mv	a0,s3
	jalr	s2
.LVL26:
	.loc 1 119 56 discriminator 1
	blt	a0,zero,.L15
.L13:
	.loc 1 119 56 discriminator 4
	mv	s0,s1
.LVL27:
	j	.L12
	.cfi_endproc
.LFE5:
	.size	med3, .-med3
	.section	.text.qsort,"ax",@progbits
	.align	1
	.globl	qsort
	.type	qsort, @function
qsort:
.LFB6:
	.loc 1 167 1 is_stmt 1
	.cfi_startproc
.LVL28:
	addi	sp,sp,-80
	.cfi_def_cfa_offset 80
	sw	s9,36(sp)
	.cfi_offset 25, -44
	.loc 1 181 113 is_stmt 0
	addi	s9,a2,-4
	snez	a5,s9
	.loc 1 167 1
	sw	s0,72(sp)
	sw	s1,68(sp)
	sw	s6,48(sp)
	sw	s7,44(sp)
	sw	ra,76(sp)
	sw	s2,64(sp)
	sw	s3,60(sp)
	sw	s4,56(sp)
	sw	s5,52(sp)
	sw	s8,40(sp)
	sw	s10,32(sp)
	sw	s11,28(sp)
	.cfi_offset 8, -8
	.cfi_offset 9, -12
	.cfi_offset 22, -32
	.cfi_offset 23, -36
	.cfi_offset 1, -4
	.cfi_offset 18, -16
	.cfi_offset 19, -20
	.cfi_offset 20, -24
	.cfi_offset 21, -28
	.cfi_offset 24, -40
	.cfi_offset 26, -48
	.cfi_offset 27, -52
	.loc 1 167 1
	mv	s1,a0
	mv	s6,a1
	mv	s0,a2
	mv	s7,a3
	.loc 1 181 113
	sw	a5,12(sp)
.LVL29:
.L18:
	.loc 1 168 3 is_stmt 1
	.loc 1 169 3
	.loc 1 170 3
	.loc 1 171 3
	.loc 1 172 3
	.loc 1 173 3
	.loc 1 174 3
	.loc 1 175 3
	.loc 1 176 3
	.loc 1 177 3
	.loc 1 178 3
	.loc 1 181 3
	.loc 1 181 113 is_stmt 0
	lw	a4,12(sp)
	.loc 1 181 58
	or	a5,s1,s0
	andi	a5,a5,3
	.loc 1 181 86
	li	s2,2
	.loc 1 181 113
	mveqz	s2, a4, a5
.LVL30:
	.loc 1 181 117 is_stmt 1
	.loc 1 182 3
	.loc 1 184 3
	.loc 1 184 6 is_stmt 0
	li	a5,6
	add	s4,s1,s0
	bgtu	s6,a5,.L20
	.loc 1 186 7 is_stmt 1
.LVL31:
	.loc 1 187 31 is_stmt 0
	mv	s8,s1
	mula	s8,s6,s0
.LVL32:
.L21:
	.loc 1 187 12 is_stmt 1 discriminator 1
	.loc 1 186 7 is_stmt 0 discriminator 1
	bgtu	s8,s4,.L63
.LVL33:
.L17:
	.loc 1 297 1
	lw	ra,76(sp)
	.cfi_remember_state
	.cfi_restore 1
	lw	s0,72(sp)
	.cfi_restore 8
.LVL34:
	lw	s1,68(sp)
	.cfi_restore 9
.LVL35:
	lw	s2,64(sp)
	.cfi_restore 18
.LVL36:
	lw	s3,60(sp)
	.cfi_restore 19
	lw	s4,56(sp)
	.cfi_restore 20
	lw	s5,52(sp)
	.cfi_restore 21
	lw	s6,48(sp)
	.cfi_restore 22
	lw	s7,44(sp)
	.cfi_restore 23
.LVL37:
	lw	s8,40(sp)
	.cfi_restore 24
	lw	s9,36(sp)
	.cfi_restore 25
	lw	s10,32(sp)
	.cfi_restore 26
	lw	s11,28(sp)
	.cfi_restore 27
	addi	sp,sp,80
	.cfi_def_cfa_offset 0
	jr	ra
.LVL38:
.L22:
	.cfi_restore_state
	.loc 1 194 135 is_stmt 1 discriminator 2
	mv	a3,s2
	mv	a2,s0
	mv	a1,s5
	mv	a0,s3
	call	swapfunc
.LVL39:
	j	.L23
.LVL40:
.L63:
	mv	s3,s4
	j	.L27
.LVL41:
.L24:
	.loc 1 191 48 is_stmt 0
	sub	s5,s3,s0
	.loc 1 191 38
	mv	a1,s3
	mv	a0,s5
	jalr	s7
.LVL42:
	.loc 1 191 35
	ble	a0,zero,.L26
	.loc 1 194 15 is_stmt 1
	.loc 1 194 18 is_stmt 0
	bne	s2,zero,.L22
.LBB23:
	.loc 1 194 36 is_stmt 1 discriminator 1
	.loc 1 194 76 is_stmt 0 discriminator 1
	lw	a4,0(s5)
	.loc 1 194 41 discriminator 1
	lw	a5,0(s3)
.LVL43:
	.loc 1 194 60 is_stmt 1 discriminator 1
	.loc 1 194 74 is_stmt 0 discriminator 1
	sw	a4,0(s3)
	.loc 1 194 99 is_stmt 1 discriminator 1
	.loc 1 194 121 is_stmt 0 discriminator 1
	sw	a5,0(s5)
.LVL44:
.L23:
.LBE23:
	.loc 1 191 48 discriminator 1
	mv	s3,s5
.LVL45:
.L27:
	.loc 1 191 16 is_stmt 1 discriminator 1
	.loc 1 190 11 is_stmt 0 discriminator 1
	bltu	s1,s3,.L24
.L26:
	.loc 1 188 12 is_stmt 1
	.loc 1 188 15 is_stmt 0
	add	s4,s4,s0
	j	.L21
.LVL46:
.L20:
	.loc 1 201 3 is_stmt 1
	.loc 1 201 29 is_stmt 0
	srli	a5,s6,1
	.loc 1 201 6
	mv	s3,s1
	mula	s3,a5,s0
.LVL47:
	.loc 1 202 3 is_stmt 1
	.loc 1 205 33 is_stmt 0
	addi	a4,s6,-1
	.loc 1 205 10
	mv	s10,s1
	.loc 1 202 6
	li	a5,7
	.loc 1 205 10
	mula	s10,a4,s0
	.loc 1 202 6
	beq	s6,a5,.L29
	.loc 1 204 7 is_stmt 1
.LVL48:
	.loc 1 205 7
	.loc 1 206 7
	.loc 1 206 10 is_stmt 0
	li	a4,40
	bleu	s6,a4,.L64
	.loc 1 208 11 is_stmt 1
	.loc 1 208 20 is_stmt 0
	srli	s5,s6,3
	.loc 1 209 16
	mv	a3,s7
	mv	a0,s1
	.loc 1 208 25
	mul	s5,s5,s0
.LVL49:
	.loc 1 209 11 is_stmt 1
	.loc 1 209 40 is_stmt 0
	slli	s9,s5,1
	.loc 1 209 16
	add	a2,s1,s9
	add	a1,s1,s5
	call	med3
.LVL50:
	.loc 1 210 16
	add	a2,s3,s5
	mv	a1,s3
	mv	a3,s7
	.loc 1 209 16
	mv	s8,a0
.LVL51:
	.loc 1 210 11 is_stmt 1
	.loc 1 210 16 is_stmt 0
	sub	a0,s3,s5
.LVL52:
	call	med3
.LVL53:
	.loc 1 210 24
	neg	s11,s5
	.loc 1 211 16
	mv	a2,s10
	.loc 1 210 16
	mv	s3,a0
.LVL54:
	.loc 1 211 11 is_stmt 1
	.loc 1 211 16 is_stmt 0
	mv	a3,s7
	add	a1,s10,s11
	sub	a0,s10,s9
.LVL55:
	call	med3
.LVL56:
	mv	a2,a0
.LVL57:
.L30:
	.loc 1 214 7 is_stmt 1
	.loc 1 214 12 is_stmt 0
	mv	a1,s3
	mv	a3,s7
	mv	a0,s8
	call	med3
.LVL58:
	mv	s3,a0
.LVL59:
.L29:
	.loc 1 217 3 is_stmt 1
	.loc 1 217 6 is_stmt 0
	bne	s2,zero,.L31
.LBB24:
	.loc 1 217 24 is_stmt 1 discriminator 1
	.loc 1 217 68 is_stmt 0 discriminator 1
	lw	a3,0(s3)
	.loc 1 217 29 discriminator 1
	lw	a4,0(s1)
.LVL60:
	.loc 1 217 50 is_stmt 1 discriminator 1
	.loc 1 217 66 is_stmt 0 discriminator 1
	sw	a3,0(s1)
	.loc 1 217 83 is_stmt 1 discriminator 1
	.loc 1 217 97 is_stmt 0 discriminator 1
	sw	a4,0(s3)
.LVL61:
.L32:
.LBE24:
	.loc 1 217 149 is_stmt 1 discriminator 4
	.loc 1 218 3 discriminator 4
	.loc 1 220 3 discriminator 4
	mv	s11,s4
	.loc 1 220 11 is_stmt 0 discriminator 4
	mv	s3,s10
.LVL62:
	.loc 1 218 11 discriminator 4
	mv	s5,s4
	.loc 1 182 12 discriminator 4
	li	s9,0
.LVL63:
.L33:
	.loc 1 223 13 is_stmt 1
	bgtu	s11,s10,.L37
	.loc 1 223 31 is_stmt 0 discriminator 1
	mv	a1,s1
	mv	a0,s11
	jalr	s7
.LVL64:
	.loc 1 223 23 discriminator 1
	bgt	a0,zero,.L39
	.loc 1 225 11 is_stmt 1
	.loc 1 225 14 is_stmt 0
	bne	a0,zero,.L48
	.loc 1 227 15 is_stmt 1
.LVL65:
	.loc 1 228 15
	.loc 1 228 18 is_stmt 0
	bne	s2,zero,.L35
.LBB25:
	.loc 1 228 36 is_stmt 1 discriminator 1
	.loc 1 228 76 is_stmt 0 discriminator 1
	lw	a2,0(s11)
	.loc 1 228 41 discriminator 1
	lw	a3,0(s5)
.LVL66:
	.loc 1 228 60 is_stmt 1 discriminator 1
	.loc 1 228 74 is_stmt 0 discriminator 1
	sw	a2,0(s5)
	.loc 1 228 91 is_stmt 1 discriminator 1
	.loc 1 228 105 is_stmt 0 discriminator 1
	sw	a3,0(s11)
.LVL67:
.L36:
.LBE25:
	.loc 1 228 155 is_stmt 1 discriminator 4
	.loc 1 229 15 discriminator 4
	.loc 1 229 18 is_stmt 0 discriminator 4
	add	s5,s5,s0
.LVL68:
.L73:
	.loc 1 227 24 discriminator 4
	li	s9,1
	.loc 1 232 11 is_stmt 1 discriminator 4
.LVL69:
.L48:
	add	s11,s11,s0
	j	.L33
.LVL70:
.L64:
	.loc 1 205 10 is_stmt 0
	mv	a2,s10
	mv	s8,s1
	j	.L30
.LVL71:
.L31:
	.loc 1 217 111 is_stmt 1 discriminator 2
	mv	a3,s2
	mv	a2,s0
	mv	a1,s3
	mv	a0,s1
	call	swapfunc
.LVL72:
	j	.L32
.LVL73:
.L35:
	.loc 1 228 119 discriminator 2
	mv	a3,s2
	mv	a2,s0
	mv	a1,s11
	mv	a0,s5
.LVL74:
	call	swapfunc
.LVL75:
	j	.L36
.LVL76:
.L45:
	.loc 1 237 11
	.loc 1 237 14 is_stmt 0
	bne	a0,zero,.L40
	.loc 1 239 15 is_stmt 1
.LVL77:
	.loc 1 240 15
	.loc 1 240 18 is_stmt 0
	bne	s2,zero,.L41
.LBB26:
	.loc 1 240 36 is_stmt 1 discriminator 1
	.loc 1 240 76 is_stmt 0 discriminator 1
	lw	a2,0(s3)
	.loc 1 240 41 discriminator 1
	lw	a3,0(s10)
.LVL78:
	.loc 1 240 60 is_stmt 1 discriminator 1
	.loc 1 240 74 is_stmt 0 discriminator 1
	sw	a2,0(s10)
	.loc 1 240 91 is_stmt 1 discriminator 1
	.loc 1 240 105 is_stmt 0 discriminator 1
	sw	a3,0(s3)
.LVL79:
.L42:
.LBE26:
	.loc 1 240 155 is_stmt 1 discriminator 4
	.loc 1 241 15 discriminator 4
	.loc 1 241 18 is_stmt 0 discriminator 4
	sub	s3,s3,s0
.LVL80:
	.loc 1 239 24 discriminator 4
	li	s9,1
.LVL81:
.L40:
	.loc 1 244 11 is_stmt 1
	.loc 1 244 14 is_stmt 0
	mv	s10,s8
.LVL82:
	.loc 1 235 13 is_stmt 1
	bgeu	s8,s11,.L39
.LVL83:
.L37:
	.loc 1 247 7
	.loc 1 258 3
	.loc 1 187 31 is_stmt 0
	mv	s8,s1
	mula	s8,s6,s0
	.loc 1 258 6
	bne	s9,zero,.L69
.LVL84:
.L43:
	.loc 1 263 12 is_stmt 1 discriminator 1
	.loc 1 262 7 is_stmt 0 discriminator 1
	bleu	s8,s4,.L17
	mv	s3,s4
	j	.L54
.LVL85:
.L41:
	.loc 1 240 119 is_stmt 1 discriminator 2
	mv	a3,s2
	mv	a2,s0
	mv	a1,s3
	mv	a0,s10
.LVL86:
	call	swapfunc
.LVL87:
	j	.L42
.LVL88:
.L39:
	.loc 1 235 31 is_stmt 0 discriminator 1
	mv	a1,s1
	mv	a0,s10
	jalr	s7
.LVL89:
	sub	s8,s10,s0
	.loc 1 235 23 discriminator 1
	bge	a0,zero,.L45
	.loc 1 247 7 is_stmt 1
	.loc 1 252 7
	.loc 1 252 10 is_stmt 0
	beq	s2,zero,.L60
	.loc 1 252 111 is_stmt 1 discriminator 2
	mv	a3,s2
	mv	a2,s0
	mv	a1,s10
	mv	a0,s11
.LVL90:
	call	swapfunc
.LVL91:
	j	.L47
.LVL92:
.L60:
.LBB27:
	.loc 1 252 28 discriminator 1
	.loc 1 252 68 is_stmt 0 discriminator 1
	lw	a2,0(s10)
	.loc 1 252 33 discriminator 1
	lw	a3,0(s11)
.LVL93:
	.loc 1 252 52 is_stmt 1 discriminator 1
	.loc 1 252 66 is_stmt 0 discriminator 1
	sw	a2,0(s11)
	.loc 1 252 83 is_stmt 1 discriminator 1
	.loc 1 252 97 is_stmt 0 discriminator 1
	sw	a3,0(s10)
.LVL94:
.L47:
.LBE27:
	.loc 1 252 147 is_stmt 1 discriminator 4
	.loc 1 253 7 discriminator 4
	.loc 1 254 7 discriminator 4
	.loc 1 255 7 discriminator 4
	.loc 1 255 10 is_stmt 0 discriminator 4
	mv	s10,s8
.LVL95:
	.loc 1 221 10 is_stmt 1 discriminator 4
	j	.L73
.LVL96:
.L49:
	.loc 1 270 135 discriminator 2
	mv	a3,s2
	mv	a2,s0
	mv	a1,s5
	mv	a0,s3
	call	swapfunc
.LVL97:
	j	.L50
.L51:
	.loc 1 267 48 is_stmt 0
	sub	s5,s3,s0
	.loc 1 267 38
	mv	a1,s3
	mv	a0,s5
	jalr	s7
.LVL98:
	.loc 1 267 35
	ble	a0,zero,.L53
	.loc 1 270 15 is_stmt 1
	.loc 1 270 18 is_stmt 0
	bne	s2,zero,.L49
.LBB28:
	.loc 1 270 36 is_stmt 1 discriminator 1
	.loc 1 270 76 is_stmt 0 discriminator 1
	lw	a4,0(s5)
	.loc 1 270 41 discriminator 1
	lw	a5,0(s3)
.LVL99:
	.loc 1 270 60 is_stmt 1 discriminator 1
	.loc 1 270 74 is_stmt 0 discriminator 1
	sw	a4,0(s3)
	.loc 1 270 99 is_stmt 1 discriminator 1
	.loc 1 270 121 is_stmt 0 discriminator 1
	sw	a5,0(s5)
.LVL100:
.L50:
.LBE28:
	.loc 1 267 48 discriminator 1
	mv	s3,s5
.LVL101:
.L54:
	.loc 1 267 16 is_stmt 1 discriminator 1
	.loc 1 266 11 is_stmt 0 discriminator 1
	bltu	s1,s3,.L51
.L53:
	.loc 1 264 12 is_stmt 1
	.loc 1 264 15 is_stmt 0
	add	s4,s4,s0
.LVL102:
	j	.L43
.LVL103:
.L69:
	.loc 1 277 3 is_stmt 1
	.loc 1 278 3
	.loc 1 278 34 is_stmt 0
	sub	s4,s11,s5
	.loc 1 278 11
	sub	a2,s5,s1
	.loc 1 278 5
	sgt	a3,a2,s4
	mvnez	a2, s4, a3
.LVL104:
	.loc 1 279 3 is_stmt 1
	.loc 1 279 6 is_stmt 0
	ble	a2,zero,.L56
	.loc 1 279 16 is_stmt 1 discriminator 1
	mv	a3,s2
	sub	a1,s11,a2
	mv	a0,s1
	call	swapfunc
.LVL105:
.L56:
	.loc 1 281 3
	.loc 1 281 23 is_stmt 0
	sub	a2,s8,s3
	.loc 1 281 11
	sub	s6,s3,s10
.LVL106:
	.loc 1 281 28
	sub	a2,a2,s0
	.loc 1 281 47
	sgtu	a5,a2,s6
	mvnez	a2, s6, a5
.LVL107:
	.loc 1 282 3 is_stmt 1
	.loc 1 282 6 is_stmt 0
	ble	a2,zero,.L58
	.loc 1 282 16 is_stmt 1 discriminator 1
	mv	a3,s2
	sub	a1,s8,a2
	mv	a0,s11
	call	swapfunc
.LVL108:
.L58:
	.loc 1 284 3
	.loc 1 284 6 is_stmt 0
	bleu	s4,s0,.L59
	.loc 1 286 7 is_stmt 1
	divu	a1,s4,s0
	mv	a3,s7
	mv	a2,s0
	mv	a0,s1
	call	qsort
.LVL109:
.L59:
	.loc 1 289 3
	.loc 1 289 6 is_stmt 0
	bleu	s6,s0,.L17
	.loc 1 293 7 is_stmt 1
	.loc 1 293 12 is_stmt 0
	sub	s1,s8,s6
.LVL110:
	.loc 1 294 7 is_stmt 1
	.loc 1 294 11 is_stmt 0
	divu	s6,s6,s0
.LVL111:
	.loc 1 295 7 is_stmt 1
	j	.L18
	.cfi_endproc
.LFE6:
	.size	qsort, .-qsort
	.text
.Letext0:
	.file 2 "./toolchain/linux_x86_64/lib/gcc/riscv64-unknown-elf/10.4.0/include/stddef.h"
	.file 3 "./toolchain/linux_x86_64/riscv64-unknown-elf/include/stdlib.h"