	.file	"lib_strtokr.c"
	.option nopic
	.attribute arch, "rv32i2p0_m2p0_a2p0_f2p0_c2p0_p0p9_zpn0p9_zpsfoperand0p9_xtheade2p0"
	.attribute unaligned_access, 0
	.attribute stack_align, 16
	.text
.Ltext0:
	.cfi_sections	.debug_frame
	.section	.text.strtok_r,"ax",@progbits
	.align	1
	.globl	strtok_r
	.type	strtok_r, @function
strtok_r:
.LFB4:
	.file 1 "./components/libc/nuttx/libc/string/lib_strtokr.c"
	.loc 1 81 1
	.cfi_startproc
.LVL0:
	.loc 1 82 3
	.loc 1 83 3
	.loc 1 89 3
	.loc 1 81 1 is_stmt 0
	addi	sp,sp,-32
	.cfi_def_cfa_offset 32
	sw	s2,16(sp)
	sw	s3,12(sp)
	sw	ra,28(sp)
	sw	s0,24(sp)
	sw	s1,20(sp)
	.cfi_offset 18, -16
	.cfi_offset 19, -20
	.cfi_offset 1, -4
	.cfi_offset 8, -8
	.cfi_offset 9, -12
	.loc 1 81 1
	mv	s3,a1
	mv	s2,a2
	.loc 1 89 6
	bne	a0,zero,.L2
	.loc 1 93 8 is_stmt 1
	.loc 1 93 11 is_stmt 0
	bne	a2,zero,.L3
.LVL1:
.L5:
	.loc 1 99 13
	li	s0,0
.LVL2:
.L1:
	.loc 1 144 1
	lw	ra,28(sp)
	.cfi_remember_state
	.cfi_restore 1
	mv	a0,s0
	lw	s0,24(sp)
	.cfi_restore 8
	lw	s1,20(sp)
	.cfi_restore 9
	lw	s2,16(sp)
	.cfi_restore 18
.LVL3:
	lw	s3,12(sp)
	.cfi_restore 19
.LVL4:
	addi	sp,sp,32
	.cfi_def_cfa_offset 0
	jr	ra
.LVL5:
.L3:
	.cfi_restore_state
	.loc 1 93 23 discriminator 1
	lw	a0,0(a2)
.LVL6:
	.loc 1 93 20 discriminator 1
	beq	a0,zero,.L5
.L2:
	.loc 1 81 1
	mv	s0,a0
.LVL7:
.L6:
	.loc 1 105 8 is_stmt 1
	lbu	a1,0(s0)
	.loc 1 104 3 is_stmt 0
	beq	a1,zero,.L5
	.loc 1 105 19
	mv	a0,s3
	call	strchr
.LVL8:
	.loc 1 105 16
	bne	a0,zero,.L7
	.loc 1 112 3 is_stmt 1
	.loc 1 112 6 is_stmt 0
	lbu	a5,0(s0)
	.loc 1 119 13
	addi	s1,s0,1
	.loc 1 112 6
	beq	a5,zero,.L5
.LVL9:
.L8:
	.loc 1 120 8 is_stmt 1 discriminator 1
	lbu	a1,0(s1)
	.loc 1 119 3 is_stmt 0 discriminator 1
	beq	a1,zero,.L9
	.loc 1 120 17
	mv	a0,s3
	call	strchr
.LVL10:
	.loc 1 120 14
	beq	a0,zero,.L10
	.loc 1 127 3 is_stmt 1
	.loc 1 127 6 is_stmt 0
	lbu	a5,0(s1)
	beq	a5,zero,.L9
	.loc 1 131 7 is_stmt 1
.LVL11:
	.loc 1 131 15 is_stmt 0
	sbia	zero,(s1),1,0
.LVL12:
.L9:
	.loc 1 138 3 is_stmt 1
	.loc 1 138 6 is_stmt 0
	beq	s2,zero,.L1
	.loc 1 140 7 is_stmt 1
	.loc 1 140 16 is_stmt 0
	sw	s1,0(s2)
	j	.L1
.LVL13:
.L7:
	.loc 1 106 17 is_stmt 1
	.loc 1 106 8
	.loc 1 106 14 is_stmt 0
	addi	s0,s0,1
.LVL14:
	j	.L6
.LVL15:
.L10:
	.loc 1 121 15 is_stmt 1
	.loc 1 121 8
	.loc 1 121 12 is_stmt 0
	addi	s1,s1,1
.LVL16:
	j	.L8
	.cfi_endproc
.LFE4:
	.size	strtok_r, .-strtok_r
	.text
.Letext0:
	.file 2 "./toolchain/linux_x86_64/riscv64-unknown-elf/include/string.h"