	.file	"qcc743_pm.c"
	.option nopic
	.attribute arch, "rv32i2p0_m2p0_a2p0_f2p0_c2p0_p0p9_zpn0p9_zpsfoperand0p9_xtheade2p0"
	.attribute unaligned_access, 0
	.attribute stack_align, 16
	.text
.Ltext0:
	.cfi_sections	.debug_frame
	.section	.tcm_code../drivers/soc/qcc743/std/src/qcc743_pm.c1147,"ax",@progbits
	.align	1
	.globl	PDS_WAKEUP_IRQ
	.type	PDS_WAKEUP_IRQ, @function
PDS_WAKEUP_IRQ:
.LFB263:
	.file 1 "./drivers/soc/qcc743/std/src/qcc743_pm.c"
	.loc 1 1148 1
	.cfi_startproc
	.loc 1 1150 5
	.loc 1 1148 1 is_stmt 0
	addi	sp,sp,-16
	.cfi_def_cfa_offset 16
	.loc 1 1150 16
	li	a0,0
	.loc 1 1148 1
	sw	s0,8(sp)
	sw	ra,12(sp)
	.cfi_offset 8, -8
	.cfi_offset 1, -4
	.loc 1 1150 8
	li	s0,1
	.loc 1 1150 16
	call	PDS_Get_IntStatus
.LVL0:
	.loc 1 1150 8
	beq	a0,s0,.L3
	.loc 1 1153 10 is_stmt 1
	.loc 1 1153 21 is_stmt 0
	li	a0,1
	call	PDS_Get_IntStatus
.LVL1:
	.loc 1 1153 13
	beq	a0,s0,.L3
	.loc 1 1156 10 is_stmt 1
	.loc 1 1156 21 is_stmt 0
	li	a0,2
	call	PDS_Get_IntStatus
.LVL2:
	.loc 1 1156 13
	beq	a0,s0,.L3
	.loc 1 1159 10 is_stmt 1
	.loc 1 1159 21 is_stmt 0
	li	a0,3
	call	PDS_Get_IntStatus
.LVL3:
.L3:
	.loc 1 1161 5 is_stmt 1
	.loc 1 1163 5
	.loc 1 1164 1 is_stmt 0
	lw	s0,8(sp)
	.cfi_restore 8
	lw	ra,12(sp)
	.cfi_restore 1
	addi	sp,sp,16
	.cfi_def_cfa_offset 0
	.loc 1 1163 5
	tail	PDS_IntClear
.LVL4:
	.cfi_endproc
.LFE263:
	.size	PDS_WAKEUP_IRQ, .-PDS_WAKEUP_IRQ
	.section	.tcm_code../drivers/soc/qcc743/std/src/qcc743_pm.c508,"ax",@progbits
	.align	1
	.globl	AON_Set_LDO11_SOC_Sstart_Delay
	.type	AON_Set_LDO11_SOC_Sstart_Delay, @function
AON_Set_LDO11_SOC_Sstart_Delay:
.LFB243:
	.loc 1 509 1 is_stmt 1
	.cfi_startproc
.LVL5:
	.loc 1 510 5
	.loc 1 512 5
	.loc 1 515 5
	.loc 1 515 12 is_stmt 0
	li	a3,536936448
	lw	a5,-2028(a3)
.LVL6:
	.loc 1 516 5 is_stmt 1
	.loc 1 516 24 is_stmt 0
	li	a4,-805306368
	addi	a4,a4,-1
	and	a5,a5,a4
.LVL7:
	.loc 1 516 80
	slli	a0,a0,28
.LVL8:
	.loc 1 516 12
	or	a0,a0,a5
.LVL9:
	.loc 1 517 5 is_stmt 1
	.loc 1 517 76 is_stmt 0
	sw	a0,-2028(a3)
	.loc 1 519 5 is_stmt 1
	.loc 1 520 1 is_stmt 0
	li	a0,0
.LVL10:
	ret
	.cfi_endproc
.LFE243:
	.size	AON_Set_LDO11_SOC_Sstart_Delay, .-AON_Set_LDO11_SOC_Sstart_Delay
	.section	.text.pm_pds_wakeup_src_en,"ax",@progbits
	.align	1
	.globl	pm_pds_wakeup_src_en
	.type	pm_pds_wakeup_src_en, @function
pm_pds_wakeup_src_en:
.LFB244:
	.loc 1 523 1 is_stmt 1
	.cfi_startproc
.LVL11:
	.loc 1 524 5
	.loc 1 524 30 is_stmt 0
	addi	a4,a0,-10
	.loc 1 524 8
	li	a5,9
	bgtu	a4,a5,.L9
	.loc 1 528 5 is_stmt 1
.LVL12:
	.loc 1 530 5
	.loc 1 530 12 is_stmt 0
	li	a4,536928256
	lw	a3,12(a4)
.LVL13:
	.loc 1 531 5 is_stmt 1
	.loc 1 531 28 is_stmt 0
	li	a5,1
	sll	a5,a5,a0
	.loc 1 531 12
	or	a5,a5,a3
.LVL14:
	.loc 1 532 5 is_stmt 1
	.loc 1 532 74 is_stmt 0
	sw	a5,12(a4)
	.loc 1 534 5 is_stmt 1
	.loc 1 534 12 is_stmt 0
	li	a0,0
.LVL15:
	ret
.LVL16:
.L9:
	.loc 1 525 16
	li	a0,3
.LVL17:
	.loc 1 535 1
	ret
	.cfi_endproc
.LFE244:
	.size	pm_pds_wakeup_src_en, .-pm_pds_wakeup_src_en
	.section	.text.pm_pds_get_wakeup_src,"ax",@progbits
	.align	1
	.globl	pm_pds_get_wakeup_src
	.type	pm_pds_get_wakeup_src, @function
pm_pds_get_wakeup_src:
.LFB245:
	.loc 1 538 1 is_stmt 1
	.cfi_startproc
.LVL18:
	.loc 1 539 5
	.loc 1 539 30 is_stmt 0
	addi	a5,a0,-10
	.loc 1 539 8
	li	a4,9
	bgtu	a5,a4,.L12
	.loc 1 543 5 is_stmt 1
.LVL19:
	.loc 1 545 5
	.loc 1 545 12 is_stmt 0
	li	a4,536928256
	lw	a0,12(a4)
.LVL20:
	.loc 1 546 5 is_stmt 1
	.loc 1 547 5
	.loc 1 549 5
	.loc 1 547 28 is_stmt 0
	li	a4,1
	sll	a5,a4,a5
.LVL21:
	.loc 1 546 57
	srli	a0,a0,21
.LVL22:
	.loc 1 549 25
	and	a0,a0,a5
	snez	a0,a0
	ret
.LVL23:
.L12:
	.loc 1 540 16
	li	a0,3
.LVL24:
	.loc 1 550 1
	ret
	.cfi_endproc
.LFE245:
	.size	pm_pds_get_wakeup_src, .-pm_pds_get_wakeup_src
	.section	.text.pm_pds_mask_all_wakeup_src,"ax",@progbits
	.align	1
	.globl	pm_pds_mask_all_wakeup_src
	.type	pm_pds_mask_all_wakeup_src, @function
pm_pds_mask_all_wakeup_src:
.LFB246:
	.loc 1 553 1 is_stmt 1
	.cfi_startproc
	.loc 1 554 5
	.loc 1 556 5
	.loc 1 556 12 is_stmt 0
	li	a5,536928256
	lw	a4,12(a5)
.LVL25:
	.loc 1 557 5 is_stmt 1
	.loc 1 557 12 is_stmt 0
	li	a3,-1048576
	addi	a3,a3,1023
	and	a4,a4,a3
.LVL26:
	.loc 1 558 5 is_stmt 1
	.loc 1 558 74 is_stmt 0
	sw	a4,12(a5)
	.loc 1 560 5 is_stmt 1
	.loc 1 560 12 is_stmt 0
	lw	a4,12(a5)
.LVL27:
	.loc 1 561 5 is_stmt 1
	.loc 1 561 12 is_stmt 0
	ori	a4,a4,32
.LVL28:
	.loc 1 562 5 is_stmt 1
	.loc 1 562 74 is_stmt 0
	sw	a4,12(a5)
	.loc 1 564 5 is_stmt 1
	.loc 1 564 12 is_stmt 0
	lw	a4,12(a5)
.LVL29:
	.loc 1 565 5 is_stmt 1
	.loc 1 565 12 is_stmt 0
	ori	a4,a4,64
.LVL30:
	.loc 1 566 5 is_stmt 1
	.loc 1 566 74 is_stmt 0
	sw	a4,12(a5)
	.loc 1 568 5 is_stmt 1
	.loc 1 568 12 is_stmt 0
	lw	a4,12(a5)
.LVL31:
	.loc 1 569 5 is_stmt 1
	.loc 1 569 12 is_stmt 0
	ori	a4,a4,128
.LVL32:
	.loc 1 570 5 is_stmt 1
	.loc 1 570 74 is_stmt 0
	sw	a4,12(a5)
	.loc 1 571 1
	ret
	.cfi_endproc
.LFE246:
	.size	pm_pds_mask_all_wakeup_src, .-pm_pds_mask_all_wakeup_src
	.section	.tcm_code../drivers/soc/qcc743/std/src/qcc743_pm.c595,"ax",@progbits
	.align	1
	.globl	pm_pds_mode_enter
	.type	pm_pds_mode_enter, @function
pm_pds_mode_enter:
.LFB248:
	.loc 1 597 1 is_stmt 1
	.cfi_startproc
.LVL33:
	.loc 1 598 5
	.loc 1 599 5
	.loc 1 600 5
	.loc 1 601 5
	.loc 1 597 1 is_stmt 0
	addi	sp,sp,-64
	.cfi_def_cfa_offset 64
.LVL34:
	.loc 1 603 5 is_stmt 1
	.loc 1 597 1 is_stmt 0
	sw	ra,60(sp)
	sw	s0,56(sp)
	sw	s1,52(sp)
	sw	s2,48(sp)
	sw	s3,44(sp)
	sw	s4,40(sp)
	sw	s5,36(sp)
	.cfi_offset 1, -4
	.cfi_offset 8, -8
	.cfi_offset 9, -12
	.cfi_offset 18, -16
	.cfi_offset 19, -20
	.cfi_offset 20, -24
	.cfi_offset 21, -28
	.loc 1 603 13
	sb	zero,11(sp)
	.loc 1 605 5 is_stmt 1
	.loc 1 605 27 is_stmt 0
	addi	a4,a1,-1
	.loc 1 605 8
	li	a5,37
	bleu	a4,a5,.L14
	mv	s4,a1
	mv	s1,a0
	.loc 1 610 5 is_stmt 1
 #APP
# 610 "/home/sai/QCCSDK-QCC74x/drivers/soc/qcc743/std/src/qcc743_pm.c" 1
	csrc mstatus, 8
# 0 "" 2
	.loc 1 614 5
	.loc 1 614 12 is_stmt 0
 #NO_APP
	li	a4,536936448
	lw	a5,-1780(a4)
.LVL35:
	.loc 1 615 5 is_stmt 1
	.loc 1 619 5 is_stmt 0
	addi	a0,sp,11
.LVL36:
	.loc 1 615 12
	andi	a5,a5,-2
.LVL37:
	.loc 1 616 5 is_stmt 1
	.loc 1 616 76 is_stmt 0
	sw	a5,-1780(a4)
	.loc 1 619 5 is_stmt 1
	call	HBN_Get_Xtal_Type
.LVL38:
	.loc 1 629 5
	.loc 1 629 12 is_stmt 0
	li	a5,536928256
	lw	a4,12(a5)
.LVL39:
	.loc 1 631 5 is_stmt 1
	.loc 1 631 8 is_stmt 0
	beq	s4,zero,.L16
	.loc 1 632 9 is_stmt 1
	.loc 1 632 16 is_stmt 0
	ori	a4,a4,1024
.LVL40:
.L16:
	.loc 1 633 5 is_stmt 1
	.loc 1 633 74 is_stmt 0
	li	a5,536928256
	sw	a4,12(a5)
	.loc 1 636 5 is_stmt 1
.LBB14:
.LBB15:
	.loc 1 575 5
.LBB16:
.LBB17:
	.loc 1 485 5
.LVL41:
	.loc 1 486 5
	.loc 1 486 12 is_stmt 0
	lw	a4,64(a5)
.LVL42:
	.loc 1 488 5 is_stmt 1
	.loc 1 490 5
	.loc 1 492 5
	.loc 1 494 5
	.loc 1 494 12 is_stmt 0
	li	a3,-67371008
	addi	a3,a3,-1029
	and	a4,a4,a3
.LVL43:
	.loc 1 496 5 is_stmt 1
	.loc 1 496 75 is_stmt 0
	sw	a4,64(a5)
.LVL44:
	.loc 1 497 5 is_stmt 1
.LBE17:
.LBE16:
	.loc 1 576 5
	call	PDS_IntClear
.LVL45:
.LBE15:
.LBE14:
	.loc 1 643 5
	li	a5,3
	beq	s1,a5,.L27
	bgtu	s1,a5,.L18
	li	a5,1
	beq	s1,a5,.L28
	li	a5,2
	beq	s1,a5,.L29
.LVL46:
.L14:
	.loc 1 789 1 is_stmt 0
	lw	ra,60(sp)
	.cfi_remember_state
	.cfi_restore 1
	lw	s0,56(sp)
	.cfi_restore 8
	lw	s1,52(sp)
	.cfi_restore 9
	lw	s2,48(sp)
	.cfi_restore 18
	lw	s3,44(sp)
	.cfi_restore 19
	lw	s4,40(sp)
	.cfi_restore 20
	lw	s5,36(sp)
	.cfi_restore 21
	addi	sp,sp,64
	.cfi_def_cfa_offset 0
.LVL47:
	jr	ra
.LVL48:
.L18:
	.cfi_restore_state
	.loc 1 643 5
	li	a5,7
	beq	s1,a5,.L30
	li	a5,15
	bne	s1,a5,.L14
	.loc 1 657 21
	lui	s0,%hi(.LANCHOR4)
	addi	s0,s0,%lo(.LANCHOR4)
.L17:
.LVL49:
	.loc 1 664 5 is_stmt 1
	.loc 1 665 5
	.loc 1 669 5
	.loc 1 673 5 is_stmt 0
	lui	s2,%hi(.LANCHOR5)
	.loc 1 669 12
	li	a5,537223168
	.loc 1 673 5
	addi	a0,s2,%lo(.LANCHOR5)
	addi	a1,sp,12
	.loc 1 669 12
	lw	s3,92(a5)
.LVL50:
	.loc 1 671 5 is_stmt 1
	.loc 1 673 5 is_stmt 0
	addi	s5,s2,%lo(.LANCHOR5)
	call	qcc74x_flash_get_cfg
.LVL51:
	.loc 1 675 5
	lw	a0,0(s5)
	.loc 1 671 29
	srli	s3,s3,14
.LVL52:
	.loc 1 673 5 is_stmt 1
	.loc 1 675 5
	addi	s2,s2,%lo(.LANCHOR5)
	call	HBN_Power_Down_Flash
.LVL53:
	.loc 1 677 5
	.loc 1 677 23 is_stmt 0
	andi	a5,s3,4
	.loc 1 677 8
	beq	a5,zero,.L19
.LVL54:
.LBB18:
	.loc 1 678 29 is_stmt 1
	.loc 1 679 13
	.loc 1 679 58 is_stmt 0
	li	a5,536875008
	sw	zero,-1836(a5)
	.loc 1 678 37 is_stmt 1
.LVL55:
	.loc 1 678 29
	.loc 1 679 13
	.loc 1 679 58 is_stmt 0
	sw	zero,-1832(a5)
	.loc 1 678 37 is_stmt 1
.LVL56:
	.loc 1 678 29
	.loc 1 679 13
	.loc 1 679 58 is_stmt 0
	sw	zero,-1828(a5)
	.loc 1 678 37 is_stmt 1
.LVL57:
	.loc 1 678 29
	.loc 1 679 13
	.loc 1 679 58 is_stmt 0
	sw	zero,-1824(a5)
	.loc 1 678 37 is_stmt 1
.LVL58:
	.loc 1 678 29
	.loc 1 679 13
	.loc 1 679 58 is_stmt 0
	sw	zero,-1820(a5)
	.loc 1 678 37 is_stmt 1
.LVL59:
	.loc 1 678 29
	.loc 1 679 13
	.loc 1 679 58 is_stmt 0
	sw	zero,-1816(a5)
	.loc 1 678 37 is_stmt 1
.LVL60:
	.loc 1 678 29
.L20:
.LBE18:
	.loc 1 686 5
	.loc 1 707 5
	call	PDS_Pu_PLL_Enable
.LVL61:
	.loc 1 708 5
	li	a0,0
	call	GLB_Set_MCU_System_CLK
.LVL62:
	.loc 1 709 5
	call	GLB_Power_Off_AUPLL
.LVL63:
	.loc 1 710 5
	call	GLB_Power_Off_WIFIPLL
.LVL64:
	.loc 1 718 5
	.loc 1 718 15 is_stmt 0
	li	a5,536928256
	lw	a5,48(a5)
	.loc 1 718 8
	beq	a5,zero,.L21
	.loc 1 719 9 is_stmt 1
	.loc 1 719 40 is_stmt 0
	lw	a5,0(s0)
	ori	a5,a5,64
	sw	a5,0(s0)
.L21:
	.loc 1 722 5 is_stmt 1
	.loc 1 722 12 is_stmt 0
	li	a5,536928256
	lw	a5,12(a5)
.LVL65:
	.loc 1 724 5 is_stmt 1
	.loc 1 724 20 is_stmt 0
	li	a4,16384
	and	a5,a5,a4
.LVL66:
	.loc 1 724 8
	beq	a5,zero,.L22
	.loc 1 726 9 is_stmt 1
	li	a0,1
	call	GLB_Set_MCU_System_CLK
.LVL67:
	.loc 1 727 9
	.loc 1 727 33 is_stmt 0
	lw	a5,0(s0)
	li	a4,-16384
	addi	a4,a4,-1
	and	a5,a5,a4
	sw	a5,0(s0)
.L22:
	.loc 1 734 5 is_stmt 1
	li	a0,2
	call	AON_Set_LDO11_SOC_Sstart_Delay
.LVL68:
	.loc 1 736 5
	.loc 1 736 19 is_stmt 0
	li	a4,536928256
	lw	a2,32(a4)
	.loc 1 742 38
	li	a1,-2147483648
	.loc 1 736 16
	sw	a2,16(sp)
	.loc 1 737 5 is_stmt 1
	.loc 1 737 19 is_stmt 0
	lw	a5,40(a4)
	.loc 1 742 38
	or	a2,a2,a1
	.loc 1 737 16
	sw	a5,20(sp)
	.loc 1 738 5 is_stmt 1
	.loc 1 738 19 is_stmt 0
	lw	a3,72(a4)
	.loc 1 738 16
	sw	a3,24(sp)
	.loc 1 739 5 is_stmt 1
	.loc 1 739 19 is_stmt 0
	lw	a4,76(a4)
	.loc 1 742 5 is_stmt 1
	.loc 1 742 38 is_stmt 0
	sw	a2,16(sp)
	.loc 1 744 5 is_stmt 1
	.loc 1 744 8 is_stmt 0
	li	a2,15
	bne	s1,a2,.L23
	.loc 1 746 9 is_stmt 1
	.loc 1 748 9
	.loc 1 751 9
	.loc 1 753 9
	.loc 1 746 40 is_stmt 0
	li	a1,-1048576
	li	a2,1048576
	addi	a0,a2,-1024
	and	a5,a1,a5
	.loc 1 753 45
	addi	a2,a2,-1
	.loc 1 746 40
	or	a5,a5,a0
	.loc 1 753 45
	or	a3,a3,a2
	.loc 1 746 40
	sw	a5,20(sp)
	.loc 1 753 45
	sw	a3,24(sp)
	.loc 1 751 45
	and	a4,a4,a1
.L44:
	.loc 1 761 5
	addi	a3,sp,28
.LVL69:
	addi	a2,sp,24
.LVL70:
	addi	a1,sp,20
.LVL71:
	addi	a0,sp,16
.LVL72:
	.loc 1 758 45
	sw	a4,28(sp)
	.loc 1 761 5 is_stmt 1
	call	PDS_RAM_Config
.LVL73:
	.loc 1 765 5
	mv	a1,s4
	mv	a0,s0
	call	PDS_Default_Level_Config
.LVL74:
	.loc 1 767 5
.LBB19:
.LBB20:
	.file 2 "./drivers/lhal/include/arch/risc-v/t-head/Core/Include/csi_rv32_gcc.h"
	.loc 2 1217 5
 #APP
# 1217 "/home/sai/QCCSDK-QCC74x/drivers/lhal/include/arch/risc-v/t-head/Core/Include/csi_rv32_gcc.h" 1
	wfi
# 0 "" 2
 #NO_APP
.LBE20:
.LBE19:
	.loc 1 771 5
	li	a1,1
	li	a0,4
	call	GLB_Power_On_XTAL_And_PLL_CLK
.LVL75:
	.loc 1 772 5
	li	a0,5
	call	GLB_Set_MCU_System_CLK
.LVL76:
	.loc 1 776 5
	.loc 1 776 8 is_stmt 0
	li	a5,1
	bgtu	s1,a5,.L25
	.loc 1 778 9 is_stmt 1
	li	a1,1
	andi	a0,s3,63
	call	qcc74x_sf_cfg_init_flash_gpio
.LVL77:
	.loc 1 780 9
	li	a0,0
	call	qcc74x_sf_ctrl_set_owner
.LVL78:
	.loc 1 781 9
	lw	a0,0(s2)
	li	a2,0
	li	a1,0
	call	qcc74x_sflash_restore_from_powerdown
.LVL79:
.L25:
	.loc 1 786 5
 #APP
# 786 "/home/sai/QCCSDK-QCC74x/drivers/soc/qcc743/std/src/qcc743_pm.c" 1
	csrs mstatus, 8
# 0 "" 2
 #NO_APP
	j	.L14
.LVL80:
.L27:
	.loc 1 651 21 is_stmt 0
	lui	s0,%hi(.LANCHOR2)
	addi	s0,s0,%lo(.LANCHOR2)
	j	.L17
.L28:
	.loc 1 643 5
	lui	s0,%hi(.LANCHOR3)
	addi	s0,s0,%lo(.LANCHOR3)
	j	.L17
.L29:
	.loc 1 648 21
	lui	s0,%hi(.LANCHOR0)
	addi	s0,s0,%lo(.LANCHOR0)
	j	.L17
.L30:
	.loc 1 654 21
	lui	s0,%hi(.LANCHOR1)
	addi	s0,s0,%lo(.LANCHOR1)
	j	.L17
.LVL81:
.L19:
	.loc 1 681 12 is_stmt 1
	.loc 1 681 30 is_stmt 0
	andi	a5,s3,8
	.loc 1 681 15
	beq	a5,zero,.L20
.LVL82:
.LBB21:
	.loc 1 682 30 is_stmt 1
	.loc 1 683 13
	.loc 1 683 58 is_stmt 0
	li	a5,536875008
	sw	zero,-1812(a5)
	.loc 1 682 38 is_stmt 1
.LVL83:
	.loc 1 682 30
	.loc 1 683 13
	.loc 1 683 58 is_stmt 0
	sw	zero,-1808(a5)
	.loc 1 682 38 is_stmt 1
.LVL84:
	.loc 1 682 30
	.loc 1 683 13
	.loc 1 683 58 is_stmt 0
	sw	zero,-1804(a5)
	.loc 1 682 38 is_stmt 1
.LVL85:
	.loc 1 682 30
	.loc 1 683 13
	.loc 1 683 58 is_stmt 0
	sw	zero,-1800(a5)
	.loc 1 682 38 is_stmt 1
.LVL86:
	.loc 1 682 30
	.loc 1 683 13
	.loc 1 683 58 is_stmt 0
	sw	zero,-1796(a5)
	.loc 1 682 38 is_stmt 1
.LVL87:
	.loc 1 682 30
	.loc 1 683 13
	.loc 1 683 58 is_stmt 0
	sw	zero,-1792(a5)
	.loc 1 682 38 is_stmt 1
.LVL88:
	.loc 1 682 30
	j	.L20
.LVL89:
.L23:
.LBE21:
	.loc 1 756 9
	.loc 1 756 40 is_stmt 0
	andi	a5,a5,-1024
	sw	a5,20(sp)
	.loc 1 758 9 is_stmt 1
	.loc 1 758 45 is_stmt 0
	li	a5,-1048576
	and	a4,a4,a5
	j	.L44
	.cfi_endproc
.LFE248:
	.size	pm_pds_mode_enter, .-pm_pds_mode_enter
	.section	.tcm_code../drivers/soc/qcc743/std/src/qcc743_pm.c804,"ax",@progbits
	.align	1
	.globl	pm_hbn_mode_enter
	.type	pm_hbn_mode_enter, @function
pm_hbn_mode_enter:
.LFB249:
	.loc 1 806 1 is_stmt 1
	.cfi_startproc
.LVL90:
	.loc 1 807 5
	.loc 1 810 5
	.loc 1 806 1 is_stmt 0
	addi	sp,sp,-48
	.cfi_def_cfa_offset 48
	sw	s0,40(sp)
	sw	ra,44(sp)
	sw	s1,36(sp)
	.cfi_offset 8, -8
	.cfi_offset 1, -4
	.cfi_offset 9, -12
	.loc 1 806 1
	mv	s0,a0
	sw	a1,12(sp)
	sw	a2,8(sp)
	.loc 1 810 5
 #APP
# 810 "/home/sai/QCCSDK-QCC74x/drivers/soc/qcc743/std/src/qcc743_pm.c" 1
	csrc mstatus, 8
# 0 "" 2
	.loc 1 814 5 is_stmt 1
	.loc 1 814 12 is_stmt 0
 #NO_APP
	li	a4,536936448
	lw	a5,-1780(a4)
.LVL91:
	.loc 1 815 5 is_stmt 1
	.loc 1 818 5 is_stmt 0
	li	a0,67
.LVL92:
	.loc 1 815 12
	andi	a5,a5,-2
.LVL93:
	.loc 1 816 5 is_stmt 1
	.loc 1 816 76 is_stmt 0
	sw	a5,-1780(a4)
	.loc 1 818 5 is_stmt 1
	call	qcc74x_irq_clear_pending
.LVL94:
	.loc 1 819 5
	li	a0,68
	call	qcc74x_irq_clear_pending
.LVL95:
	.loc 1 821 5
	.loc 1 824 8 is_stmt 0
	lw	a2,8(sp)
	lw	a1,12(sp)
	.loc 1 821 75
	li	a5,536932352
	li	a4,-1
	sw	a4,28(a5)
	.loc 1 822 5 is_stmt 1
	.loc 1 822 75 is_stmt 0
	sw	zero,28(a5)
	.loc 1 824 5 is_stmt 1
	.loc 1 824 8 is_stmt 0
	or	a5,a1,a2
	beq	a5,zero,.L46
.LBB22:
	.loc 1 825 9 is_stmt 1
.LVL96:
	.loc 1 826 9
	li	a0,0
	call	qcc74x_rtc_set_time
.LVL97:
.L48:
.LBE22:
	.loc 1 834 5
	.loc 1 834 8 is_stmt 0
	li	a5,1
	bleu	s0,a5,.L49
	.loc 1 835 9 is_stmt 1
	li	a0,0
	call	HBN_32K_Sel
.LVL98:
	.loc 1 837 9
	call	HBN_Power_Off_Xtal_32K
.LVL99:
	.loc 1 838 9
	call	HBN_Power_Off_RC32K
.LVL100:
.L50:
	.loc 1 844 5
	li	a0,0
	call	GLB_Set_MCU_System_CLK
.LVL101:
	.loc 1 847 5
	.loc 1 850 5
	lui	a0,%hi(.LANCHOR5)
	addi	s1,a0,%lo(.LANCHOR5)
	addi	a1,sp,28
	addi	a0,a0,%lo(.LANCHOR5)
	call	qcc74x_flash_get_cfg
.LVL102:
	.loc 1 852 5
	lw	a0,0(s1)
	call	HBN_Power_Down_Flash
.LVL103:
	.loc 1 856 5
	.loc 1 856 12 is_stmt 0
	li	a4,536932352
	lw	a5,0(a4)
	.loc 1 857 5 is_stmt 1
	.loc 1 858 5
	li	a3,-8355840
	addi	a3,a3,-1
	and	a5,a5,a3
	.loc 1 858 12 is_stmt 0
	li	a3,5570560
	or	a5,a5,a3
.LVL104:
	.loc 1 859 5 is_stmt 1
	.loc 1 859 74 is_stmt 0
	sw	a5,0(a4)
	.loc 1 862 5 is_stmt 1
	.loc 1 862 76 is_stmt 0
	li	a5,1312968704
.LVL105:
	addi	a5,a5,-1979
	sw	a5,256(a4)
.LVL106:
	.loc 1 864 5 is_stmt 1
	.loc 1 864 12 is_stmt 0
	lw	a5,0(a4)
.LVL107:
	.loc 1 867 5 is_stmt 1
	li	a4,1
	beq	s0,a4,.L51
	li	a4,2
	beq	s0,a4,.L52
	bne	s0,zero,.L53
	.loc 1 869 13
.LVL108:
	.loc 1 870 13
	.loc 1 870 20 is_stmt 0
	li	a4,-4096
	addi	a4,a4,1535
	and	a5,a5,a4
.LVL109:
	.loc 1 871 13 is_stmt 1
.L53:
	.loc 1 883 5
	.loc 1 883 12 is_stmt 0
	li	a4,-33554432
	addi	a4,a4,-1
	and	a5,a5,a4
.LVL110:
	.loc 1 884 5 is_stmt 1
	.loc 1 884 74 is_stmt 0
	li	a4,536932352
	sw	a5,0(a4)
	.loc 1 886 5 is_stmt 1
	.loc 1 886 75 is_stmt 0
	li	a3,-1
	sw	a3,28(a4)
	.loc 1 887 5 is_stmt 1
	.loc 1 887 75 is_stmt 0
	sw	zero,28(a4)
	.loc 1 890 5 is_stmt 1
	.loc 1 890 12 is_stmt 0
	ori	a5,a5,128
.LVL111:
	.loc 1 891 5 is_stmt 1
	.loc 1 891 74 is_stmt 0
	sw	a5,0(a4)
.LVL112:
.L54:
	.loc 1 893 5 is_stmt 1 discriminator 1
	.loc 1 894 9 discriminator 1
	li	a0,100
	call	arch_delay_ms
.LVL113:
	.loc 1 895 9 discriminator 1
	call	GLB_SW_POR_Reset
.LVL114:
	.loc 1 893 11 discriminator 1
	j	.L54
.L46:
	.loc 1 829 9
	call	HBN_Clear_RTC_INT
.LVL115:
	.loc 1 831 9
	li	a3,0
	li	a2,255
	li	a1,-1
	li	a0,0
	call	HBN_Set_RTC_Timer
.LVL116:
	j	.L48
.L49:
	.loc 1 840 9
	call	HBN_Keep_On_RC32K
.LVL117:
	j	.L50
.LVL118:
.L51:
	.loc 1 873 13
	.loc 1 874 13
	li	a4,-4096
	addi	a4,a4,2047
	and	a5,a5,a4
.LVL119:
	.loc 1 874 20 is_stmt 0
	ori	a5,a5,512
.LVL120:
	.loc 1 875 13 is_stmt 1
	j	.L53
.L52:
	.loc 1 877 13
.LVL121:
	.loc 1 878 13
	.loc 1 878 20 is_stmt 0
	li	a4,4096
	addi	a4,a4,-1536
	or	a5,a5,a4
.LVL122:
	.loc 1 879 13 is_stmt 1
	j	.L53
	.cfi_endproc
.LFE249:
	.size	pm_hbn_mode_enter, .-pm_hbn_mode_enter
	.section	.text.pm_set_wakeup_callback,"ax",@progbits
	.align	1
	.globl	pm_set_wakeup_callback
	.type	pm_set_wakeup_callback, @function
pm_set_wakeup_callback:
.LFB250:
	.loc 1 900 1
	.cfi_startproc
.LVL123:
	.loc 1 901 5
	.loc 1 901 76 is_stmt 0
	li	a4,536932352
	.loc 1 903 76
	li	a5,1312968704
	.loc 1 901 76
	sw	a0,260(a4)
	.loc 1 903 5 is_stmt 1
	.loc 1 903 76 is_stmt 0
	addi	a5,a5,-1979
	sw	a5,256(a4)
	.loc 1 904 1
	ret
	.cfi_endproc
.LFE250:
	.size	pm_set_wakeup_callback, .-pm_set_wakeup_callback
	.section	.text.pm_set_boot2_app_jump_para,"ax",@progbits
	.align	1
	.globl	pm_set_boot2_app_jump_para
	.type	pm_set_boot2_app_jump_para, @function
pm_set_boot2_app_jump_para:
.LFB251:
	.loc 1 907 1 is_stmt 1
	.cfi_startproc
.LVL124:
	.loc 1 908 5
	.loc 1 908 76 is_stmt 0
	li	a4,536932352
	.loc 1 910 76
	li	a5,1347436544
	.loc 1 908 76
	sw	a0,260(a4)
	.loc 1 910 5 is_stmt 1
	.loc 1 910 76 is_stmt 0
	addi	a5,a5,325
	sw	a5,256(a4)
	.loc 1 911 1
	ret
	.cfi_endproc
.LFE251:
	.size	pm_set_boot2_app_jump_para, .-pm_set_boot2_app_jump_para
	.section	.text.pm_hbn_out0_irq_register,"ax",@progbits
	.align	1
	.globl	pm_hbn_out0_irq_register
	.type	pm_hbn_out0_irq_register, @function
pm_hbn_out0_irq_register:
.LFB252:
	.loc 1 914 1 is_stmt 1
	.cfi_startproc
	.loc 1 915 5
	.loc 1 914 1 is_stmt 0
	addi	sp,sp,-16
	.cfi_def_cfa_offset 16
	.loc 1 915 5
	li	a2,0
	li	a1,67
	li	a0,67
	.loc 1 914 1
	sw	ra,12(sp)
	.cfi_offset 1, -4
	.loc 1 915 5
	call	qcc74x_irq_attach
.LVL125:
	.loc 1 916 5 is_stmt 1
	.loc 1 917 1 is_stmt 0
	lw	ra,12(sp)
	.cfi_restore 1
	.loc 1 916 5
	li	a0,67
	.loc 1 917 1
	addi	sp,sp,16
	.cfi_def_cfa_offset 0
	.loc 1 916 5
	tail	qcc74x_irq_enable
.LVL126:
	.cfi_endproc
.LFE252:
	.size	pm_hbn_out0_irq_register, .-pm_hbn_out0_irq_register
	.section	.text.pm_hbn_out1_irq_register,"ax",@progbits
	.align	1
	.globl	pm_hbn_out1_irq_register
	.type	pm_hbn_out1_irq_register, @function
pm_hbn_out1_irq_register:
.LFB253:
	.loc 1 920 1 is_stmt 1
	.cfi_startproc
	.loc 1 921 5
	.loc 1 920 1 is_stmt 0
	addi	sp,sp,-16
	.cfi_def_cfa_offset 16
	.loc 1 921 5
	li	a2,0
	li	a1,68
	li	a0,68
	.loc 1 920 1
	sw	ra,12(sp)
	.cfi_offset 1, -4
	.loc 1 921 5
	call	qcc74x_irq_attach
.LVL127:
	.loc 1 922 5 is_stmt 1
	.loc 1 923 1 is_stmt 0
	lw	ra,12(sp)
	.cfi_restore 1
	.loc 1 922 5
	li	a0,68
	.loc 1 923 1
	addi	sp,sp,16
	.cfi_def_cfa_offset 0
	.loc 1 922 5
	tail	qcc74x_irq_enable
.LVL128:
	.cfi_endproc
.LFE253:
	.size	pm_hbn_out1_irq_register, .-pm_hbn_out1_irq_register
	.section	.text.pm_rc32k_auto_cal_init,"ax",@progbits
	.align	1
	.globl	pm_rc32k_auto_cal_init
	.type	pm_rc32k_auto_cal_init, @function
pm_rc32k_auto_cal_init:
.LFB256:
	.loc 1 973 1 is_stmt 1
	.cfi_startproc
	.loc 1 974 5
	.loc 1 974 20 is_stmt 0
	lui	a5,%hi(.LANCHOR6)
	sw	zero,%lo(.LANCHOR6)(a5)
	.loc 1 975 5 is_stmt 1
	.loc 1 975 17 is_stmt 0
	lui	a5,%hi(.LANCHOR7)
	sw	zero,%lo(.LANCHOR7)(a5)
	.loc 1 976 1
	ret
	.cfi_endproc
.LFE256:
	.size	pm_rc32k_auto_cal_init, .-pm_rc32k_auto_cal_init
	.section	.text.pm_rc32k_auto_cal,"ax",@progbits
	.align	1
	.globl	pm_rc32k_auto_cal
	.type	pm_rc32k_auto_cal, @function
pm_rc32k_auto_cal:
.LFB257:
	.loc 1 979 1 is_stmt 1
	.cfi_startproc
	.loc 1 981 5
.LVL129:
	.loc 1 982 5
	.loc 1 984 5
	.loc 1 985 5
	.loc 1 986 5
	.loc 1 987 5
	.loc 1 988 5
	.loc 1 989 5
	.loc 1 991 5
	.loc 1 991 12 is_stmt 0
	li	a5,536932352
	lw	a5,48(a5)
.LVL130:
	.loc 1 992 5 is_stmt 1
	.loc 1 992 49 is_stmt 0
	extu	a5,a5,3+2-1,3
.LVL131:
	.loc 1 992 7
	bne	a5,zero,.L72
	.loc 1 998 5 is_stmt 1
	.loc 1 979 1 is_stmt 0
	addi	sp,sp,-48
	.cfi_def_cfa_offset 48
	sw	ra,44(sp)
	sw	s0,40(sp)
	sw	s1,36(sp)
	sw	s3,28(sp)
	sw	s4,24(sp)
	sw	s2,32(sp)
	.cfi_offset 1, -4
	.cfi_offset 8, -8
	.cfi_offset 9, -12
	.cfi_offset 19, -20
	.cfi_offset 20, -24
	.cfi_offset 18, -16
	.loc 1 998 11
	call	qcc74x_irq_save
.LVL132:
	mv	s1,a0
.LVL133:
	.loc 1 1000 5 is_stmt 1
	.loc 1 1000 21 is_stmt 0
	call	CPU_Get_MTimer_US
.LVL134:
	mv	s4,a0
.LVL135:
	.loc 1 1001 5 is_stmt 1
	addi	a1,sp,12
	addi	a0,sp,8
.LVL136:
	call	HBN_Get_RTC_Timer_Val
.LVL137:
	.loc 1 1002 5
	.loc 1 1003 23 is_stmt 0
	lui	s0,%hi(.LANCHOR6)
	addi	a4,s0,%lo(.LANCHOR6)
	lw	a5,0(a4)
	.loc 1 1002 17
	lw	s3,8(sp)
.LVL138:
	.loc 1 1003 5 is_stmt 1
	addi	s0,s0,%lo(.LANCHOR6)
	.loc 1 1003 7 is_stmt 0
	bne	a5,zero,.L65
	.loc 1 1004 9 is_stmt 1
	.loc 1 1005 21 is_stmt 0
	lui	a5,%hi(.LANCHOR7)
	.loc 1 1004 24
	sw	s4,0(a4)
	.loc 1 1005 9 is_stmt 1
	.loc 1 1005 21 is_stmt 0
	sw	s3,%lo(.LANCHOR7)(a5)
	.loc 1 1006 9 is_stmt 1
.L67:
	.loc 1 1045 5 discriminator 2
	mv	a0,s1
	call	qcc74x_irq_restore
.LVL139:
	.loc 1 1047 1 is_stmt 0 discriminator 2
	lw	ra,44(sp)
	.cfi_remember_state
	.cfi_restore 1
	lw	s0,40(sp)
	.cfi_restore 8
	lw	s1,36(sp)
	.cfi_restore 9
.LVL140:
	lw	s2,32(sp)
	.cfi_restore 18
	lw	s3,28(sp)
	.cfi_restore 19
.LVL141:
	lw	s4,24(sp)
	.cfi_restore 20
.LVL142:
	addi	sp,sp,48
	.cfi_def_cfa_offset 0
	jr	ra
.LVL143:
.L65:
	.cfi_restore_state
	.loc 1 1010 5 is_stmt 1
	.loc 1 1010 7 is_stmt 0
	bgtu	a5,s4,.L66
	.loc 1 1011 9 is_stmt 1
	.loc 1 1011 11 is_stmt 0
	li	a4,200704
	.loc 1 1011 27
	sub	a5,s4,a5
	.loc 1 1011 11
	addi	a4,a4,-704
	bleu	a5,a4,.L67
	.loc 1 1012 13 is_stmt 1
	.loc 1 1012 28 is_stmt 0
	lui	a3,%hi(.LANCHOR7)
	lw	a4,%lo(.LANCHOR7)(a3)
	addi	s2,a3,%lo(.LANCHOR7)
	.loc 1 1012 15
	bgeu	a4,s3,.L66
	.loc 1 1013 17 is_stmt 1
.LVL144:
	.loc 1 1014 17
	.loc 1 1016 36 is_stmt 0
	addi	a5,a5,50
.LVL145:
	.loc 1 1016 18
	li	a0,100
	divu	a0,a5,a0
	.loc 1 1020 18
	li	a5,8192
.LVL146:
	addi	a5,a5,1808
	.loc 1 1014 26
	sub	a1,s3,a4
.LVL147:
	.loc 1 1016 17 is_stmt 1
	.loc 1 1018 17
	.loc 1 1018 18 is_stmt 0
	slli	a0,a0,15
.LVL148:
	.loc 1 1020 17 is_stmt 1
	.loc 1 1020 18 is_stmt 0
	divu	a0,a0,a5
.LVL149:
	.loc 1 1022 17 is_stmt 1
	.loc 1 1025 22 is_stmt 0
	sub	a5,a1,a0
	.loc 1 1022 19
	bgeu	a1,a0,.L69
	.loc 1 1023 21 is_stmt 1
	.loc 1 1023 22 is_stmt 0
	sub	a5,a4,s3
	add	a5,a5,a0
.LVL150:
.L69:
	.loc 1 1027 17 is_stmt 1
	.loc 1 1027 21 is_stmt 0
	li	a4,100
	mul	a5,a5,a4
.LVL151:
	.loc 1 1027 19
	li	a4,2
	.loc 1 1027 25
	divu	a5,a5,a0
	.loc 1 1027 19
	bgtu	a5,a4,.L66
	.loc 1 1028 21 is_stmt 1
	call	HBN_Recal_RC32K
.LVL152:
	.loc 1 1029 21
	.loc 1 1029 36 is_stmt 0
	sw	s4,0(s0)
	.loc 1 1030 21 is_stmt 1
	.loc 1 1030 33 is_stmt 0
	sw	s3,0(s2)
	j	.L67
.L66:
	.loc 1 1033 21 is_stmt 1
	.loc 1 1033 36 is_stmt 0
	sw	zero,0(s0)
	j	.L67
.LVL153:
.L72:
	.cfi_def_cfa_offset 0
	.cfi_restore 1
	.cfi_restore 8
	.cfi_restore 9
	.cfi_restore 18
	.cfi_restore 19
	.cfi_restore 20
	ret
	.cfi_endproc
.LFE257:
	.size	pm_rc32k_auto_cal, .-pm_rc32k_auto_cal
	.section	.text.hal_pm_ldo11_cfg,"ax",@progbits
	.align	1
	.globl	hal_pm_ldo11_cfg
	.type	hal_pm_ldo11_cfg, @function
hal_pm_ldo11_cfg:
.LFB258:
	.loc 1 1060 1 is_stmt 1
	.cfi_startproc
.LVL154:
	.loc 1 1061 5
	.loc 1 1062 5
	.loc 1 1064 5
	.loc 1 1060 1 is_stmt 0
	addi	sp,sp,-48
	.cfi_def_cfa_offset 48
	sw	s0,40(sp)
	sw	s1,36(sp)
	sw	s2,32(sp)
	sw	s3,28(sp)
	sw	s4,24(sp)
	sw	s5,20(sp)
	sw	s6,16(sp)
	sw	s7,12(sp)
	sw	s8,8(sp)
	sw	s9,4(sp)
	sw	s10,0(sp)
	sw	ra,44(sp)
	.cfi_offset 8, -8
	.cfi_offset 9, -12
	.cfi_offset 18, -16
	.cfi_offset 19, -20
	.cfi_offset 20, -24
	.cfi_offset 21, -28
	.cfi_offset 22, -32
	.cfi_offset 23, -36
	.cfi_offset 24, -40
	.cfi_offset 25, -44
	.cfi_offset 26, -48
	.cfi_offset 1, -4
	.loc 1 1060 1
	mv	s5,a0
	mv	s6,a1
	mv	s4,a2
	.loc 1 1064 5
	call	AON_Output_Float_DCDC18
.LVL155:
	.loc 1 1067 5 is_stmt 1
	.loc 1 1067 12 is_stmt 0
	li	a5,536932352
	lw	s3,48(a5)
.LVL156:
	.loc 1 1068 5 is_stmt 1
	.loc 1 1095 28 is_stmt 0
	li	s7,-983040
	.loc 1 1096 28
	li	s8,-251658240
	.loc 1 1097 28
	li	s9,268435456
	.loc 1 1068 15
	extu	s1,s3,16+4-1,16
.LVL157:
	.loc 1 1069 5 is_stmt 1
	.loc 1 1069 14 is_stmt 0
	extu	s2,s3,24+4-1,24
.LVL158:
	.loc 1 1070 5 is_stmt 1
	.loc 1 1070 15 is_stmt 0
	srli	s0,s3,28
.LVL159:
	.loc 1 1072 5 is_stmt 1
	.loc 1 1095 28 is_stmt 0
	addi	s7,s7,-1
	.loc 1 1096 28
	addi	s8,s8,-1
	.loc 1 1097 28
	addi	s9,s9,-1
	.loc 1 1098 79
	li	s10,536932352
.LVL160:
.L76:
	.loc 1 1072 10 is_stmt 1
	bne	s1,s5,.L83
	.loc 1 1072 32 is_stmt 0 discriminator 1
	bne	s2,s6,.L78
	.loc 1 1072 54 discriminator 2
	bne	s0,s4,.L80
	.loc 1 1103 1
	lw	ra,44(sp)
	.cfi_remember_state
	.cfi_restore 1
	lw	s0,40(sp)
	.cfi_restore 8
.LVL161:
	lw	s1,36(sp)
	.cfi_restore 9
.LVL162:
	lw	s2,32(sp)
	.cfi_restore 18
.LVL163:
	lw	s3,28(sp)
	.cfi_restore 19
.LVL164:
	lw	s4,24(sp)
	.cfi_restore 20
	lw	s5,20(sp)
	.cfi_restore 21
	lw	s6,16(sp)
	.cfi_restore 22
	lw	s7,12(sp)
	.cfi_restore 23
	lw	s8,8(sp)
	.cfi_restore 24
	lw	s9,4(sp)
	.cfi_restore 25
	lw	s10,0(sp)
	.cfi_restore 26
	addi	sp,sp,48
	.cfi_def_cfa_offset 0
	jr	ra
.LVL165:
.L83:
	.cfi_restore_state
	.loc 1 1074 9 is_stmt 1
	.loc 1 1074 11 is_stmt 0
	bleu	s1,s5,.L77
	.loc 1 1075 13 is_stmt 1
	.loc 1 1075 23 is_stmt 0
	addi	s1,s1,-1
.LVL166:
.L85:
	.loc 1 1077 23
	andi	s1,s1,0xff
.LVL167:
.L78:
	.loc 1 1081 9 is_stmt 1
	.loc 1 1081 11 is_stmt 0
	bleu	s2,s6,.L79
	.loc 1 1082 13 is_stmt 1
	.loc 1 1082 22 is_stmt 0
	addi	s2,s2,-1
.LVL168:
.L86:
	.loc 1 1084 22
	andi	s2,s2,0xff
.LVL169:
.L80:
	.loc 1 1088 9 is_stmt 1
	.loc 1 1088 11 is_stmt 0
	bleu	s0,s4,.L81
	.loc 1 1089 13 is_stmt 1
	.loc 1 1089 23 is_stmt 0
	addi	s0,s0,-1
.LVL170:
.L87:
	.loc 1 1091 23
	andi	s0,s0,0xff
.LVL171:
.L82:
	.loc 1 1095 9 is_stmt 1
	.loc 1 1095 88 is_stmt 0
	slli	a5,s1,16
	.loc 1 1095 28
	and	s3,s3,s7
.LVL172:
	.loc 1 1096 9 is_stmt 1
	.loc 1 1095 16 is_stmt 0
	or	s3,a5,s3
.LVL173:
	.loc 1 1096 28
	and	s3,s3,s8
.LVL174:
	.loc 1 1097 9 is_stmt 1
	.loc 1 1096 87 is_stmt 0
	slli	a5,s2,24
	.loc 1 1096 16
	or	s3,a5,s3
.LVL175:
	.loc 1 1097 28
	and	a5,s3,s9
	.loc 1 1097 88
	slli	s3,s0,28
	.loc 1 1097 16
	or	s3,s3,a5
.LVL176:
	.loc 1 1098 9 is_stmt 1
	.loc 1 1098 79 is_stmt 0
	sw	s3,48(s10)
	.loc 1 1101 9 is_stmt 1
	li	a0,1
	call	arch_delay_ms
.LVL177:
	j	.L76
.LVL178:
.L77:
	.loc 1 1076 15
	.loc 1 1076 18 is_stmt 0
	bgeu	s1,s5,.L78
	.loc 1 1077 13 is_stmt 1
	.loc 1 1077 23 is_stmt 0
	addi	s1,s1,1
.LVL179:
	j	.L85
.LVL180:
.L79:
	.loc 1 1083 15 is_stmt 1
	.loc 1 1083 18 is_stmt 0
	bgeu	s2,s6,.L80
	.loc 1 1084 13 is_stmt 1
	.loc 1 1084 22 is_stmt 0
	addi	s2,s2,1
.LVL181:
	j	.L86
.LVL182:
.L81:
	.loc 1 1090 15 is_stmt 1
	.loc 1 1090 18 is_stmt 0
	bgeu	s0,s4,.L82
	.loc 1 1091 13 is_stmt 1
	.loc 1 1091 23 is_stmt 0
	addi	s0,s0,1
.LVL183:
	j	.L87
	.cfi_endproc
.LFE258:
	.size	hal_pm_ldo11_cfg, .-hal_pm_ldo11_cfg
	.section	.text.hal_pm_ldo11_cfg_get,"ax",@progbits
	.align	1
	.globl	hal_pm_ldo11_cfg_get
	.type	hal_pm_ldo11_cfg_get, @function
hal_pm_ldo11_cfg_get:
.LFB259:
	.loc 1 1116 1 is_stmt 1
	.cfi_startproc
.LVL184:
	.loc 1 1117 5
	.loc 1 1119 5
	.loc 1 1119 12 is_stmt 0
	li	a5,536932352
	lw	a5,48(a5)
.LVL185:
	.loc 1 1120 5 is_stmt 1
	.loc 1 1120 56 is_stmt 0
	extu	a4,a5,16+4-1,16
	.loc 1 1120 12
	sb	a4,0(a0)
	.loc 1 1121 5 is_stmt 1
	.loc 1 1121 55 is_stmt 0
	extu	a4,a5,24+4-1,24
	.loc 1 1121 11
	sb	a4,0(a1)
	.loc 1 1122 5 is_stmt 1
	.loc 1 1122 56 is_stmt 0
	srli	a5,a5,28
.LVL186:
	.loc 1 1122 12
	sb	a5,0(a2)
	.loc 1 1124 1
	ret
	.cfi_endproc
.LFE259:
	.size	hal_pm_ldo11_cfg_get, .-hal_pm_ldo11_cfg_get
	.section	.text.hal_pm_ldo11_use_ext_dcdc,"ax",@progbits
	.align	1
	.globl	hal_pm_ldo11_use_ext_dcdc
	.type	hal_pm_ldo11_use_ext_dcdc, @function
hal_pm_ldo11_use_ext_dcdc:
.LFB260:
	.loc 1 1127 1 is_stmt 1
	.cfi_startproc
	.loc 1 1128 5
	.loc 1 1127 1 is_stmt 0
	addi	sp,sp,-16
	.cfi_def_cfa_offset 16
	sw	ra,12(sp)
	.cfi_offset 1, -4
	.loc 1 1128 5
	call	AON_Output_Float_DCDC18
.LVL187:
	.loc 1 1130 5 is_stmt 1
	li	a0,9
	call	HBN_Set_Ldo11_Rt_Vout
.LVL188:
	.loc 1 1131 5
	li	a0,9
	call	HBN_Set_Ldo11_Soc_Vout
.LVL189:
	.loc 1 1132 5
	li	a0,1
	call	arch_delay_ms
.LVL190:
	.loc 1 1134 5
	li	a0,8
	call	HBN_Set_Ldo11_Rt_Vout
.LVL191:
	.loc 1 1135 5
	.loc 1 1136 1 is_stmt 0
	lw	ra,12(sp)
	.cfi_restore 1
	.loc 1 1135 5
	li	a0,8
	.loc 1 1136 1
	addi	sp,sp,16
	.cfi_def_cfa_offset 0
	.loc 1 1135 5
	tail	HBN_Set_Ldo11_Soc_Vout
.LVL192:
	.cfi_endproc
.LFE260:
	.size	hal_pm_ldo11_use_ext_dcdc, .-hal_pm_ldo11_use_ext_dcdc
	.section	.text.pm_irq_callback,"ax",@progbits
	.align	1
	.weak	pm_irq_callback
	.type	pm_irq_callback, @function
pm_irq_callback:
.LFB261:
	.loc 1 1138 1 is_stmt 1
	.cfi_startproc
.LVL193:
	.loc 1 1139 1
	ret
	.cfi_endproc
.LFE261:
	.size	pm_irq_callback, .-pm_irq_callback
	.section	.text.HBN_OUT0_IRQ,"ax",@progbits
	.align	1
	.globl	HBN_OUT0_IRQ
	.type	HBN_OUT0_IRQ, @function
HBN_OUT0_IRQ:
.LFB254:
	.loc 1 926 1
	.cfi_startproc
	.loc 1 927 5
	.loc 1 926 1 is_stmt 0
	addi	sp,sp,-16
	.cfi_def_cfa_offset 16
	.loc 1 927 16
	li	a0,0
	.loc 1 926 1
	sw	s0,8(sp)
	sw	ra,12(sp)
	.cfi_offset 8, -8
	.cfi_offset 1, -4
	.loc 1 927 8
	li	s0,1
	.loc 1 927 16
	call	HBN_Get_INT_State
.LVL194:
	.loc 1 927 8
	bne	a0,s0,.L93
	.loc 1 928 9 is_stmt 1
	li	a0,0
	call	HBN_Clear_IRQ
.LVL195:
	.loc 1 929 9
	li	a0,1
.L98:
	.loc 1 944 1 is_stmt 0
	lw	s0,8(sp)
	.cfi_remember_state
	.cfi_restore 8
	lw	ra,12(sp)
	.cfi_restore 1
	addi	sp,sp,16
	.cfi_def_cfa_offset 0
	.loc 1 942 9
	tail	pm_irq_callback
.LVL196:
.L93:
	.cfi_restore_state
	.loc 1 930 12 is_stmt 1
	.loc 1 930 23 is_stmt 0
	li	a0,1
	call	HBN_Get_INT_State
.LVL197:
	.loc 1 930 15
	bne	a0,s0,.L94
	.loc 1 931 9 is_stmt 1
	call	HBN_Clear_IRQ
.LVL198:
	.loc 1 932 9
	li	a0,2
	j	.L98
.L94:
	.loc 1 933 12
	.loc 1 933 23 is_stmt 0
	li	a0,2
	call	HBN_Get_INT_State
.LVL199:
	.loc 1 933 15
	bne	a0,s0,.L95
	.loc 1 934 9 is_stmt 1
	li	a0,2
	call	HBN_Clear_IRQ
.LVL200:
	.loc 1 935 9
	li	a0,3
	j	.L98
.L95:
	.loc 1 936 12
	.loc 1 936 23 is_stmt 0
	li	a0,3
	call	HBN_Get_INT_State
.LVL201:
	.loc 1 936 15
	bne	a0,s0,.L96
	.loc 1 937 9 is_stmt 1
	li	a0,3
	call	HBN_Clear_IRQ
.LVL202:
	.loc 1 938 9
	li	a0,4
	j	.L98
.L96:
	.loc 1 940 9
	call	HBN_Clear_RTC_INT
.LVL203:
	.loc 1 941 9
	li	a0,16
	call	HBN_Clear_IRQ
.LVL204:
	.loc 1 942 9
	li	a0,5
	j	.L98
	.cfi_endproc
.LFE254:
	.size	HBN_OUT0_IRQ, .-HBN_OUT0_IRQ
	.section	.tcm_code../drivers/soc/qcc743/std/src/qcc743_pm.c946,"ax",@progbits
	.align	1
	.globl	HBN_OUT1_IRQ
	.type	HBN_OUT1_IRQ, @function
HBN_OUT1_IRQ:
.LFB255:
	.loc 1 947 1
	.cfi_startproc
	.loc 1 949 5
	.loc 1 947 1 is_stmt 0
	addi	sp,sp,-16
	.cfi_def_cfa_offset 16
	.loc 1 949 16
	li	a0,17
	.loc 1 947 1
	sw	s0,8(sp)
	sw	ra,12(sp)
	.cfi_offset 8, -8
	.cfi_offset 1, -4
	.loc 1 949 8
	li	s0,1
	.loc 1 949 16
	call	HBN_Get_INT_State
.LVL205:
	.loc 1 949 8
	bne	a0,s0,.L100
	.loc 1 950 9 is_stmt 1
	.loc 1 967 1 is_stmt 0
	lw	s0,8(sp)
	.cfi_remember_state
	.cfi_restore 8
	lw	ra,12(sp)
	.cfi_restore 1
	.loc 1 950 9
	li	a0,17
	.loc 1 967 1
	addi	sp,sp,16
	.cfi_def_cfa_offset 0
	.loc 1 950 9
	tail	HBN_Clear_IRQ
.LVL206:
.L100:
	.cfi_restore_state
	.loc 1 953 10 is_stmt 1
	.loc 1 953 21 is_stmt 0
	li	a0,18
	call	HBN_Get_INT_State
.LVL207:
	.loc 1 953 13
	bne	a0,s0,.L101
	.loc 1 954 9 is_stmt 1
	li	a0,18
	call	HBN_Clear_IRQ
.LVL208:
	.loc 1 955 9
	li	a0,6
.L105:
	.loc 1 967 1 is_stmt 0
	lw	s0,8(sp)
	.cfi_remember_state
	.cfi_restore 8
	lw	ra,12(sp)
	.cfi_restore 1
	addi	sp,sp,16
	.cfi_def_cfa_offset 0
	.loc 1 965 9
	tail	pm_irq_callback
.LVL209:
.L101:
	.cfi_restore_state
	.loc 1 958 10 is_stmt 1
	.loc 1 958 21 is_stmt 0
	li	a0,20
	call	HBN_Get_INT_State
.LVL210:
	.loc 1 958 13
	bne	a0,s0,.L102
	.loc 1 959 9 is_stmt 1
	li	a0,20
	call	HBN_Clear_IRQ
.LVL211:
	.loc 1 960 9
	li	a0,7
	j	.L105
.L102:
	.loc 1 963 10
	.loc 1 963 21 is_stmt 0
	li	a0,22
	call	HBN_Get_INT_State
.LVL212:
	.loc 1 963 13
	bne	a0,s0,.L99
	.loc 1 964 9 is_stmt 1
	li	a0,22
	call	HBN_Clear_IRQ
.LVL213:
	.loc 1 965 9
	li	a0,8
	j	.L105
.L99:
	.loc 1 967 1 is_stmt 0
	lw	ra,12(sp)
	.cfi_restore 1
	lw	s0,8(sp)
	.cfi_restore 8
	addi	sp,sp,16
	.cfi_def_cfa_offset 0
	jr	ra
	.cfi_endproc
.LFE255:
	.size	HBN_OUT1_IRQ, .-HBN_OUT1_IRQ
	.section	.text.pm_pds_irq_register,"ax",@progbits
	.align	1
	.globl	pm_pds_irq_register
	.type	pm_pds_irq_register, @function
pm_pds_irq_register:
.LFB262:
	.loc 1 1142 1 is_stmt 1
	.cfi_startproc
	.loc 1 1143 5
	lui	a1,%hi(PDS_WAKEUP_IRQ)
	.loc 1 1142 1 is_stmt 0
	addi	sp,sp,-16
	.cfi_def_cfa_offset 16
	.loc 1 1143 5
	li	a2,0
	addi	a1,a1,%lo(PDS_WAKEUP_IRQ)
	li	a0,66
	.loc 1 1142 1
	sw	ra,12(sp)
	.cfi_offset 1, -4
	.loc 1 1143 5
	call	qcc74x_irq_attach
.LVL214:
	.loc 1 1144 5 is_stmt 1
	.loc 1 1145 1 is_stmt 0
	lw	ra,12(sp)
	.cfi_restore 1
	.loc 1 1144 5
	li	a0,66
	.loc 1 1145 1
	addi	sp,sp,16
	.cfi_def_cfa_offset 0
	.loc 1 1144 5
	tail	qcc74x_irq_enable
.LVL215:
	.cfi_endproc
.LFE262:
	.size	pm_pds_irq_register, .-pm_pds_irq_register
	.globl	flash_cfg
	.globl	flash_offset
	.globl	psramIoCfg
	.globl	cacheWayDisable
	.section	.bss.cacheWayDisable,"aw",@nobits
	.type	cacheWayDisable, @object
	.size	cacheWayDisable, 1
cacheWayDisable:
	.zero	1
	.section	.bss.flash_cfg,"aw",@nobits
	.align	2
	.set	.LANCHOR5,. + 0
	.type	flash_cfg, @object
	.size	flash_cfg, 4
flash_cfg:
	.zero	4
	.section	.bss.flash_offset,"aw",@nobits
	.align	2
	.type	flash_offset, @object
	.size	flash_offset, 4
flash_offset:
	.zero	4
	.section	.bss.mtimer_counter0,"aw",@nobits
	.align	2
	.set	.LANCHOR6,. + 0
	.type	mtimer_counter0, @object
	.size	mtimer_counter0, 4
mtimer_counter0:
	.zero	4
	.section	.bss.psramIoCfg,"aw",@nobits
	.align	2
	.type	psramIoCfg, @object
	.size	psramIoCfg, 4
psramIoCfg:
	.zero	4
	.section	.bss.rtc_counter0,"aw",@nobits
	.align	2
	.set	.LANCHOR7,. + 0
	.type	rtc_counter0, @object
	.size	rtc_counter0, 4
rtc_counter0:
	.zero	4
	.section	.tcm_const../drivers/soc/qcc743/std/src/qcc743_pm.c140,"aw"
	.align	2
	.set	.LANCHOR0,. + 0
	.type	pdsCfgLevel2, @object
	.size	pdsCfgLevel2, 20
pdsCfgLevel2:
	.byte	177
	.byte	107
	.byte	88
	.byte	52
	.byte	0
	.byte	0
	.byte	0
	.zero	1
	.byte	0
	.byte	0
	.zero	1
	.byte	1
	.byte	3
	.byte	0
	.byte	0
	.byte	0
	.byte	0
	.byte	3
	.byte	0
	.zero	1
	.section	.tcm_const../drivers/soc/qcc743/std/src/qcc743_pm.c224,"aw"
	.align	2
	.set	.LANCHOR2,. + 0
	.type	pdsCfgLevel3, @object
	.size	pdsCfgLevel3, 20
pdsCfgLevel3:
	.byte	177
	.byte	123
	.byte	88
	.byte	52
	.byte	0
	.byte	0
	.byte	0
	.zero	1
	.byte	0
	.byte	0
	.zero	1
	.byte	9
	.byte	3
	.byte	48
	.byte	0
	.byte	0
	.byte	0
	.byte	3
	.byte	0
	.zero	1
	.section	.tcm_const../drivers/soc/qcc743/std/src/qcc743_pm.c308,"aw"
	.align	2
	.set	.LANCHOR1,. + 0
	.type	pdsCfgLevel7, @object
	.size	pdsCfgLevel7, 20
pdsCfgLevel7:
	.byte	177
	.byte	123
	.byte	88
	.byte	52
	.byte	0
	.byte	0
	.byte	0
	.zero	1
	.byte	0
	.byte	0
	.zero	1
	.byte	41
	.byte	3
	.byte	48
	.byte	48
	.byte	0
	.byte	0
	.byte	3
	.byte	0
	.zero	1
	.section	.tcm_const../drivers/soc/qcc743/std/src/qcc743_pm.c392,"aw"
	.align	2
	.set	.LANCHOR4,. + 0
	.type	pdsCfgLevel15, @object
	.size	pdsCfgLevel15, 20
pdsCfgLevel15:
	.byte	177
	.byte	251
	.byte	89
	.byte	52
	.byte	0
	.byte	0
	.byte	0
	.zero	1
	.byte	0
	.byte	0
	.zero	1
	.byte	105
	.byte	3
	.byte	48
	.byte	48
	.byte	3
	.byte	0
	.byte	3
	.byte	0
	.zero	1
	.section	.tcm_const../drivers/soc/qcc743/std/src/qcc743_pm.c57,"aw"
	.align	2
	.set	.LANCHOR3,. + 0
	.type	pdsCfgLevel1, @object
	.size	pdsCfgLevel1, 20
pdsCfgLevel1:
	.byte	177
	.byte	107
	.byte	88
	.byte	52
	.byte	0
	.byte	0
	.byte	0
	.zero	1
	.byte	0
	.byte	0
	.zero	1
	.byte	8
	.byte	0
	.byte	48
	.byte	0
	.byte	0
	.byte	0
	.byte	2
	.byte	0
	.zero	1
	.text
.Letext0:
	.file 3 "./drivers/soc/qcc743/std/include/hardware/qcc743.h"
	.file 4 "./toolchain/linux_x86_64/riscv64-unknown-elf/include/machine/_default_types.h"
	.file 5 "./toolchain/linux_x86_64/riscv64-unknown-elf/include/sys/_stdint.h"
	.file 6 "./drivers/lhal/include/qcc74x_irq.h"
	.file 7 "./drivers/lhal/include/qcc74x_core.h"
	.file 8 "./drivers/soc/qcc743/std/include/qcc743_common.h"
	.file 9 "./drivers/soc/qcc743/std/include/qcc743_pm.h"
	.file 10 "./drivers/lhal/src/flash/qcc74x_sflash.h"
	.file 11 "./drivers/soc/qcc743/std/include/qcc743_pds.h"
	.file 12 "./drivers/soc/qcc743/std/include/qcc743_clock.h"
	.file 13 "./drivers/soc/qcc743/std/include/qcc743_aon.h"
	.file 14 "./drivers/soc/qcc743/std/include/qcc743_hbn.h"
	.file 15 "./drivers/lhal/include/qcc74x_rtc.h"
	.file 16 "./drivers/soc/qcc743/std/include/qcc743_glb.h"
	.file 17 "./drivers/lhal/include/qcc74x_flash.h"
	.file 18 "./drivers/lhal/src/flash/qcc74x_sf_cfg.h"
	.file 19 "./drivers/lhal/src/flash/qcc74x_sf_ctrl.h"