	.file	"board_flash_psram.c"
	.option nopic
	.attribute arch, "rv32i2p0_m2p0_a2p0_f2p0_c2p0_p0p9_zpn0p9_zpsfoperand0p9_xtheade2p0"
	.attribute unaligned_access, 0
	.attribute stack_align, 16
	.text
.Ltext0:
	.cfi_sections	.debug_frame
	.section	.rodata.qcc74x_show_flashinfo.str1.4,"aMS",@progbits,1
	.align	2
.LC0:
	.string	"======== flash cfg ========\r\n"
	.align	2
.LC1:
	.string	"flash size 0x%08X\r\n"
	.align	2
.LC2:
	.string	"jedec id     0x%06X\r\n"
	.align	2
.LC3:
	.string	"mid              0x%02X\r\n"
	.align	2
.LC4:
	.string	"iomode           0x%02X\r\n"
	.align	2
.LC5:
	.string	"clk delay        0x%02X\r\n"
	.align	2
.LC6:
	.string	"clk invert       0x%02X\r\n"
	.align	2
.LC7:
	.string	"read reg cmd0    0x%02X\r\n"
	.align	2
.LC8:
	.string	"read reg cmd1    0x%02X\r\n"
	.align	2
.LC9:
	.string	"write reg cmd0   0x%02X\r\n"
	.align	2
.LC10:
	.string	"write reg cmd1   0x%02X\r\n"
	.align	2
.LC11:
	.string	"qe write len     0x%02X\r\n"
	.align	2
.LC12:
	.string	"cread support    0x%02X\r\n"
	.align	2
.LC13:
	.string	"cread code       0x%02X\r\n"
	.align	2
.LC14:
	.string	"burst wrap cmd   0x%02X\r\n"
	.align	2
.LC15:
	.string	"===========================\r\n"
	.section	.text.qcc74x_show_flashinfo,"ax",@progbits
	.align	1
	.globl	qcc74x_show_flashinfo
	.type	qcc74x_show_flashinfo, @function
qcc74x_show_flashinfo:
.LFB242:
	.file 1 "./bsp/board/qcc74xdk/board_flash_psram.c"
	.loc 1 17 1
	.cfi_startproc
	.loc 1 18 5
	.loc 1 19 5
	.loc 1 17 1 is_stmt 0
	addi	sp,sp,-112
	.cfi_def_cfa_offset 112
	sw	ra,108(sp)
	sw	s0,104(sp)
	sw	s1,100(sp)
	.cfi_offset 1, -4
	.cfi_offset 8, -8
	.cfi_offset 9, -12
	.loc 1 19 14
	sw	zero,4(sp)
	.loc 1 20 5 is_stmt 1
.LVL0:
	.loc 1 21 5
	.loc 1 21 14 is_stmt 0
	sw	zero,8(sp)
	.loc 1 22 5 is_stmt 1
.LVL1:
	.loc 1 24 5
	.loc 1 24 20 is_stmt 0
	call	qcc74x_flash_get_jedec_id
.LVL2:
	mv	s0,a0
.LVL3:
	.loc 1 25 5 is_stmt 1
	.loc 1 25 17 is_stmt 0
	call	qcc74x_flash_get_size
.LVL4:
	mv	s1,a0
.LVL5:
	.loc 1 26 5 is_stmt 1
	addi	a1,sp,8
	addi	a0,sp,4
	call	qcc74x_flash_get_cfg
.LVL6:
	.loc 1 27 5
	lw	a2,8(sp)
	lw	a1,4(sp)
	addi	a0,sp,12
	call	arch_memcpy
.LVL7:
	.loc 1 28 5
	lui	a0,%hi(.LC0)
	addi	a0,a0,%lo(.LC0)
	call	printf
.LVL8:
	.loc 1 29 5
	lui	a0,%hi(.LC1)
	mv	a1,s1
	addi	a0,a0,%lo(.LC1)
	call	printf
.LVL9:
	.loc 1 30 5
	lui	a0,%hi(.LC2)
	mv	a1,s0
	addi	a0,a0,%lo(.LC2)
	call	printf
.LVL10:
	.loc 1 31 5
	lbu	a1,25(sp)
	lui	a0,%hi(.LC3)
	addi	a0,a0,%lo(.LC3)
	call	printf
.LVL11:
	.loc 1 32 5
	lbu	a1,12(sp)
	lui	a0,%hi(.LC4)
	addi	a0,a0,%lo(.LC4)
	call	printf
.LVL12:
	.loc 1 33 5
	lbu	a1,14(sp)
	lui	a0,%hi(.LC5)
	addi	a0,a0,%lo(.LC5)
	call	printf
.LVL13:
	.loc 1 34 5
	lbu	a1,15(sp)
	lui	a0,%hi(.LC6)
	addi	a0,a0,%lo(.LC6)
	call	printf
.LVL14:
	.loc 1 35 5
	lbu	a1,64(sp)
	lui	a0,%hi(.LC7)
	addi	a0,a0,%lo(.LC7)
	call	printf
.LVL15:
	.loc 1 36 5
	lbu	a1,65(sp)
	lui	a0,%hi(.LC8)
	addi	a0,a0,%lo(.LC8)
	call	printf
.LVL16:
	.loc 1 37 5
	lbu	a1,68(sp)
	lui	a0,%hi(.LC9)
	addi	a0,a0,%lo(.LC9)
	call	printf
.LVL17:
	.loc 1 38 5
	lbu	a1,69(sp)
	lui	a0,%hi(.LC10)
	addi	a0,a0,%lo(.LC10)
	call	printf
.LVL18:
	.loc 1 39 5
	lbu	a1,60(sp)
	lui	a0,%hi(.LC11)
	addi	a0,a0,%lo(.LC11)
	call	printf
.LVL19:
	.loc 1 40 5
	lbu	a1,13(sp)
	lui	a0,%hi(.LC12)
	addi	a0,a0,%lo(.LC12)
	call	printf
.LVL20:
	.loc 1 41 5
	lbu	a1,74(sp)
	lui	a0,%hi(.LC13)
	addi	a0,a0,%lo(.LC13)
	call	printf
.LVL21:
	.loc 1 42 5
	lbu	a1,76(sp)
	lui	a0,%hi(.LC14)
	addi	a0,a0,%lo(.LC14)
	call	printf
.LVL22:
	.loc 1 43 5
	lui	a0,%hi(.LC15)
	addi	a0,a0,%lo(.LC15)
	call	printf
.LVL23:
	.loc 1 44 1 is_stmt 0
	lw	ra,108(sp)
	.cfi_restore 1
	lw	s0,104(sp)
	.cfi_restore 8
.LVL24:
	lw	s1,100(sp)
	.cfi_restore 9
.LVL25:
	addi	sp,sp,112
	.cfi_def_cfa_offset 0
	jr	ra
	.cfi_endproc
.LFE242:
	.size	qcc74x_show_flashinfo, .-qcc74x_show_flashinfo
	.text
.Letext0:
	.file 2 "./toolchain/linux_x86_64/riscv64-unknown-elf/include/machine/_default_types.h"
	.file 3 "./toolchain/linux_x86_64/riscv64-unknown-elf/include/sys/_stdint.h"
	.file 4 "./drivers/lhal/src/flash/qcc74x_sflash.h"
	.file 5 "./drivers/lhal/include/qcc74x_flash.h"
	.file 6 "./drivers/soc/qcc743/std/include/qcc743_common.h"
	.file 7 "./toolchain/linux_x86_64/riscv64-unknown-elf/include/stdio.h"