	.file	"utils_sha256.c"
	.option nopic
	.attribute arch, "rv32i2p0_m2p0_a2p0_f2p0_c2p0_p0p9_zpn0p9_zpsfoperand0p9_xtheade2p0"
	.attribute unaligned_access, 0
	.attribute stack_align, 16
	.text
.Ltext0:
	.cfi_sections	.debug_frame
	.section	.text.utils_sha256_init,"ax",@progbits
	.align	1
	.globl	utils_sha256_init
	.type	utils_sha256_init, @function
utils_sha256_init:
.LFB2:
	.file 1 "./components/utils/math/src/utils_sha256.c"
	.loc 1 40 1
	.cfi_startproc
.LVL0:
	.loc 1 41 5
	li	a2,108
	li	a1,0
	tail	memset
.LVL1:
	.cfi_endproc
.LFE2:
	.size	utils_sha256_init, .-utils_sha256_init
	.section	.text.utils_sha256_free,"ax",@progbits
	.align	1
	.globl	utils_sha256_free
	.type	utils_sha256_free, @function
utils_sha256_free:
.LFB3:
	.loc 1 44 1
	.cfi_startproc
.LVL2:
	.loc 1 45 5
	addi	a5,a0,108
	.loc 1 45 8 is_stmt 0
	bne	a0,zero,.L4
.LVL3:
.L2:
	.loc 1 50 1
	ret
.LVL4:
.L5:
.LBB6:
.LBB7:
	.loc 1 36 9 is_stmt 1
	.loc 1 36 14 is_stmt 0
	sbia	zero,(a0),1,0
.LVL5:
.L4:
	.loc 1 35 11 is_stmt 1
	bne	a0,a5,.L5
	j	.L2
.LBE7:
.LBE6:
	.cfi_endproc
.LFE3:
	.size	utils_sha256_free, .-utils_sha256_free
	.section	.text.utils_sha256_clone,"ax",@progbits
	.align	1
	.globl	utils_sha256_clone
	.type	utils_sha256_clone, @function
utils_sha256_clone:
.LFB4:
	.loc 1 53 1
	.cfi_startproc
.LVL6:
	.loc 1 54 5
	.loc 1 53 1 is_stmt 0
	addi	sp,sp,-16
	.cfi_def_cfa_offset 16
	.loc 1 54 10
	li	a2,108
	.loc 1 53 1
	sw	ra,12(sp)
	.cfi_offset 1, -4
	.loc 1 54 10
	call	memcpy
.LVL7:
	.loc 1 55 1
	lw	ra,12(sp)
	.cfi_restore 1
	addi	sp,sp,16
	.cfi_def_cfa_offset 0
	jr	ra
	.cfi_endproc
.LFE4:
	.size	utils_sha256_clone, .-utils_sha256_clone
	.section	.text.utils_sha256_starts,"ax",@progbits
	.align	1
	.globl	utils_sha256_starts
	.type	utils_sha256_starts, @function
utils_sha256_starts:
.LFB5:
	.loc 1 57 1 is_stmt 1
	.cfi_startproc
.LVL8:
	.loc 1 58 5
	.loc 1 59 5
	.loc 1 64 23 is_stmt 0
	li	a5,1779032064
	addi	a5,a5,1639
	sw	a5,8(a0)
	.loc 1 65 23
	li	a5,-1150832640
	addi	a5,a5,-379
	sw	a5,12(a0)
	.loc 1 66 23
	li	a5,1013903360
	addi	a5,a5,882
	sw	a5,16(a0)
	.loc 1 67 23
	li	a5,-1521487872
	addi	a5,a5,1338
	sw	a5,20(a0)
	.loc 1 68 23
	li	a5,1359892480
	addi	a5,a5,639
	sw	a5,24(a0)
	.loc 1 69 23
	li	a5,-1694142464
	addi	a5,a5,-1908
	sw	a5,28(a0)
	.loc 1 70 23
	li	a5,528736256
	addi	a5,a5,-1621
	sw	a5,32(a0)
	.loc 1 71 23
	li	a5,1541459968
	addi	a5,a5,-743
	.loc 1 59 19
	sw	zero,0(a0)
	.loc 1 60 5 is_stmt 1
	.loc 1 60 19 is_stmt 0
	sw	zero,4(a0)
	.loc 1 62 5 is_stmt 1
	.loc 1 64 9
	.loc 1 65 9
	.loc 1 66 9
	.loc 1 67 9
	.loc 1 68 9
	.loc 1 69 9
	.loc 1 70 9
	.loc 1 71 9
	.loc 1 71 23 is_stmt 0
	sw	a5,36(a0)
	.loc 1 74 5 is_stmt 1
	.loc 1 74 16 is_stmt 0
	sw	zero,104(a0)
	.loc 1 75 1
	ret
	.cfi_endproc
.LFE5:
	.size	utils_sha256_starts, .-utils_sha256_starts
	.section	.text.utils_sha256_process,"ax",@progbits
	.align	1
	.globl	utils_sha256_process
	.type	utils_sha256_process, @function
utils_sha256_process:
.LFB6:
	.loc 1 170 1 is_stmt 1
	.cfi_startproc
.LVL9:
	.loc 1 171 5
	.loc 1 172 5
	.loc 1 173 5
	.loc 1 175 5
	.loc 1 175 17
	.loc 1 170 1 is_stmt 0
	addi	sp,sp,-320
	.cfi_def_cfa_offset 320
	sw	s0,316(sp)
	sw	s1,312(sp)
	sw	s2,308(sp)
	sw	s3,304(sp)
	sw	s4,300(sp)
	sw	s5,296(sp)
	sw	s6,292(sp)
	.cfi_offset 8, -4
	.cfi_offset 9, -8
	.cfi_offset 18, -12
	.cfi_offset 19, -16
	.cfi_offset 20, -20
	.cfi_offset 21, -24
	.cfi_offset 22, -28
	.loc 1 175 12
	li	a5,0
	addi	a0,a0,8
.LVL10:
	.loc 1 175 5
	li	a4,8
.LVL11:
.L13:
	.loc 1 176 9 is_stmt 1 discriminator 3
	.loc 1 176 14 is_stmt 0 discriminator 3
	lrw	a3,a0,a5,2
	srw	a3,sp,a5,2
	.loc 1 175 24 is_stmt 1 discriminator 3
	.loc 1 175 25 is_stmt 0 discriminator 3
	addi	a5,a5,1
.LVL12:
	.loc 1 175 17 is_stmt 1 discriminator 3
	.loc 1 175 5 is_stmt 0 discriminator 3
	bne	a5,a4,.L13
	.loc 1 200 12
	li	a4,0
	.loc 1 201 21
	addi	s2,sp,32
	.loc 1 200 5
	li	a2,16
.LVL13:
.L14:
	.loc 1 201 9 is_stmt 1 discriminator 3
	.loc 1 201 14 discriminator 3
	.loc 1 201 24 is_stmt 0 discriminator 3
	lbu	a5,0(a1)
	.loc 1 201 60 discriminator 3
	lbu	a3,1(a1)
	.loc 1 200 5 discriminator 3
	addi	a1,a1,4
	.loc 1 201 50 discriminator 3
	slli	a5,a5,24
	.loc 1 201 90 discriminator 3
	slli	a3,a3,16
	.loc 1 201 136 discriminator 3
	or	a5,a5,a3
	.loc 1 201 139 discriminator 3
	lbu	a3,-1(a1)
	.loc 1 201 136 discriminator 3
	or	a5,a5,a3
	.loc 1 201 100 discriminator 3
	lbu	a3,-2(a1)
	.loc 1 201 130 discriminator 3
	slli	a3,a3,8
	.loc 1 201 136 discriminator 3
	or	a5,a5,a3
	.loc 1 201 21 discriminator 3
	srw	a5,s2,a4,2
	.loc 1 201 179 is_stmt 1 discriminator 3
	.loc 1 200 25 discriminator 3
	.loc 1 200 26 is_stmt 0 discriminator 3
	addi	a4,a4,1
.LVL14:
	.loc 1 200 17 is_stmt 1 discriminator 3
	.loc 1 200 5 is_stmt 0 discriminator 3
	bne	a4,a2,.L14
	lui	t4,%hi(.LANCHOR0)
	lw	a6,28(sp)
	lw	a7,16(sp)
	lw	t1,24(sp)
	lw	a1,20(sp)
	lw	a2,0(sp)
	lw	a3,4(sp)
	lw	a4,8(sp)
.LVL15:
	lw	a5,12(sp)
	addi	s1,t4,%lo(.LANCHOR0)
	mv	t3,s2
	addi	t0,s1,64
	.loc 1 200 5
	mv	t6,s2
	addi	t4,t4,%lo(.LANCHOR0)
.L15:
	.loc 1 205 11 is_stmt 1 discriminator 3
	.loc 1 205 108 is_stmt 0 discriminator 3
	srri	t2, a7, 11
	.loc 1 205 55 discriminator 3
	srri	t5, a7, 6
	.loc 1 205 77 discriminator 3
	xor	t5,t5,t2
	.loc 1 205 162 discriminator 3
	srri	t2, a7, 25
	.loc 1 205 17 discriminator 3
	lw	s0,0(t6)
	.loc 1 205 131 discriminator 3
	xor	t5,t5,t2
	.loc 1 205 17 discriminator 3
	lw	t2,0(t4)
	.loc 1 204 5 discriminator 3
	addi	t4,t4,32
	addi	t6,t6,32
	.loc 1 205 17 discriminator 3
	add	t2,t2,s0
	add	t5,t5,t2
	.loc 1 205 210 discriminator 3
	xor	t2,t1,a1
	.loc 1 205 202 discriminator 3
	and	t2,t2,a7
	.loc 1 205 194 discriminator 3
	xor	t2,t2,t1
	.loc 1 205 17 discriminator 3
	add	t5,t5,t2
	add	a6,t5,a6
.LVL16:
	.loc 1 205 243 is_stmt 1 discriminator 3
	.loc 1 205 455 discriminator 3
	.loc 1 205 460 is_stmt 0 discriminator 3
	add	s3,a5,a6
	.loc 1 205 470 is_stmt 1 discriminator 3
	.loc 1 205 333 is_stmt 0 discriminator 3
	srri	t5, a2, 13
	.loc 1 205 280 discriminator 3
	srri	a5, a2, 2
	.loc 1 205 302 discriminator 3
	xor	a5,a5,t5
	.loc 1 205 387 discriminator 3
	srri	t5, a2, 22
	.loc 1 205 356 discriminator 3
	xor	a5,a5,t5
	.loc 1 205 444 discriminator 3
	or	t5,a2,a3
	.loc 1 205 420 discriminator 3
	and	t2,a2,a3
	.loc 1 205 436 discriminator 3
	and	t5,t5,a4
	.loc 1 205 428 discriminator 3
	or	t5,t5,t2
	.loc 1 205 249 discriminator 3
	add	a5,a5,t5
	.loc 1 205 483 discriminator 3
	add	a6,a5,a6
.LVL17:
	.loc 1 205 493 is_stmt 1 discriminator 3
	.loc 1 206 11 discriminator 3
	.loc 1 206 17 is_stmt 0 discriminator 3
	lw	t5,-28(t6)
	lw	a5,-28(t4)
	add	a5,a5,t5
	add	t1,a5,t1
	.loc 1 206 210 discriminator 3
	xor	a5,a7,a1
	.loc 1 206 202 discriminator 3
	and	a5,a5,s3
	.loc 1 206 194 discriminator 3
	xor	a5,a5,a1
	.loc 1 206 17 discriminator 3
	add	t1,t1,a5
	.loc 1 206 108 discriminator 3
	srri	t5, s3, 11
	.loc 1 206 55 discriminator 3
	srri	a5, s3, 6
	.loc 1 206 77 discriminator 3
	xor	a5,a5,t5
	.loc 1 206 162 discriminator 3
	srri	t5, s3, 25
	.loc 1 206 131 discriminator 3
	xor	a5,a5,t5
	.loc 1 206 17 discriminator 3
	add	a5,t1,a5
.LVL18:
	.loc 1 206 243 is_stmt 1 discriminator 3
	.loc 1 206 455 discriminator 3
	.loc 1 206 460 is_stmt 0 discriminator 3
	add	s0,a4,a5
	.loc 1 206 470 is_stmt 1 discriminator 3
	.loc 1 206 280 is_stmt 0 discriminator 3
	srri	t1, a6, 2
	.loc 1 206 333 discriminator 3
	srri	a4, a6, 13
	.loc 1 206 302 discriminator 3
	xor	t1,t1,a4
	.loc 1 206 387 discriminator 3
	srri	a4, a6, 22
	.loc 1 206 356 discriminator 3
	xor	t1,t1,a4
	.loc 1 206 444 discriminator 3
	or	a4,a6,a2
	.loc 1 206 420 discriminator 3
	and	t5,a6,a2
	.loc 1 206 436 discriminator 3
	and	a4,a4,a3
	.loc 1 206 428 discriminator 3
	or	a4,a4,t5
	.loc 1 206 249 discriminator 3
	add	t1,t1,a4
	.loc 1 206 483 discriminator 3
	add	t1,t1,a5
	.loc 1 206 493 is_stmt 1 discriminator 3
	.loc 1 207 11 discriminator 3
	.loc 1 207 17 is_stmt 0 discriminator 3
	lw	a4,-24(t6)
	lw	a5,-24(t4)
.LVL19:
	add	a5,a5,a4
	add	a1,a5,a1
	.loc 1 207 210 discriminator 3
	xor	a5,s3,a7
	.loc 1 207 202 discriminator 3
	and	a5,a5,s0
	.loc 1 207 194 discriminator 3
	xor	a5,a5,a7
	.loc 1 207 17 discriminator 3
	add	a1,a1,a5
	.loc 1 207 108 discriminator 3
	srri	a4, s0, 11
	.loc 1 207 55 discriminator 3
	srri	a5, s0, 6
	.loc 1 207 77 discriminator 3
	xor	a5,a5,a4
	.loc 1 207 162 discriminator 3
	srri	a4, s0, 25
	.loc 1 207 131 discriminator 3
	xor	a5,a5,a4
	.loc 1 207 17 discriminator 3
	add	a5,a1,a5
.LVL20:
	.loc 1 207 243 is_stmt 1 discriminator 3
	.loc 1 207 455 discriminator 3
	.loc 1 207 333 is_stmt 0 discriminator 3
	srri	a4, t1, 13
	.loc 1 207 280 discriminator 3
	srri	a1, t1, 2
	.loc 1 207 302 discriminator 3
	xor	a1,a1,a4
	.loc 1 207 387 discriminator 3
	srri	a4, t1, 22
	.loc 1 207 356 discriminator 3
	xor	a1,a1,a4
	.loc 1 207 444 discriminator 3
	or	a4,a6,t1
	.loc 1 207 460 discriminator 3
	add	t2,a3,a5
	.loc 1 207 470 is_stmt 1 discriminator 3
	.loc 1 207 436 is_stmt 0 discriminator 3
	and	a4,a4,a2
	.loc 1 207 420 discriminator 3
	and	a3,a6,t1
	.loc 1 207 428 discriminator 3
	or	a4,a4,a3
	.loc 1 207 249 discriminator 3
	add	a1,a1,a4
	.loc 1 207 483 discriminator 3
	add	a1,a1,a5
	.loc 1 207 493 is_stmt 1 discriminator 3
	.loc 1 208 11 discriminator 3
	.loc 1 208 17 is_stmt 0 discriminator 3
	lw	a4,-20(t4)
	lw	a5,-20(t6)
.LVL21:
	.loc 1 208 420 discriminator 3
	and	a3,t1,a1
	.loc 1 208 17 discriminator 3
	add	a4,a4,a5
	add	a7,a4,a7
	.loc 1 208 210 discriminator 3
	xor	a4,s3,s0
	.loc 1 208 202 discriminator 3
	and	a4,a4,t2
	.loc 1 208 194 discriminator 3
	xor	a4,a4,s3
	.loc 1 208 17 discriminator 3
	add	a7,a7,a4
	.loc 1 208 108 discriminator 3
	srri	a5, t2, 11
	.loc 1 208 55 discriminator 3
	srri	a4, t2, 6
	.loc 1 208 77 discriminator 3
	xor	a4,a4,a5
	.loc 1 208 162 discriminator 3
	srri	a5, t2, 25
	.loc 1 208 131 discriminator 3
	xor	a4,a4,a5
	.loc 1 208 17 discriminator 3
	add	a4,a7,a4
.LVL22:
	.loc 1 208 243 is_stmt 1 discriminator 3
	.loc 1 208 455 discriminator 3
	.loc 1 208 333 is_stmt 0 discriminator 3
	srri	a5, a1, 13
	.loc 1 208 280 discriminator 3
	srri	a7, a1, 2
	.loc 1 208 302 discriminator 3
	xor	a7,a7,a5
	.loc 1 208 387 discriminator 3
	srri	a5, a1, 22
	.loc 1 208 356 discriminator 3
	xor	a7,a7,a5
	.loc 1 208 444 discriminator 3
	or	a5,t1,a1
	.loc 1 208 436 discriminator 3
	and	a5,a5,a6
	.loc 1 208 428 discriminator 3
	or	a5,a5,a3
	.loc 1 208 460 discriminator 3
	add	t5,a2,a4
	.loc 1 208 470 is_stmt 1 discriminator 3
	.loc 1 208 249 is_stmt 0 discriminator 3
	add	a7,a7,a5
	.loc 1 209 17 discriminator 3
	lw	a2,-16(t6)
	lw	a5,-16(t4)
	.loc 1 208 483 discriminator 3
	add	a7,a7,a4
	.loc 1 208 493 is_stmt 1 discriminator 3
	.loc 1 209 11 discriminator 3
	.loc 1 209 108 is_stmt 0 discriminator 3
	srri	a4, t5, 11
.LVL23:
	.loc 1 209 17 discriminator 3
	add	a5,a5,a2
	.loc 1 209 210 discriminator 3
	xor	a2,s0,t2
	.loc 1 209 202 discriminator 3
	and	a2,a2,t5
	.loc 1 209 194 discriminator 3
	xor	a2,a2,s0
	.loc 1 209 17 discriminator 3
	add	a5,a5,s3
	add	a5,a5,a2
	.loc 1 209 55 discriminator 3
	srri	a2, t5, 6
	.loc 1 209 77 discriminator 3
	xor	a2,a2,a4
	.loc 1 209 162 discriminator 3
	srri	a4, t5, 25
	.loc 1 209 131 discriminator 3
	xor	a2,a2,a4
	.loc 1 209 17 discriminator 3
	add	a2,a5,a2
.LVL24:
	.loc 1 209 243 is_stmt 1 discriminator 3
	.loc 1 209 455 discriminator 3
	.loc 1 209 333 is_stmt 0 discriminator 3
	srri	a4, a7, 13
	.loc 1 209 280 discriminator 3
	srri	a5, a7, 2
	.loc 1 209 302 discriminator 3
	xor	a5,a5,a4
	.loc 1 209 387 discriminator 3
	srri	a4, a7, 22
	.loc 1 209 356 discriminator 3
	xor	a5,a5,a4
	.loc 1 209 444 discriminator 3
	or	a4,a1,a7
	.loc 1 209 420 discriminator 3
	and	a3,a1,a7
	.loc 1 209 436 discriminator 3
	and	a4,a4,t1
	.loc 1 209 428 discriminator 3
	or	a4,a4,a3
	.loc 1 209 249 discriminator 3
	add	a5,a5,a4
	.loc 1 210 17 discriminator 3
	lw	a3,-12(t6)
	lw	a4,-12(t4)
	.loc 1 209 460 discriminator 3
	add	a6,a6,a2
	.loc 1 209 470 is_stmt 1 discriminator 3
	.loc 1 209 483 is_stmt 0 discriminator 3
	add	a5,a5,a2
	.loc 1 209 493 is_stmt 1 discriminator 3
	.loc 1 210 11 discriminator 3
	.loc 1 210 17 is_stmt 0 discriminator 3
	add	a4,a4,a3
	add	a4,a4,s0
	.loc 1 210 210 discriminator 3
	xor	s0,t2,t5
	.loc 1 210 202 discriminator 3
	and	s0,s0,a6
	.loc 1 210 194 discriminator 3
	xor	s0,s0,t2
	.loc 1 210 17 discriminator 3
	add	a4,a4,s0
	.loc 1 210 108 discriminator 3
	srri	a3, a6, 11
	.loc 1 210 55 discriminator 3
	srri	s0, a6, 6
	.loc 1 210 77 discriminator 3
	xor	s0,s0,a3
	.loc 1 210 162 discriminator 3
	srri	a3, a6, 25
	.loc 1 210 131 discriminator 3
	xor	s0,s0,a3
	.loc 1 210 17 discriminator 3
	add	s0,a4,s0
.LVL25:
	.loc 1 210 243 is_stmt 1 discriminator 3
	.loc 1 210 455 discriminator 3
	.loc 1 210 333 is_stmt 0 discriminator 3
	srri	a3, a5, 13
	.loc 1 210 280 discriminator 3
	srri	a4, a5, 2
	.loc 1 210 302 discriminator 3
	xor	a4,a4,a3
	.loc 1 210 387 discriminator 3
	srri	a3, a5, 22
	.loc 1 210 356 discriminator 3
	xor	a4,a4,a3
	.loc 1 210 444 discriminator 3
	or	a3,a7,a5
	.loc 1 210 420 discriminator 3
	and	a2,a7,a5
	.loc 1 210 436 discriminator 3
	and	a3,a3,a1
	.loc 1 210 428 discriminator 3
	or	a3,a3,a2
	.loc 1 210 249 discriminator 3
	add	a4,a4,a3
	.loc 1 211 17 discriminator 3
	lw	a2,-8(t6)
	lw	a3,-8(t4)
	.loc 1 210 460 discriminator 3
	add	t1,t1,s0
	.loc 1 210 470 is_stmt 1 discriminator 3
	.loc 1 210 483 is_stmt 0 discriminator 3
	add	a4,a4,s0
	.loc 1 210 493 is_stmt 1 discriminator 3
	.loc 1 211 11 discriminator 3
	.loc 1 211 17 is_stmt 0 discriminator 3
	add	a3,a3,a2
	add	a3,a3,t2
	.loc 1 211 210 discriminator 3
	xor	t2,t5,a6
	.loc 1 211 202 discriminator 3
	and	t2,t2,t1
	.loc 1 211 194 discriminator 3
	xor	t2,t2,t5
	.loc 1 211 17 discriminator 3
	add	a3,a3,t2
	.loc 1 211 108 discriminator 3
	srri	a2, t1, 11
	.loc 1 211 55 discriminator 3
	srri	t2, t1, 6
	.loc 1 211 77 discriminator 3
	xor	t2,t2,a2
	.loc 1 211 162 discriminator 3
	srri	a2, t1, 25
	.loc 1 211 131 discriminator 3
	xor	t2,t2,a2
	.loc 1 211 17 discriminator 3
	add	t2,a3,t2
.LVL26:
	.loc 1 211 243 is_stmt 1 discriminator 3
	.loc 1 211 455 discriminator 3
	.loc 1 211 333 is_stmt 0 discriminator 3
	srri	a2, a4, 13
	.loc 1 211 280 discriminator 3
	srri	a3, a4, 2
	.loc 1 211 302 discriminator 3
	xor	a3,a3,a2
	.loc 1 211 387 discriminator 3
	srri	a2, a4, 22
	.loc 1 211 356 discriminator 3
	xor	a3,a3,a2
	.loc 1 211 444 discriminator 3
	or	a2,a5,a4
	.loc 1 211 436 discriminator 3
	and	a2,a2,a7
	.loc 1 211 420 discriminator 3
	and	s0,a5,a4
	.loc 1 211 428 discriminator 3
	or	a2,a2,s0
	.loc 1 211 249 discriminator 3
	add	a3,a3,a2
	.loc 1 211 483 discriminator 3
	add	a3,a3,t2
	.loc 1 211 460 discriminator 3
	add	a1,a1,t2
	.loc 1 211 470 is_stmt 1 discriminator 3
	.loc 1 211 493 discriminator 3
	.loc 1 212 11 discriminator 3
	.loc 1 212 17 is_stmt 0 discriminator 3
	lw	a2,-4(t4)
	lw	t2,-4(t6)
.LVL27:
	.loc 1 212 420 discriminator 3
	and	s0,a4,a3
	.loc 1 212 17 discriminator 3
	add	a2,a2,t2
	add	a2,a2,t5
	.loc 1 212 210 discriminator 3
	xor	t5,a6,t1
	.loc 1 212 202 discriminator 3
	and	t5,t5,a1
	.loc 1 212 194 discriminator 3
	xor	t5,t5,a6
	.loc 1 212 17 discriminator 3
	add	a2,a2,t5
	.loc 1 212 108 discriminator 3
	srri	t2, a1, 11
	.loc 1 212 55 discriminator 3
	srri	t5, a1, 6
	.loc 1 212 77 discriminator 3
	xor	t5,t5,t2
	.loc 1 212 162 discriminator 3
	srri	t2, a1, 25
	.loc 1 212 131 discriminator 3
	xor	t5,t5,t2
	.loc 1 212 17 discriminator 3
	add	t5,a2,t5
.LVL28:
	.loc 1 212 243 is_stmt 1 discriminator 3
	.loc 1 212 455 discriminator 3
	.loc 1 212 333 is_stmt 0 discriminator 3
	srri	t2, a3, 13
	.loc 1 212 280 discriminator 3
	srri	a2, a3, 2
	.loc 1 212 302 discriminator 3
	xor	a2,a2,t2
	.loc 1 212 387 discriminator 3
	srri	t2, a3, 22
	.loc 1 212 356 discriminator 3
	xor	a2,a2,t2
	.loc 1 212 444 discriminator 3
	or	t2,a4,a3
	.loc 1 212 436 discriminator 3
	and	t2,t2,a5
	.loc 1 212 428 discriminator 3
	or	t2,t2,s0
	.loc 1 212 249 discriminator 3
	add	a2,a2,t2
	.loc 1 212 460 discriminator 3
	add	a7,a7,t5
	.loc 1 212 470 is_stmt 1 discriminator 3
	.loc 1 212 483 is_stmt 0 discriminator 3
	add	a2,a2,t5
	.loc 1 212 493 is_stmt 1 discriminator 3
	.loc 1 204 25 discriminator 3
	.loc 1 204 17 discriminator 3
	.loc 1 204 5 is_stmt 0 discriminator 3
	bne	t0,t4,.L15
	addi	s2,s2,192
.LVL29:
.L16:
	.loc 1 216 11 is_stmt 1 discriminator 3
	.loc 1 216 251 is_stmt 0 discriminator 3
	lw	s3,56(t3)
	.loc 1 216 621 discriminator 3
	lw	t0,0(t3)
	.loc 1 216 446 discriminator 3
	lw	t5,4(t3)
	.loc 1 216 354 discriminator 3
	srri	t6, s3, 19
	.loc 1 216 284 discriminator 3
	srri	t4, s3, 17
	.loc 1 216 315 discriminator 3
	xor	t4,t4,t6
	.loc 1 216 416 discriminator 3
	srli	t6,s3,10
	.loc 1 216 385 discriminator 3
	xor	t4,t4,t6
	.loc 1 216 621 discriminator 3
	lw	t6,36(t3)
	.loc 1 217 251 discriminator 3
	lw	s4,60(t3)
	.loc 1 216 816 discriminator 3
	and	t2,a2,a3
	.loc 1 216 621 discriminator 3
	add	t6,t6,t0
	add	t4,t4,t6
	.loc 1 216 550 discriminator 3
	srri	t0, t5, 18
	.loc 1 216 479 discriminator 3
	srri	t6, t5, 7
	.loc 1 216 510 discriminator 3
	xor	t6,t6,t0
	.loc 1 216 614 discriminator 3
	srli	t0,t5,3
	.loc 1 216 582 discriminator 3
	xor	t6,t6,t0
	.loc 1 216 621 discriminator 3
	add	t4,t4,t6
	.loc 1 216 108 discriminator 3
	srri	t0, a7, 11
	.loc 1 216 55 discriminator 3
	srri	t6, a7, 6
	.loc 1 216 77 discriminator 3
	xor	t6,t6,t0
	.loc 1 216 162 discriminator 3
	srri	t0, a7, 25
	.loc 1 216 131 discriminator 3
	xor	t6,t6,t0
	.loc 1 216 210 discriminator 3
	xor	t0,t1,a1
	.loc 1 216 202 discriminator 3
	and	t0,t0,a7
	.loc 1 216 194 discriminator 3
	xor	t0,t0,t1
	add	t6,t6,t0
	lw	t0,64(s1)
	.loc 1 217 284 discriminator 3
	srri	s0, s4, 17
	.loc 1 218 446 discriminator 3
	lw	s5,12(t3)
	add	t6,t6,t0
	add	t6,t6,t4
	.loc 1 216 17 discriminator 3
	add	a6,a6,t6
.LVL30:
	.loc 1 216 639 is_stmt 1 discriminator 3
	.loc 1 216 851 discriminator 3
	.loc 1 216 729 is_stmt 0 discriminator 3
	srri	t0, a2, 13
	.loc 1 216 676 discriminator 3
	srri	t6, a2, 2
	.loc 1 216 698 discriminator 3
	xor	t6,t6,t0
	.loc 1 216 783 discriminator 3
	srri	t0, a2, 22
	.loc 1 216 752 discriminator 3
	xor	t6,t6,t0
	.loc 1 216 840 discriminator 3
	or	t0,a2,a3
	.loc 1 216 832 discriminator 3
	and	t0,t0,a4
	.loc 1 216 824 discriminator 3
	or	t0,t0,t2
	.loc 1 216 645 discriminator 3
	add	t6,t6,t0
	.loc 1 217 354 discriminator 3
	srri	t0, s4, 19
	.loc 1 217 315 discriminator 3
	xor	s0,s0,t0
	.loc 1 217 416 discriminator 3
	srli	t0,s4,10
	.loc 1 217 385 discriminator 3
	xor	s0,s0,t0
	.loc 1 217 621 discriminator 3
	lw	t0,40(t3)
	.loc 1 216 856 discriminator 3
	add	a5,a5,a6
	.loc 1 216 866 is_stmt 1 discriminator 3
	.loc 1 216 879 is_stmt 0 discriminator 3
	add	a6,t6,a6
.LVL31:
	.loc 1 216 889 is_stmt 1 discriminator 3
	.loc 1 217 11 discriminator 3
	.loc 1 217 446 is_stmt 0 discriminator 3
	lw	t6,8(t3)
	.loc 1 217 621 discriminator 3
	add	t5,t5,t0
	add	s0,s0,t5
	.loc 1 217 479 discriminator 3
	srri	t0, t6, 7
	.loc 1 217 550 discriminator 3
	srri	t5, t6, 18
	.loc 1 217 510 discriminator 3
	xor	t0,t0,t5
	.loc 1 217 614 discriminator 3
	srli	t5,t6,3
	.loc 1 217 582 discriminator 3
	xor	t0,t0,t5
	.loc 1 217 621 discriminator 3
	add	s0,s0,t0
	lw	t0,68(s1)
	.loc 1 217 210 discriminator 3
	xor	t5,a7,a1
	.loc 1 217 202 discriminator 3
	and	t5,t5,a5
	add	t1,t1,t0
	.loc 1 217 194 discriminator 3
	xor	t5,t5,a1
	add	t1,t1,s0
	add	t1,t5,t1
	.loc 1 217 108 discriminator 3
	srri	t0, a5, 11
	.loc 1 217 55 discriminator 3
	srri	t5, a5, 6
	.loc 1 217 77 discriminator 3
	xor	t5,t5,t0
	.loc 1 217 162 discriminator 3
	srri	t0, a5, 25
	.loc 1 217 131 discriminator 3
	xor	t5,t5,t0
	.loc 1 217 17 discriminator 3
	add	t5,t5,t1
.LVL32:
	.loc 1 217 639 is_stmt 1 discriminator 3
	.loc 1 217 851 discriminator 3
	.loc 1 217 729 is_stmt 0 discriminator 3
	srri	t0, a6, 13
	.loc 1 217 676 discriminator 3
	srri	t1, a6, 2
	.loc 1 217 698 discriminator 3
	xor	t1,t1,t0
	.loc 1 217 783 discriminator 3
	srri	t0, a6, 22
	.loc 1 217 752 discriminator 3
	xor	t1,t1,t0
	.loc 1 217 840 discriminator 3
	or	t0,a2,a6
	.loc 1 217 816 discriminator 3
	and	t2,a2,a6
	.loc 1 217 832 discriminator 3
	and	t0,t0,a3
	.loc 1 217 824 discriminator 3
	or	t0,t0,t2
	.loc 1 217 645 discriminator 3
	add	t1,t1,t0
	.loc 1 217 879 discriminator 3
	add	t1,t1,t5
	.loc 1 217 856 discriminator 3
	add	a4,a4,t5
	.loc 1 217 866 is_stmt 1 discriminator 3
	.loc 1 217 889 discriminator 3
	.loc 1 218 11 discriminator 3
	.loc 1 218 284 is_stmt 0 discriminator 3
	srri	t2, t4, 17
	.loc 1 218 354 discriminator 3
	srri	t5, t4, 19
.LVL33:
	.loc 1 218 315 discriminator 3
	xor	t2,t2,t5
	.loc 1 218 416 discriminator 3
	srli	t5,t4,10
	.loc 1 218 385 discriminator 3
	xor	t2,t2,t5
	.loc 1 218 621 discriminator 3
	lw	t5,44(t3)
	.loc 1 218 816 discriminator 3
	and	t0,a6,t1
	.loc 1 219 446 discriminator 3
	lw	s6,16(t3)
	.loc 1 218 621 discriminator 3
	add	t6,t6,t5
	add	t2,t2,t6
	.loc 1 218 550 discriminator 3
	srri	t5, s5, 18
	.loc 1 218 479 discriminator 3
	srri	t6, s5, 7
	.loc 1 218 510 discriminator 3
	xor	t6,t6,t5
	.loc 1 218 614 discriminator 3
	srli	t5,s5,3
	.loc 1 218 582 discriminator 3
	xor	t6,t6,t5
	.loc 1 218 621 discriminator 3
	add	t2,t2,t6
	lw	t6,72(s1)
	.loc 1 218 210 discriminator 3
	xor	t5,a7,a5
	.loc 1 218 202 discriminator 3
	and	t5,t5,a4
	add	a1,a1,t6
	.loc 1 218 194 discriminator 3
	xor	t5,t5,a7
	add	a1,a1,t2
	add	t6,t5,a1
	.loc 1 218 108 discriminator 3
	srri	t5, a4, 11
	.loc 1 218 55 discriminator 3
	srri	a1, a4, 6
	.loc 1 218 77 discriminator 3
	xor	a1,a1,t5
	.loc 1 218 162 discriminator 3
	srri	t5, a4, 25
	.loc 1 218 131 discriminator 3
	xor	a1,a1,t5
	.loc 1 218 17 discriminator 3
	add	t5,a1,t6
.LVL34:
	.loc 1 218 639 is_stmt 1 discriminator 3
	.loc 1 218 851 discriminator 3
	.loc 1 218 729 is_stmt 0 discriminator 3
	srri	t6, t1, 13
	.loc 1 218 676 discriminator 3
	srri	a1, t1, 2
	.loc 1 218 698 discriminator 3
	xor	a1,a1,t6
	.loc 1 218 783 discriminator 3
	srri	t6, t1, 22
	.loc 1 218 752 discriminator 3
	xor	a1,a1,t6
	.loc 1 218 840 discriminator 3
	or	t6,a6,t1
	.loc 1 218 832 discriminator 3
	and	t6,t6,a2
	.loc 1 218 824 discriminator 3
	or	t6,t6,t0
	.loc 1 218 645 discriminator 3
	add	a1,a1,t6
	.loc 1 218 879 discriminator 3
	add	a1,a1,t5
	.loc 1 218 856 discriminator 3
	add	a3,a3,t5
	.loc 1 218 866 is_stmt 1 discriminator 3
	.loc 1 218 889 discriminator 3
	.loc 1 219 11 discriminator 3
	.loc 1 219 284 is_stmt 0 discriminator 3
	srri	t0, s0, 17
	.loc 1 219 354 discriminator 3
	srri	t5, s0, 19
.LVL35:
	.loc 1 217 244 discriminator 3
	sw	s0,68(t3)
	.loc 1 219 315 discriminator 3
	xor	t0,t0,t5
	.loc 1 219 416 discriminator 3
	srli	s0,s0,10
	.loc 1 219 385 discriminator 3
	xor	t0,t0,s0
	.loc 1 219 621 discriminator 3
	lw	s0,48(t3)
	.loc 1 219 550 discriminator 3
	srri	t6, s6, 18
	.loc 1 219 479 discriminator 3
	srri	t5, s6, 7
	.loc 1 219 510 discriminator 3
	xor	t5,t5,t6
	.loc 1 219 614 discriminator 3
	srli	t6,s6,3
	.loc 1 219 621 discriminator 3
	add	s5,s5,s0
	.loc 1 219 582 discriminator 3
	xor	t5,t5,t6
	lw	t6,76(s1)
	.loc 1 219 621 discriminator 3
	add	t0,t0,s5
	add	t0,t0,t5
	.loc 1 219 210 discriminator 3
	xor	t5,a5,a4
	.loc 1 219 202 discriminator 3
	and	t5,t5,a3
	add	a7,a7,t6
	.loc 1 219 194 discriminator 3
	xor	t5,t5,a5
	add	a7,a7,t0
	add	a7,t5,a7
	.loc 1 219 108 discriminator 3
	srri	t6, a3, 11
	.loc 1 219 55 discriminator 3
	srri	t5, a3, 6
	.loc 1 219 77 discriminator 3
	xor	t5,t5,t6
	.loc 1 219 162 discriminator 3
	srri	t6, a3, 25
	.loc 1 219 131 discriminator 3
	xor	t5,t5,t6
	.loc 1 219 17 discriminator 3
	add	t5,t5,a7
.LVL36:
	.loc 1 219 639 is_stmt 1 discriminator 3
	.loc 1 219 851 discriminator 3
	.loc 1 219 729 is_stmt 0 discriminator 3
	srri	t6, a1, 13
	.loc 1 219 676 discriminator 3
	srri	a7, a1, 2
	.loc 1 219 698 discriminator 3
	xor	a7,a7,t6
	.loc 1 219 783 discriminator 3
	srri	t6, a1, 22
	.loc 1 219 752 discriminator 3
	xor	a7,a7,t6
	.loc 1 219 840 discriminator 3
	or	t6,t1,a1
	.loc 1 219 816 discriminator 3
	and	s0,t1,a1
	.loc 1 219 832 discriminator 3
	and	t6,t6,a6
	.loc 1 219 824 discriminator 3
	or	t6,t6,s0
	.loc 1 219 645 discriminator 3
	add	a7,a7,t6
	.loc 1 219 879 discriminator 3
	add	a7,a7,t5
	.loc 1 219 856 discriminator 3
	add	a2,a2,t5
	.loc 1 219 866 is_stmt 1 discriminator 3
	.loc 1 219 889 discriminator 3
	.loc 1 220 11 discriminator 3
	.loc 1 220 284 is_stmt 0 discriminator 3
	srri	t6, t2, 17
	.loc 1 220 354 discriminator 3
	srri	t5, t2, 19
.LVL37:
	.loc 1 218 244 discriminator 3
	sw	t2,72(t3)
	.loc 1 220 315 discriminator 3
	xor	t6,t6,t5
	.loc 1 220 416 discriminator 3
	srli	t2,t2,10
	.loc 1 220 446 discriminator 3
	lw	s5,20(t3)
	.loc 1 220 385 discriminator 3
	xor	t6,t6,t2
	.loc 1 220 621 discriminator 3
	lw	t2,52(t3)
	.loc 1 220 479 discriminator 3
	srri	t5, s5, 7
	.loc 1 220 816 discriminator 3
	and	s0,a1,a7
	.loc 1 220 621 discriminator 3
	add	s6,s6,t2
	.loc 1 220 550 discriminator 3
	srri	t2, s5, 18
	.loc 1 220 510 discriminator 3
	xor	t5,t5,t2
	.loc 1 220 614 discriminator 3
	srli	t2,s5,3
	.loc 1 220 582 discriminator 3
	xor	t5,t5,t2
	.loc 1 220 621 discriminator 3
	add	t6,t6,s6
	add	t6,t6,t5
	lw	t5,80(s1)
	.loc 1 220 210 discriminator 3
	xor	t2,a4,a3
	.loc 1 220 202 discriminator 3
	and	t2,t2,a2
	add	t5,t6,t5
	.loc 1 220 194 discriminator 3
	xor	t2,t2,a4
	add	a5,t5,a5
	add	t5,t2,a5
	.loc 1 220 108 discriminator 3
	srri	t2, a2, 11
	.loc 1 220 55 discriminator 3
	srri	a5, a2, 6
	.loc 1 220 77 discriminator 3
	xor	a5,a5,t2
	.loc 1 220 162 discriminator 3
	srri	t2, a2, 25
	.loc 1 220 131 discriminator 3
	xor	a5,a5,t2
	.loc 1 220 17 discriminator 3
	add	t2,a5,t5
.LVL38:
	.loc 1 220 639 is_stmt 1 discriminator 3
	.loc 1 220 851 discriminator 3
	.loc 1 220 729 is_stmt 0 discriminator 3
	srri	t5, a7, 13
	.loc 1 220 676 discriminator 3
	srri	a5, a7, 2
	.loc 1 220 698 discriminator 3
	xor	a5,a5,t5
	.loc 1 220 783 discriminator 3
	srri	t5, a7, 22
	.loc 1 220 752 discriminator 3
	xor	a5,a5,t5
	.loc 1 220 840 discriminator 3
	or	t5,a1,a7
	.loc 1 220 832 discriminator 3
	and	t5,t5,t1
	.loc 1 220 824 discriminator 3
	or	t5,t5,s0
	.loc 1 220 645 discriminator 3
	add	a5,a5,t5
	.loc 1 221 446 discriminator 3
	lw	s0,24(t3)
	.loc 1 220 879 discriminator 3
	add	a5,a5,t2
	.loc 1 220 856 discriminator 3
	add	a6,a6,t2
	.loc 1 220 866 is_stmt 1 discriminator 3
	.loc 1 220 889 discriminator 3
	.loc 1 221 11 discriminator 3
	.loc 1 221 284 is_stmt 0 discriminator 3
	srri	t5, t0, 17
	.loc 1 221 354 discriminator 3
	srri	t2, t0, 19
.LVL39:
	.loc 1 219 244 discriminator 3
	sw	t0,76(t3)
	.loc 1 221 315 discriminator 3
	xor	t5,t5,t2
	.loc 1 221 416 discriminator 3
	srli	t0,t0,10
	.loc 1 221 550 discriminator 3
	srri	t2, s0, 18
	.loc 1 221 385 discriminator 3
	xor	t5,t5,t0
	.loc 1 221 479 discriminator 3
	srri	t0, s0, 7
	.loc 1 221 510 discriminator 3
	xor	t0,t0,t2
	.loc 1 221 614 discriminator 3
	srli	t2,s0,3
	.loc 1 221 582 discriminator 3
	xor	t0,t0,t2
	.loc 1 221 621 discriminator 3
	add	s3,s3,s5
	lw	t2,84(s1)
	add	t5,t5,s3
	add	t5,t5,t0
	.loc 1 221 210 discriminator 3
	xor	t0,a3,a2
	add	t2,t5,t2
	.loc 1 221 202 discriminator 3
	and	t0,t0,a6
	.loc 1 221 194 discriminator 3
	xor	t0,t0,a3
	add	a4,t2,a4
	add	t2,t0,a4
	.loc 1 221 108 discriminator 3
	srri	t0, a6, 11
	.loc 1 221 55 discriminator 3
	srri	a4, a6, 6
	.loc 1 221 77 discriminator 3
	xor	a4,a4,t0
	.loc 1 221 162 discriminator 3
	srri	t0, a6, 25
	.loc 1 221 131 discriminator 3
	xor	a4,a4,t0
	.loc 1 221 17 discriminator 3
	add	t0,a4,t2
.LVL40:
	.loc 1 221 639 is_stmt 1 discriminator 3
	.loc 1 221 851 discriminator 3
	.loc 1 221 729 is_stmt 0 discriminator 3
	srri	t2, a5, 13
	.loc 1 221 676 discriminator 3
	srri	a4, a5, 2
	.loc 1 221 698 discriminator 3
	xor	a4,a4,t2
	.loc 1 221 783 discriminator 3
	srri	t2, a5, 22
	.loc 1 221 752 discriminator 3
	xor	a4,a4,t2
	.loc 1 221 840 discriminator 3
	or	t2,a7,a5
	.loc 1 221 816 discriminator 3
	and	s3,a7,a5
	.loc 1 221 832 discriminator 3
	and	t2,t2,a1
	.loc 1 221 824 discriminator 3
	or	t2,t2,s3
	.loc 1 221 645 discriminator 3
	add	a4,a4,t2
	.loc 1 221 879 discriminator 3
	add	a4,a4,t0
	.loc 1 221 856 discriminator 3
	add	t1,t1,t0
	.loc 1 221 866 is_stmt 1 discriminator 3
	.loc 1 221 889 discriminator 3
	.loc 1 222 11 discriminator 3
	.loc 1 222 446 is_stmt 0 discriminator 3
	lw	t2,28(t3)
	.loc 1 222 284 discriminator 3
	srri	t0, t6, 17
.LVL41:
	.loc 1 222 354 discriminator 3
	srri	s3, t6, 19
	.loc 1 220 244 discriminator 3
	sw	t6,80(t3)
	.loc 1 222 315 discriminator 3
	xor	t0,t0,s3
	.loc 1 222 416 discriminator 3
	srli	t6,t6,10
	.loc 1 222 385 discriminator 3
	xor	t6,t0,t6
	.loc 1 222 621 discriminator 3
	add	s0,s4,s0
	add	t6,t6,s0
	.loc 1 222 479 discriminator 3
	srri	t0, t2, 7
	.loc 1 222 550 discriminator 3
	srri	s0, t2, 18
	.loc 1 222 510 discriminator 3
	xor	t0,t0,s0
	.loc 1 222 614 discriminator 3
	srli	s0,t2,3
	.loc 1 222 582 discriminator 3
	xor	t0,t0,s0
	lw	s0,88(s1)
	.loc 1 222 621 discriminator 3
	add	t6,t6,t0
	.loc 1 222 210 discriminator 3
	xor	t0,a2,a6
	add	s0,t6,s0
	.loc 1 222 202 discriminator 3
	and	t0,t0,t1
	add	a3,s0,a3
	.loc 1 222 194 discriminator 3
	xor	t0,t0,a2
	add	t0,t0,a3
	.loc 1 222 244 discriminator 3
	sw	t6,88(t3)
	.loc 1 222 108 discriminator 3
	srri	a3, t1, 11
	.loc 1 222 55 discriminator 3
	srri	t6, t1, 6
	.loc 1 222 77 discriminator 3
	xor	t6,t6,a3
	.loc 1 222 162 discriminator 3
	srri	a3, t1, 25
	.loc 1 222 131 discriminator 3
	xor	a3,t6,a3
	.loc 1 222 17 discriminator 3
	add	t6,a3,t0
.LVL42:
	.loc 1 222 639 is_stmt 1 discriminator 3
	.loc 1 222 851 discriminator 3
	.loc 1 222 729 is_stmt 0 discriminator 3
	srri	t0, a4, 13
	.loc 1 222 676 discriminator 3
	srri	a3, a4, 2
	.loc 1 222 698 discriminator 3
	xor	a3,a3,t0
	.loc 1 222 783 discriminator 3
	srri	t0, a4, 22
	.loc 1 222 752 discriminator 3
	xor	a3,a3,t0
	.loc 1 222 840 discriminator 3
	or	t0,a5,a4
	.loc 1 222 832 discriminator 3
	and	t0,t0,a7
	.loc 1 222 816 discriminator 3
	and	s0,a5,a4
	.loc 1 222 824 discriminator 3
	or	t0,t0,s0
	.loc 1 222 645 discriminator 3
	add	a3,a3,t0
	.loc 1 222 879 discriminator 3
	add	a3,a3,t6
	.loc 1 222 856 discriminator 3
	add	a1,a1,t6
	.loc 1 222 866 is_stmt 1 discriminator 3
	.loc 1 222 889 discriminator 3
	.loc 1 223 11 discriminator 3
	.loc 1 223 446 is_stmt 0 discriminator 3
	lw	t0,32(t3)
	.loc 1 223 284 discriminator 3
	srri	t6, t5, 17
.LVL43:
	.loc 1 223 354 discriminator 3
	srri	s0, t5, 19
	.loc 1 221 244 discriminator 3
	sw	t5,84(t3)
	.loc 1 223 315 discriminator 3
	xor	t6,t6,s0
	.loc 1 223 416 discriminator 3
	srli	t5,t5,10
	.loc 1 223 385 discriminator 3
	xor	t5,t6,t5
	.loc 1 216 244 discriminator 3
	sw	t4,64(t3)
	.loc 1 223 621 discriminator 3
	add	t4,t4,t2
	.loc 1 223 550 discriminator 3
	srri	t6, t0, 18
	.loc 1 223 621 discriminator 3
	add	t4,t5,t4
	.loc 1 223 479 discriminator 3
	srri	t5, t0, 7
	.loc 1 223 510 discriminator 3
	xor	t5,t5,t6
	.loc 1 223 614 discriminator 3
	srli	t0,t0,3
	lw	t6,92(s1)
	.loc 1 223 582 discriminator 3
	xor	t5,t5,t0
	.loc 1 223 621 discriminator 3
	add	t4,t4,t5
	.loc 1 223 210 discriminator 3
	xor	t5,a6,t1
	add	t6,t4,t6
	.loc 1 223 202 discriminator 3
	and	t5,t5,a1
	add	a2,t6,a2
	.loc 1 223 194 discriminator 3
	xor	t5,t5,a6
	add	t5,t5,a2
	.loc 1 223 244 discriminator 3
	sw	t4,92(t3)
	.loc 1 223 108 discriminator 3
	srri	a2, a1, 11
	.loc 1 223 55 discriminator 3
	srri	t4, a1, 6
	.loc 1 223 77 discriminator 3
	xor	t4,t4,a2
	.loc 1 223 162 discriminator 3
	srri	a2, a1, 25
	.loc 1 223 131 discriminator 3
	xor	a2,t4,a2
	.loc 1 223 17 discriminator 3
	add	t4,a2,t5
.LVL44:
	.loc 1 223 639 is_stmt 1 discriminator 3
	.loc 1 223 851 discriminator 3
	.loc 1 223 729 is_stmt 0 discriminator 3
	srri	t5, a3, 13
	.loc 1 223 676 discriminator 3
	srri	a2, a3, 2
	.loc 1 223 698 discriminator 3
	xor	a2,a2,t5
	.loc 1 223 783 discriminator 3
	srri	t5, a3, 22
	.loc 1 223 752 discriminator 3
	xor	a2,a2,t5
	.loc 1 223 840 discriminator 3
	or	t5,a4,a3
	.loc 1 223 832 discriminator 3
	and	t5,t5,a5
	.loc 1 223 816 discriminator 3
	and	t6,a4,a3
	.loc 1 223 824 discriminator 3
	or	t5,t5,t6
	.loc 1 223 645 discriminator 3
	add	a2,a2,t5
	.loc 1 215 5 discriminator 3
	addi	t3,t3,32
	.loc 1 223 856 discriminator 3
	add	a7,a7,t4
	.loc 1 223 866 is_stmt 1 discriminator 3
	.loc 1 223 879 is_stmt 0 discriminator 3
	add	a2,a2,t4
	.loc 1 223 889 is_stmt 1 discriminator 3
	.loc 1 215 26 discriminator 3
	.loc 1 215 18 discriminator 3
	.loc 1 215 5 is_stmt 0 discriminator 3
	addi	s1,s1,32
	bne	s2,t3,.L16
	sw	a3,4(sp)
	sw	a5,12(sp)
	sw	a6,28(sp)
	sw	a7,16(sp)
	sw	t1,24(sp)
	sw	a1,20(sp)
	sw	a2,0(sp)
	sw	a4,8(sp)
	.loc 1 227 12
	li	a5,0
.LVL45:
	.loc 1 227 5
	li	a3,8
.LVL46:
.L17:
	.loc 1 228 9 is_stmt 1 discriminator 3
	.loc 1 228 23 is_stmt 0 discriminator 3
	lrw	a4,a0,a5,2
	lrw	a2,sp,a5,2
	add	a4,a4,a2
	srw	a4,a0,a5,2
	.loc 1 227 24 is_stmt 1 discriminator 3
	.loc 1 227 25 is_stmt 0 discriminator 3
	addi	a5,a5,1
.LVL47:
	.loc 1 227 17 is_stmt 1 discriminator 3
	.loc 1 227 5 is_stmt 0 discriminator 3
	bne	a5,a3,.L17
	.loc 1 230 1
	lw	s0,316(sp)
	.cfi_restore 8
	lw	s1,312(sp)
	.cfi_restore 9
	lw	s2,308(sp)
	.cfi_restore 18
	lw	s3,304(sp)
	.cfi_restore 19
	lw	s4,300(sp)
	.cfi_restore 20
	lw	s5,296(sp)
	.cfi_restore 21
	lw	s6,292(sp)
	.cfi_restore 22
	addi	sp,sp,320
	.cfi_def_cfa_offset 0
.LVL48:
	jr	ra
	.cfi_endproc
.LFE6:
	.size	utils_sha256_process, .-utils_sha256_process
	.section	.text.utils_sha256_update.part.0,"ax",@progbits
	.align	1
	.type	utils_sha256_update.part.0, @function
utils_sha256_update.part.0:
.LFB10:
	.loc 1 231 6 is_stmt 1
	.cfi_startproc
.LVL49:
	.loc 1 240 5
	.loc 1 240 22 is_stmt 0
	lw	a5,0(a0)
	.loc 1 231 6
	addi	sp,sp,-32
	.cfi_def_cfa_offset 32
	sw	s0,24(sp)
	sw	s1,20(sp)
	sw	s2,16(sp)
	sw	s3,12(sp)
	sw	ra,28(sp)
	sw	s4,8(sp)
	sw	s5,4(sp)
	sw	s6,0(sp)
	.cfi_offset 8, -8
	.cfi_offset 9, -12
	.cfi_offset 18, -16
	.cfi_offset 19, -20
	.cfi_offset 1, -4
	.cfi_offset 20, -24
	.cfi_offset 21, -28
	.cfi_offset 22, -32
	.loc 1 240 10
	andi	s3,a5,63
.LVL50:
	.loc 1 241 5 is_stmt 1
	.loc 1 243 5
	.loc 1 243 19 is_stmt 0
	add	a5,a5,a2
	sw	a5,0(a0)
	.loc 1 244 5 is_stmt 1
	.loc 1 246 5
	.loc 1 231 6 is_stmt 0
	mv	s1,a0
	mv	s2,a1
	mv	s0,a2
	.loc 1 246 8
	bleu	a2,a5,.L25
	.loc 1 247 9 is_stmt 1
	.loc 1 247 22 is_stmt 0
	lw	a5,4(a0)
	addi	a5,a5,1
	sw	a5,4(a0)
.L25:
	.loc 1 250 5 is_stmt 1
	.loc 1 250 8 is_stmt 0
	beq	s3,zero,.L26
	.loc 1 241 10
	li	s4,64
	sub	s4,s4,s3
	.loc 1 250 14
	bgtu	s4,s0,.L26
	.loc 1 251 9 is_stmt 1
	.loc 1 251 25 is_stmt 0
	addi	s5,s1,40
	.loc 1 251 9
	mv	a1,s2
.LVL51:
	mv	a2,s4
.LVL52:
	add	a0,s5,s3
.LVL53:
	call	memcpy
.LVL54:
	.loc 1 252 9 is_stmt 1
	mv	a1,s5
	mv	a0,s1
	addi	s0,s0,-64
.LVL55:
	.loc 1 254 14 is_stmt 0
	add	s0,s3,s0
.LVL56:
	.loc 1 252 9
	call	utils_sha256_process
.LVL57:
	.loc 1 253 9 is_stmt 1
	.loc 1 253 15 is_stmt 0
	add	s2,s2,s4
.LVL58:
	.loc 1 254 9 is_stmt 1
	.loc 1 255 9
	.loc 1 255 14 is_stmt 0
	li	s3,0
.LVL59:
.L26:
	mv	s4,s0
	add	s6,s2,s0
	.loc 1 258 11
	li	s5,63
	j	.L27
.LVL60:
.L28:
	.loc 1 259 9 is_stmt 1
	mv	a0,s1
	call	utils_sha256_process
.LVL61:
	.loc 1 260 9
	.loc 1 261 9
	.loc 1 261 14 is_stmt 0
	addi	s4,s4,-64
.LVL62:
.L27:
	sub	a1,s6,s4
.LVL63:
	.loc 1 258 11 is_stmt 1
	bgtu	s4,s5,.L28
	srli	a4,s0,6
	li	a5,-64
	mv	a2,s0
	mula	a2,a4,a5
	.loc 1 264 5
	andi	a1,s0,-64
.LVL64:
	add	a1,s2,a1
	.loc 1 264 8 is_stmt 0
	beq	a2,zero,.L24
	.loc 1 265 9 is_stmt 1
	.loc 1 267 1 is_stmt 0
	lw	s0,24(sp)
	.cfi_remember_state
	.cfi_restore 8
	.loc 1 265 25
	addi	a0,s1,40
	.loc 1 267 1
	lw	ra,28(sp)
	.cfi_restore 1
	lw	s1,20(sp)
	.cfi_restore 9
.LVL65:
	lw	s2,16(sp)
	.cfi_restore 18
	lw	s4,8(sp)
	.cfi_restore 20
.LVL66:
	lw	s5,4(sp)
	.cfi_restore 21
	lw	s6,0(sp)
	.cfi_restore 22
	.loc 1 265 9
	add	a0,a0,s3
.LVL67:
	.loc 1 267 1
	lw	s3,12(sp)
	.cfi_restore 19
.LVL68:
	addi	sp,sp,32
	.cfi_def_cfa_offset 0
	.loc 1 265 9
	tail	memcpy
.LVL69:
.L24:
	.cfi_restore_state
	.loc 1 267 1
	lw	ra,28(sp)
	.cfi_restore 1
	lw	s0,24(sp)
	.cfi_restore 8
	lw	s1,20(sp)
	.cfi_restore 9
.LVL70:
	lw	s2,16(sp)
	.cfi_restore 18
	lw	s3,12(sp)
	.cfi_restore 19
.LVL71:
	lw	s4,8(sp)
	.cfi_restore 20
.LVL72:
	lw	s5,4(sp)
	.cfi_restore 21
	lw	s6,0(sp)
	.cfi_restore 22
	addi	sp,sp,32
	.cfi_def_cfa_offset 0
	jr	ra
	.cfi_endproc
.LFE10:
	.size	utils_sha256_update.part.0, .-utils_sha256_update.part.0
	.section	.text.utils_sha256_update,"ax",@progbits
	.align	1
	.globl	utils_sha256_update
	.type	utils_sha256_update, @function
utils_sha256_update:
.LFB7:
	.loc 1 232 1 is_stmt 1
	.cfi_startproc
.LVL73:
	.loc 1 233 5
	.loc 1 234 5
	.loc 1 236 5
	.loc 1 236 8 is_stmt 0
	beq	a2,zero,.L34
	tail	utils_sha256_update.part.0
.LVL74:
.L34:
	.loc 1 267 1
	ret
	.cfi_endproc
.LFE7:
	.size	utils_sha256_update, .-utils_sha256_update
	.section	.text.utils_sha256_finish,"ax",@progbits
	.align	1
	.globl	utils_sha256_finish
	.type	utils_sha256_finish, @function
utils_sha256_finish:
.LFB8:
	.loc 1 277 1 is_stmt 1
	.cfi_startproc
.LVL75:
	.loc 1 278 5
	.loc 1 279 5
	.loc 1 280 5
	.loc 1 282 5
	.loc 1 282 23 is_stmt 0
	lw	a2,0(a0)
.LVL76:
	.loc 1 283 5 is_stmt 1
	.loc 1 285 5
	.loc 1 285 10
	.loc 1 285 57
	.loc 1 285 108
	.loc 1 285 158
	.loc 1 282 51 is_stmt 0
	lw	a5,4(a0)
	.loc 1 277 1
	addi	sp,sp,-48
	.cfi_def_cfa_offset 48
	.loc 1 282 27
	srli	a4,a2,29
	.loc 1 282 51
	slli	a5,a5,3
	.loc 1 282 10
	or	a5,a5,a4
.LVL77:
	rev	a5, a5
.LVL78:
	.loc 1 285 24
	sw	a5,24(sp)
	.loc 1 285 211 is_stmt 1
	.loc 1 286 5
	.loc 1 286 10
	.loc 1 286 56
	.loc 1 286 106
	.loc 1 286 155
	.loc 1 283 9 is_stmt 0
	slli	a5,a2,3
.LVL79:
	rev	a5, a5
.LVL80:
	.loc 1 277 1
	sw	s0,40(sp)
	.loc 1 286 24
	sw	a5,28(sp)
	.loc 1 286 207 is_stmt 1
	.loc 1 288 5
	.loc 1 277 1 is_stmt 0
	sw	ra,44(sp)
	.cfi_offset 8, -8
	.cfi_offset 1, -4
	.loc 1 288 10
	andi	a2,a2,63
.LVL81:
	.loc 1 289 5 is_stmt 1
	.loc 1 289 38 is_stmt 0
	li	a5,55
	.loc 1 277 1
	mv	s0,a1
	.loc 1 289 38
	bgtu	a2,a5,.L37
	.loc 1 289 38 discriminator 1
	li	a5,56
.L41:
	.loc 1 291 5 discriminator 2
	lui	a1,%hi(.LANCHOR1)
.LVL82:
	.loc 1 289 38 discriminator 2
	sub	a2,a5,a2
.LVL83:
	.loc 1 291 5 is_stmt 1 discriminator 2
	addi	a1,a1,%lo(.LANCHOR1)
	sw	a0,12(sp)
	call	utils_sha256_update
.LVL84:
	.loc 1 292 5 discriminator 2
.LBB8:
.LBB9:
	.loc 1 233 5 discriminator 2
	.loc 1 234 5 discriminator 2
	.loc 1 236 5 discriminator 2
	lw	a0,12(sp)
	li	a2,8
	addi	a1,sp,24
.LVL85:
	call	utils_sha256_update.part.0
.LVL86:
.LBE9:
.LBE8:
	.loc 1 294 5 discriminator 2
	.loc 1 294 10 discriminator 2
	.loc 1 294 58 is_stmt 0 discriminator 2
	lw	a0,12(sp)
	lbu	a5,11(a0)
	.loc 1 294 26 discriminator 2
	sb	a5,0(s0)
	.loc 1 294 66 is_stmt 1 discriminator 2
	.loc 1 294 118 is_stmt 0 discriminator 2
	lhu	a5,10(a0)
	.loc 1 294 86 discriminator 2
	sb	a5,1(s0)
	.loc 1 294 126 is_stmt 1 discriminator 2
	.loc 1 294 178 is_stmt 0 discriminator 2
	lw	a5,8(a0)
	srli	a5,a5,8
	.loc 1 294 146 discriminator 2
	sb	a5,2(s0)
	.loc 1 294 185 is_stmt 1 discriminator 2
	.loc 1 294 205 is_stmt 0 discriminator 2
	lw	a5,8(a0)
	sb	a5,3(s0)
	.loc 1 294 247 is_stmt 1 discriminator 2
	.loc 1 295 5 discriminator 2
	.loc 1 295 10 discriminator 2
	.loc 1 295 58 is_stmt 0 discriminator 2
	lbu	a5,15(a0)
	.loc 1 295 26 discriminator 2
	sb	a5,4(s0)
	.loc 1 295 66 is_stmt 1 discriminator 2
	.loc 1 295 118 is_stmt 0 discriminator 2
	lhu	a5,14(a0)
	.loc 1 295 86 discriminator 2
	sb	a5,5(s0)
	.loc 1 295 126 is_stmt 1 discriminator 2
	.loc 1 295 178 is_stmt 0 discriminator 2
	lw	a5,12(a0)
	srli	a5,a5,8
	.loc 1 295 146 discriminator 2
	sb	a5,6(s0)
	.loc 1 295 185 is_stmt 1 discriminator 2
	.loc 1 295 205 is_stmt 0 discriminator 2
	lw	a5,12(a0)
	sb	a5,7(s0)
	.loc 1 295 247 is_stmt 1 discriminator 2
	.loc 1 296 5 discriminator 2
	.loc 1 296 10 discriminator 2
	.loc 1 296 58 is_stmt 0 discriminator 2
	lbu	a5,19(a0)
	.loc 1 296 26 discriminator 2
	sb	a5,8(s0)
	.loc 1 296 66 is_stmt 1 discriminator 2
	.loc 1 296 118 is_stmt 0 discriminator 2
	lhu	a5,18(a0)
	.loc 1 296 86 discriminator 2
	sb	a5,9(s0)
	.loc 1 296 126 is_stmt 1 discriminator 2
	.loc 1 296 178 is_stmt 0 discriminator 2
	lw	a5,16(a0)
	srli	a5,a5,8
	.loc 1 296 146 discriminator 2
	sb	a5,10(s0)
	.loc 1 296 185 is_stmt 1 discriminator 2
	.loc 1 296 205 is_stmt 0 discriminator 2
	lw	a5,16(a0)
	sb	a5,11(s0)
	.loc 1 296 247 is_stmt 1 discriminator 2
	.loc 1 297 5 discriminator 2
	.loc 1 297 10 discriminator 2
	.loc 1 297 59 is_stmt 0 discriminator 2
	lbu	a5,23(a0)
	.loc 1 297 27 discriminator 2
	sb	a5,12(s0)
	.loc 1 297 67 is_stmt 1 discriminator 2
	.loc 1 297 120 is_stmt 0 discriminator 2
	lhu	a5,22(a0)
	.loc 1 297 88 discriminator 2
	sb	a5,13(s0)
	.loc 1 297 128 is_stmt 1 discriminator 2
	.loc 1 297 181 is_stmt 0 discriminator 2
	lw	a5,20(a0)
	srli	a5,a5,8
	.loc 1 297 149 discriminator 2
	sb	a5,14(s0)
	.loc 1 297 188 is_stmt 1 discriminator 2
	.loc 1 297 209 is_stmt 0 discriminator 2
	lw	a5,20(a0)
	sb	a5,15(s0)
	.loc 1 297 251 is_stmt 1 discriminator 2
	.loc 1 298 5 discriminator 2
	.loc 1 298 10 discriminator 2
	.loc 1 298 59 is_stmt 0 discriminator 2
	lbu	a5,27(a0)
	.loc 1 298 27 discriminator 2
	sb	a5,16(s0)
	.loc 1 298 67 is_stmt 1 discriminator 2
	.loc 1 298 120 is_stmt 0 discriminator 2
	lhu	a5,26(a0)
	.loc 1 298 88 discriminator 2
	sb	a5,17(s0)
	.loc 1 298 128 is_stmt 1 discriminator 2
	.loc 1 298 181 is_stmt 0 discriminator 2
	lw	a5,24(a0)
	srli	a5,a5,8
	.loc 1 298 149 discriminator 2
	sb	a5,18(s0)
	.loc 1 298 188 is_stmt 1 discriminator 2
	.loc 1 298 209 is_stmt 0 discriminator 2
	lw	a5,24(a0)
	sb	a5,19(s0)
	.loc 1 298 251 is_stmt 1 discriminator 2
	.loc 1 299 5 discriminator 2
	.loc 1 299 10 discriminator 2
	.loc 1 299 59 is_stmt 0 discriminator 2
	lbu	a5,31(a0)
	.loc 1 299 27 discriminator 2
	sb	a5,20(s0)
	.loc 1 299 67 is_stmt 1 discriminator 2
	.loc 1 299 120 is_stmt 0 discriminator 2
	lhu	a5,30(a0)
	.loc 1 299 88 discriminator 2
	sb	a5,21(s0)
	.loc 1 299 128 is_stmt 1 discriminator 2
	.loc 1 299 181 is_stmt 0 discriminator 2
	lw	a5,28(a0)
	srli	a5,a5,8
	.loc 1 299 149 discriminator 2
	sb	a5,22(s0)
	.loc 1 299 188 is_stmt 1 discriminator 2
	.loc 1 299 209 is_stmt 0 discriminator 2
	lw	a5,28(a0)
	sb	a5,23(s0)
	.loc 1 299 251 is_stmt 1 discriminator 2
	.loc 1 300 5 discriminator 2
	.loc 1 300 10 discriminator 2
	.loc 1 300 59 is_stmt 0 discriminator 2
	lbu	a5,35(a0)
	.loc 1 300 27 discriminator 2
	sb	a5,24(s0)
	.loc 1 300 67 is_stmt 1 discriminator 2
	.loc 1 300 120 is_stmt 0 discriminator 2
	lhu	a5,34(a0)
	.loc 1 300 88 discriminator 2
	sb	a5,25(s0)
	.loc 1 300 128 is_stmt 1 discriminator 2
	.loc 1 300 181 is_stmt 0 discriminator 2
	lw	a5,32(a0)
	srli	a5,a5,8
	.loc 1 300 149 discriminator 2
	sb	a5,26(s0)
	.loc 1 300 188 is_stmt 1 discriminator 2
	.loc 1 300 209 is_stmt 0 discriminator 2
	lw	a5,32(a0)
	sb	a5,27(s0)
	.loc 1 300 251 is_stmt 1 discriminator 2
	.loc 1 302 5 discriminator 2
	.loc 1 302 8 is_stmt 0 discriminator 2
	lw	a5,104(a0)
	bne	a5,zero,.L36
	.loc 1 303 9 is_stmt 1
	.loc 1 303 14
	.loc 1 303 63 is_stmt 0
	lbu	a5,39(a0)
	.loc 1 303 31
	sb	a5,28(s0)
	.loc 1 303 71 is_stmt 1
	.loc 1 303 124 is_stmt 0
	lhu	a5,38(a0)
	.loc 1 303 92
	sb	a5,29(s0)
	.loc 1 303 132 is_stmt 1
	.loc 1 303 185 is_stmt 0
	lw	a5,36(a0)
	srli	a5,a5,8
	.loc 1 303 153
	sb	a5,30(s0)
	.loc 1 303 192 is_stmt 1
	.loc 1 303 213 is_stmt 0
	lw	a5,36(a0)
	sb	a5,31(s0)
	.loc 1 303 255 is_stmt 1
.L36:
	.loc 1 305 1 is_stmt 0
	lw	ra,44(sp)
	.cfi_remember_state
	.cfi_restore 1
	lw	s0,40(sp)
	.cfi_restore 8
.LVL87:
	addi	sp,sp,48
	.cfi_def_cfa_offset 0
.LVL88:
	jr	ra
.LVL89:
.L37:
	.cfi_restore_state
	.loc 1 289 38 discriminator 2
	li	a5,120
	j	.L41
	.cfi_endproc
.LFE8:
	.size	utils_sha256_finish, .-utils_sha256_finish
	.section	.text.utils_sha256,"ax",@progbits
	.align	1
	.globl	utils_sha256
	.type	utils_sha256, @function
utils_sha256:
.LFB9:
	.loc 1 308 1 is_stmt 1
	.cfi_startproc
.LVL90:
	.loc 1 309 5
	.loc 1 311 5
	.loc 1 308 1 is_stmt 0
	addi	sp,sp,-144
	.cfi_def_cfa_offset 144
	sw	s1,132(sp)
	.cfi_offset 9, -12
	mv	s1,a0
	.loc 1 311 5
	addi	a0,sp,20
.LVL91:
	.loc 1 308 1
	sw	ra,140(sp)
	sw	s0,136(sp)
	.cfi_offset 1, -4
	.cfi_offset 8, -8
	.loc 1 308 1
	sw	a1,12(sp)
	mv	s0,a2
	.loc 1 311 5
	call	utils_sha256_init
.LVL92:
	.loc 1 312 5 is_stmt 1
	addi	a0,sp,20
	call	utils_sha256_starts
.LVL93:
	.loc 1 313 5
	lw	a1,12(sp)
	addi	a0,sp,20
	mv	a2,a1
	mv	a1,s1
	call	utils_sha256_update
.LVL94:
	.loc 1 314 5
	mv	a1,s0
	addi	a0,sp,20
	call	utils_sha256_finish
.LVL95:
	.loc 1 315 5
	addi	a0,sp,20
	call	utils_sha256_free
.LVL96:
	.loc 1 316 1 is_stmt 0
	lw	ra,140(sp)
	.cfi_restore 1
	lw	s0,136(sp)
	.cfi_restore 8
.LVL97:
	lw	s1,132(sp)
	.cfi_restore 9
.LVL98:
	addi	sp,sp,144
	.cfi_def_cfa_offset 0
.LVL99:
	jr	ra
	.cfi_endproc
.LFE9:
	.size	utils_sha256, .-utils_sha256
	.section	.rodata.K,"a"
	.align	2
	.set	.LANCHOR0,. + 0
	.type	K, @object
	.size	K, 256
K:
	.word	1116352408
	.word	1899447441
	.word	-1245643825
	.word	-373957723
	.word	961987163
	.word	1508970993
	.word	-1841331548
	.word	-1424204075
	.word	-670586216
	.word	310598401
	.word	607225278
	.word	1426881987
	.word	1925078388
	.word	-2132889090
	.word	-1680079193
	.word	-1046744716
	.word	-459576895
	.word	-272742522
	.word	264347078
	.word	604807628
	.word	770255983
	.word	1249150122
	.word	1555081692
	.word	1996064986
	.word	-1740746414
	.word	-1473132947
	.word	-1341970488
	.word	-1084653625
	.word	-958395405
	.word	-710438585
	.word	113926993
	.word	338241895
	.word	666307205
	.word	773529912
	.word	1294757372
	.word	1396182291
	.word	1695183700
	.word	1986661051
	.word	-2117940946
	.word	-1838011259
	.word	-1564481375
	.word	-1474664885
	.word	-1035236496
	.word	-949202525
	.word	-778901479
	.word	-694614492
	.word	-200395387
	.word	275423344
	.word	430227734
	.word	506948616
	.word	659060556
	.word	883997877
	.word	958139571
	.word	1322822218
	.word	1537002063
	.word	1747873779
	.word	1955562222
	.word	2024104815
	.word	-2067236844
	.word	-1933114872
	.word	-1866530822
	.word	-1538233109
	.word	-1090935817
	.word	-965641998
	.section	.rodata.sha256_padding,"a"
	.align	2
	.set	.LANCHOR1,. + 0
	.type	sha256_padding, @object
	.size	sha256_padding, 64
sha256_padding:
	.string	"\200"
	.string	""
	.string	""
	.string	""
	.string	""
	.string	""
	.string	""
	.string	""
	.string	""
	.string	""
	.string	""
	.string	""
	.string	""
	.string	""
	.string	""
	.string	""
	.string	""
	.string	""
	.string	""
	.string	""
	.string	""
	.string	""
	.string	""
	.string	""
	.string	""
	.string	""
	.string	""
	.string	""
	.string	""
	.string	""
	.string	""
	.string	""
	.string	""
	.string	""
	.string	""
	.string	""
	.string	""
	.string	""
	.string	""
	.string	""
	.string	""
	.string	""
	.string	""
	.string	""
	.string	""
	.string	""
	.string	""
	.string	""
	.string	""
	.string	""
	.string	""
	.string	""
	.string	""
	.string	""
	.string	""
	.string	""
	.string	""
	.string	""
	.string	""
	.string	""
	.string	""
	.string	""
	.string	""
	.text
.Letext0:
	.file 2 "./toolchain/linux_x86_64/lib/gcc/riscv64-unknown-elf/10.4.0/include/stddef.h"
	.file 3 "./toolchain/linux_x86_64/riscv64-unknown-elf/include/machine/_default_types.h"
	.file 4 "./toolchain/linux_x86_64/riscv64-unknown-elf/include/sys/_stdint.h"
	.file 5 "./components/utils/math/include/utils_sha256.h"
	.file 6 "./toolchain/linux_x86_64/riscv64-unknown-elf/include/string.h"
	.file 7 "<built-in>"