	.file	"qcc74x_ef_ctrl.c"
	.option nopic
	.attribute arch, "rv32i2p0_m2p0_a2p0_f2p0_c2p0_p0p9_zpn0p9_zpsfoperand0p9_xtheade2p0"
	.attribute unaligned_access, 0
	.attribute stack_align, 16
	.text
.Ltext0:
	.cfi_sections	.debug_frame
	.section	.tcm_code../drivers/lhal/src/qcc74x_ef_ctrl.c232,"ax",@progbits
	.align	1
	.type	qcc74x_ef_ctrl_program_efuse_r0.constprop.0, @function
qcc74x_ef_ctrl_program_efuse_r0.constprop.0:
.LFB21:
	.file 1 "./drivers/lhal/src/qcc74x_ef_ctrl.c"
	.loc 1 232 120
	.cfi_startproc
.LVL0:
	.loc 1 234 5
	.loc 1 237 5
	.loc 1 249 5
	.loc 1 232 120 is_stmt 0
	addi	sp,sp,-16
	.cfi_def_cfa_offset 16
	.loc 1 249 74
	li	a5,2408448
	.loc 1 232 120
	sw	s0,8(sp)
	sw	s1,4(sp)
	sw	ra,12(sp)
	.cfi_offset 8, -8
	.cfi_offset 9, -12
	.cfi_offset 1, -4
	.loc 1 249 74
	li	s1,537227264
	addi	a5,a5,-256
	.loc 1 264 74
	li	s0,2473984
	.loc 1 249 74
	sw	a5,-2048(s1)
	.loc 1 252 5 is_stmt 1
.LVL1:
	.loc 1 264 5
	.loc 1 264 74 is_stmt 0
	addi	a5,s0,-248
	sw	a5,-2048(s1)
	.loc 1 267 5 is_stmt 1
	li	a0,4
	call	arch_delay_us
.LVL2:
	.loc 1 270 5
	.loc 1 282 5
	.loc 1 282 74 is_stmt 0
	addi	s0,s0,-232
	sw	s0,-2048(s1)
	.loc 1 283 1
	lw	ra,12(sp)
	.cfi_restore 1
	lw	s0,8(sp)
	.cfi_restore 8
	lw	s1,4(sp)
	.cfi_restore 9
	addi	sp,sp,16
	.cfi_def_cfa_offset 0
	jr	ra
	.cfi_endproc
.LFE21:
	.size	qcc74x_ef_ctrl_program_efuse_r0.constprop.0, .-qcc74x_ef_ctrl_program_efuse_r0.constprop.0
	.section	.tcm_code../drivers/lhal/src/qcc74x_ef_ctrl.c79,"ax",@progbits
	.align	1
	.globl	qcc74x_ef_ctrl_busy
	.type	qcc74x_ef_ctrl_busy, @function
qcc74x_ef_ctrl_busy:
.LFB6:
	.loc 1 80 1 is_stmt 1
	.cfi_startproc
.LVL3:
	.loc 1 84 5
	.loc 1 86 5
	.loc 1 86 13 is_stmt 0
	li	a5,537227264
	lw	a0,-2048(a5)
.LVL4:
	.loc 1 88 5 is_stmt 1
	.loc 1 94 1 is_stmt 0
	extu	a0,a0,2+1-1,2
.LVL5:
	ret
	.cfi_endproc
.LFE6:
	.size	qcc74x_ef_ctrl_busy, .-qcc74x_ef_ctrl_busy
	.section	.tcm_code../drivers/lhal/src/qcc74x_ef_ctrl.c146,"ax",@progbits
	.align	1
	.type	qcc74x_ef_ctrl_switch_ahb_clk_r0, @function
qcc74x_ef_ctrl_switch_ahb_clk_r0:
.LFB8:
	.loc 1 147 1 is_stmt 1
	.cfi_startproc
.LVL6:
	.loc 1 148 5
	.loc 1 149 5
	.loc 1 151 5
	.loc 1 147 1 is_stmt 0
	addi	sp,sp,-16
	.cfi_def_cfa_offset 16
	sw	s0,8(sp)
	.cfi_offset 8, -8
	.loc 1 151 11
	li	s0,159744
	.loc 1 147 1
	sw	s1,4(sp)
	sw	s2,0(sp)
	sw	ra,12(sp)
	.cfi_offset 9, -12
	.cfi_offset 18, -16
	.cfi_offset 1, -4
	.loc 1 147 1
	mv	s2,a0
	.loc 1 151 11
	addi	s0,s0,256
	li	s1,1
.LVL7:
.L5:
	.loc 1 151 11 is_stmt 1
	.loc 1 151 12 is_stmt 0
	mv	a0,s2
	call	qcc74x_ef_ctrl_busy
.LVL8:
	.loc 1 151 11
	bne	a0,s1,.L6
	.loc 1 152 9 is_stmt 1
.LVL9:
	.loc 1 153 9
	.loc 1 153 12 is_stmt 0
	addi	s0,s0,-1
.LVL10:
	bne	s0,zero,.L5
.L6:
	.loc 1 158 5 is_stmt 1
.LVL11:
	.loc 1 170 5
	.loc 1 174 1 is_stmt 0
	lw	s0,8(sp)
	.cfi_restore 8
.LVL12:
	.loc 1 170 74
	li	a5,2408448
	.loc 1 174 1
	lw	ra,12(sp)
	.cfi_restore 1
	lw	s1,4(sp)
	.cfi_restore 9
	lw	s2,0(sp)
	.cfi_restore 18
.LVL13:
	.loc 1 170 74
	li	a4,537227264
	addi	a5,a5,-256
	sw	a5,-2048(a4)
	.loc 1 173 5 is_stmt 1
	.loc 1 174 1 is_stmt 0
	.loc 1 173 5
	li	a0,4
	.loc 1 174 1
	addi	sp,sp,16
	.cfi_def_cfa_offset 0
	.loc 1 173 5
	tail	arch_delay_us
.LVL14:
	.cfi_endproc
.LFE8:
	.size	qcc74x_ef_ctrl_switch_ahb_clk_r0, .-qcc74x_ef_ctrl_switch_ahb_clk_r0
	.section	.tcm_code../drivers/lhal/src/qcc74x_ef_ctrl.c412,"ax",@progbits
	.align	1
	.type	qcc74x_ef_ctrl_load_efuse_r0, @function
qcc74x_ef_ctrl_load_efuse_r0:
.LFB11:
	.loc 1 413 1 is_stmt 1
	.cfi_startproc
.LVL15:
	.loc 1 414 5
	.loc 1 415 5
	.loc 1 417 5
.LBB13:
.LBB14:
	.loc 1 368 5
	.loc 1 369 5
	.loc 1 372 5
.LBE14:
.LBE13:
	.loc 1 413 1 is_stmt 0
	addi	sp,sp,-16
	.cfi_def_cfa_offset 16
	sw	ra,12(sp)
	.cfi_offset 1, -4
.LBB16:
.LBB15:
	.loc 1 372 5
	call	qcc74x_ef_ctrl_switch_ahb_clk_r0
.LVL16:
	.loc 1 375 5 is_stmt 1
	.loc 1 375 17
	.loc 1 372 5 is_stmt 0
	li	a5,537223168
	.loc 1 375 5
	addi	a4,a5,512
.LVL17:
.L13:
	.loc 1 376 9 is_stmt 1
	.loc 1 376 25 is_stmt 0
	swia	zero,(a5),4,0
	.loc 1 375 30 is_stmt 1
	.loc 1 375 17
	.loc 1 375 5 is_stmt 0
	bne	a5,a4,.L13
.LVL18:
.LBE15:
.LBE16:
	.loc 1 420 5 is_stmt 1
	.loc 1 432 5
	.loc 1 432 74 is_stmt 0
	li	a5,2408448
	addi	a3,a5,-256
	li	a4,537227264
	sw	a3,-2048(a4)
	.loc 1 434 5 is_stmt 1
.LVL19:
	.loc 1 446 5
	.loc 1 446 74 is_stmt 0
	addi	a5,a5,-240
	sw	a5,-2048(a4)
	.loc 1 448 5 is_stmt 1
	li	a0,10
	call	arch_delay_us
.LVL20:
	li	a5,159744
	addi	a5,a5,256
	.loc 1 452 17 is_stmt 0
	li	a2,537227264
	.loc 1 458 5
	li	a3,2
.LVL21:
.L15:
	.loc 1 451 5 is_stmt 1
	.loc 1 452 9
	.loc 1 452 17 is_stmt 0
	lw	a4,-2048(a2)
.LVL22:
	.loc 1 453 9 is_stmt 1
	.loc 1 455 9
	.loc 1 455 12 is_stmt 0
	addi	a5,a5,-1
.LVL23:
	beq	a5,zero,.L14
.LVL24:
	.loc 1 458 13 is_stmt 1
	.loc 1 458 55 is_stmt 0
	andi	a4,a4,6
.LVL25:
	.loc 1 458 5
	bne	a4,a3,.L15
.LVL26:
.L14:
	.loc 1 461 5 is_stmt 1
	.loc 1 473 5
	.loc 1 474 1 is_stmt 0
	lw	ra,12(sp)
	.cfi_restore 1
	.loc 1 473 74
	li	a5,2408448
	li	a4,537227264
	addi	a5,a5,-256
	sw	a5,-2048(a4)
	.loc 1 474 1
	addi	sp,sp,16
	.cfi_def_cfa_offset 0
	jr	ra
	.cfi_endproc
.LFE11:
	.size	qcc74x_ef_ctrl_load_efuse_r0, .-qcc74x_ef_ctrl_load_efuse_r0
	.section	.tcm_code../drivers/lhal/src/qcc74x_ef_ctrl.c567,"ax",@progbits
	.align	1
	.globl	qcc74x_ef_ctrl_autoload_done
	.type	qcc74x_ef_ctrl_autoload_done, @function
qcc74x_ef_ctrl_autoload_done:
.LFB12:
	.loc 1 568 1 is_stmt 1
	.cfi_startproc
.LVL27:
	.loc 1 572 5
	.loc 1 579 5
	.loc 1 568 1 is_stmt 0
	addi	sp,sp,-16
	.cfi_def_cfa_offset 16
	sw	ra,12(sp)
	.cfi_offset 1, -4
	.loc 1 579 5
	call	qcc74x_ef_ctrl_switch_ahb_clk_r0
.LVL28:
	.loc 1 581 5 is_stmt 1
	.loc 1 581 13 is_stmt 0
	li	a5,537227264
	lw	a0,-2048(a5)
.LVL29:
	.loc 1 583 5 is_stmt 1
	.loc 1 589 1 is_stmt 0
	lw	ra,12(sp)
	.cfi_restore 1
	extu	a0,a0,1+1-1,1
.LVL30:
	addi	sp,sp,16
	.cfi_def_cfa_offset 0
	jr	ra
	.cfi_endproc
.LFE12:
	.size	qcc74x_ef_ctrl_autoload_done, .-qcc74x_ef_ctrl_autoload_done
	.section	.tcm_code../drivers/lhal/src/qcc74x_ef_ctrl.c599,"ax",@progbits
	.align	1
	.globl	qcc74x_ef_ctrl_set_para
	.type	qcc74x_ef_ctrl_set_para, @function
qcc74x_ef_ctrl_set_para:
.LFB13:
	.loc 1 600 1 is_stmt 1
	.cfi_startproc
.LVL31:
	.loc 1 604 5
	.loc 1 607 5
	.loc 1 600 1 is_stmt 0
	addi	sp,sp,-16
	.cfi_def_cfa_offset 16
	sw	s0,8(sp)
	.cfi_offset 8, -8
	mv	s0,a0
	.loc 1 607 5
	li	a0,0
.LVL32:
	.loc 1 600 1
	sw	ra,12(sp)
	.cfi_offset 1, -4
	.loc 1 607 5
	call	qcc74x_ef_ctrl_switch_ahb_clk_r0
.LVL33:
	.loc 1 609 5 is_stmt 1
	.loc 1 610 21 is_stmt 0
	lhu	a5,8(s0)
	.loc 1 611 21
	lhu	a4,6(s0)
	.loc 1 619 21
	lhu	a3,16(s0)
	.loc 1 610 30
	slli	a5,a5,6
	.loc 1 611 30
	slli	a4,a4,12
	.loc 1 610 36
	or	a5,a5,a4
	.loc 1 609 30
	lhu	a4,10(s0)
	.loc 1 619 30
	slli	a3,a3,14
	.loc 1 632 1
	lw	ra,12(sp)
	.cfi_restore 1
	.loc 1 610 36
	or	a5,a5,a4
	.loc 1 612 21
	lhu	a4,4(s0)
	.loc 1 632 1
	li	a0,0
	.loc 1 612 26
	slli	a4,a4,18
	.loc 1 611 37
	or	a5,a5,a4
	.loc 1 613 21
	lhu	a4,2(s0)
	.loc 1 613 31
	slli	a4,a4,24
	.loc 1 612 33
	or	a5,a5,a4
.LVL34:
	.loc 1 615 5 is_stmt 1
	.loc 1 615 74 is_stmt 0
	li	a4,537227264
	addi	a4,a4,-2048
	sw	a5,4(a4)
	.loc 1 617 5 is_stmt 1
	.loc 1 618 21 is_stmt 0
	lhu	a5,18(s0)
.LVL35:
	.loc 1 618 26
	slli	a5,a5,6
	.loc 1 618 32
	or	a5,a5,a3
	.loc 1 617 26
	lhu	a3,20(s0)
	.loc 1 618 32
	or	a5,a5,a3
	.loc 1 620 21
	lhu	a3,14(s0)
	.loc 1 620 29
	slli	a3,a3,20
	.loc 1 619 37
	or	a5,a5,a3
	.loc 1 621 21
	lhu	a3,12(s0)
	.loc 1 632 1
	lw	s0,8(sp)
	.cfi_restore 8
.LVL36:
	.loc 1 621 31
	slli	a3,a3,26
	.loc 1 620 36
	or	a5,a5,a3
.LVL37:
	.loc 1 623 5 is_stmt 1
	.loc 1 623 74 is_stmt 0
	sw	a5,8(a4)
	.loc 1 625 5 is_stmt 1
	.loc 1 625 13 is_stmt 0
	lw	a5,0(a4)
.LVL38:
	.loc 1 626 5 is_stmt 1
	.loc 1 627 5
	.loc 1 628 5
	.loc 1 628 74 is_stmt 0
	sw	a5,0(a4)
	.loc 1 630 5 is_stmt 1
	.loc 1 632 1 is_stmt 0
	addi	sp,sp,16
	.cfi_def_cfa_offset 0
	jr	ra
	.cfi_endproc
.LFE13:
	.size	qcc74x_ef_ctrl_set_para, .-qcc74x_ef_ctrl_set_para
	.section	.tcm_code../drivers/lhal/src/qcc74x_ef_ctrl.c646,"ax",@progbits
	.align	1
	.globl	qcc74x_ef_ctrl_write_direct
	.type	qcc74x_ef_ctrl_write_direct, @function
qcc74x_ef_ctrl_write_direct:
.LFB14:
	.loc 1 647 1 is_stmt 1
	.cfi_startproc
.LVL39:
	addi	sp,sp,-32
	.cfi_def_cfa_offset 32
	sw	s1,20(sp)
	sw	s3,12(sp)
	sw	ra,28(sp)
	sw	s0,24(sp)
	sw	s2,16(sp)
	sw	s4,8(sp)
	sw	s5,4(sp)
	.cfi_offset 9, -12
	.cfi_offset 19, -20
	.cfi_offset 1, -4
	.cfi_offset 8, -8
	.cfi_offset 18, -16
	.cfi_offset 20, -24
	.cfi_offset 21, -28
	.loc 1 665 8 is_stmt 0
	li	a5,512
	.loc 1 647 1
	mv	s1,a0
	.loc 1 651 5 is_stmt 1
.LVL40:
	.loc 1 652 5
	.loc 1 653 5
	.loc 1 654 5
	.loc 1 655 5
	.loc 1 660 5
	.loc 1 663 5
	.loc 1 133 5
	.loc 1 665 5
	.loc 1 647 1 is_stmt 0
	mv	s3,a4
	.loc 1 665 8
	bgtu	a1,a5,.L27
	.loc 1 665 40 discriminator 1
	addsl	a4, a1, a3, 2
.LVL41:
	mv	s0,a1
	mv	s2,a3
	.loc 1 665 29 discriminator 1
	bgtu	a4,a5,.L27
	mv	s4,a2
	.loc 1 665 66 discriminator 2
	bne	a2,zero,.L28
.L27:
	.loc 1 666 9 is_stmt 1
	.loc 1 666 12 is_stmt 0
	beq	s3,zero,.L26
	.loc 1 667 13 is_stmt 1
	.loc 1 667 24 is_stmt 0
	call	qcc74x_irq_save
.LVL42:
	mv	s2,a0
.LVL43:
	.loc 1 672 13 is_stmt 1
	.loc 1 675 19 is_stmt 0
	li	s0,159744
	.loc 1 672 13
	mv	a0,s1
.LVL44:
	call	qcc74x_ef_ctrl_switch_ahb_clk_r0
.LVL45:
	.loc 1 673 13 is_stmt 1
	.loc 1 674 13
	.loc 1 675 19 is_stmt 0
	addi	s0,s0,256
	.loc 1 674 13
	call	qcc74x_ef_ctrl_program_efuse_r0.constprop.0
.LVL46:
	.loc 1 675 13 is_stmt 1
	.loc 1 675 19 is_stmt 0
	li	s3,1
.LVL47:
.L30:
	.loc 1 675 19 is_stmt 1
	.loc 1 675 20 is_stmt 0
	mv	a0,s1
	call	qcc74x_ef_ctrl_busy
.LVL48:
	.loc 1 675 19
	beq	a0,s3,.L32
.LVL49:
.L31:
	.loc 1 682 13 is_stmt 1
	.loc 1 683 13
	li	a0,100
	call	arch_delay_us
.LVL50:
	.loc 1 695 13
	mv	a0,s2
.LVL51:
.L51:
	.loc 1 764 1 is_stmt 0
	lw	s0,24(sp)
	.cfi_remember_state
	.cfi_restore 8
	lw	ra,28(sp)
	.cfi_restore 1
	lw	s1,20(sp)
	.cfi_restore 9
.LVL52:
	lw	s2,16(sp)
	.cfi_restore 18
	lw	s3,12(sp)
	.cfi_restore 19
	lw	s4,8(sp)
	.cfi_restore 20
	lw	s5,4(sp)
	.cfi_restore 21
	addi	sp,sp,32
	.cfi_def_cfa_offset 0
	.loc 1 762 5
	tail	qcc74x_irq_restore
.LVL53:
.L32:
	.cfi_restore_state
	.loc 1 676 17 is_stmt 1
	.loc 1 677 17
	.loc 1 677 20 is_stmt 0
	addi	s0,s0,-1
.LVL54:
	beq	s0,zero,.L31
.LVL55:
	.loc 1 680 17 is_stmt 1
	li	a0,10
	call	arch_delay_us
.LVL56:
	j	.L30
.LVL57:
.L28:
	.loc 1 700 5
	.loc 1 700 8 is_stmt 0
	bne	a1,a5,.L33
	.loc 1 652 14
	li	s2,0
.L33:
.LVL58:
	.loc 1 714 5 is_stmt 1
	.loc 1 716 5
	.loc 1 716 16 is_stmt 0
	call	qcc74x_irq_save
.LVL59:
	mv	s5,a0
.LVL60:
	.loc 1 720 5 is_stmt 1
	.loc 1 720 8 is_stmt 0
	beq	s2,zero,.L35
	.loc 1 722 9 is_stmt 1
	mv	a0,s1
.LVL61:
	call	qcc74x_ef_ctrl_switch_ahb_clk_r0
.LVL62:
	.loc 1 724 9
	li	a0,537223168
	mv	a2,s2
	mv	a1,s4
	add	a0,s0,a0
.LVL63:
	call	arch_memcpy4
.LVL64:
	.loc 1 725 9
	.loc 1 726 9
	.loc 1 728 9
	.loc 1 728 12 is_stmt 0
	beq	s3,zero,.L35
	.loc 1 729 13 is_stmt 1
	.loc 1 730 13
	.loc 1 731 19 is_stmt 0
	li	s0,159744
.LVL65:
	.loc 1 730 13
	call	qcc74x_ef_ctrl_program_efuse_r0.constprop.0
.LVL66:
	.loc 1 731 13 is_stmt 1
	.loc 1 731 19 is_stmt 0
	addi	s0,s0,256
	li	s2,1
.LVL67:
.L37:
	.loc 1 731 19 is_stmt 1
	.loc 1 731 20 is_stmt 0
	mv	a0,s1
	call	qcc74x_ef_ctrl_busy
.LVL68:
	.loc 1 731 19
	beq	a0,s2,.L39
.LVL69:
.L38:
	.loc 1 738 13 is_stmt 1
	.loc 1 739 13
	li	a0,100
	call	arch_delay_us
.LVL70:
.L35:
	.loc 1 762 5
	mv	a0,s5
	j	.L51
.LVL71:
.L39:
	.loc 1 732 17
	.loc 1 733 17
	.loc 1 733 20 is_stmt 0
	addi	s0,s0,-1
.LVL72:
	beq	s0,zero,.L38
.LVL73:
	.loc 1 736 17 is_stmt 1
	li	a0,10
	call	arch_delay_us
.LVL74:
	j	.L37
.LVL75:
.L26:
	.loc 1 764 1 is_stmt 0
	lw	ra,28(sp)
	.cfi_restore 1
	lw	s0,24(sp)
	.cfi_restore 8
	lw	s1,20(sp)
	.cfi_restore 9
.LVL76:
	lw	s2,16(sp)
	.cfi_restore 18
	lw	s3,12(sp)
	.cfi_restore 19
	lw	s4,8(sp)
	.cfi_restore 20
	lw	s5,4(sp)
	.cfi_restore 21
	addi	sp,sp,32
	.cfi_def_cfa_offset 0
	jr	ra
	.cfi_endproc
.LFE14:
	.size	qcc74x_ef_ctrl_write_direct, .-qcc74x_ef_ctrl_write_direct
	.section	.tcm_code../drivers/lhal/src/qcc74x_ef_ctrl.c778,"ax",@progbits
	.align	1
	.globl	qcc74x_ef_ctrl_read_direct
	.type	qcc74x_ef_ctrl_read_direct, @function
qcc74x_ef_ctrl_read_direct:
.LFB15:
	.loc 1 779 1 is_stmt 1
	.cfi_startproc
.LVL77:
	addi	sp,sp,-48
	.cfi_def_cfa_offset 48
	sw	s2,32(sp)
	sw	ra,44(sp)
	sw	s0,40(sp)
	sw	s1,36(sp)
	sw	s3,28(sp)
	sw	s4,24(sp)
	.cfi_offset 18, -16
	.cfi_offset 1, -4
	.cfi_offset 8, -8
	.cfi_offset 9, -12
	.cfi_offset 19, -20
	.cfi_offset 20, -24
	.loc 1 796 8 is_stmt 0
	li	a5,512
	.loc 1 779 1
	mv	s2,a0
	.loc 1 783 5 is_stmt 1
.LVL78:
	.loc 1 784 5
	.loc 1 785 5
	.loc 1 786 5
	.loc 1 791 5
	.loc 1 794 5
	.loc 1 133 5
	.loc 1 796 5
	.loc 1 796 8 is_stmt 0
	bgtu	a1,a5,.L53
	mv	s1,a3
	.loc 1 796 40 discriminator 1
	addsl	a3, a1, a3, 2
.LVL79:
	mv	s0,a1
	.loc 1 796 29 discriminator 1
	bgtu	a3,a5,.L53
	mv	s3,a2
	.loc 1 796 66 discriminator 2
	bne	a2,zero,.L54
.LVL80:
.L53:
	.loc 1 797 9 is_stmt 1
	.loc 1 797 12 is_stmt 0
	beq	a4,zero,.L52
	.loc 1 798 13 is_stmt 1
	.loc 1 798 24 is_stmt 0
	call	qcc74x_irq_save
.LVL81:
	mv	s0,a0
.LVL82:
	.loc 1 802 13 is_stmt 1
	mv	a0,s2
	call	qcc74x_ef_ctrl_load_efuse_r0
.LVL83:
	.loc 1 809 13
	mv	a0,s0
.LVL84:
.L65:
	.loc 1 861 1 is_stmt 0
	lw	s0,40(sp)
	.cfi_remember_state
	.cfi_restore 8
	lw	ra,44(sp)
	.cfi_restore 1
	lw	s1,36(sp)
	.cfi_restore 9
	lw	s2,32(sp)
	.cfi_restore 18
.LVL85:
	lw	s3,28(sp)
	.cfi_restore 19
	lw	s4,24(sp)
	.cfi_restore 20
	addi	sp,sp,48
	.cfi_def_cfa_offset 0
	.loc 1 859 5
	tail	qcc74x_irq_restore
.LVL86:
.L54:
	.cfi_restore_state
	.loc 1 814 5 is_stmt 1
	.loc 1 814 8 is_stmt 0
	bne	a1,a5,.L56
	.loc 1 784 14
	li	s1,0
.LVL87:
.L56:
	sw	a4,12(sp)
.LVL88:
	.loc 1 828 5 is_stmt 1
	.loc 1 830 5
	.loc 1 830 16 is_stmt 0
	call	qcc74x_irq_save
.LVL89:
	mv	s4,a0
.LVL90:
	.loc 1 834 5 is_stmt 1
	.loc 1 834 8 is_stmt 0
	beq	s1,zero,.L57
	.loc 1 835 9 is_stmt 1
	.loc 1 835 12 is_stmt 0
	lw	a4,12(sp)
	.loc 1 836 13
	mv	a0,s2
.LVL91:
	.loc 1 835 12
	beq	a4,zero,.L58
.LVL92:
	.loc 1 836 13 is_stmt 1
	call	qcc74x_ef_ctrl_load_efuse_r0
.LVL93:
.L59:
	.loc 1 840 9
	li	a1,537223168
	mv	a2,s1
	add	a1,s0,a1
	mv	a0,s3
	call	arch_memcpy4
.LVL94:
	.loc 1 841 9
	.loc 1 842 9
.L57:
	.loc 1 859 5
	mv	a0,s4
	j	.L65
.LVL95:
.L58:
	.loc 1 838 13
	call	qcc74x_ef_ctrl_switch_ahb_clk_r0
.LVL96:
	j	.L59
.LVL97:
.L52:
	.loc 1 861 1 is_stmt 0
	lw	ra,44(sp)
	.cfi_restore 1
	lw	s0,40(sp)
	.cfi_restore 8
	lw	s1,36(sp)
	.cfi_restore 9
	lw	s2,32(sp)
	.cfi_restore 18
	lw	s3,28(sp)
	.cfi_restore 19
	lw	s4,24(sp)
	.cfi_restore 20
	addi	sp,sp,48
	.cfi_def_cfa_offset 0
	jr	ra
	.cfi_endproc
.LFE15:
	.size	qcc74x_ef_ctrl_read_direct, .-qcc74x_ef_ctrl_read_direct
	.globl	__ashldi3
	.globl	__lshrdi3
	.section	.tcm_code../drivers/lhal/src/qcc74x_ef_ctrl.c873,"ax",@progbits
	.align	1
	.globl	qcc74x_ef_ctrl_read_common_trim
	.type	qcc74x_ef_ctrl_read_common_trim, @function
qcc74x_ef_ctrl_read_common_trim:
.LFB16:
	.loc 1 874 1 is_stmt 1
	.cfi_startproc
.LVL98:
	.loc 1 878 5
	.loc 1 879 5
	.loc 1 880 5
	.loc 1 874 1 is_stmt 0
	addi	sp,sp,-80
	.cfi_def_cfa_offset 80
	sw	s1,68(sp)
	sw	s2,64(sp)
	sw	s3,60(sp)
	sw	s5,52(sp)
	sw	a3,12(sp)
	sw	ra,76(sp)
	sw	s0,72(sp)
	sw	s4,56(sp)
	sw	s6,48(sp)
	sw	s7,44(sp)
	.cfi_offset 9, -12
	.cfi_offset 18, -16
	.cfi_offset 19, -20
	.cfi_offset 21, -28
	.cfi_offset 1, -4
	.cfi_offset 8, -8
	.cfi_offset 20, -24
	.cfi_offset 22, -32
	.cfi_offset 23, -36
	.loc 1 874 1
	mv	s5,a0
	mv	s3,a1
	mv	s1,a2
	.loc 1 880 42
	sw	zero,28(sp)
	.loc 1 881 5 is_stmt 1
	.loc 1 882 5
	.loc 1 888 5
	.loc 1 888 16 is_stmt 0
	call	qcc74x_irq_save
.LVL99:
	.loc 1 895 8
	lw	a3,12(sp)
	.loc 1 888 16
	mv	s2,a0
.LVL100:
	.loc 1 890 5 is_stmt 1
	.loc 1 133 5
	.loc 1 895 5
	.loc 1 895 8 is_stmt 0
	beq	a3,zero,.L67
	.loc 1 897 9 is_stmt 1
	mv	a0,s5
.LVL101:
	call	qcc74x_ef_ctrl_load_efuse_r0
.LVL102:
.L67:
	.loc 1 903 5
	.loc 1 904 5
	.loc 1 905 5
	.loc 1 906 5
	.loc 1 903 14 is_stmt 0
	li	a5,65536
	sw	a5,0(s1)
	.loc 1 908 5 is_stmt 1
	.loc 1 908 21 is_stmt 0
	addi	a0,sp,28
	call	qcc74x_ef_ctrl_get_common_trim_list
.LVL103:
	mv	s6,a0
.LVL104:
	.loc 1 910 5 is_stmt 1
	.loc 1 910 12 is_stmt 0
	li	s0,0
	li	s7,12
.LVL105:
.L68:
	.loc 1 910 17 is_stmt 1 discriminator 1
	.loc 1 910 5 is_stmt 0 discriminator 1
	beq	s0,s6,.L78
	.loc 1 911 9 is_stmt 1
	mul	s4,s0,s7
	.loc 1 911 43 is_stmt 0
	lw	a5,28(sp)
.LBB20:
.LBB21:
	.loc 1 67 13
	mv	a2,s3
.LBE21:
.LBE20:
	.loc 1 911 43
	lrw	a1,a5,s4,0
.LVL106:
.LBB24:
.LBB22:
	.loc 1 66 5 is_stmt 1
	.loc 1 67 5
.L69:
	.loc 1 67 18
	.loc 1 67 5 is_stmt 0
	lbu	a5,0(a2)
	bne	a5,zero,.L70
	.loc 1 68 5 is_stmt 1
.LVL107:
.LBE22:
.LBE24:
	.loc 1 911 13 is_stmt 0
	sub	a2,a2,s3
	mv	a0,s3
	call	arch_memcmp
.LVL108:
	.loc 1 911 12
	bne	a0,zero,.L71
	.loc 1 913 13 is_stmt 1
	.loc 1 913 29 is_stmt 0
	lw	a5,28(sp)
	add	a5,a5,s4
	.loc 1 913 16
	lhu	a4,4(a5)
	li	a5,4096
	bgeu	a4,a5,.L72
	.loc 1 915 17 is_stmt 1
	mv	a0,s5
	call	qcc74x_ef_ctrl_switch_ahb_clk_r0
.LVL109:
.L72:
	.loc 1 923 13
	.loc 1 923 34 is_stmt 0
	lw	a4,28(sp)
	.loc 1 924 81
	li	a5,537223168
	.loc 1 923 34
	add	a4,a4,s4
	.loc 1 923 37
	lhu	a2,10(a4)
	.loc 1 923 23
	sb	a2,3(s1)
	.loc 1 924 13 is_stmt 1
	.loc 1 924 96 is_stmt 0
	lhu	a3,4(a4)
	.loc 1 924 105
	srli	a1,a3,5
	.loc 1 924 21
	lrw	a1,a5,a1,2
.LVL110:
	.loc 1 925 13 is_stmt 1
	.loc 1 925 30 is_stmt 0
	li	a5,1
	sll	a3,a5,a3
	.loc 1 925 25
	and	a3,a3,a1
	.loc 1 925 16
	beq	a3,zero,.L73
	.loc 1 926 17 is_stmt 1
	.loc 1 926 26 is_stmt 0
	sb	a5,0(s1)
.L73:
	.loc 1 928 13 is_stmt 1
	.loc 1 928 96 is_stmt 0
	lhu	a3,6(a4)
	.loc 1 928 81
	li	a5,537223168
	.loc 1 928 109
	srli	a1,a3,5
.LVL111:
	.loc 1 928 21
	lrw	a1,a5,a1,2
.LVL112:
	.loc 1 929 13 is_stmt 1
	.loc 1 929 30 is_stmt 0
	li	a5,1
	sll	a3,a5,a3
	.loc 1 929 25
	and	a3,a3,a1
	.loc 1 929 16
	beq	a3,zero,.L74
	.loc 1 930 17 is_stmt 1
	.loc 1 930 30 is_stmt 0
	sb	a5,1(s1)
.L74:
	.loc 1 933 13 is_stmt 1
	.loc 1 933 31 is_stmt 0
	lhu	a4,8(a4)
	.loc 1 933 16
	li	a5,32
.LBB25:
	.loc 1 934 105
	li	a3,537223168
.LBE25:
	.loc 1 933 43
	andi	s3,a4,31
.LVL113:
	.loc 1 933 49
	add	a1,s3,a2
.LVL114:
.LBB26:
	.loc 1 934 132
	srli	a4,a4,5
.LBE26:
	.loc 1 933 16
	ble	a1,a5,.L75
.LBB27:
	.loc 1 934 17 is_stmt 1
	.loc 1 934 48 is_stmt 0
	lrw	s5,a3,a4,2
.LVL115:
	.loc 1 935 17 is_stmt 1
	.loc 1 935 136 is_stmt 0
	addi	a3,a3,4
	.loc 1 935 42
	lrw	s4,a3,a4,2
.LVL116:
	.loc 1 936 17 is_stmt 1
	.loc 1 937 17
	.loc 1 937 67 is_stmt 0
	li	a0,1
	li	a1,0
	call	__ashldi3
.LVL117:
	.loc 1 937 94
	addi	s0,a0,-1
.LVL118:
	.loc 1 936 26
	mv	a2,s3
	mv	a0,s5
	mv	a1,s4
	call	__lshrdi3
.LVL119:
	.loc 1 937 31
	and	a0,s0,a0
.LVL120:
.L76:
.LBE27:
	.loc 1 944 31
	lhu	a5,0(s1)
	sw	a0,4(s1)
	.loc 1 944 13 is_stmt 1
	.loc 1 944 16 is_stmt 0
	or	a0,a5,a0
	bne	a0,zero,.L77
	.loc 1 945 17 is_stmt 1
	.loc 1 945 29 is_stmt 0
	li	a5,1
	sb	a5,2(s1)
.L78:
	.loc 1 956 5 is_stmt 1
	mv	a0,s2
	call	qcc74x_irq_restore
.LVL121:
	.loc 1 958 1 is_stmt 0
	lw	ra,76(sp)
	.cfi_remember_state
	.cfi_restore 1
	lw	s0,72(sp)
	.cfi_restore 8
	lw	s1,68(sp)
	.cfi_restore 9
.LVL122:
	lw	s2,64(sp)
	.cfi_restore 18
.LVL123:
	lw	s3,60(sp)
	.cfi_restore 19
	lw	s4,56(sp)
	.cfi_restore 20
	lw	s5,52(sp)
	.cfi_restore 21
	lw	s6,48(sp)
	.cfi_restore 22
.LVL124:
	lw	s7,44(sp)
	.cfi_restore 23
	addi	sp,sp,80
	.cfi_def_cfa_offset 0
	jr	ra
.LVL125:
.L70:
	.cfi_restore_state
.LBB28:
.LBB23:
	.loc 1 67 38 is_stmt 1
	.loc 1 67 31
	addi	a2,a2,1
.LVL126:
	j	.L69
.LVL127:
.L75:
.LBE23:
.LBE28:
	.loc 1 939 17
	.loc 1 939 25 is_stmt 0
	lrw	a4,a3,a4,2
.LVL128:
	.loc 1 940 17 is_stmt 1
	.loc 1 941 17
	.loc 1 941 45 is_stmt 0
	li	a5,1
	sll	a0,a5,a2
	.loc 1 941 72
	addi	a0,a0,-1
	.loc 1 940 25
	srl	a4,a4,s3
.LVL129:
	.loc 1 941 39
	and	a0,a0,a4
	j	.L76
.LVL130:
.L77:
	.loc 1 947 17 is_stmt 1
	.loc 1 947 29 is_stmt 0
	sb	zero,2(s1)
	j	.L78
.LVL131:
.L71:
	.loc 1 910 36 is_stmt 1 discriminator 2
	.loc 1 910 37 is_stmt 0 discriminator 2
	addi	s0,s0,1
.LVL132:
	j	.L68
	.cfi_endproc
.LFE16:
	.size	qcc74x_ef_ctrl_read_common_trim, .-qcc74x_ef_ctrl_read_common_trim
	.section	.tcm_code../drivers/lhal/src/qcc74x_ef_ctrl.c1077,"ax",@progbits
	.align	1
	.globl	qcc74x_ef_ctrl_is_all_bits_zero
	.type	qcc74x_ef_ctrl_is_all_bits_zero, @function
qcc74x_ef_ctrl_is_all_bits_zero:
.LFB18:
	.loc 1 1078 1 is_stmt 1
	.cfi_startproc
.LVL133:
	.loc 1 1082 5
	.loc 1 1084 5
	.loc 1 1086 8 is_stmt 0
	li	a5,31
	.loc 1 1084 9
	srl	a0,a0,a1
.LVL134:
	.loc 1 1086 5 is_stmt 1
	.loc 1 1086 8 is_stmt 0
	bgtu	a2,a5,.L92
	.loc 1 1089 9 is_stmt 1
	.loc 1 1089 19 is_stmt 0
	li	a5,1
	sll	a2,a5,a2
.LVL135:
	.loc 1 1089 27
	addi	a2,a2,-1
.LVL136:
.L91:
	.loc 1 1092 5 is_stmt 1
	.loc 1 1092 14 is_stmt 0
	and	a0,a2,a0
.LVL137:
	.loc 1 1098 1
	seqz	a0,a0
	ret
.LVL138:
.L92:
	.loc 1 1087 14
	li	a2,-1
.LVL139:
	j	.L91
	.cfi_endproc
.LFE18:
	.size	qcc74x_ef_ctrl_is_all_bits_zero, .-qcc74x_ef_ctrl_is_all_bits_zero
	.section	.tcm_code../drivers/lhal/src/qcc74x_ef_ctrl.c1108,"ax",@progbits
	.align	1
	.globl	qcc74x_ef_ctrl_get_byte_zero_cnt
	.type	qcc74x_ef_ctrl_get_byte_zero_cnt, @function
qcc74x_ef_ctrl_get_byte_zero_cnt:
.LFB19:
	.loc 1 1109 1 is_stmt 1
	.cfi_startproc
.LVL140:
	.loc 1 1113 5
	.loc 1 1114 5
	.loc 1 1116 5
	.loc 1 1116 17
	.loc 1 1116 12 is_stmt 0
	li	a5,0
	.loc 1 1113 14
	li	a4,0
	.loc 1 1116 5
	li	a2,8
.LVL141:
.L95:
	.loc 1 1117 9 is_stmt 1
	.loc 1 1117 30 is_stmt 0
	sra	a3,a0,a5
	andi	a3,a3,1
	.loc 1 1117 12
	bne	a3,zero,.L94
	.loc 1 1118 13 is_stmt 1
	.loc 1 1118 17 is_stmt 0
	addi	a4,a4,1
.LVL142:
.L94:
	.loc 1 1116 24 is_stmt 1 discriminator 2
	.loc 1 1116 25 is_stmt 0 discriminator 2
	addi	a5,a5,1
.LVL143:
	.loc 1 1116 17 is_stmt 1 discriminator 2
	.loc 1 1116 5 is_stmt 0 discriminator 2
	bne	a5,a2,.L95
	.loc 1 1122 5 is_stmt 1
	.loc 1 1124 1 is_stmt 0
	mv	a0,a4
.LVL144:
	ret
	.cfi_endproc
.LFE19:
	.size	qcc74x_ef_ctrl_get_byte_zero_cnt, .-qcc74x_ef_ctrl_get_byte_zero_cnt
	.section	.tcm_code../drivers/lhal/src/qcc74x_ef_ctrl.c1135,"ax",@progbits
	.align	1
	.globl	qcc74x_ef_ctrl_get_trim_parity
	.type	qcc74x_ef_ctrl_get_trim_parity, @function
qcc74x_ef_ctrl_get_trim_parity:
.LFB20:
	.loc 1 1136 1 is_stmt 1
	.cfi_startproc
.LVL145:
	.loc 1 1140 5
	.loc 1 1141 5
	.loc 1 1143 5
	li	a4,0
	.loc 1 1140 13 is_stmt 0
	li	a5,0
	.loc 1 1144 22
	li	a2,1
.LVL146:
.L98:
	.loc 1 1143 17 is_stmt 1 discriminator 1
	.loc 1 1143 5 is_stmt 0 discriminator 1
	andi	a3,a4,0xff
	bgtu	a1,a3,.L100
	.loc 1 1149 5 is_stmt 1
	.loc 1 1151 1 is_stmt 0
	andi	a0,a5,1
.LVL147:
	ret
.LVL148:
.L100:
	.loc 1 1144 9 is_stmt 1
	.loc 1 1144 22 is_stmt 0
	sll	a3,a2,a4
	.loc 1 1144 17
	and	a3,a3,a0
	.loc 1 1144 12
	beq	a3,zero,.L99
	.loc 1 1145 13 is_stmt 1
	.loc 1 1145 16 is_stmt 0
	addi	a5,a5,1
.LVL149:
	andi	a5,a5,0xff
.LVL150:
.L99:
	.loc 1 1143 26 is_stmt 1 discriminator 2
	addi	a4,a4,1
.LVL151:
	j	.L98
	.cfi_endproc
.LFE20:
	.size	qcc74x_ef_ctrl_get_trim_parity, .-qcc74x_ef_ctrl_get_trim_parity
	.section	.tcm_code../drivers/lhal/src/qcc74x_ef_ctrl.c971,"ax",@progbits
	.align	1
	.globl	qcc74x_ef_ctrl_write_common_trim
	.type	qcc74x_ef_ctrl_write_common_trim, @function
qcc74x_ef_ctrl_write_common_trim:
.LFB17:
	.loc 1 972 1
	.cfi_startproc
.LVL152:
	.loc 1 976 5
	.loc 1 977 5
	.loc 1 978 5
	.loc 1 979 5
	.loc 1 972 1 is_stmt 0
	addi	sp,sp,-64
	.cfi_def_cfa_offset 64
	sw	s1,52(sp)
	.cfi_offset 9, -12
	mv	s1,a0
	.loc 1 988 21
	addi	a0,sp,12
.LVL153:
	.loc 1 972 1
	sw	ra,60(sp)
	sw	s0,56(sp)
	sw	s2,48(sp)
	sw	s3,44(sp)
	sw	s4,40(sp)
	sw	s5,36(sp)
	sw	s6,32(sp)
	sw	s8,24(sp)
	.cfi_offset 1, -4
	.cfi_offset 8, -8
	.cfi_offset 18, -16
	.cfi_offset 19, -20
	.cfi_offset 20, -24
	.cfi_offset 21, -28
	.cfi_offset 22, -32
	.cfi_offset 24, -40
	mv	s6,a1
	mv	s5,a2
	mv	s3,a3
	sw	s7,28(sp)
	.cfi_offset 23, -36
	.loc 1 979 42
	sw	zero,12(sp)
	.loc 1 980 5 is_stmt 1
	.loc 1 981 5
	.loc 1 982 5
.LVL154:
	.loc 1 988 5
	.loc 1 988 21 is_stmt 0
	call	qcc74x_ef_ctrl_get_common_trim_list
.LVL155:
	mv	s0,a0
.LVL156:
	.loc 1 990 5 is_stmt 1
	.loc 1 990 16 is_stmt 0
	call	qcc74x_irq_save
.LVL157:
	mv	s2,a0
.LVL158:
	.loc 1 992 5 is_stmt 1
	.loc 1 133 5
	.loc 1 994 5
	.loc 1 994 12 is_stmt 0
	li	s4,0
	li	s8,12
.LVL159:
.L105:
	.loc 1 994 17 is_stmt 1 discriminator 1
	.loc 1 994 5 is_stmt 0 discriminator 1
	beq	s4,s0,.L114
	.loc 1 995 9 is_stmt 1
	mul	s7,s4,s8
	.loc 1 995 43 is_stmt 0
	lw	a5,12(sp)
.LBB31:
.LBB32:
	.loc 1 67 13
	mv	a2,s6
.LBE32:
.LBE31:
	.loc 1 995 43
	lrw	a1,a5,s7,0
.LVL160:
.LBB35:
.LBB33:
	.loc 1 66 5 is_stmt 1
	.loc 1 67 5
.L106:
	.loc 1 67 18
	.loc 1 67 5 is_stmt 0
	lbu	a5,0(a2)
	bne	a5,zero,.L107
	.loc 1 68 5 is_stmt 1
.LVL161:
.LBE33:
.LBE35:
	.loc 1 995 13 is_stmt 0
	sub	a2,a2,s6
	mv	a0,s6
	call	arch_memcmp
.LVL162:
	.loc 1 995 12
	bne	a0,zero,.L108
	.loc 1 1000 13 is_stmt 1
	.loc 1 1000 29 is_stmt 0
	lw	a5,12(sp)
	add	a5,a5,s7
	.loc 1 1000 16
	lhu	a4,4(a5)
	li	a5,4096
	bgeu	a4,a5,.L109
	.loc 1 1002 17 is_stmt 1
	mv	a0,s1
	call	qcc74x_ef_ctrl_switch_ahb_clk_r0
.LVL163:
.L109:
	.loc 1 1010 13
	.loc 1 1010 93 is_stmt 0
	lw	s0,12(sp)
.LVL164:
	.loc 1 1011 27
	li	s4,1
.LVL165:
	.loc 1 1014 22
	mv	a0,s5
	.loc 1 1010 93
	add	s0,s0,s7
	.loc 1 1010 96
	lhu	s8,4(s0)
	.loc 1 1010 81
	li	s7,537223168
	.loc 1 1014 72
	lhu	s6,10(s0)
.LVL166:
	.loc 1 1010 105
	srli	a4,s8,5
	.loc 1 1010 21
	lrw	a3,s7,a4,2
.LVL167:
	.loc 1 1011 13 is_stmt 1
	.loc 1 1011 27 is_stmt 0
	sll	a5,s4,s8
	.loc 1 1014 22
	andi	a1,s6,0xff
	.loc 1 1011 21
	or	a5,a5,a3
.LVL168:
	.loc 1 1012 13 is_stmt 1
	.loc 1 1012 106 is_stmt 0
	srw	a5,s7,a4,2
	.loc 1 1014 13 is_stmt 1
	.loc 1 1014 22 is_stmt 0
	call	qcc74x_ef_ctrl_get_trim_parity
.LVL169:
	.loc 1 1015 13 is_stmt 1
	.loc 1 1015 16 is_stmt 0
	beq	a0,zero,.L110
	.loc 1 1016 17 is_stmt 1
	.loc 1 1016 100 is_stmt 0
	lhu	a4,6(s0)
	.loc 1 1016 113
	srli	a5,a4,5
	.loc 1 1016 25
	lrw	a3,s7,a5,2
.LVL170:
	.loc 1 1017 17 is_stmt 1
	.loc 1 1017 31 is_stmt 0
	sll	s4,s4,a4
	.loc 1 1017 25
	or	s4,s4,a3
.LVL171:
	.loc 1 1018 17 is_stmt 1
	.loc 1 1018 114 is_stmt 0
	srw	s4,s7,a5,2
.LVL172:
.L110:
	.loc 1 1021 13 is_stmt 1
	.loc 1 1021 31 is_stmt 0
	lhu	a5,8(s0)
	.loc 1 1021 16
	li	a3,32
	.loc 1 1022 85
	li	a4,537223168
	.loc 1 1021 43
	andi	a1,a5,31
	.loc 1 1021 49
	add	s6,s6,a1
	.loc 1 1022 112
	srli	a5,a5,5
	.loc 1 1023 35
	sll	a0,s5,a1
.LVL173:
	.loc 1 1021 16
	ble	s6,a3,.L111
	.loc 1 1022 17 is_stmt 1
	.loc 1 1022 25 is_stmt 0
	lrw	a2,a4,a5,2
.LVL174:
	.loc 1 1023 17 is_stmt 1
	.loc 1 1027 42 is_stmt 0
	sub	a3,a3,a1
	.loc 1 1027 35
	srl	a3,s5,a3
	.loc 1 1023 25
	or	a2,a2,a0
.LVL175:
	.loc 1 1024 17 is_stmt 1
	.loc 1 1024 113 is_stmt 0
	srw	a2,a4,a5,2
	.loc 1 1026 17 is_stmt 1
	.loc 1 1026 28 is_stmt 0
	lrw	a2,a4,a5,2
.LVL176:
	.loc 1 1028 112
	addi	a4,a4,4
.LVL177:
	.loc 1 1026 25
	addi	a2,a2,4
.LVL178:
	.loc 1 1027 17 is_stmt 1
	.loc 1 1027 25 is_stmt 0
	or	a3,a3,a2
.LVL179:
	.loc 1 1028 17 is_stmt 1
.L127:
	.loc 1 1032 17
	.loc 1 1032 113 is_stmt 0
	srw	a3,a4,a5,2
	.loc 1 1035 13 is_stmt 1
	.loc 1 1035 16 is_stmt 0
	beq	s3,zero,.L114
	.loc 1 1037 17 is_stmt 1
	.loc 1 1037 20 is_stmt 0
	li	a5,4096
	bgeu	s8,a5,.L114
	.loc 1 1038 21 is_stmt 1
	.loc 1 1039 21
	.loc 1 1040 27 is_stmt 0
	li	s0,159744
	.loc 1 1039 21
	call	qcc74x_ef_ctrl_program_efuse_r0.constprop.0
.LVL180:
	.loc 1 1040 21 is_stmt 1
	.loc 1 1040 27 is_stmt 0
	addi	s0,s0,256
	li	s3,1
.LVL181:
.L116:
	.loc 1 1040 27 is_stmt 1
	.loc 1 1040 28 is_stmt 0
	mv	a0,s1
	call	qcc74x_ef_ctrl_busy
.LVL182:
	.loc 1 1040 27
	beq	a0,s3,.L118
.LVL183:
.L117:
	.loc 1 1047 21 is_stmt 1
	.loc 1 1048 21
	li	a0,100
	call	arch_delay_us
.LVL184:
.L114:
	.loc 1 1063 5
	mv	a0,s2
	call	qcc74x_irq_restore
.LVL185:
	.loc 1 1065 1 is_stmt 0
	lw	ra,60(sp)
	.cfi_remember_state
	.cfi_restore 1
	lw	s0,56(sp)
	.cfi_restore 8
	lw	s1,52(sp)
	.cfi_restore 9
.LVL186:
	lw	s2,48(sp)
	.cfi_restore 18
.LVL187:
	lw	s3,44(sp)
	.cfi_restore 19
	lw	s4,40(sp)
	.cfi_restore 20
	lw	s5,36(sp)
	.cfi_restore 21
.LVL188:
	lw	s6,32(sp)
	.cfi_restore 22
	lw	s7,28(sp)
	.cfi_restore 23
	lw	s8,24(sp)
	.cfi_restore 24
	addi	sp,sp,64
	.cfi_def_cfa_offset 0
	jr	ra
.LVL189:
.L107:
	.cfi_restore_state
.LBB36:
.LBB34:
	.loc 1 67 38 is_stmt 1
	.loc 1 67 31
	addi	a2,a2,1
.LVL190:
	j	.L106
.LVL191:
.L111:
.LBE34:
.LBE36:
	.loc 1 1030 17
	.loc 1 1030 25 is_stmt 0
	lrw	a3,a4,a5,2
.LVL192:
	.loc 1 1031 17 is_stmt 1
	.loc 1 1031 25 is_stmt 0
	or	a3,a3,a0
.LVL193:
	j	.L127
.LVL194:
.L118:
	.loc 1 1041 25 is_stmt 1
	.loc 1 1042 25
	.loc 1 1042 28 is_stmt 0
	addi	s0,s0,-1
.LVL195:
	beq	s0,zero,.L117
.LVL196:
	.loc 1 1045 25 is_stmt 1
	li	a0,10
	call	arch_delay_us
.LVL197:
	j	.L116
.LVL198:
.L108:
	.loc 1 994 36 discriminator 2
	.loc 1 994 37 is_stmt 0 discriminator 2
	addi	s4,s4,1
.LVL199:
	j	.L105
	.cfi_endproc
.LFE17:
	.size	qcc74x_ef_ctrl_write_common_trim, .-qcc74x_ef_ctrl_write_common_trim
	.text
.Letext0:
	.file 2 "./toolchain/linux_x86_64/riscv64-unknown-elf/include/machine/_default_types.h"
	.file 3 "./toolchain/linux_x86_64/riscv64-unknown-elf/include/sys/_stdint.h"
	.file 4 "./toolchain/linux_x86_64/lib/gcc/riscv64-unknown-elf/10.4.0/include/stddef.h"
	.file 5 "./drivers/lhal/include/qcc74x_core.h"
	.file 6 "./drivers/lhal/include/qcc74x_ef_ctrl.h"
	.file 7 "./drivers/lhal/include/qcc74x_irq.h"
	.file 8 "./drivers/lhal/include/qcc74x_common.h"