	.file	"qcc74x_rtc.c"
	.option nopic
	.attribute arch, "rv32i2p0_m2p0_a2p0_f2p0_c2p0_p0p9_zpn0p9_zpsfoperand0p9_xtheade2p0"
	.attribute unaligned_access, 0
	.attribute stack_align, 16
	.text
.Ltext0:
	.cfi_sections	.debug_frame
	.section	.text.clock_daysbeforemonth,"ax",@progbits
	.align	1
	.type	clock_daysbeforemonth, @function
clock_daysbeforemonth:
.LFB9:
	.file 1 "./drivers/lhal/src/qcc74x_rtc.c"
	.loc 1 130 1
	.cfi_startproc
.LVL0:
	.loc 1 131 5
	.loc 1 131 42 is_stmt 0
	lui	a5,%hi(.LANCHOR0)
	addi	a5,a5,%lo(.LANCHOR0)
	.loc 1 133 8
	li	a4,1
	.loc 1 131 9
	lrhu	a5,a5,a0,1
.LVL1:
	.loc 1 133 5 is_stmt 1
	.loc 1 133 8 is_stmt 0
	ble	a0,a4,.L1
	.loc 1 133 20 discriminator 1
	beq	a1,zero,.L1
	.loc 1 134 9 is_stmt 1
	.loc 1 134 15 is_stmt 0
	addi	a5,a5,1
.LVL2:
	.loc 1 137 5 is_stmt 1
.L1:
	.loc 1 138 1 is_stmt 0
	mv	a0,a5
.LVL3:
	ret
	.cfi_endproc
.LFE9:
	.size	clock_daysbeforemonth, .-clock_daysbeforemonth
	.section	.text.__mktime.constprop.0,"ax",@progbits
	.align	1
	.type	__mktime.constprop.0, @function
__mktime.constprop.0:
.LFB22:
	.loc 1 325 15 is_stmt 1
	.cfi_startproc
.LVL4:
	.loc 1 327 5
	.loc 1 328 5
	.loc 1 334 5
	.loc 1 325 15 is_stmt 0
	addi	sp,sp,-32
	.cfi_def_cfa_offset 32
	sw	s0,24(sp)
	.cfi_offset 8, -8
	.loc 1 334 34
	lui	s0,%hi(.LANCHOR1)
	addi	a4,s0,%lo(.LANCHOR1)
	lw	a5,20(a4)
	.loc 1 325 15
	sw	s2,16(sp)
	sw	s3,12(sp)
	.loc 1 334 11
	addi	a3,a5,1900
.LBB8:
.LBB9:
	.loc 1 249 18
	addi	a1,a5,-70
	.loc 1 253 19
	addi	a5,a5,-69
	.cfi_offset 18, -16
	.cfi_offset 19, -20
	.loc 1 253 27
	srai	s2,a5,2
	srai	s3,a5,31
	.loc 1 253 10
	li	a5,400
	rem	a5,a3,a5
.LBE9:
.LBE8:
	.loc 1 334 11
	lw	a0,16(a4)
	.loc 1 325 15
	sw	s1,20(sp)
	.cfi_offset 9, -12
	.loc 1 334 11
	lw	s1,12(a4)
.LVL5:
.LBB17:
.LBB14:
	.loc 1 245 5 is_stmt 1
	.loc 1 249 5
	.loc 1 249 26 is_stmt 0
	li	a4,365
.LBE14:
.LBE17:
	.loc 1 325 15
	sw	ra,28(sp)
	.cfi_offset 1, -4
	addi	s0,s0,%lo(.LANCHOR1)
.LBB18:
.LBB15:
	.loc 1 249 26
	mul	a1,a1,a4
	.loc 1 249 10
	mv	a6,a1
	srai	a7,a1,31
.LVL6:
	.loc 1 253 5 is_stmt 1
	.loc 1 253 10 is_stmt 0
	add64	s2,s2,a6
.LVL7:
	.loc 1 257 5 is_stmt 1
.LBB10:
.LBB11:
	.loc 1 126 5
	.loc 1 126 69 is_stmt 0
	li	a1,1
	beq	a5,zero,.L7
.LVL8:
.LBB12:
.LBB13:
	.loc 1 126 34
	li	a1,100
	rem	a1,a3,a1
	.loc 1 126 69
	beq	a1,zero,.L7
	.loc 1 126 55
	andi	a1,a3,3
	.loc 1 126 64
	seqz	a1,a1
.LVL9:
.L7:
.LBE13:
.LBE12:
.LBE11:
.LBE10:
	.loc 1 257 21
	andi	a1,a1,0xff
	call	clock_daysbeforemonth
.LVL10:
	.loc 1 261 17
	addi	a1,s1,-1
	.loc 1 257 13
	mv	a2,a0
	srai	a3,a0,31
	.loc 1 257 10
	add64	a2,a2,s2
.LVL11:
	.loc 1 261 5 is_stmt 1
	.loc 1 265 5
.LBE15:
.LBE18:
	.loc 1 338 5
	.loc 1 340 5
.LBB19:
.LBB16:
	.loc 1 261 17 is_stmt 0
	mv	a4,a1
	srai	a5,a1,31
	.loc 1 261 10
	add64	a2,a4,a2
.LVL12:
.LBE16:
.LBE19:
	.loc 1 338 17
	li	a1,24
	mulr64	a4,a1,a2
	mula	a5,a1,a3
	.loc 1 338 26
	lw	a1,8(s0)
	.loc 1 338 46
	lw	a0,4(s0)
	.loc 1 341 1
	lw	ra,28(sp)
	.cfi_restore 1
	.loc 1 338 26
	mv	a2,a1
	srai	a3,a1,31
	.loc 1 338 37
	li	a1,60
	.loc 1 341 1
	lw	s1,20(sp)
	.cfi_restore 9
	lw	s2,16(sp)
	.cfi_restore 18
	lw	s3,12(sp)
	.cfi_restore 19
	.loc 1 338 22
	add64	a2,a4,a2
	.loc 1 338 37
	mulr64	a4,a1,a2
	mula	a5,a1,a3
	.loc 1 338 46
	mv	a2,a0
	srai	a3,a0,31
	.loc 1 338 42
	add64	a4,a4,a2
	.loc 1 338 56
	mulr64	a2,a1,a4
	mula	a3,a1,a5
	.loc 1 338 65
	lw	a1,0(s0)
	.loc 1 341 1
	lw	s0,24(sp)
	.cfi_restore 8
	.loc 1 338 65
	mv	a4,a1
	srai	a5,a1,31
	.loc 1 341 1
	addi	sp,sp,32
	.cfi_def_cfa_offset 0
	add64	a0,a2,a4
	jr	ra
	.cfi_endproc
.LFE22:
	.size	__mktime.constprop.0, .-__mktime.constprop.0
	.section	.text.qcc74x_rtc_disable,"ax",@progbits
	.align	1
	.globl	qcc74x_rtc_disable
	.type	qcc74x_rtc_disable, @function
qcc74x_rtc_disable:
.LFB5:
	.loc 1 13 1 is_stmt 1
	.cfi_startproc
.LVL13:
	.loc 1 17 5
	.loc 1 18 5
	.loc 1 20 5
	.loc 1 23 5
	.loc 1 23 12 is_stmt 0
	li	a4,536932352
	lw	a5,0(a4)
.LVL14:
	.loc 1 24 5 is_stmt 1
	.loc 1 24 12 is_stmt 0
	andi	a5,a5,-2
.LVL15:
	.loc 1 25 5 is_stmt 1
	.loc 1 25 58 is_stmt 0
	sw	a5,0(a4)
	.loc 1 27 1
	ret
	.cfi_endproc
.LFE5:
	.size	qcc74x_rtc_disable, .-qcc74x_rtc_disable
	.section	.text.qcc74x_rtc_set_time,"ax",@progbits
	.align	1
	.globl	qcc74x_rtc_set_time
	.type	qcc74x_rtc_set_time, @function
qcc74x_rtc_set_time:
.LFB6:
	.loc 1 30 1 is_stmt 1
	.cfi_startproc
.LVL16:
	.loc 1 34 5
	.loc 1 35 5
	.loc 1 36 5
	.loc 1 38 5
	.loc 1 41 5
	.loc 1 41 12 is_stmt 0
	li	a5,536932352
	lw	a4,0(a5)
.LVL17:
	.loc 1 42 5 is_stmt 1
	.loc 1 51 12 is_stmt 0
	li	a3,-2147483648
	.loc 1 30 1
	mv	a0,a1
.LVL18:
	.loc 1 42 12
	andi	a4,a4,-15
.LVL19:
	.loc 1 43 5 is_stmt 1
	.loc 1 43 58 is_stmt 0
	sw	a4,0(a5)
	.loc 1 45 5 is_stmt 1
.LVL20:
	.loc 1 46 5
	.loc 1 46 12 is_stmt 0
	ori	a4,a4,18
.LVL21:
	.loc 1 47 5 is_stmt 1
	.loc 1 47 58 is_stmt 0
	sw	a4,0(a5)
	.loc 1 50 5 is_stmt 1
	.loc 1 50 12 is_stmt 0
	lw	a4,16(a5)
.LVL22:
	.loc 1 51 5 is_stmt 1
	.loc 1 30 1 is_stmt 0
	mv	a1,a2
.LVL23:
	.loc 1 51 12
	or	a2,a4,a3
.LVL24:
	.loc 1 52 5 is_stmt 1
	xori	a3,a3,-1
	.loc 1 52 59 is_stmt 0
	sw	a2,16(a5)
	.loc 1 53 5 is_stmt 1
	and	a4,a4,a3
.LVL25:
	.loc 1 54 5
	.loc 1 54 59 is_stmt 0
	sw	a4,16(a5)
	.loc 1 62 5 is_stmt 1
	.loc 1 62 16 is_stmt 0
	lw	a4,16(a5)
.LVL26:
	.loc 1 63 5 is_stmt 1
	.loc 1 64 5
	.loc 1 64 17 is_stmt 0
	lw	a6,12(a5)
	.loc 1 64 13
	andi	a3,a4,0xff
	mv	a2,a6
.LVL27:
	.loc 1 68 5 is_stmt 1
	.loc 1 68 13 is_stmt 0
	add64	a2,a2,a0
.LVL28:
	.loc 1 75 5 is_stmt 1
	.loc 1 75 58 is_stmt 0
	sw	a2,4(a5)
.LVL29:
	.loc 1 76 5 is_stmt 1
	.loc 1 76 87 is_stmt 0
	andi	a4,a3,255
	.loc 1 76 58
	sw	a4,8(a5)
	.loc 1 80 5 is_stmt 1
	.loc 1 80 12 is_stmt 0
	lw	a4,0(a5)
.LVL30:
	.loc 1 81 5 is_stmt 1
	.loc 1 81 12 is_stmt 0
	ori	a4,a4,1
.LVL31:
	.loc 1 82 5 is_stmt 1
	.loc 1 82 58 is_stmt 0
	sw	a4,0(a5)
	.loc 1 84 1
	ret
	.cfi_endproc
.LFE6:
	.size	qcc74x_rtc_set_time, .-qcc74x_rtc_set_time
	.section	.text.qcc74x_rtc_get_time,"ax",@progbits
	.align	1
	.globl	qcc74x_rtc_get_time
	.type	qcc74x_rtc_get_time, @function
qcc74x_rtc_get_time:
.LFB7:
	.loc 1 87 1 is_stmt 1
	.cfi_startproc
.LVL32:
	.loc 1 91 5
	.loc 1 92 5
	.loc 1 93 5
	.loc 1 94 5
	.loc 1 96 5
	.loc 1 99 5
	.loc 1 99 12 is_stmt 0
	li	a5,536932352
	lw	a4,16(a5)
.LVL33:
	.loc 1 100 5 is_stmt 1
	.loc 1 100 12 is_stmt 0
	li	a3,-2147483648
	or	a2,a4,a3
.LVL34:
	.loc 1 101 5 is_stmt 1
	xori	a3,a3,-1
	.loc 1 101 59 is_stmt 0
	sw	a2,16(a5)
	.loc 1 102 5 is_stmt 1
	and	a4,a4,a3
.LVL35:
	.loc 1 103 5
	.loc 1 103 59 is_stmt 0
	sw	a4,16(a5)
	.loc 1 110 5 is_stmt 1
	.loc 1 110 15 is_stmt 0
	lw	a0,12(a5)
.LVL36:
	.loc 1 111 5 is_stmt 1
	.loc 1 111 15 is_stmt 0
	lw	a1,16(a5)
.LVL37:
	.loc 1 114 5 is_stmt 1
	.loc 1 116 1 is_stmt 0
	andi	a1,a1,0xff
.LVL38:
	ret
	.cfi_endproc
.LFE7:
	.size	qcc74x_rtc_get_time, .-qcc74x_rtc_get_time
	.section	.text.qcc74x_rtc_get_delta_counter,"ax",@progbits
	.align	1
	.globl	qcc74x_rtc_get_delta_counter
	.type	qcc74x_rtc_get_delta_counter, @function
qcc74x_rtc_get_delta_counter:
.LFB15:
	.loc 1 347 1 is_stmt 1
	.cfi_startproc
.LVL39:
	.loc 1 348 5
	.loc 1 350 5
	.loc 1 347 1 is_stmt 0
	addi	sp,sp,-16
	.cfi_def_cfa_offset 16
	sw	s1,4(sp)
	.cfi_offset 9, -12
	mv	s1,a0
	.loc 1 350 11
	li	a0,0
.LVL40:
	.loc 1 347 1
	sw	s0,8(sp)
	sw	ra,12(sp)
	.cfi_offset 8, -8
	.cfi_offset 1, -4
	.loc 1 347 1
	mv	s0,a1
	.loc 1 350 11
	call	qcc74x_rtc_get_time
.LVL41:
	.loc 1 351 5 is_stmt 1
	.loc 1 351 13 is_stmt 0
	andi	a5,s0,255
	mv	a4,s1
.LVL42:
	.loc 1 353 5 is_stmt 1
	.loc 1 353 8 is_stmt 0
	bgtu	a5,a1,.L20
	bne	a5,a1,.L18
	bgeu	a0,s1,.L18
.L20:
	.loc 1 354 9 is_stmt 1
	.loc 1 354 13 is_stmt 0
	li	a2,0
	li	a3,256
	add64	a0,a0,a2
.LVL43:
.L18:
	.loc 1 357 5 is_stmt 1
	.loc 1 358 1 is_stmt 0
	lw	ra,12(sp)
	.cfi_restore 1
	lw	s0,8(sp)
	.cfi_restore 8
	lw	s1,4(sp)
	.cfi_restore 9
	sub64	a0,a0,a4
.LVL44:
	addi	sp,sp,16
	.cfi_def_cfa_offset 0
	jr	ra
	.cfi_endproc
.LFE15:
	.size	qcc74x_rtc_get_delta_counter, .-qcc74x_rtc_get_delta_counter
	.section	.text.qcc74x_rtc_get_delta_time_ms,"ax",@progbits
	.align	1
	.globl	qcc74x_rtc_get_delta_time_ms
	.type	qcc74x_rtc_get_delta_time_ms, @function
qcc74x_rtc_get_delta_time_ms:
.LFB16:
	.loc 1 361 1 is_stmt 1
	.cfi_startproc
.LVL45:
	.loc 1 362 5
	.loc 1 364 5
	.loc 1 361 1 is_stmt 0
	addi	sp,sp,-16
	.cfi_def_cfa_offset 16
	sw	ra,12(sp)
	.cfi_offset 1, -4
	.loc 1 364 11
	call	qcc74x_rtc_get_delta_counter
.LVL46:
	.loc 1 366 5 is_stmt 1
	.loc 1 366 29 is_stmt 0
	li	a3,1000
	mulr64	a4,a3,a0
	mula	a5,a3,a1
	.loc 1 367 1
	lw	ra,12(sp)
	.cfi_restore 1
	addi	sp,sp,16
	.cfi_def_cfa_offset 0
	wexti	a0,a4,15
.LVL47:
	srli	a1,a5,15
	jr	ra
	.cfi_endproc
.LFE16:
	.size	qcc74x_rtc_get_delta_time_ms, .-qcc74x_rtc_get_delta_time_ms
	.section	.text.qcc74x_rtc_set_utc_time,"ax",@progbits
	.align	1
	.globl	qcc74x_rtc_set_utc_time
	.type	qcc74x_rtc_set_utc_time, @function
qcc74x_rtc_set_utc_time:
.LFB17:
	.loc 1 373 1 is_stmt 1
	.cfi_startproc
.LVL48:
	.loc 1 374 5
	.loc 1 373 1 is_stmt 0
	mv	a1,a0
	.loc 1 374 5
	lui	a0,%hi(.LANCHOR1)
.LVL49:
	.loc 1 373 1
	addi	sp,sp,-16
	.cfi_def_cfa_offset 16
	.loc 1 374 5
	li	a2,32
	addi	a0,a0,%lo(.LANCHOR1)
	.loc 1 373 1
	sw	ra,12(sp)
	.cfi_offset 1, -4
	.loc 1 374 5
	call	arch_memcpy
.LVL50:
	.loc 1 375 5 is_stmt 1
	.loc 1 375 21 is_stmt 0
	li	a0,0
	call	qcc74x_rtc_get_time
.LVL51:
	.loc 1 376 1
	lw	ra,12(sp)
	.cfi_restore 1
	.loc 1 375 19
	lui	a5,%hi(.LANCHOR2)
	sw	a0,%lo(.LANCHOR2)(a5)
	sw	a1,%lo(.LANCHOR2+4)(a5)
	.loc 1 376 1
	addi	sp,sp,16
	.cfi_def_cfa_offset 0
	jr	ra
	.cfi_endproc
.LFE17:
	.size	qcc74x_rtc_set_utc_time, .-qcc74x_rtc_set_utc_time
	.globl	__udivdi3
	.globl	__divdi3
	.section	.text.qcc74x_rtc_get_utc_time,"ax",@progbits
	.align	1
	.globl	qcc74x_rtc_get_utc_time
	.type	qcc74x_rtc_get_utc_time, @function
qcc74x_rtc_get_utc_time:
.LFB18:
	.loc 1 379 1 is_stmt 1
	.cfi_startproc
.LVL52:
	.loc 1 380 5
	.loc 1 382 5
	.loc 1 379 1 is_stmt 0
	addi	sp,sp,-80
	.cfi_def_cfa_offset 80
	.loc 1 382 21
	lui	a5,%hi(.LANCHOR2)
	.loc 1 379 1
	sw	s8,40(sp)
	.cfi_offset 24, -40
	mv	s8,a0
	.loc 1 382 21
	lw	a0,%lo(.LANCHOR2)(a5)
.LVL53:
	lw	a1,%lo(.LANCHOR2+4)(a5)
	.loc 1 379 1
	sw	ra,76(sp)
	sw	s0,72(sp)
	sw	s1,68(sp)
	sw	s2,64(sp)
	sw	s3,60(sp)
	sw	s4,56(sp)
	sw	s5,52(sp)
	sw	s6,48(sp)
	sw	s7,44(sp)
	sw	s9,36(sp)
	sw	s10,32(sp)
	sw	s11,28(sp)
	.cfi_offset 1, -4
	.cfi_offset 8, -8
	.cfi_offset 9, -12
	.cfi_offset 18, -16
	.cfi_offset 19, -20
	.cfi_offset 20, -24
	.cfi_offset 21, -28
	.cfi_offset 22, -32
	.cfi_offset 23, -36
	.cfi_offset 25, -44
	.cfi_offset 26, -48
	.cfi_offset 27, -52
	.loc 1 382 21
	call	qcc74x_rtc_get_delta_time_ms
.LVL54:
	mv	s2,a0
	mv	s3,a1
	.loc 1 383 5 is_stmt 1
.LVL55:
	.loc 1 384 5
	.loc 1 384 22 is_stmt 0
	call	__mktime.constprop.0
.LVL56:
	mv	s6,a0
	mv	s7,a1
.LVL57:
	.loc 1 385 5 is_stmt 1
.LBB30:
.LBB31:
	.loc 1 284 5
	.loc 1 285 5
	.loc 1 286 5
	.loc 1 287 5
	.loc 1 288 5
	.loc 1 289 5
	.loc 1 290 5
	.loc 1 291 5
	.loc 1 295 5
.LBE31:
.LBE30:
	.loc 1 383 35 is_stmt 0
	li	a2,1000
	li	a3,0
	mv	a0,s2
	mv	a1,s3
	call	__udivdi3
.LVL58:
	.loc 1 384 19
	add64	s6,a0,s6
.LVL59:
.LBB75:
.LBB68:
	.loc 1 299 5 is_stmt 1
	.loc 1 299 9 is_stmt 0
	li	a2,86016
	addi	a2,a2,384
	li	a3,0
	mv	a0,s6
	mv	a1,s7
	call	__divdi3
.LVL60:
	.loc 1 300 57
	li	s2,-86016
	addi	s2,s2,-384
	neg	a5,a0
	mula	a5,s2,a1
	mulr64	s2,a0,s2
	.loc 1 302 18
	li	a2,4096
	.loc 1 299 9
	mv	s0,a0
	mv	s1,a1
.LVL61:
	.loc 1 300 5 is_stmt 1
	.loc 1 302 18 is_stmt 0
	addi	a2,a2,-496
	li	a3,0
	.loc 1 300 57
	add	s3,a5,s3
	.loc 1 300 11
	add64	s2,s2,s6
.LVL62:
	.loc 1 302 5 is_stmt 1
	.loc 1 302 18 is_stmt 0
	mv	a0,s2
	mv	a1,s3
	call	__divdi3
.LVL63:
	.loc 1 303 11
	li	a5,-4096
	addi	a5,a5,496
	smar64	s2,a0,a5
.LVL64:
	.loc 1 305 17
	li	a2,60
	li	a3,0
	mv	a1,s3
	.loc 1 302 18
	mv	s5,a0
.LVL65:
	.loc 1 303 5 is_stmt 1
	.loc 1 305 5
	.loc 1 305 17 is_stmt 0
	mv	a0,s2
.LVL66:
	call	__divdi3
.LVL67:
	.loc 1 306 11
	li	a5,-60
.LBB32:
.LBB33:
	.loc 1 147 22
	li	a2,126230528
.LBE33:
.LBE32:
	.loc 1 306 11
	smar64	s2,a0,a5
.LVL68:
.LBB49:
.LBB44:
	.loc 1 147 22
	addi	a2,a2,-128
	li	a3,0
.LBE44:
.LBE49:
	.loc 1 305 17
	mv	s4,a0
.LVL69:
	.loc 1 306 5 is_stmt 1
	.loc 1 308 5
	.loc 1 311 5
.LBB50:
.LBB45:
	.loc 1 147 5
	.loc 1 147 22 is_stmt 0
	mv	a1,s7
	mv	a0,s6
.LVL70:
	call	__divdi3
.LVL71:
	.loc 1 148 5 is_stmt 1
	.loc 1 148 19 is_stmt 0
	li	a5,1461
	mul	a5,a0,a5
	.loc 1 149 11
	slli	a0,a0,2
.LVL72:
	addi	s6,a0,1970
.LBB34:
.LBB35:
.LBB36:
.LBB37:
	.loc 1 126 34
	li	a0,100
.LBE37:
.LBE36:
.LBE35:
.LBE34:
	.loc 1 148 19
	mv	a2,a5
	srai	a3,a5,31
	.loc 1 148 10
	sub64	s0,s0,a2
.LVL73:
	.loc 1 149 5 is_stmt 1
	.loc 1 158 20 is_stmt 0
	li	a2,400
.L30:
.LVL74:
	.loc 1 152 5 is_stmt 1
	.loc 1 153 5
	.loc 1 155 5
	.loc 1 158 9
.LBB42:
.LBB40:
	.loc 1 126 5
.LBE40:
.LBE42:
	.loc 1 158 20 is_stmt 0
	rem	a5,s6,a2
.LBB43:
.LBB41:
	.loc 1 126 69
	li	a1,1
	beq	a5,zero,.L27
.LVL75:
.LBB39:
.LBB38:
	.loc 1 126 34
	rem	a1,s6,a0
	.loc 1 126 69
	beq	a1,zero,.L27
	.loc 1 126 55
	andi	a1,s6,3
	.loc 1 126 64
	seqz	a1,a1
.LVL76:
.L27:
.LBE38:
.LBE39:
.LBE41:
.LBE43:
	.loc 1 162 9 is_stmt 1
	.loc 1 166 9
	.loc 1 162 31 is_stmt 0
	addi	a5,a1,365
.LVL77:
	.loc 1 166 18
	mv	s10,a5
	srai	a5,a5,31
.LVL78:
	mv	s11,a5
	.loc 1 166 12
	addi	a3,s6,1
	bgt	a5,s1,.L28
	bne	a5,s1,.L40
	bltu	s0,s10,.L28
.L40:
	.loc 1 169 13 is_stmt 1
.LVL79:
	.loc 1 170 13
	.loc 1 170 18 is_stmt 0
	sub64	s0,s0,s10
.LVL80:
	.loc 1 155 11 is_stmt 1
	.loc 1 158 18 is_stmt 0
	mv	s6,a3
	j	.L30
.LVL81:
.L28:
	andi	a1,a1,0xff
	.loc 1 184 9
	li	a5,11
	.loc 1 183 9
	li	s7,0
	.loc 1 201 12
	mv	s9,s1
	.loc 1 208 16
	mv	s11,s0
.LVL82:
.L35:
	.loc 1 186 5 is_stmt 1
	.loc 1 189 9
	.loc 1 189 22 is_stmt 0
	add	s10,s7,a5
	.loc 1 189 15
	srai	s10,s10,1
.LVL83:
	.loc 1 195 9 is_stmt 1
	.loc 1 195 15 is_stmt 0
	addi	a4,s10,1
	mv	a0,a4
	sw	a1,8(sp)
	.loc 1 189 22
	sw	a5,12(sp)
	.loc 1 195 15
	sw	a4,4(sp)
	call	clock_daysbeforemonth
.LVL84:
	.loc 1 201 9 is_stmt 1
	.loc 1 201 17 is_stmt 0
	srai	a3,a0,31
	.loc 1 201 12
	lw	a1,8(sp)
	bgt	a3,s9,.L41
	lw	a4,4(sp)
	lw	a5,12(sp)
	bne	a3,s9,.L38
	bleu	a0,s11,.L38
.L41:
	.loc 1 206 13 is_stmt 1
	.loc 1 206 19 is_stmt 0
	mv	a0,s10
.LVL85:
	sw	a1,4(sp)
	call	clock_daysbeforemonth
.LVL86:
	.loc 1 208 13 is_stmt 1
	.loc 1 208 21 is_stmt 0
	srai	a5,a0,31
	.loc 1 208 16
	lw	a1,4(sp)
	bgt	a5,s9,.L42
	bne	a5,s9,.L39
	bleu	a0,s11,.L39
.L42:
	.loc 1 211 17 is_stmt 1
	.loc 1 211 21 is_stmt 0
	addi	a5,s10,-1
.LVL87:
.L31:
	.loc 1 227 9 is_stmt 1
	.loc 1 228 13
	.loc 1 228 5 is_stmt 0
	blt	s7,a5,.L35
.LVL88:
.L33:
	.loc 1 233 5 is_stmt 1
	.loc 1 233 13 is_stmt 0
	mv	a0,s7
.LVL89:
	call	clock_daysbeforemonth
.LVL90:
	.loc 1 239 5 is_stmt 1
	.loc 1 240 5
	.loc 1 233 13 is_stmt 0
	mv	a4,a0
	srai	a5,a0,31
.LBE45:
.LBE50:
	.loc 1 316 20
	sw	s7,16(s8)
.LBB51:
.LBB46:
	.loc 1 239 20
	addi	s7,s7,1
.LVL91:
	.loc 1 233 10
	sub64	s0,s0,a4
.LVL92:
.LBE46:
.LBE51:
	.loc 1 318 23
	andi	s7,s7,0xff
.LVL93:
	.loc 1 315 33
	addi	a5,s6,-1900
.LBB52:
.LBB47:
	.loc 1 240 17
	addi	s0,s0,1
.LVL94:
.LBE47:
.LBE52:
	.loc 1 315 5 is_stmt 1
	.loc 1 315 21 is_stmt 0
	sw	a5,20(s8)
	.loc 1 316 5 is_stmt 1
	.loc 1 317 5
.LBB53:
.LBB54:
	.loc 1 272 16 is_stmt 0
	addi	a5,s7,-1
.LBE54:
.LBE53:
	.loc 1 317 21
	sw	s0,12(s8)
	.loc 1 318 5 is_stmt 1
.LBB61:
.LBB55:
	.loc 1 272 8 is_stmt 0
	andi	a5,a5,0xff
	li	a4,1
.LBE55:
.LBE61:
	.loc 1 318 23
	extu	s6,s6,15,0
.LVL95:
.LBB62:
.LBB56:
	.loc 1 270 5 is_stmt 1
	.loc 1 272 5
	.loc 1 272 8 is_stmt 0
	bgtu	a5,a4,.L36
	.loc 1 273 9 is_stmt 1
	.loc 1 273 11 is_stmt 0
	addi	s7,s7,12
.LVL96:
	.loc 1 274 11
	addi	s6,s6,-1
.LVL97:
	.loc 1 273 11
	andi	s7,s7,0xff
.LVL98:
	.loc 1 274 9 is_stmt 1
	.loc 1 274 11 is_stmt 0
	extu	s6,s6,15,0
.LVL99:
.L36:
	.loc 1 277 5 is_stmt 1
	.loc 1 279 5
	.loc 1 277 15 is_stmt 0
	andi	s0,s0,255
.LVL100:
	addsl	s0, s0, s7, 1
	.loc 1 277 27
	li	a5,3
	.loc 1 277 32
	addi	s7,s7,1
	.loc 1 277 27
	mul	a5,s7,a5
	.loc 1 277 37
	li	s7,5
	.loc 1 277 49
	srli	a4,s6,2
.LBE56:
.LBE62:
.LBE68:
.LBE75:
	.loc 1 386 1
	lw	ra,76(sp)
	.cfi_remember_state
	.cfi_restore 1
.LBB76:
.LBB69:
	.loc 1 319 21
	sw	s5,8(s8)
	.loc 1 320 20
	sw	s4,4(s8)
	.loc 1 321 20
	sw	s2,0(s8)
.LBE69:
.LBE76:
	.loc 1 386 1
	lw	s1,68(sp)
	.cfi_restore 9
	lw	s2,64(sp)
	.cfi_restore 18
.LVL101:
	lw	s3,60(sp)
	.cfi_restore 19
.LBB77:
.LBB70:
.LBB63:
.LBB57:
	.loc 1 277 37
	div	a5,a5,s7
.LBE57:
.LBE63:
.LBE70:
.LBE77:
	.loc 1 386 1
	lw	s4,56(sp)
	.cfi_restore 20
.LVL102:
	lw	s5,52(sp)
	.cfi_restore 21
.LVL103:
	lw	s7,44(sp)
	.cfi_restore 23
	lw	s9,36(sp)
	.cfi_restore 25
	lw	s10,32(sp)
	.cfi_restore 26
	lw	s11,28(sp)
	.cfi_restore 27
.LBB78:
.LBB71:
.LBB64:
.LBB58:
	.loc 1 277 23
	add	a5,s0,a5
	.loc 1 277 41
	add	a5,a5,s6
	.loc 1 277 45
	add	a5,a5,a4
	.loc 1 277 57
	li	a4,100
	divu	a4,s6,a4
.LBE58:
.LBE64:
.LBE71:
.LBE78:
	.loc 1 386 1
	lw	s0,72(sp)
	.cfi_restore 8
.LBB79:
.LBB72:
.LBB65:
.LBB59:
	.loc 1 277 53
	sub	a5,a5,a4
	.loc 1 277 67
	li	a4,400
	divu	s6,s6,a4
	.loc 1 277 10
	li	a4,7
	.loc 1 277 63
	add	a5,a5,s6
	.loc 1 277 10
	rem	a5,a5,a4
.LBE59:
.LBE65:
.LBE72:
.LBE79:
	.loc 1 386 1
	lw	s6,48(sp)
	.cfi_restore 22
.LBB80:
.LBB73:
.LBB66:
.LBB60:
	.loc 1 279 17
	addi	a5,a5,1
.LBE60:
.LBE66:
	.loc 1 318 21
	sw	a5,24(s8)
	.loc 1 319 5 is_stmt 1
	.loc 1 320 5
	.loc 1 321 5
	.loc 1 322 5
.LVL104:
.LBE73:
.LBE80:
	.loc 1 386 1 is_stmt 0
	lw	s8,40(sp)
	.cfi_restore 24
.LVL105:
	addi	sp,sp,80
	.cfi_def_cfa_offset 0
	jr	ra
.LVL106:
.L38:
	.cfi_restore_state
.LBB81:
.LBB74:
.LBB67:
.LBB48:
	.loc 1 220 17
	mv	s7,a4
.LVL107:
	j	.L31
.LVL108:
.L39:
	.loc 1 189 15
	mv	s7,s10
.LVL109:
	j	.L33
.LBE48:
.LBE67:
.LBE74:
.LBE81:
	.cfi_endproc
.LFE18:
	.size	qcc74x_rtc_get_utc_time, .-qcc74x_rtc_get_utc_time
	.section	.text.qcc74x_rtc_get_utc_timestamp,"ax",@progbits
	.align	1
	.globl	qcc74x_rtc_get_utc_timestamp
	.type	qcc74x_rtc_get_utc_timestamp, @function
qcc74x_rtc_get_utc_timestamp:
.LFB19:
	.loc 1 389 1 is_stmt 1
	.cfi_startproc
	.loc 1 390 5
	.loc 1 392 5
	.loc 1 392 21 is_stmt 0
	lui	a5,%hi(.LANCHOR2)
	lw	a0,%lo(.LANCHOR2)(a5)
	lw	a1,%lo(.LANCHOR2+4)(a5)
	.loc 1 389 1
	addi	sp,sp,-16
	.cfi_def_cfa_offset 16
	sw	ra,12(sp)
	sw	s0,8(sp)
	sw	s1,4(sp)
	.cfi_offset 1, -4
	.cfi_offset 8, -8
	.cfi_offset 9, -12
	.loc 1 392 21
	call	qcc74x_rtc_get_delta_time_ms
.LVL110:
	.loc 1 393 5 is_stmt 1
	.loc 1 393 19 is_stmt 0
	li	a2,1000
	li	a3,0
	call	__udivdi3
.LVL111:
	mv	s0,a0
	mv	s1,a1
.LVL112:
	.loc 1 394 5 is_stmt 1
	.loc 1 394 22 is_stmt 0
	call	__mktime.constprop.0
.LVL113:
	.loc 1 396 5 is_stmt 1
	.loc 1 397 1 is_stmt 0
	add64	a0,a0,s0
.LVL114:
	lw	ra,12(sp)
	.cfi_restore 1
	lw	s0,8(sp)
	.cfi_restore 8
	lw	s1,4(sp)
	.cfi_restore 9
	addi	sp,sp,16
	.cfi_def_cfa_offset 0
	jr	ra
	.cfi_endproc
.LFE19:
	.size	qcc74x_rtc_get_utc_timestamp, .-qcc74x_rtc_get_utc_timestamp
	.section	.bss.g_rtc_tm,"aw",@nobits
	.align	2
	.set	.LANCHOR1,. + 0
	.type	g_rtc_tm, @object
	.size	g_rtc_tm, 32
g_rtc_tm:
	.zero	32
	.section	.bss.s_rtc_ref_cnt,"aw",@nobits
	.align	3
	.set	.LANCHOR2,. + 0
	.type	s_rtc_ref_cnt, @object
	.size	s_rtc_ref_cnt, 8
s_rtc_ref_cnt:
	.zero	8
	.section	.rodata.g_noleap_daysbeforemonth,"a"
	.align	2
	.set	.LANCHOR0,. + 0
	.type	g_noleap_daysbeforemonth, @object
	.size	g_noleap_daysbeforemonth, 26
g_noleap_daysbeforemonth:
	.half	0
	.half	31
	.half	59
	.half	90
	.half	120
	.half	151
	.half	181
	.half	212
	.half	243
	.half	273
	.half	304
	.half	334
	.half	365
	.text
.Letext0:
	.file 2 "./toolchain/linux_x86_64/riscv64-unknown-elf/include/machine/_default_types.h"
	.file 3 "./toolchain/linux_x86_64/riscv64-unknown-elf/include/sys/_stdint.h"
	.file 4 "./toolchain/linux_x86_64/riscv64-unknown-elf/include/sys/_timeval.h"
	.file 5 "./drivers/lhal/include/qcc74x_core.h"
	.file 6 "./drivers/lhal/include/qcc74x_rtc.h"
	.file 7 "./drivers/lhal/include/qcc74x_common.h"