	.file	"stdatomic.c"
	.option nopic
	.attribute arch, "rv32i2p0_m2p0_a2p0_f2p0_c2p0_p0p9_zpn0p9_zpsfoperand0p9_xtheade2p0"
	.attribute unaligned_access, 0
	.attribute stack_align, 16
	.text
.Ltext0:
	.cfi_sections	.debug_frame
	.section	.text.__atomic_exchange_1,"ax",@progbits
	.align	1
	.globl	__atomic_exchange_1
	.type	__atomic_exchange_1, @function
__atomic_exchange_1:
.LFB0:
	.file 1 "./components/libc/stdatomic.c"
	.loc 1 168 70
	.cfi_startproc
.LVL0:
	.loc 1 168 72
	.loc 1 168 70 is_stmt 0
	addi	sp,sp,-32
	.cfi_def_cfa_offset 32
	sw	ra,28(sp)
	sw	s0,24(sp)
	sw	s1,20(sp)
	.cfi_offset 1, -4
	.cfi_offset 8, -8
	.cfi_offset 9, -12
	.loc 1 168 70
	mv	s0,a0
	sw	a1,12(sp)
	.loc 1 168 89
	call	qcc74x_irq_save
.LVL1:
	.loc 1 168 108 is_stmt 1
	.loc 1 168 133 is_stmt 0
	lw	a1,12(sp)
	.loc 1 168 116
	lbu	s1,0(s0)
.LVL2:
	.loc 1 168 128 is_stmt 1
	.loc 1 168 133 is_stmt 0
	sb	a1,0(s0)
	.loc 1 168 140 is_stmt 1
	call	qcc74x_irq_restore
.LVL3:
	.loc 1 168 167
	.loc 1 168 179 is_stmt 0
	lw	ra,28(sp)
	.cfi_restore 1
	lw	s0,24(sp)
	.cfi_restore 8
.LVL4:
	mv	a0,s1
	lw	s1,20(sp)
	.cfi_restore 9
.LVL5:
	addi	sp,sp,32
	.cfi_def_cfa_offset 0
	jr	ra
	.cfi_endproc
.LFE0:
	.size	__atomic_exchange_1, .-__atomic_exchange_1
	.section	.text.__atomic_exchange_2,"ax",@progbits
	.align	1
	.globl	__atomic_exchange_2
	.type	__atomic_exchange_2, @function
__atomic_exchange_2:
.LFB1:
	.loc 1 169 73 is_stmt 1
	.cfi_startproc
.LVL6:
	.loc 1 169 75
	.loc 1 169 73 is_stmt 0
	addi	sp,sp,-32
	.cfi_def_cfa_offset 32
	sw	ra,28(sp)
	sw	s0,24(sp)
	sw	s1,20(sp)
	.cfi_offset 1, -4
	.cfi_offset 8, -8
	.cfi_offset 9, -12
	.loc 1 169 73
	mv	s0,a0
	sw	a1,12(sp)
	.loc 1 169 92
	call	qcc74x_irq_save
.LVL7:
	.loc 1 169 111 is_stmt 1
	.loc 1 169 137 is_stmt 0
	lw	a1,12(sp)
	.loc 1 169 120
	lhu	s1,0(s0)
.LVL8:
	.loc 1 169 132 is_stmt 1
	.loc 1 169 137 is_stmt 0
	sh	a1,0(s0)
	.loc 1 169 144 is_stmt 1
	call	qcc74x_irq_restore
.LVL9:
	.loc 1 169 171
	.loc 1 169 183 is_stmt 0
	lw	ra,28(sp)
	.cfi_restore 1
	lw	s0,24(sp)
	.cfi_restore 8
.LVL10:
	mv	a0,s1
	lw	s1,20(sp)
	.cfi_restore 9
.LVL11:
	addi	sp,sp,32
	.cfi_def_cfa_offset 0
	jr	ra
	.cfi_endproc
.LFE1:
	.size	__atomic_exchange_2, .-__atomic_exchange_2
	.section	.text.__atomic_exchange_4,"ax",@progbits
	.align	1
	.globl	__atomic_exchange_4
	.type	__atomic_exchange_4, @function
__atomic_exchange_4:
.LFB2:
	.loc 1 170 73 is_stmt 1
	.cfi_startproc
.LVL12:
	.loc 1 170 75
	.loc 1 170 73 is_stmt 0
	addi	sp,sp,-32
	.cfi_def_cfa_offset 32
	sw	ra,28(sp)
	sw	s0,24(sp)
	sw	s1,20(sp)
	.cfi_offset 1, -4
	.cfi_offset 8, -8
	.cfi_offset 9, -12
	.loc 1 170 73
	mv	s0,a0
	sw	a1,12(sp)
	.loc 1 170 92
	call	qcc74x_irq_save
.LVL13:
	.loc 1 170 111 is_stmt 1
	.loc 1 170 137 is_stmt 0
	lw	a1,12(sp)
	.loc 1 170 120
	lw	s1,0(s0)
.LVL14:
	.loc 1 170 132 is_stmt 1
	.loc 1 170 137 is_stmt 0
	sw	a1,0(s0)
	.loc 1 170 144 is_stmt 1
	call	qcc74x_irq_restore
.LVL15:
	.loc 1 170 171
	.loc 1 170 183 is_stmt 0
	lw	ra,28(sp)
	.cfi_restore 1
	lw	s0,24(sp)
	.cfi_restore 8
.LVL16:
	mv	a0,s1
	lw	s1,20(sp)
	.cfi_restore 9
.LVL17:
	addi	sp,sp,32
	.cfi_def_cfa_offset 0
.LVL18:
	jr	ra
	.cfi_endproc
.LFE2:
	.size	__atomic_exchange_4, .-__atomic_exchange_4
	.section	.text.__atomic_compare_exchange_1,"ax",@progbits
	.align	1
	.globl	__atomic_compare_exchange_1
	.type	__atomic_compare_exchange_1, @function
__atomic_compare_exchange_1:
.LFB3:
	.loc 1 172 33 is_stmt 1
	.cfi_startproc
.LVL19:
	.loc 1 172 1
	.loc 1 172 3
	.loc 1 172 33 is_stmt 0
	addi	sp,sp,-32
	.cfi_def_cfa_offset 32
	sw	s0,24(sp)
	sw	a1,12(sp)
	.cfi_offset 8, -8
	mv	s0,a0
	sw	a2,8(sp)
	sw	ra,28(sp)
	.cfi_offset 1, -4
	.loc 1 172 20
	call	qcc74x_irq_save
.LVL20:
	.loc 1 172 39 is_stmt 1
	.loc 1 172 42 is_stmt 0
	lw	a1,12(sp)
	.loc 1 172 43
	lbu	a5,0(s0)
	.loc 1 172 42
	lw	a2,8(sp)
	lbu	a4,0(a1)
	bne	a4,a5,.L8
	.loc 1 172 62 is_stmt 1 discriminator 1
.LVL21:
	.loc 1 172 3 discriminator 1
	.loc 1 172 8 is_stmt 0 discriminator 1
	sb	a2,0(s0)
	.loc 1 172 66 discriminator 1
	li	s0,1
.LVL22:
.L9:
	.loc 1 172 46 is_stmt 1 discriminator 4
	call	qcc74x_irq_restore
.LVL23:
	.loc 1 172 73 discriminator 4
	.loc 1 172 85 is_stmt 0 discriminator 4
	lw	ra,28(sp)
	.cfi_remember_state
	.cfi_restore 1
	mv	a0,s0
	lw	s0,24(sp)
	.cfi_restore 8
.LVL24:
	addi	sp,sp,32
	.cfi_def_cfa_offset 0
.LVL25:
	jr	ra
.LVL26:
.L8:
	.cfi_restore_state
	.loc 1 172 28 is_stmt 1 discriminator 2
	.loc 1 172 36 is_stmt 0 discriminator 2
	sb	a5,0(a1)
	.loc 1 172 1 discriminator 2
	li	s0,0
.LVL27:
	j	.L9
	.cfi_endproc
.LFE3:
	.size	__atomic_compare_exchange_1, .-__atomic_compare_exchange_1
	.section	.text.__atomic_compare_exchange_2,"ax",@progbits
	.align	1
	.globl	__atomic_compare_exchange_2
	.type	__atomic_compare_exchange_2, @function
__atomic_compare_exchange_2:
.LFB4:
	.loc 1 173 33 is_stmt 1
	.cfi_startproc
.LVL28:
	.loc 1 173 1
	.loc 1 173 3
	.loc 1 173 33 is_stmt 0
	addi	sp,sp,-32
	.cfi_def_cfa_offset 32
	sw	s0,24(sp)
	sw	a1,12(sp)
	.cfi_offset 8, -8
	mv	s0,a0
	sw	a2,8(sp)
	sw	ra,28(sp)
	.cfi_offset 1, -4
	.loc 1 173 20
	call	qcc74x_irq_save
.LVL29:
	.loc 1 173 39 is_stmt 1
	.loc 1 173 42 is_stmt 0
	lw	a1,12(sp)
	.loc 1 173 43
	lhu	a5,0(s0)
	.loc 1 173 42
	lw	a2,8(sp)
	lhu	a4,0(a1)
	bne	a4,a5,.L12
	.loc 1 173 62 is_stmt 1 discriminator 1
.LVL30:
	.loc 1 173 3 discriminator 1
	.loc 1 173 8 is_stmt 0 discriminator 1
	sh	a2,0(s0)
	.loc 1 173 66 discriminator 1
	li	s0,1
.LVL31:
.L13:
	.loc 1 173 46 is_stmt 1 discriminator 4
	call	qcc74x_irq_restore
.LVL32:
	.loc 1 173 73 discriminator 4
	.loc 1 173 85 is_stmt 0 discriminator 4
	lw	ra,28(sp)
	.cfi_remember_state
	.cfi_restore 1
	mv	a0,s0
	lw	s0,24(sp)
	.cfi_restore 8
.LVL33:
	addi	sp,sp,32
	.cfi_def_cfa_offset 0
.LVL34:
	jr	ra
.LVL35:
.L12:
	.cfi_restore_state
	.loc 1 173 28 is_stmt 1 discriminator 2
	.loc 1 173 36 is_stmt 0 discriminator 2
	sh	a5,0(a1)
	.loc 1 173 1 discriminator 2
	li	s0,0
.LVL36:
	j	.L13
	.cfi_endproc
.LFE4:
	.size	__atomic_compare_exchange_2, .-__atomic_compare_exchange_2
	.section	.text.__atomic_compare_exchange_4,"ax",@progbits
	.align	1
	.globl	__atomic_compare_exchange_4
	.type	__atomic_compare_exchange_4, @function
__atomic_compare_exchange_4:
.LFB5:
	.loc 1 174 33 is_stmt 1
	.cfi_startproc
.LVL37:
	.loc 1 174 1
	.loc 1 174 3
	.loc 1 174 33 is_stmt 0
	addi	sp,sp,-32
	.cfi_def_cfa_offset 32
	sw	s0,24(sp)
	sw	a1,12(sp)
	.cfi_offset 8, -8
	mv	s0,a0
	sw	a2,8(sp)
	sw	ra,28(sp)
	.cfi_offset 1, -4
	.loc 1 174 20
	call	qcc74x_irq_save
.LVL38:
	.loc 1 174 39 is_stmt 1
	.loc 1 174 42 is_stmt 0
	lw	a1,12(sp)
	.loc 1 174 43
	lw	a5,0(s0)
	.loc 1 174 42
	lw	a2,8(sp)
	lw	a4,0(a1)
	bne	a5,a4,.L16
	.loc 1 174 62 is_stmt 1 discriminator 1
.LVL39:
	.loc 1 174 3 discriminator 1
	.loc 1 174 8 is_stmt 0 discriminator 1
	sw	a2,0(s0)
	.loc 1 174 66 discriminator 1
	li	s0,1
.LVL40:
.L17:
	.loc 1 174 46 is_stmt 1 discriminator 4
	call	qcc74x_irq_restore
.LVL41:
	.loc 1 174 73 discriminator 4
	.loc 1 174 85 is_stmt 0 discriminator 4
	lw	ra,28(sp)
	.cfi_remember_state
	.cfi_restore 1
	mv	a0,s0
	lw	s0,24(sp)
	.cfi_restore 8
.LVL42:
	addi	sp,sp,32
	.cfi_def_cfa_offset 0
.LVL43:
	jr	ra
.LVL44:
.L16:
	.cfi_restore_state
	.loc 1 174 28 is_stmt 1 discriminator 2
	.loc 1 174 36 is_stmt 0 discriminator 2
	sw	a5,0(a1)
	.loc 1 174 1 discriminator 2
	li	s0,0
.LVL45:
	j	.L17
	.cfi_endproc
.LFE5:
	.size	__atomic_compare_exchange_4, .-__atomic_compare_exchange_4
	.section	.text.__atomic_fetch_add_1,"ax",@progbits
	.align	1
	.globl	__atomic_fetch_add_1
	.type	__atomic_fetch_add_1, @function
__atomic_fetch_add_1:
.LFB6:
	.loc 1 176 73 is_stmt 1
	.cfi_startproc
.LVL46:
	.loc 1 176 75
	.loc 1 176 73 is_stmt 0
	addi	sp,sp,-32
	.cfi_def_cfa_offset 32
	sw	ra,28(sp)
	sw	s0,24(sp)
	sw	s1,20(sp)
	.cfi_offset 1, -4
	.cfi_offset 8, -8
	.cfi_offset 9, -12
	.loc 1 176 73
	sw	a1,12(sp)
	mv	s1,a0
	.loc 1 176 92
	call	qcc74x_irq_save
.LVL47:
	.loc 1 176 111 is_stmt 1
	.loc 1 176 143 is_stmt 0
	lw	a1,12(sp)
	.loc 1 176 119
	lbu	s0,0(s1)
.LVL48:
	.loc 1 176 131 is_stmt 1
	.loc 1 176 143 is_stmt 0
	add	a1,s0,a1
	.loc 1 176 136
	sb	a1,0(s1)
	.loc 1 176 152 is_stmt 1
	call	qcc74x_irq_restore
.LVL49:
	.loc 1 176 179
	.loc 1 176 191 is_stmt 0
	lw	ra,28(sp)
	.cfi_restore 1
	mv	a0,s0
	lw	s0,24(sp)
	.cfi_restore 8
.LVL50:
	lw	s1,20(sp)
	.cfi_restore 9
.LVL51:
	addi	sp,sp,32
	.cfi_def_cfa_offset 0
	jr	ra
	.cfi_endproc
.LFE6:
	.size	__atomic_fetch_add_1, .-__atomic_fetch_add_1
	.section	.text.__atomic_fetch_add_2,"ax",@progbits
	.align	1
	.globl	__atomic_fetch_add_2
	.type	__atomic_fetch_add_2, @function
__atomic_fetch_add_2:
.LFB7:
	.loc 1 177 76 is_stmt 1
	.cfi_startproc
.LVL52:
	.loc 1 177 78
	.loc 1 177 76 is_stmt 0
	addi	sp,sp,-32
	.cfi_def_cfa_offset 32
	sw	ra,28(sp)
	sw	s0,24(sp)
	sw	s1,20(sp)
	.cfi_offset 1, -4
	.cfi_offset 8, -8
	.cfi_offset 9, -12
	.loc 1 177 76
	sw	a1,12(sp)
	mv	s1,a0
	.loc 1 177 95
	call	qcc74x_irq_save
.LVL53:
	.loc 1 177 114 is_stmt 1
	.loc 1 177 147 is_stmt 0
	lw	a1,12(sp)
	.loc 1 177 123
	lhu	s0,0(s1)
.LVL54:
	.loc 1 177 135 is_stmt 1
	.loc 1 177 147 is_stmt 0
	add	a1,s0,a1
	.loc 1 177 140
	sh	a1,0(s1)
	.loc 1 177 156 is_stmt 1
	call	qcc74x_irq_restore
.LVL55:
	.loc 1 177 183
	.loc 1 177 195 is_stmt 0
	lw	ra,28(sp)
	.cfi_restore 1
	mv	a0,s0
	lw	s0,24(sp)
	.cfi_restore 8
.LVL56:
	lw	s1,20(sp)
	.cfi_restore 9
.LVL57:
	addi	sp,sp,32
	.cfi_def_cfa_offset 0
	jr	ra
	.cfi_endproc
.LFE7:
	.size	__atomic_fetch_add_2, .-__atomic_fetch_add_2
	.section	.text.__atomic_fetch_add_4,"ax",@progbits
	.align	1
	.globl	__atomic_fetch_add_4
	.type	__atomic_fetch_add_4, @function
__atomic_fetch_add_4:
.LFB8:
	.loc 1 178 76 is_stmt 1
	.cfi_startproc
.LVL58:
	.loc 1 178 78
	.loc 1 178 76 is_stmt 0
	addi	sp,sp,-32
	.cfi_def_cfa_offset 32
	sw	ra,28(sp)
	sw	s0,24(sp)
	sw	s1,20(sp)
	.cfi_offset 1, -4
	.cfi_offset 8, -8
	.cfi_offset 9, -12
	.loc 1 178 76
	sw	a1,12(sp)
	mv	s1,a0
	.loc 1 178 95
	call	qcc74x_irq_save
.LVL59:
	.loc 1 178 114 is_stmt 1
	.loc 1 178 147 is_stmt 0
	lw	a1,12(sp)
	.loc 1 178 123
	lw	s0,0(s1)
.LVL60:
	.loc 1 178 135 is_stmt 1
	.loc 1 178 147 is_stmt 0
	add	a1,s0,a1
	.loc 1 178 140
	sw	a1,0(s1)
	.loc 1 178 156 is_stmt 1
	call	qcc74x_irq_restore
.LVL61:
	.loc 1 178 183
	.loc 1 178 195 is_stmt 0
	lw	ra,28(sp)
	.cfi_restore 1
	mv	a0,s0
	lw	s0,24(sp)
	.cfi_restore 8
.LVL62:
	lw	s1,20(sp)
	.cfi_restore 9
.LVL63:
	addi	sp,sp,32
	.cfi_def_cfa_offset 0
.LVL64:
	jr	ra
	.cfi_endproc
.LFE8:
	.size	__atomic_fetch_add_4, .-__atomic_fetch_add_4
	.section	.text.__atomic_fetch_sub_1,"ax",@progbits
	.align	1
	.globl	__atomic_fetch_sub_1
	.type	__atomic_fetch_sub_1, @function
__atomic_fetch_sub_1:
.LFB9:
	.loc 1 180 73 is_stmt 1
	.cfi_startproc
.LVL65:
	.loc 1 180 75
	.loc 1 180 73 is_stmt 0
	addi	sp,sp,-32
	.cfi_def_cfa_offset 32
	sw	ra,28(sp)
	sw	s0,24(sp)
	sw	s1,20(sp)
	.cfi_offset 1, -4
	.cfi_offset 8, -8
	.cfi_offset 9, -12
	.loc 1 180 73
	sw	a1,12(sp)
	mv	s1,a0
	.loc 1 180 92
	call	qcc74x_irq_save
.LVL66:
	.loc 1 180 111 is_stmt 1
	.loc 1 180 143 is_stmt 0
	lw	a1,12(sp)
	.loc 1 180 119
	lbu	s0,0(s1)
.LVL67:
	.loc 1 180 131 is_stmt 1
	.loc 1 180 143 is_stmt 0
	sub	a1,s0,a1
	.loc 1 180 136
	sb	a1,0(s1)
	.loc 1 180 152 is_stmt 1
	call	qcc74x_irq_restore
.LVL68:
	.loc 1 180 179
	.loc 1 180 191 is_stmt 0
	lw	ra,28(sp)
	.cfi_restore 1
	mv	a0,s0
	lw	s0,24(sp)
	.cfi_restore 8
.LVL69:
	lw	s1,20(sp)
	.cfi_restore 9
.LVL70:
	addi	sp,sp,32
	.cfi_def_cfa_offset 0
	jr	ra
	.cfi_endproc
.LFE9:
	.size	__atomic_fetch_sub_1, .-__atomic_fetch_sub_1
	.section	.text.__atomic_fetch_sub_2,"ax",@progbits
	.align	1
	.globl	__atomic_fetch_sub_2
	.type	__atomic_fetch_sub_2, @function
__atomic_fetch_sub_2:
.LFB10:
	.loc 1 181 76 is_stmt 1
	.cfi_startproc
.LVL71:
	.loc 1 181 78
	.loc 1 181 76 is_stmt 0
	addi	sp,sp,-32
	.cfi_def_cfa_offset 32
	sw	ra,28(sp)
	sw	s0,24(sp)
	sw	s1,20(sp)
	.cfi_offset 1, -4
	.cfi_offset 8, -8
	.cfi_offset 9, -12
	.loc 1 181 76
	sw	a1,12(sp)
	mv	s1,a0
	.loc 1 181 95
	call	qcc74x_irq_save
.LVL72:
	.loc 1 181 114 is_stmt 1
	.loc 1 181 147 is_stmt 0
	lw	a1,12(sp)
	.loc 1 181 123
	lhu	s0,0(s1)
.LVL73:
	.loc 1 181 135 is_stmt 1
	.loc 1 181 147 is_stmt 0
	sub	a1,s0,a1
	.loc 1 181 140
	sh	a1,0(s1)
	.loc 1 181 156 is_stmt 1
	call	qcc74x_irq_restore
.LVL74:
	.loc 1 181 183
	.loc 1 181 195 is_stmt 0
	lw	ra,28(sp)
	.cfi_restore 1
	mv	a0,s0
	lw	s0,24(sp)
	.cfi_restore 8
.LVL75:
	lw	s1,20(sp)
	.cfi_restore 9
.LVL76:
	addi	sp,sp,32
	.cfi_def_cfa_offset 0
	jr	ra
	.cfi_endproc
.LFE10:
	.size	__atomic_fetch_sub_2, .-__atomic_fetch_sub_2
	.section	.text.__atomic_fetch_sub_4,"ax",@progbits
	.align	1
	.globl	__atomic_fetch_sub_4
	.type	__atomic_fetch_sub_4, @function
__atomic_fetch_sub_4:
.LFB11:
	.loc 1 182 76 is_stmt 1
	.cfi_startproc
.LVL77:
	.loc 1 182 78
	.loc 1 182 76 is_stmt 0
	addi	sp,sp,-32
	.cfi_def_cfa_offset 32
	sw	ra,28(sp)
	sw	s0,24(sp)
	sw	s1,20(sp)
	.cfi_offset 1, -4
	.cfi_offset 8, -8
	.cfi_offset 9, -12
	.loc 1 182 76
	sw	a1,12(sp)
	mv	s1,a0
	.loc 1 182 95
	call	qcc74x_irq_save
.LVL78:
	.loc 1 182 114 is_stmt 1
	.loc 1 182 147 is_stmt 0
	lw	a1,12(sp)
	.loc 1 182 123
	lw	s0,0(s1)
.LVL79:
	.loc 1 182 135 is_stmt 1
	.loc 1 182 147 is_stmt 0
	sub	a1,s0,a1
	.loc 1 182 140
	sw	a1,0(s1)
	.loc 1 182 156 is_stmt 1
	call	qcc74x_irq_restore
.LVL80:
	.loc 1 182 183
	.loc 1 182 195 is_stmt 0
	lw	ra,28(sp)
	.cfi_restore 1
	mv	a0,s0
	lw	s0,24(sp)
	.cfi_restore 8
.LVL81:
	lw	s1,20(sp)
	.cfi_restore 9
.LVL82:
	addi	sp,sp,32
	.cfi_def_cfa_offset 0
.LVL83:
	jr	ra
	.cfi_endproc
.LFE11:
	.size	__atomic_fetch_sub_4, .-__atomic_fetch_sub_4
	.section	.text.__atomic_fetch_and_1,"ax",@progbits
	.align	1
	.globl	__atomic_fetch_and_1
	.type	__atomic_fetch_and_1, @function
__atomic_fetch_and_1:
.LFB12:
	.loc 1 184 73 is_stmt 1
	.cfi_startproc
.LVL84:
	.loc 1 184 75
	.loc 1 184 73 is_stmt 0
	addi	sp,sp,-32
	.cfi_def_cfa_offset 32
	sw	ra,28(sp)
	sw	s0,24(sp)
	sw	s1,20(sp)
	.cfi_offset 1, -4
	.cfi_offset 8, -8
	.cfi_offset 9, -12
	.loc 1 184 73
	sw	a1,12(sp)
	mv	s1,a0
	.loc 1 184 92
	call	qcc74x_irq_save
.LVL85:
	.loc 1 184 111 is_stmt 1
	.loc 1 184 136 is_stmt 0
	lw	a1,12(sp)
	.loc 1 184 119
	lbu	s0,0(s1)
.LVL86:
	.loc 1 184 131 is_stmt 1
	.loc 1 184 136 is_stmt 0
	and	a1,s0,a1
	sb	a1,0(s1)
	.loc 1 184 152 is_stmt 1
	call	qcc74x_irq_restore
.LVL87:
	.loc 1 184 179
	.loc 1 184 191 is_stmt 0
	lw	ra,28(sp)
	.cfi_restore 1
	mv	a0,s0
	lw	s0,24(sp)
	.cfi_restore 8
.LVL88:
	lw	s1,20(sp)
	.cfi_restore 9
.LVL89:
	addi	sp,sp,32
	.cfi_def_cfa_offset 0
	jr	ra
	.cfi_endproc
.LFE12:
	.size	__atomic_fetch_and_1, .-__atomic_fetch_and_1
	.section	.text.__atomic_fetch_and_2,"ax",@progbits
	.align	1
	.globl	__atomic_fetch_and_2
	.type	__atomic_fetch_and_2, @function
__atomic_fetch_and_2:
.LFB13:
	.loc 1 185 76 is_stmt 1
	.cfi_startproc
.LVL90:
	.loc 1 185 78
	.loc 1 185 76 is_stmt 0
	addi	sp,sp,-32
	.cfi_def_cfa_offset 32
	sw	ra,28(sp)
	sw	s0,24(sp)
	sw	s1,20(sp)
	.cfi_offset 1, -4
	.cfi_offset 8, -8
	.cfi_offset 9, -12
	.loc 1 185 76
	sw	a1,12(sp)
	mv	s1,a0
	.loc 1 185 95
	call	qcc74x_irq_save
.LVL91:
	.loc 1 185 114 is_stmt 1
	.loc 1 185 140 is_stmt 0
	lw	a1,12(sp)
	.loc 1 185 123
	lhu	s0,0(s1)
.LVL92:
	.loc 1 185 135 is_stmt 1
	.loc 1 185 140 is_stmt 0
	and	a1,s0,a1
	sh	a1,0(s1)
	.loc 1 185 156 is_stmt 1
	call	qcc74x_irq_restore
.LVL93:
	.loc 1 185 183
	.loc 1 185 195 is_stmt 0
	lw	ra,28(sp)
	.cfi_restore 1
	mv	a0,s0
	lw	s0,24(sp)
	.cfi_restore 8
.LVL94:
	lw	s1,20(sp)
	.cfi_restore 9
.LVL95:
	addi	sp,sp,32
	.cfi_def_cfa_offset 0
	jr	ra
	.cfi_endproc
.LFE13:
	.size	__atomic_fetch_and_2, .-__atomic_fetch_and_2
	.section	.text.__atomic_fetch_and_4,"ax",@progbits
	.align	1
	.globl	__atomic_fetch_and_4
	.type	__atomic_fetch_and_4, @function
__atomic_fetch_and_4:
.LFB14:
	.loc 1 186 76 is_stmt 1
	.cfi_startproc
.LVL96:
	.loc 1 186 78
	.loc 1 186 76 is_stmt 0
	addi	sp,sp,-32
	.cfi_def_cfa_offset 32
	sw	ra,28(sp)
	sw	s0,24(sp)
	sw	s1,20(sp)
	.cfi_offset 1, -4
	.cfi_offset 8, -8
	.cfi_offset 9, -12
	.loc 1 186 76
	sw	a1,12(sp)
	mv	s1,a0
	.loc 1 186 95
	call	qcc74x_irq_save
.LVL97:
	.loc 1 186 114 is_stmt 1
	.loc 1 186 147 is_stmt 0
	lw	a1,12(sp)
	.loc 1 186 123
	lw	s0,0(s1)
.LVL98:
	.loc 1 186 135 is_stmt 1
	.loc 1 186 147 is_stmt 0
	and	a1,s0,a1
	.loc 1 186 140
	sw	a1,0(s1)
	.loc 1 186 156 is_stmt 1
	call	qcc74x_irq_restore
.LVL99:
	.loc 1 186 183
	.loc 1 186 195 is_stmt 0
	lw	ra,28(sp)
	.cfi_restore 1
	mv	a0,s0
	lw	s0,24(sp)
	.cfi_restore 8
.LVL100:
	lw	s1,20(sp)
	.cfi_restore 9
.LVL101:
	addi	sp,sp,32
	.cfi_def_cfa_offset 0
.LVL102:
	jr	ra
	.cfi_endproc
.LFE14:
	.size	__atomic_fetch_and_4, .-__atomic_fetch_and_4
	.section	.text.__atomic_fetch_or_1,"ax",@progbits
	.align	1
	.globl	__atomic_fetch_or_1
	.type	__atomic_fetch_or_1, @function
__atomic_fetch_or_1:
.LFB15:
	.loc 1 188 72 is_stmt 1
	.cfi_startproc
.LVL103:
	.loc 1 188 74
	.loc 1 188 72 is_stmt 0
	addi	sp,sp,-32
	.cfi_def_cfa_offset 32
	sw	ra,28(sp)
	sw	s0,24(sp)
	sw	s1,20(sp)
	.cfi_offset 1, -4
	.cfi_offset 8, -8
	.cfi_offset 9, -12
	.loc 1 188 72
	sw	a1,12(sp)
	mv	s1,a0
	.loc 1 188 91
	call	qcc74x_irq_save
.LVL104:
	.loc 1 188 110 is_stmt 1
	.loc 1 188 135 is_stmt 0
	lw	a1,12(sp)
	.loc 1 188 118
	lbu	s0,0(s1)
.LVL105:
	.loc 1 188 130 is_stmt 1
	.loc 1 188 135 is_stmt 0
	or	a1,s0,a1
	sb	a1,0(s1)
	.loc 1 188 151 is_stmt 1
	call	qcc74x_irq_restore
.LVL106:
	.loc 1 188 178
	.loc 1 188 190 is_stmt 0
	lw	ra,28(sp)
	.cfi_restore 1
	mv	a0,s0
	lw	s0,24(sp)
	.cfi_restore 8
.LVL107:
	lw	s1,20(sp)
	.cfi_restore 9
.LVL108:
	addi	sp,sp,32
	.cfi_def_cfa_offset 0
	jr	ra
	.cfi_endproc
.LFE15:
	.size	__atomic_fetch_or_1, .-__atomic_fetch_or_1
	.section	.text.__atomic_fetch_or_2,"ax",@progbits
	.align	1
	.globl	__atomic_fetch_or_2
	.type	__atomic_fetch_or_2, @function
__atomic_fetch_or_2:
.LFB16:
	.loc 1 189 75 is_stmt 1
	.cfi_startproc
.LVL109:
	.loc 1 189 77
	.loc 1 189 75 is_stmt 0
	addi	sp,sp,-32
	.cfi_def_cfa_offset 32
	sw	ra,28(sp)
	sw	s0,24(sp)
	sw	s1,20(sp)
	.cfi_offset 1, -4
	.cfi_offset 8, -8
	.cfi_offset 9, -12
	.loc 1 189 75
	sw	a1,12(sp)
	mv	s1,a0
	.loc 1 189 94
	call	qcc74x_irq_save
.LVL110:
	.loc 1 189 113 is_stmt 1
	.loc 1 189 139 is_stmt 0
	lw	a1,12(sp)
	.loc 1 189 122
	lhu	s0,0(s1)
.LVL111:
	.loc 1 189 134 is_stmt 1
	.loc 1 189 139 is_stmt 0
	or	a1,s0,a1
	sh	a1,0(s1)
	.loc 1 189 155 is_stmt 1
	call	qcc74x_irq_restore
.LVL112:
	.loc 1 189 182
	.loc 1 189 194 is_stmt 0
	lw	ra,28(sp)
	.cfi_restore 1
	mv	a0,s0
	lw	s0,24(sp)
	.cfi_restore 8
.LVL113:
	lw	s1,20(sp)
	.cfi_restore 9
.LVL114:
	addi	sp,sp,32
	.cfi_def_cfa_offset 0
	jr	ra
	.cfi_endproc
.LFE16:
	.size	__atomic_fetch_or_2, .-__atomic_fetch_or_2
	.section	.text.__atomic_fetch_or_4,"ax",@progbits
	.align	1
	.globl	__atomic_fetch_or_4
	.type	__atomic_fetch_or_4, @function
__atomic_fetch_or_4:
.LFB17:
	.loc 1 190 75 is_stmt 1
	.cfi_startproc
.LVL115:
	.loc 1 190 77
	.loc 1 190 75 is_stmt 0
	addi	sp,sp,-32
	.cfi_def_cfa_offset 32
	sw	ra,28(sp)
	sw	s0,24(sp)
	sw	s1,20(sp)
	.cfi_offset 1, -4
	.cfi_offset 8, -8
	.cfi_offset 9, -12
	.loc 1 190 75
	sw	a1,12(sp)
	mv	s1,a0
	.loc 1 190 94
	call	qcc74x_irq_save
.LVL116:
	.loc 1 190 113 is_stmt 1
	.loc 1 190 146 is_stmt 0
	lw	a1,12(sp)
	.loc 1 190 122
	lw	s0,0(s1)
.LVL117:
	.loc 1 190 134 is_stmt 1
	.loc 1 190 146 is_stmt 0
	or	a1,s0,a1
	.loc 1 190 139
	sw	a1,0(s1)
	.loc 1 190 155 is_stmt 1
	call	qcc74x_irq_restore
.LVL118:
	.loc 1 190 182
	.loc 1 190 194 is_stmt 0
	lw	ra,28(sp)
	.cfi_restore 1
	mv	a0,s0
	lw	s0,24(sp)
	.cfi_restore 8
.LVL119:
	lw	s1,20(sp)
	.cfi_restore 9
.LVL120:
	addi	sp,sp,32
	.cfi_def_cfa_offset 0
.LVL121:
	jr	ra
	.cfi_endproc
.LFE17:
	.size	__atomic_fetch_or_4, .-__atomic_fetch_or_4
	.section	.text.__atomic_fetch_xor_1,"ax",@progbits
	.align	1
	.globl	__atomic_fetch_xor_1
	.type	__atomic_fetch_xor_1, @function
__atomic_fetch_xor_1:
.LFB18:
	.loc 1 192 73 is_stmt 1
	.cfi_startproc
.LVL122:
	.loc 1 192 75
	.loc 1 192 73 is_stmt 0
	addi	sp,sp,-32
	.cfi_def_cfa_offset 32
	sw	ra,28(sp)
	sw	s0,24(sp)
	sw	s1,20(sp)
	.cfi_offset 1, -4
	.cfi_offset 8, -8
	.cfi_offset 9, -12
	.loc 1 192 73
	sw	a1,12(sp)
	mv	s1,a0
	.loc 1 192 92
	call	qcc74x_irq_save
.LVL123:
	.loc 1 192 111 is_stmt 1
	.loc 1 192 136 is_stmt 0
	lw	a1,12(sp)
	.loc 1 192 119
	lbu	s0,0(s1)
.LVL124:
	.loc 1 192 131 is_stmt 1
	.loc 1 192 136 is_stmt 0
	xor	a1,s0,a1
	sb	a1,0(s1)
	.loc 1 192 152 is_stmt 1
	call	qcc74x_irq_restore
.LVL125:
	.loc 1 192 179
	.loc 1 192 191 is_stmt 0
	lw	ra,28(sp)
	.cfi_restore 1
	mv	a0,s0
	lw	s0,24(sp)
	.cfi_restore 8
.LVL126:
	lw	s1,20(sp)
	.cfi_restore 9
.LVL127:
	addi	sp,sp,32
	.cfi_def_cfa_offset 0
	jr	ra
	.cfi_endproc
.LFE18:
	.size	__atomic_fetch_xor_1, .-__atomic_fetch_xor_1
	.section	.text.__atomic_fetch_xor_2,"ax",@progbits
	.align	1
	.globl	__atomic_fetch_xor_2
	.type	__atomic_fetch_xor_2, @function
__atomic_fetch_xor_2:
.LFB19:
	.loc 1 193 76 is_stmt 1
	.cfi_startproc
.LVL128:
	.loc 1 193 78
	.loc 1 193 76 is_stmt 0
	addi	sp,sp,-32
	.cfi_def_cfa_offset 32
	sw	ra,28(sp)
	sw	s0,24(sp)
	sw	s1,20(sp)
	.cfi_offset 1, -4
	.cfi_offset 8, -8
	.cfi_offset 9, -12
	.loc 1 193 76
	sw	a1,12(sp)
	mv	s1,a0
	.loc 1 193 95
	call	qcc74x_irq_save
.LVL129:
	.loc 1 193 114 is_stmt 1
	.loc 1 193 140 is_stmt 0
	lw	a1,12(sp)
	.loc 1 193 123
	lhu	s0,0(s1)
.LVL130:
	.loc 1 193 135 is_stmt 1
	.loc 1 193 140 is_stmt 0
	xor	a1,s0,a1
	sh	a1,0(s1)
	.loc 1 193 156 is_stmt 1
	call	qcc74x_irq_restore
.LVL131:
	.loc 1 193 183
	.loc 1 193 195 is_stmt 0
	lw	ra,28(sp)
	.cfi_restore 1
	mv	a0,s0
	lw	s0,24(sp)
	.cfi_restore 8
.LVL132:
	lw	s1,20(sp)
	.cfi_restore 9
.LVL133:
	addi	sp,sp,32
	.cfi_def_cfa_offset 0
	jr	ra
	.cfi_endproc
.LFE19:
	.size	__atomic_fetch_xor_2, .-__atomic_fetch_xor_2
	.section	.text.__atomic_fetch_xor_4,"ax",@progbits
	.align	1
	.globl	__atomic_fetch_xor_4
	.type	__atomic_fetch_xor_4, @function
__atomic_fetch_xor_4:
.LFB20:
	.loc 1 194 76 is_stmt 1
	.cfi_startproc
.LVL134:
	.loc 1 194 78
	.loc 1 194 76 is_stmt 0
	addi	sp,sp,-32
	.cfi_def_cfa_offset 32
	sw	ra,28(sp)
	sw	s0,24(sp)
	sw	s1,20(sp)
	.cfi_offset 1, -4
	.cfi_offset 8, -8
	.cfi_offset 9, -12
	.loc 1 194 76
	sw	a1,12(sp)
	mv	s1,a0
	.loc 1 194 95
	call	qcc74x_irq_save
.LVL135:
	.loc 1 194 114 is_stmt 1
	.loc 1 194 147 is_stmt 0
	lw	a1,12(sp)
	.loc 1 194 123
	lw	s0,0(s1)
.LVL136:
	.loc 1 194 135 is_stmt 1
	.loc 1 194 147 is_stmt 0
	xor	a1,s0,a1
	.loc 1 194 140
	sw	a1,0(s1)
	.loc 1 194 156 is_stmt 1
	call	qcc74x_irq_restore
.LVL137:
	.loc 1 194 183
	.loc 1 194 195 is_stmt 0
	lw	ra,28(sp)
	.cfi_restore 1
	mv	a0,s0
	lw	s0,24(sp)
	.cfi_restore 8
.LVL138:
	lw	s1,20(sp)
	.cfi_restore 9
.LVL139:
	addi	sp,sp,32
	.cfi_def_cfa_offset 0
.LVL140:
	jr	ra
	.cfi_endproc
.LFE20:
	.size	__atomic_fetch_xor_4, .-__atomic_fetch_xor_4
	.section	.text.__sync_fetch_and_add_1,"ax",@progbits
	.align	1
	.globl	__sync_fetch_and_add_1
	.type	__sync_fetch_and_add_1, @function
__sync_fetch_and_add_1:
.LFB21:
	.loc 1 196 62 is_stmt 1
	.cfi_startproc
.LVL141:
	.loc 1 196 64
	.loc 1 196 71 is_stmt 0
	li	a2,5
	tail	__atomic_fetch_add_1
.LVL142:
	.cfi_endproc
.LFE21:
	.size	__sync_fetch_and_add_1, .-__sync_fetch_and_add_1
	.section	.text.__sync_fetch_and_add_2,"ax",@progbits
	.align	1
	.globl	__sync_fetch_and_add_2
	.type	__sync_fetch_and_add_2, @function
__sync_fetch_and_add_2:
.LFB22:
	.loc 1 197 65 is_stmt 1
	.cfi_startproc
.LVL143:
	.loc 1 197 67
	.loc 1 197 74 is_stmt 0
	li	a2,5
	tail	__atomic_fetch_add_2
.LVL144:
	.cfi_endproc
.LFE22:
	.size	__sync_fetch_and_add_2, .-__sync_fetch_and_add_2
	.section	.text.__sync_fetch_and_add_4,"ax",@progbits
	.align	1
	.globl	__sync_fetch_and_add_4
	.type	__sync_fetch_and_add_4, @function
__sync_fetch_and_add_4:
.LFB23:
	.loc 1 198 65 is_stmt 1
	.cfi_startproc
.LVL145:
	.loc 1 198 67
	.loc 1 198 74 is_stmt 0
	li	a2,5
	tail	__atomic_fetch_add_4
.LVL146:
	.cfi_endproc
.LFE23:
	.size	__sync_fetch_and_add_4, .-__sync_fetch_and_add_4
	.section	.text.__sync_fetch_and_sub_1,"ax",@progbits
	.align	1
	.globl	__sync_fetch_and_sub_1
	.type	__sync_fetch_and_sub_1, @function
__sync_fetch_and_sub_1:
.LFB24:
	.loc 1 200 62 is_stmt 1
	.cfi_startproc
.LVL147:
	.loc 1 200 64
	.loc 1 200 71 is_stmt 0
	li	a2,5
	tail	__atomic_fetch_sub_1
.LVL148:
	.cfi_endproc
.LFE24:
	.size	__sync_fetch_and_sub_1, .-__sync_fetch_and_sub_1
	.section	.text.__sync_fetch_and_sub_2,"ax",@progbits
	.align	1
	.globl	__sync_fetch_and_sub_2
	.type	__sync_fetch_and_sub_2, @function
__sync_fetch_and_sub_2:
.LFB25:
	.loc 1 201 65 is_stmt 1
	.cfi_startproc
.LVL149:
	.loc 1 201 67
	.loc 1 201 74 is_stmt 0
	li	a2,5
	tail	__atomic_fetch_sub_2
.LVL150:
	.cfi_endproc
.LFE25:
	.size	__sync_fetch_and_sub_2, .-__sync_fetch_and_sub_2
	.section	.text.__sync_fetch_and_sub_4,"ax",@progbits
	.align	1
	.globl	__sync_fetch_and_sub_4
	.type	__sync_fetch_and_sub_4, @function
__sync_fetch_and_sub_4:
.LFB26:
	.loc 1 202 65 is_stmt 1
	.cfi_startproc
.LVL151:
	.loc 1 202 67
	.loc 1 202 74 is_stmt 0
	li	a2,5
	tail	__atomic_fetch_sub_4
.LVL152:
	.cfi_endproc
.LFE26:
	.size	__sync_fetch_and_sub_4, .-__sync_fetch_and_sub_4
	.section	.text.__sync_fetch_and_and_1,"ax",@progbits
	.align	1
	.globl	__sync_fetch_and_and_1
	.type	__sync_fetch_and_and_1, @function
__sync_fetch_and_and_1:
.LFB27:
	.loc 1 204 62 is_stmt 1
	.cfi_startproc
.LVL153:
	.loc 1 204 64
	.loc 1 204 71 is_stmt 0
	li	a2,5
	tail	__atomic_fetch_and_1
.LVL154:
	.cfi_endproc
.LFE27:
	.size	__sync_fetch_and_and_1, .-__sync_fetch_and_and_1
	.section	.text.__sync_fetch_and_and_2,"ax",@progbits
	.align	1
	.globl	__sync_fetch_and_and_2
	.type	__sync_fetch_and_and_2, @function
__sync_fetch_and_and_2:
.LFB28:
	.loc 1 205 65 is_stmt 1
	.cfi_startproc
.LVL155:
	.loc 1 205 67
	.loc 1 205 74 is_stmt 0
	li	a2,5
	tail	__atomic_fetch_and_2
.LVL156:
	.cfi_endproc
.LFE28:
	.size	__sync_fetch_and_and_2, .-__sync_fetch_and_and_2
	.section	.text.__sync_fetch_and_and_4,"ax",@progbits
	.align	1
	.globl	__sync_fetch_and_and_4
	.type	__sync_fetch_and_and_4, @function
__sync_fetch_and_and_4:
.LFB29:
	.loc 1 206 65 is_stmt 1
	.cfi_startproc
.LVL157:
	.loc 1 206 67
	.loc 1 206 74 is_stmt 0
	li	a2,5
	tail	__atomic_fetch_and_4
.LVL158:
	.cfi_endproc
.LFE29:
	.size	__sync_fetch_and_and_4, .-__sync_fetch_and_and_4
	.section	.text.__sync_fetch_and_or_1,"ax",@progbits
	.align	1
	.globl	__sync_fetch_and_or_1
	.type	__sync_fetch_and_or_1, @function
__sync_fetch_and_or_1:
.LFB30:
	.loc 1 208 61 is_stmt 1
	.cfi_startproc
.LVL159:
	.loc 1 208 63
	.loc 1 208 70 is_stmt 0
	li	a2,5
	tail	__atomic_fetch_or_1
.LVL160:
	.cfi_endproc
.LFE30:
	.size	__sync_fetch_and_or_1, .-__sync_fetch_and_or_1
	.section	.text.__sync_fetch_and_or_2,"ax",@progbits
	.align	1
	.globl	__sync_fetch_and_or_2
	.type	__sync_fetch_and_or_2, @function
__sync_fetch_and_or_2:
.LFB31:
	.loc 1 209 64 is_stmt 1
	.cfi_startproc
.LVL161:
	.loc 1 209 66
	.loc 1 209 73 is_stmt 0
	li	a2,5
	tail	__atomic_fetch_or_2
.LVL162:
	.cfi_endproc
.LFE31:
	.size	__sync_fetch_and_or_2, .-__sync_fetch_and_or_2
	.section	.text.__sync_fetch_and_or_4,"ax",@progbits
	.align	1
	.globl	__sync_fetch_and_or_4
	.type	__sync_fetch_and_or_4, @function
__sync_fetch_and_or_4:
.LFB32:
	.loc 1 210 64 is_stmt 1
	.cfi_startproc
.LVL163:
	.loc 1 210 66
	.loc 1 210 73 is_stmt 0
	li	a2,5
	tail	__atomic_fetch_or_4
.LVL164:
	.cfi_endproc
.LFE32:
	.size	__sync_fetch_and_or_4, .-__sync_fetch_and_or_4
	.section	.text.__sync_fetch_and_xor_1,"ax",@progbits
	.align	1
	.globl	__sync_fetch_and_xor_1
	.type	__sync_fetch_and_xor_1, @function
__sync_fetch_and_xor_1:
.LFB33:
	.loc 1 212 62 is_stmt 1
	.cfi_startproc
.LVL165:
	.loc 1 212 64
	.loc 1 212 71 is_stmt 0
	li	a2,5
	tail	__atomic_fetch_xor_1
.LVL166:
	.cfi_endproc
.LFE33:
	.size	__sync_fetch_and_xor_1, .-__sync_fetch_and_xor_1
	.section	.text.__sync_fetch_and_xor_2,"ax",@progbits
	.align	1
	.globl	__sync_fetch_and_xor_2
	.type	__sync_fetch_and_xor_2, @function
__sync_fetch_and_xor_2:
.LFB34:
	.loc 1 213 65 is_stmt 1
	.cfi_startproc
.LVL167:
	.loc 1 213 67
	.loc 1 213 74 is_stmt 0
	li	a2,5
	tail	__atomic_fetch_xor_2
.LVL168:
	.cfi_endproc
.LFE34:
	.size	__sync_fetch_and_xor_2, .-__sync_fetch_and_xor_2
	.section	.text.__sync_fetch_and_xor_4,"ax",@progbits
	.align	1
	.globl	__sync_fetch_and_xor_4
	.type	__sync_fetch_and_xor_4, @function
__sync_fetch_and_xor_4:
.LFB35:
	.loc 1 214 65 is_stmt 1
	.cfi_startproc
.LVL169:
	.loc 1 214 67
	.loc 1 214 74 is_stmt 0
	li	a2,5
	tail	__atomic_fetch_xor_4
.LVL170:
	.cfi_endproc
.LFE35:
	.size	__sync_fetch_and_xor_4, .-__sync_fetch_and_xor_4
	.section	.text.__sync_bool_compare_and_swap_1,"ax",@progbits
	.align	1
	.globl	__sync_bool_compare_and_swap_1
	.type	__sync_bool_compare_and_swap_1, @function
__sync_bool_compare_and_swap_1:
.LFB36:
	.loc 1 216 79 is_stmt 1
	.cfi_startproc
.LVL171:
	.loc 1 216 1
	.loc 1 216 3
	.loc 1 216 79 is_stmt 0
	addi	sp,sp,-32
	.cfi_def_cfa_offset 32
	sw	s0,24(sp)
	sw	a1,12(sp)
	.cfi_offset 8, -8
	mv	s0,a0
	sw	a2,8(sp)
	sw	ra,28(sp)
	.cfi_offset 1, -4
	.loc 1 216 20
	call	qcc74x_irq_save
.LVL172:
	.loc 1 216 39 is_stmt 1
	.loc 1 216 42 is_stmt 0
	lbu	a5,0(s0)
	lw	a1,12(sp)
	lw	a2,8(sp)
	bne	a5,a1,.L66
	.loc 1 216 61 is_stmt 1 discriminator 1
	.loc 1 216 66 is_stmt 0 discriminator 1
	sb	a2,0(s0)
	.loc 1 216 76 is_stmt 1 discriminator 1
.LVL173:
	.loc 1 216 80 is_stmt 0 discriminator 1
	li	s0,1
.LVL174:
.L65:
	.loc 1 216 5 is_stmt 1 discriminator 3
	call	qcc74x_irq_restore
.LVL175:
	.loc 1 216 32 discriminator 3
	.loc 1 216 44 is_stmt 0 discriminator 3
	lw	ra,28(sp)
	.cfi_remember_state
	.cfi_restore 1
	mv	a0,s0
	lw	s0,24(sp)
	.cfi_restore 8
.LVL176:
	addi	sp,sp,32
	.cfi_def_cfa_offset 0
	jr	ra
.LVL177:
.L66:
	.cfi_restore_state
	.loc 1 216 1
	li	s0,0
.LVL178:
	j	.L65
	.cfi_endproc
.LFE36:
	.size	__sync_bool_compare_and_swap_1, .-__sync_bool_compare_and_swap_1
	.section	.text.__sync_bool_compare_and_swap_2,"ax",@progbits
	.align	1
	.globl	__sync_bool_compare_and_swap_2
	.type	__sync_bool_compare_and_swap_2, @function
__sync_bool_compare_and_swap_2:
.LFB37:
	.loc 1 217 82 is_stmt 1
	.cfi_startproc
.LVL179:
	.loc 1 217 1
	.loc 1 217 3
	.loc 1 217 82 is_stmt 0
	addi	sp,sp,-32
	.cfi_def_cfa_offset 32
	sw	s0,24(sp)
	sw	a1,12(sp)
	.cfi_offset 8, -8
	mv	s0,a0
	sw	a2,8(sp)
	sw	ra,28(sp)
	.cfi_offset 1, -4
	.loc 1 217 20
	call	qcc74x_irq_save
.LVL180:
	.loc 1 217 39 is_stmt 1
	.loc 1 217 42 is_stmt 0
	lhu	a5,0(s0)
	lw	a1,12(sp)
	lw	a2,8(sp)
	bne	a5,a1,.L70
	.loc 1 217 61 is_stmt 1 discriminator 1
	.loc 1 217 66 is_stmt 0 discriminator 1
	sh	a2,0(s0)
	.loc 1 217 76 is_stmt 1 discriminator 1
.LVL181:
	.loc 1 217 80 is_stmt 0 discriminator 1
	li	s0,1
.LVL182:
.L69:
	.loc 1 217 5 is_stmt 1 discriminator 3
	call	qcc74x_irq_restore
.LVL183:
	.loc 1 217 32 discriminator 3
	.loc 1 217 44 is_stmt 0 discriminator 3
	lw	ra,28(sp)
	.cfi_remember_state
	.cfi_restore 1
	mv	a0,s0
	lw	s0,24(sp)
	.cfi_restore 8
.LVL184:
	addi	sp,sp,32
	.cfi_def_cfa_offset 0
	jr	ra
.LVL185:
.L70:
	.cfi_restore_state
	.loc 1 217 1
	li	s0,0
.LVL186:
	j	.L69
	.cfi_endproc
.LFE37:
	.size	__sync_bool_compare_and_swap_2, .-__sync_bool_compare_and_swap_2
	.section	.text.__sync_bool_compare_and_swap_4,"ax",@progbits
	.align	1
	.globl	__sync_bool_compare_and_swap_4
	.type	__sync_bool_compare_and_swap_4, @function
__sync_bool_compare_and_swap_4:
.LFB38:
	.loc 1 218 82 is_stmt 1
	.cfi_startproc
.LVL187:
	.loc 1 218 1
	.loc 1 218 3
	.loc 1 218 82 is_stmt 0
	addi	sp,sp,-32
	.cfi_def_cfa_offset 32
	sw	s0,24(sp)
	sw	a1,12(sp)
	.cfi_offset 8, -8
	mv	s0,a0
	sw	a2,8(sp)
	sw	ra,28(sp)
	.cfi_offset 1, -4
	.loc 1 218 20
	call	qcc74x_irq_save
.LVL188:
	.loc 1 218 39 is_stmt 1
	.loc 1 218 42 is_stmt 0
	lw	a5,0(s0)
	lw	a1,12(sp)
	lw	a2,8(sp)
	bne	a5,a1,.L74
	.loc 1 218 61 is_stmt 1 discriminator 1
	.loc 1 218 66 is_stmt 0 discriminator 1
	sw	a2,0(s0)
	.loc 1 218 76 is_stmt 1 discriminator 1
.LVL189:
	.loc 1 218 80 is_stmt 0 discriminator 1
	li	s0,1
.LVL190:
.L73:
	.loc 1 218 5 is_stmt 1 discriminator 3
	call	qcc74x_irq_restore
.LVL191:
	.loc 1 218 32 discriminator 3
	.loc 1 218 44 is_stmt 0 discriminator 3
	lw	ra,28(sp)
	.cfi_remember_state
	.cfi_restore 1
	mv	a0,s0
	lw	s0,24(sp)
	.cfi_restore 8
.LVL192:
	addi	sp,sp,32
	.cfi_def_cfa_offset 0
.LVL193:
	jr	ra
.LVL194:
.L74:
	.cfi_restore_state
	.loc 1 218 1
	li	s0,0
.LVL195:
	j	.L73
	.cfi_endproc
.LFE38:
	.size	__sync_bool_compare_and_swap_4, .-__sync_bool_compare_and_swap_4
	.section	.text.__sync_val_compare_and_swap_1,"ax",@progbits
	.align	1
	.globl	__sync_val_compare_and_swap_1
	.type	__sync_val_compare_and_swap_1, @function
__sync_val_compare_and_swap_1:
.LFB39:
	.loc 1 220 86 is_stmt 1
	.cfi_startproc
.LVL196:
	.loc 1 220 88
	.loc 1 220 86 is_stmt 0
	addi	sp,sp,-32
	.cfi_def_cfa_offset 32
	sw	s0,24(sp)
	sw	s1,20(sp)
	sw	a1,12(sp)
	.cfi_offset 8, -8
	.cfi_offset 9, -12
	mv	s1,a0
	sw	a2,8(sp)
	sw	ra,28(sp)
	.cfi_offset 1, -4
	.loc 1 220 105
	call	qcc74x_irq_save
.LVL197:
	.loc 1 220 124 is_stmt 1
	.loc 1 220 147 is_stmt 0
	lw	a1,12(sp)
	.loc 1 220 132
	lbu	s0,0(s1)
.LVL198:
	.loc 1 220 144 is_stmt 1
	.loc 1 220 147 is_stmt 0
	lw	a2,8(sp)
	bne	s0,a1,.L77
	.loc 1 220 166 is_stmt 1 discriminator 1
	.loc 1 220 171 is_stmt 0 discriminator 1
	sb	a2,0(s1)
.L77:
	.loc 1 220 183 is_stmt 1 discriminator 3
	call	qcc74x_irq_restore
.LVL199:
	.loc 1 220 210 discriminator 3
	.loc 1 220 222 is_stmt 0 discriminator 3
	lw	ra,28(sp)
	.cfi_restore 1
	mv	a0,s0
	lw	s0,24(sp)
	.cfi_restore 8
.LVL200:
	lw	s1,20(sp)
	.cfi_restore 9
.LVL201:
	addi	sp,sp,32
	.cfi_def_cfa_offset 0
	jr	ra
	.cfi_endproc
.LFE39:
	.size	__sync_val_compare_and_swap_1, .-__sync_val_compare_and_swap_1
	.section	.text.__sync_val_compare_and_swap_2,"ax",@progbits
	.align	1
	.globl	__sync_val_compare_and_swap_2
	.type	__sync_val_compare_and_swap_2, @function
__sync_val_compare_and_swap_2:
.LFB40:
	.loc 1 221 90 is_stmt 1
	.cfi_startproc
.LVL202:
	.loc 1 221 92
	.loc 1 221 90 is_stmt 0
	addi	sp,sp,-32
	.cfi_def_cfa_offset 32
	sw	s0,24(sp)
	sw	s1,20(sp)
	sw	a1,12(sp)
	.cfi_offset 8, -8
	.cfi_offset 9, -12
	mv	s1,a0
	sw	a2,8(sp)
	sw	ra,28(sp)
	.cfi_offset 1, -4
	.loc 1 221 109
	call	qcc74x_irq_save
.LVL203:
	.loc 1 221 128 is_stmt 1
	.loc 1 221 152 is_stmt 0
	lw	a1,12(sp)
	.loc 1 221 137
	lhu	s0,0(s1)
.LVL204:
	.loc 1 221 149 is_stmt 1
	.loc 1 221 152 is_stmt 0
	lw	a2,8(sp)
	bne	s0,a1,.L80
	.loc 1 221 171 is_stmt 1 discriminator 1
	.loc 1 221 176 is_stmt 0 discriminator 1
	sh	a2,0(s1)
.L80:
	.loc 1 221 188 is_stmt 1 discriminator 3
	call	qcc74x_irq_restore
.LVL205:
	.loc 1 221 215 discriminator 3
	.loc 1 221 227 is_stmt 0 discriminator 3
	lw	ra,28(sp)
	.cfi_restore 1
	mv	a0,s0
	lw	s0,24(sp)
	.cfi_restore 8
.LVL206:
	lw	s1,20(sp)
	.cfi_restore 9
.LVL207:
	addi	sp,sp,32
	.cfi_def_cfa_offset 0
	jr	ra
	.cfi_endproc
.LFE40:
	.size	__sync_val_compare_and_swap_2, .-__sync_val_compare_and_swap_2
	.section	.text.__sync_val_compare_and_swap_4,"ax",@progbits
	.align	1
	.globl	__sync_val_compare_and_swap_4
	.type	__sync_val_compare_and_swap_4, @function
__sync_val_compare_and_swap_4:
.LFB41:
	.loc 1 222 90 is_stmt 1
	.cfi_startproc
.LVL208:
	.loc 1 222 92
	.loc 1 222 90 is_stmt 0
	addi	sp,sp,-32
	.cfi_def_cfa_offset 32
	sw	s0,24(sp)
	sw	s1,20(sp)
	sw	a1,12(sp)
	.cfi_offset 8, -8
	.cfi_offset 9, -12
	mv	s1,a0
	sw	a2,8(sp)
	sw	ra,28(sp)
	.cfi_offset 1, -4
	.loc 1 222 109
	call	qcc74x_irq_save
.LVL209:
	.loc 1 222 128 is_stmt 1
	.loc 1 222 152 is_stmt 0
	lw	a1,12(sp)
	.loc 1 222 137
	lw	s0,0(s1)
.LVL210:
	.loc 1 222 149 is_stmt 1
	.loc 1 222 152 is_stmt 0
	lw	a2,8(sp)
	bne	s0,a1,.L83
	.loc 1 222 171 is_stmt 1 discriminator 1
	.loc 1 222 176 is_stmt 0 discriminator 1
	sw	a2,0(s1)
.L83:
	.loc 1 222 188 is_stmt 1 discriminator 3
	call	qcc74x_irq_restore
.LVL211:
	.loc 1 222 215 discriminator 3
	.loc 1 222 227 is_stmt 0 discriminator 3
	lw	ra,28(sp)
	.cfi_restore 1
	mv	a0,s0
	lw	s0,24(sp)
	.cfi_restore 8
.LVL212:
	lw	s1,20(sp)
	.cfi_restore 9
.LVL213:
	addi	sp,sp,32
	.cfi_def_cfa_offset 0
.LVL214:
	jr	ra
	.cfi_endproc
.LFE41:
	.size	__sync_val_compare_and_swap_4, .-__sync_val_compare_and_swap_4
	.section	.text.__atomic_load_8,"ax",@progbits
	.align	1
	.globl	__atomic_load_8
	.type	__atomic_load_8, @function
__atomic_load_8:
.LFB42:
	.loc 1 226 61 is_stmt 1
	.cfi_startproc
.LVL215:
	.loc 1 226 63
	.loc 1 226 61 is_stmt 0
	addi	sp,sp,-16
	.cfi_def_cfa_offset 16
	sw	s0,8(sp)
	.cfi_offset 8, -8
	mv	s0,a0
	sw	ra,12(sp)
	sw	s1,4(sp)
	.cfi_offset 1, -4
	.cfi_offset 9, -12
	.loc 1 226 80
	call	qcc74x_irq_save
.LVL216:
	.loc 1 226 99 is_stmt 1
	.loc 1 226 108 is_stmt 0
	lw	s1,4(s0)
	lw	s0,0(s0)
.LVL217:
	.loc 1 226 120 is_stmt 1
	call	qcc74x_irq_restore
.LVL218:
	.loc 1 226 147
	.loc 1 226 159 is_stmt 0
	lw	ra,12(sp)
	.cfi_restore 1
	mv	a0,s0
	lw	s0,8(sp)
	.cfi_restore 8
.LVL219:
	mv	a1,s1
	lw	s1,4(sp)
	.cfi_restore 9
	addi	sp,sp,16
	.cfi_def_cfa_offset 0
	jr	ra
	.cfi_endproc
.LFE42:
	.size	__atomic_load_8, .-__atomic_load_8
	.section	.text.__atomic_store_8,"ax",@progbits
	.align	1
	.globl	__atomic_store_8
	.type	__atomic_store_8, @function
__atomic_store_8:
.LFB43:
	.loc 1 228 66 is_stmt 1
	.cfi_startproc
.LVL220:
	.loc 1 228 68
	.loc 1 228 66 is_stmt 0
	addi	sp,sp,-16
	.cfi_def_cfa_offset 16
	sw	s0,8(sp)
	sw	s2,4(sp)
	sw	s3,0(sp)
	.cfi_offset 8, -8
	.cfi_offset 18, -12
	.cfi_offset 19, -16
	mv	s0,a0
	mv	s2,a1
	mv	s3,a2
	sw	ra,12(sp)
	.cfi_offset 1, -4
	.loc 1 228 85
	call	qcc74x_irq_save
.LVL221:
	.loc 1 228 104 is_stmt 1
	.loc 1 228 109 is_stmt 0
	sw	s2,0(s0)
	sw	s3,4(s0)
	.loc 1 228 116 is_stmt 1
	.loc 1 228 143 is_stmt 0
	lw	s0,8(sp)
	.cfi_restore 8
.LVL222:
	lw	ra,12(sp)
	.cfi_restore 1
	lw	s2,4(sp)
	.cfi_restore 18
	lw	s3,0(sp)
	.cfi_restore 19
	addi	sp,sp,16
	.cfi_def_cfa_offset 0
	.loc 1 228 116
	tail	qcc74x_irq_restore
.LVL223:
	.cfi_endproc
.LFE43:
	.size	__atomic_store_8, .-__atomic_store_8
	.section	.text.__atomic_exchange_8,"ax",@progbits
	.align	1
	.globl	__atomic_exchange_8
	.type	__atomic_exchange_8, @function
__atomic_exchange_8:
.LFB44:
	.loc 1 230 73 is_stmt 1
	.cfi_startproc
.LVL224:
	.loc 1 230 75
	.loc 1 230 73 is_stmt 0
	addi	sp,sp,-32
	.cfi_def_cfa_offset 32
	sw	s0,24(sp)
	sw	s4,12(sp)
	sw	s5,8(sp)
	.cfi_offset 8, -8
	.cfi_offset 20, -20
	.cfi_offset 21, -24
	mv	s0,a0
	mv	s4,a1
	mv	s5,a2
	sw	ra,28(sp)
	sw	s2,20(sp)
	sw	s3,16(sp)
	.cfi_offset 1, -4
	.cfi_offset 18, -12
	.cfi_offset 19, -16
	.loc 1 230 92
	call	qcc74x_irq_save
.LVL225:
	.loc 1 230 111 is_stmt 1
	.loc 1 230 120 is_stmt 0
	lw	s2,0(s0)
	lw	s3,4(s0)
.LVL226:
	.loc 1 230 132 is_stmt 1
	.loc 1 230 137 is_stmt 0
	sw	s4,0(s0)
	sw	s5,4(s0)
	.loc 1 230 144 is_stmt 1
	call	qcc74x_irq_restore
.LVL227:
	.loc 1 230 171
	.loc 1 230 183 is_stmt 0
	lw	ra,28(sp)
	.cfi_restore 1
	lw	s0,24(sp)
	.cfi_restore 8
.LVL228:
	lw	s4,12(sp)
	.cfi_restore 20
	lw	s5,8(sp)
	.cfi_restore 21
	mv	a0,s2
	mv	a1,s3
	lw	s2,20(sp)
	.cfi_restore 18
.LVL229:
	lw	s3,16(sp)
	.cfi_restore 19
	addi	sp,sp,32
	.cfi_def_cfa_offset 0
	jr	ra
	.cfi_endproc
.LFE44:
	.size	__atomic_exchange_8, .-__atomic_exchange_8
	.section	.text.__atomic_compare_exchange_8,"ax",@progbits
	.align	1
	.globl	__atomic_compare_exchange_8
	.type	__atomic_compare_exchange_8, @function
__atomic_compare_exchange_8:
.LFB45:
	.loc 1 232 33 is_stmt 1
	.cfi_startproc
.LVL230:
	.loc 1 232 1
	.loc 1 232 3
	.loc 1 232 33 is_stmt 0
	addi	sp,sp,-32
	.cfi_def_cfa_offset 32
	sw	s0,24(sp)
	sw	a1,12(sp)
	.cfi_offset 8, -8
	mv	s0,a0
	sw	a2,0(sp)
	sw	a3,4(sp)
	sw	ra,28(sp)
	.cfi_offset 1, -4
	.loc 1 232 20
	call	qcc74x_irq_save
.LVL231:
	.loc 1 232 39 is_stmt 1
	.loc 1 232 42 is_stmt 0
	lw	a1,12(sp)
	.loc 1 232 43
	lw	a4,0(s0)
	lw	a5,4(s0)
	.loc 1 232 42
	lw	a6,0(a1)
	lw	a2,0(sp)
	lw	a3,4(sp)
	bne	a6,a4,.L92
	lw	a6,4(a1)
	bne	a6,a5,.L92
	.loc 1 232 62 is_stmt 1 discriminator 1
.LVL232:
	.loc 1 232 3 discriminator 1
	.loc 1 232 8 is_stmt 0 discriminator 1
	sw	a2,0(s0)
	sw	a3,4(s0)
	.loc 1 232 66 discriminator 1
	li	s0,1
.LVL233:
.L93:
	.loc 1 232 46 is_stmt 1 discriminator 4
	call	qcc74x_irq_restore
.LVL234:
	.loc 1 232 73 discriminator 4
	.loc 1 232 85 is_stmt 0 discriminator 4
	lw	ra,28(sp)
	.cfi_remember_state
	.cfi_restore 1
	mv	a0,s0
	lw	s0,24(sp)
	.cfi_restore 8
.LVL235:
	addi	sp,sp,32
	.cfi_def_cfa_offset 0
.LVL236:
	jr	ra
.LVL237:
.L92:
	.cfi_restore_state
	.loc 1 232 28 is_stmt 1 discriminator 2
	.loc 1 232 36 is_stmt 0 discriminator 2
	sw	a4,0(a1)
	sw	a5,4(a1)
	.loc 1 232 1 discriminator 2
	li	s0,0
.LVL238:
	j	.L93
	.cfi_endproc
.LFE45:
	.size	__atomic_compare_exchange_8, .-__atomic_compare_exchange_8
	.section	.text.__atomic_fetch_add_8,"ax",@progbits
	.align	1
	.globl	__atomic_fetch_add_8
	.type	__atomic_fetch_add_8, @function
__atomic_fetch_add_8:
.LFB46:
	.loc 1 234 76 is_stmt 1
	.cfi_startproc
.LVL239:
	.loc 1 234 78
	.loc 1 234 76 is_stmt 0
	addi	sp,sp,-32
	.cfi_def_cfa_offset 32
	sw	s4,8(sp)
	.cfi_offset 20, -24
	mv	s4,a0
	sw	ra,28(sp)
	sw	s0,24(sp)
	sw	s1,20(sp)
	sw	s2,16(sp)
	sw	s3,12(sp)
	.cfi_offset 1, -4
	.cfi_offset 8, -8
	.cfi_offset 9, -12
	.cfi_offset 18, -16
	.cfi_offset 19, -20
	.loc 1 234 76
	mv	s0,a1
	mv	s1,a2
	.loc 1 234 95
	call	qcc74x_irq_save
.LVL240:
	.loc 1 234 114 is_stmt 1
	.loc 1 234 123 is_stmt 0
	lw	s2,0(s4)
	lw	s3,4(s4)
.LVL241:
	.loc 1 234 135 is_stmt 1
	.loc 1 234 147 is_stmt 0
	add64	s0,s2,s0
	.loc 1 234 140
	sw	s0,0(s4)
	sw	s1,4(s4)
	.loc 1 234 156 is_stmt 1
	call	qcc74x_irq_restore
.LVL242:
	.loc 1 234 183
	.loc 1 234 195 is_stmt 0
	lw	ra,28(sp)
	.cfi_restore 1
	lw	s0,24(sp)
	.cfi_restore 8
	lw	s1,20(sp)
	.cfi_restore 9
	lw	s4,8(sp)
	.cfi_restore 20
.LVL243:
	mv	a0,s2
	mv	a1,s3
	lw	s2,16(sp)
	.cfi_restore 18
.LVL244:
	lw	s3,12(sp)
	.cfi_restore 19
	addi	sp,sp,32
	.cfi_def_cfa_offset 0
	jr	ra
	.cfi_endproc
.LFE46:
	.size	__atomic_fetch_add_8, .-__atomic_fetch_add_8
	.section	.text.__atomic_fetch_sub_8,"ax",@progbits
	.align	1
	.globl	__atomic_fetch_sub_8
	.type	__atomic_fetch_sub_8, @function
__atomic_fetch_sub_8:
.LFB47:
	.loc 1 236 76 is_stmt 1
	.cfi_startproc
.LVL245:
	.loc 1 236 78
	.loc 1 236 76 is_stmt 0
	addi	sp,sp,-32
	.cfi_def_cfa_offset 32
	sw	s4,8(sp)
	.cfi_offset 20, -24
	mv	s4,a0
	sw	ra,28(sp)
	sw	s0,24(sp)
	sw	s1,20(sp)
	sw	s2,16(sp)
	sw	s3,12(sp)
	.cfi_offset 1, -4
	.cfi_offset 8, -8
	.cfi_offset 9, -12
	.cfi_offset 18, -16
	.cfi_offset 19, -20
	.loc 1 236 76
	mv	s0,a1
	mv	s1,a2
	.loc 1 236 95
	call	qcc74x_irq_save
.LVL246:
	.loc 1 236 114 is_stmt 1
	.loc 1 236 123 is_stmt 0
	lw	s2,0(s4)
	lw	s3,4(s4)
.LVL247:
	.loc 1 236 135 is_stmt 1
	.loc 1 236 147 is_stmt 0
	sub64	s0,s2,s0
	.loc 1 236 140
	sw	s0,0(s4)
	sw	s1,4(s4)
	.loc 1 236 156 is_stmt 1
	call	qcc74x_irq_restore
.LVL248:
	.loc 1 236 183
	.loc 1 236 195 is_stmt 0
	lw	ra,28(sp)
	.cfi_restore 1
	lw	s0,24(sp)
	.cfi_restore 8
	lw	s1,20(sp)
	.cfi_restore 9
	lw	s4,8(sp)
	.cfi_restore 20
.LVL249:
	mv	a0,s2
	mv	a1,s3
	lw	s2,16(sp)
	.cfi_restore 18
.LVL250:
	lw	s3,12(sp)
	.cfi_restore 19
	addi	sp,sp,32
	.cfi_def_cfa_offset 0
	jr	ra
	.cfi_endproc
.LFE47:
	.size	__atomic_fetch_sub_8, .-__atomic_fetch_sub_8
	.section	.text.__atomic_fetch_and_8,"ax",@progbits
	.align	1
	.globl	__atomic_fetch_and_8
	.type	__atomic_fetch_and_8, @function
__atomic_fetch_and_8:
.LFB48:
	.loc 1 238 76 is_stmt 1
	.cfi_startproc
.LVL251:
	.loc 1 238 78
	.loc 1 238 76 is_stmt 0
	addi	sp,sp,-32
	.cfi_def_cfa_offset 32
	sw	ra,28(sp)
	sw	s0,24(sp)
	sw	s1,20(sp)
	sw	s2,16(sp)
	.cfi_offset 1, -4
	.cfi_offset 8, -8
	.cfi_offset 9, -12
	.cfi_offset 18, -16
	.loc 1 238 76
	mv	s0,a0
	mv	s1,a1
	sw	a2,12(sp)
	.loc 1 238 95
	call	qcc74x_irq_save
.LVL252:
	.loc 1 238 114 is_stmt 1
	.loc 1 238 123 is_stmt 0
	lw	a1,4(s0)
	lw	s2,0(s0)
.LVL253:
	.loc 1 238 135 is_stmt 1
	.loc 1 238 147 is_stmt 0
	lw	a2,12(sp)
	sw	a1,12(sp)
	and	s1,s2,s1
	and	a2,a1,a2
	sw	s1,0(s0)
	sw	a2,4(s0)
	.loc 1 238 156 is_stmt 1
	call	qcc74x_irq_restore
.LVL254:
	.loc 1 238 183
	.loc 1 238 195 is_stmt 0
	lw	ra,28(sp)
	.cfi_restore 1
	lw	s0,24(sp)
	.cfi_restore 8
.LVL255:
	lw	a1,12(sp)
	lw	s1,20(sp)
	.cfi_restore 9
	mv	a0,s2
	lw	s2,16(sp)
	.cfi_restore 18
.LVL256:
	addi	sp,sp,32
	.cfi_def_cfa_offset 0
.LVL257:
	jr	ra
	.cfi_endproc
.LFE48:
	.size	__atomic_fetch_and_8, .-__atomic_fetch_and_8
	.section	.text.__atomic_fetch_or_8,"ax",@progbits
	.align	1
	.globl	__atomic_fetch_or_8
	.type	__atomic_fetch_or_8, @function
__atomic_fetch_or_8:
.LFB49:
	.loc 1 240 75 is_stmt 1
	.cfi_startproc
.LVL258:
	.loc 1 240 77
	.loc 1 240 75 is_stmt 0
	addi	sp,sp,-32
	.cfi_def_cfa_offset 32
	sw	ra,28(sp)
	sw	s0,24(sp)
	sw	s1,20(sp)
	sw	s2,16(sp)
	.cfi_offset 1, -4
	.cfi_offset 8, -8
	.cfi_offset 9, -12
	.cfi_offset 18, -16
	.loc 1 240 75
	mv	s0,a0
	mv	s1,a1
	sw	a2,12(sp)
	.loc 1 240 94
	call	qcc74x_irq_save
.LVL259:
	.loc 1 240 113 is_stmt 1
	.loc 1 240 122 is_stmt 0
	lw	a1,4(s0)
	lw	s2,0(s0)
.LVL260:
	.loc 1 240 134 is_stmt 1
	.loc 1 240 146 is_stmt 0
	lw	a2,12(sp)
	sw	a1,12(sp)
	or	s1,s2,s1
	or	a2,a1,a2
	sw	s1,0(s0)
	sw	a2,4(s0)
	.loc 1 240 155 is_stmt 1
	call	qcc74x_irq_restore
.LVL261:
	.loc 1 240 182
	.loc 1 240 194 is_stmt 0
	lw	ra,28(sp)
	.cfi_restore 1
	lw	s0,24(sp)
	.cfi_restore 8
.LVL262:
	lw	a1,12(sp)
	lw	s1,20(sp)
	.cfi_restore 9
	mv	a0,s2
	lw	s2,16(sp)
	.cfi_restore 18
.LVL263:
	addi	sp,sp,32
	.cfi_def_cfa_offset 0
.LVL264:
	jr	ra
	.cfi_endproc
.LFE49:
	.size	__atomic_fetch_or_8, .-__atomic_fetch_or_8
	.section	.text.__atomic_fetch_xor_8,"ax",@progbits
	.align	1
	.globl	__atomic_fetch_xor_8
	.type	__atomic_fetch_xor_8, @function
__atomic_fetch_xor_8:
.LFB50:
	.loc 1 242 76 is_stmt 1
	.cfi_startproc
.LVL265:
	.loc 1 242 78
	.loc 1 242 76 is_stmt 0
	addi	sp,sp,-32
	.cfi_def_cfa_offset 32
	sw	ra,28(sp)
	sw	s0,24(sp)
	sw	s1,20(sp)
	sw	s2,16(sp)
	.cfi_offset 1, -4
	.cfi_offset 8, -8
	.cfi_offset 9, -12
	.cfi_offset 18, -16
	.loc 1 242 76
	mv	s0,a0
	mv	s1,a1
	sw	a2,12(sp)
	.loc 1 242 95
	call	qcc74x_irq_save
.LVL266:
	.loc 1 242 114 is_stmt 1
	.loc 1 242 123 is_stmt 0
	lw	a1,4(s0)
	lw	s2,0(s0)
.LVL267:
	.loc 1 242 135 is_stmt 1
	.loc 1 242 147 is_stmt 0
	lw	a2,12(sp)
	sw	a1,12(sp)
	xor	s1,s2,s1
	xor	a2,a1,a2
	sw	s1,0(s0)
	sw	a2,4(s0)
	.loc 1 242 156 is_stmt 1
	call	qcc74x_irq_restore
.LVL268:
	.loc 1 242 183
	.loc 1 242 195 is_stmt 0
	lw	ra,28(sp)
	.cfi_restore 1
	lw	s0,24(sp)
	.cfi_restore 8
.LVL269:
	lw	a1,12(sp)
	lw	s1,20(sp)
	.cfi_restore 9
	mv	a0,s2
	lw	s2,16(sp)
	.cfi_restore 18
.LVL270:
	addi	sp,sp,32
	.cfi_def_cfa_offset 0
.LVL271:
	jr	ra
	.cfi_endproc
.LFE50:
	.size	__atomic_fetch_xor_8, .-__atomic_fetch_xor_8
	.section	.text.__sync_fetch_and_add_8,"ax",@progbits
	.align	1
	.globl	__sync_fetch_and_add_8
	.type	__sync_fetch_and_add_8, @function
__sync_fetch_and_add_8:
.LFB51:
	.loc 1 244 65 is_stmt 1
	.cfi_startproc
.LVL272:
	.loc 1 244 67
	.loc 1 244 65 is_stmt 0
	addi	sp,sp,-32
	.cfi_def_cfa_offset 32
	sw	s4,8(sp)
	.cfi_offset 20, -24
	mv	s4,a0
.LVL273:
	sw	ra,28(sp)
	sw	s0,24(sp)
	sw	s1,20(sp)
	sw	s2,16(sp)
	sw	s3,12(sp)
	.cfi_offset 1, -4
	.cfi_offset 8, -8
	.cfi_offset 9, -12
	.cfi_offset 18, -16
	.cfi_offset 19, -20
	.loc 1 244 65
	mv	s0,a1
	mv	s1,a2
.LVL274:
.LBB12:
.LBB13:
	.loc 1 234 78 is_stmt 1
	.loc 1 234 95 is_stmt 0
	call	qcc74x_irq_save
.LVL275:
	.loc 1 234 114 is_stmt 1
	.loc 1 234 123 is_stmt 0
	lw	s2,0(s4)
	lw	s3,4(s4)
.LVL276:
	.loc 1 234 135 is_stmt 1
	.loc 1 234 147 is_stmt 0
	add64	s0,s0,s2
.LVL277:
	.loc 1 234 140
	sw	s0,0(s4)
	sw	s1,4(s4)
	.loc 1 234 156 is_stmt 1
	call	qcc74x_irq_restore
.LVL278:
	.loc 1 234 183
.LBE13:
.LBE12:
	.loc 1 244 111 is_stmt 0
	lw	ra,28(sp)
	.cfi_restore 1
	lw	s0,24(sp)
	.cfi_restore 8
	lw	s1,20(sp)
	.cfi_restore 9
	lw	s4,8(sp)
	.cfi_restore 20
.LVL279:
	mv	a0,s2
	mv	a1,s3
	lw	s2,16(sp)
	.cfi_restore 18
	lw	s3,12(sp)
	.cfi_restore 19
	addi	sp,sp,32
	.cfi_def_cfa_offset 0
	jr	ra
	.cfi_endproc
.LFE51:
	.size	__sync_fetch_and_add_8, .-__sync_fetch_and_add_8
	.section	.text.__sync_fetch_and_sub_8,"ax",@progbits
	.align	1
	.globl	__sync_fetch_and_sub_8
	.type	__sync_fetch_and_sub_8, @function
__sync_fetch_and_sub_8:
.LFB52:
	.loc 1 246 65 is_stmt 1
	.cfi_startproc
.LVL280:
	.loc 1 246 67
	.loc 1 246 65 is_stmt 0
	addi	sp,sp,-32
	.cfi_def_cfa_offset 32
	sw	s4,8(sp)
	.cfi_offset 20, -24
	mv	s4,a0
.LVL281:
	sw	ra,28(sp)
	sw	s0,24(sp)
	sw	s1,20(sp)
	sw	s2,16(sp)
	sw	s3,12(sp)
	.cfi_offset 1, -4
	.cfi_offset 8, -8
	.cfi_offset 9, -12
	.cfi_offset 18, -16
	.cfi_offset 19, -20
	.loc 1 246 65
	mv	s0,a1
	mv	s1,a2
.LVL282:
.LBB14:
.LBB15:
	.loc 1 236 78 is_stmt 1
	.loc 1 236 95 is_stmt 0
	call	qcc74x_irq_save
.LVL283:
	.loc 1 236 114 is_stmt 1
	.loc 1 236 123 is_stmt 0
	lw	s2,0(s4)
	lw	s3,4(s4)
.LVL284:
	.loc 1 236 135 is_stmt 1
	.loc 1 236 147 is_stmt 0
	sub64	s0,s2,s0
.LVL285:
	.loc 1 236 140
	sw	s0,0(s4)
	sw	s1,4(s4)
	.loc 1 236 156 is_stmt 1
	call	qcc74x_irq_restore
.LVL286:
	.loc 1 236 183
.LBE15:
.LBE14:
	.loc 1 246 111 is_stmt 0
	lw	ra,28(sp)
	.cfi_restore 1
	lw	s0,24(sp)
	.cfi_restore 8
	lw	s1,20(sp)
	.cfi_restore 9
	lw	s4,8(sp)
	.cfi_restore 20
.LVL287:
	mv	a0,s2
	mv	a1,s3
	lw	s2,16(sp)
	.cfi_restore 18
	lw	s3,12(sp)
	.cfi_restore 19
	addi	sp,sp,32
	.cfi_def_cfa_offset 0
	jr	ra
	.cfi_endproc
.LFE52:
	.size	__sync_fetch_and_sub_8, .-__sync_fetch_and_sub_8
	.section	.text.__sync_fetch_and_and_8,"ax",@progbits
	.align	1
	.globl	__sync_fetch_and_and_8
	.type	__sync_fetch_and_and_8, @function
__sync_fetch_and_and_8:
.LFB53:
	.loc 1 248 65 is_stmt 1
	.cfi_startproc
.LVL288:
	.loc 1 248 67
	.loc 1 248 65 is_stmt 0
	addi	sp,sp,-32
	.cfi_def_cfa_offset 32
	sw	ra,28(sp)
	sw	s0,24(sp)
	sw	s1,20(sp)
	sw	s2,16(sp)
	.cfi_offset 1, -4
	.cfi_offset 8, -8
	.cfi_offset 9, -12
	.cfi_offset 18, -16
	.loc 1 248 65
	mv	s0,a0
.LVL289:
	mv	s1,a1
.LVL290:
.LBB16:
.LBB17:
	.loc 1 238 78 is_stmt 1
.LBE17:
.LBE16:
	.loc 1 248 65 is_stmt 0
	sw	a2,12(sp)
.LVL291:
.LBB19:
.LBB18:
	.loc 1 238 95
	call	qcc74x_irq_save
.LVL292:
	.loc 1 238 114 is_stmt 1
	.loc 1 238 123 is_stmt 0
	lw	a1,4(s0)
	lw	s2,0(s0)
.LVL293:
	.loc 1 238 135 is_stmt 1
	.loc 1 238 147 is_stmt 0
	lw	a2,12(sp)
	sw	a1,12(sp)
	and	s1,s1,s2
	and	a2,a2,a1
	sw	s1,0(s0)
	sw	a2,4(s0)
	.loc 1 238 156 is_stmt 1
	call	qcc74x_irq_restore
.LVL294:
	.loc 1 238 183
.LBE18:
.LBE19:
	.loc 1 248 111 is_stmt 0
	lw	ra,28(sp)
	.cfi_restore 1
	lw	s0,24(sp)
	.cfi_restore 8
.LVL295:
	lw	a1,12(sp)
	lw	s1,20(sp)
	.cfi_restore 9
	mv	a0,s2
	lw	s2,16(sp)
	.cfi_restore 18
	addi	sp,sp,32
	.cfi_def_cfa_offset 0
	jr	ra
	.cfi_endproc
.LFE53:
	.size	__sync_fetch_and_and_8, .-__sync_fetch_and_and_8
	.section	.text.__sync_fetch_and_or_8,"ax",@progbits
	.align	1
	.globl	__sync_fetch_and_or_8
	.type	__sync_fetch_and_or_8, @function
__sync_fetch_and_or_8:
.LFB54:
	.loc 1 250 64 is_stmt 1
	.cfi_startproc
.LVL296:
	.loc 1 250 66
	.loc 1 250 64 is_stmt 0
	addi	sp,sp,-32
	.cfi_def_cfa_offset 32
	sw	ra,28(sp)
	sw	s0,24(sp)
	sw	s1,20(sp)
	sw	s2,16(sp)
	.cfi_offset 1, -4
	.cfi_offset 8, -8
	.cfi_offset 9, -12
	.cfi_offset 18, -16
	.loc 1 250 64
	mv	s0,a0
.LVL297:
	mv	s1,a1
.LVL298:
.LBB20:
.LBB21:
	.loc 1 240 77 is_stmt 1
.LBE21:
.LBE20:
	.loc 1 250 64 is_stmt 0
	sw	a2,12(sp)
.LVL299:
.LBB23:
.LBB22:
	.loc 1 240 94
	call	qcc74x_irq_save
.LVL300:
	.loc 1 240 113 is_stmt 1
	.loc 1 240 122 is_stmt 0
	lw	a1,4(s0)
	lw	s2,0(s0)
.LVL301:
	.loc 1 240 134 is_stmt 1
	.loc 1 240 146 is_stmt 0
	lw	a2,12(sp)
	sw	a1,12(sp)
	or	s1,s1,s2
	or	a2,a2,a1
	sw	s1,0(s0)
	sw	a2,4(s0)
	.loc 1 240 155 is_stmt 1
	call	qcc74x_irq_restore
.LVL302:
	.loc 1 240 182
.LBE22:
.LBE23:
	.loc 1 250 109 is_stmt 0
	lw	ra,28(sp)
	.cfi_restore 1
	lw	s0,24(sp)
	.cfi_restore 8
.LVL303:
	lw	a1,12(sp)
	lw	s1,20(sp)
	.cfi_restore 9
	mv	a0,s2
	lw	s2,16(sp)
	.cfi_restore 18
	addi	sp,sp,32
	.cfi_def_cfa_offset 0
	jr	ra
	.cfi_endproc
.LFE54:
	.size	__sync_fetch_and_or_8, .-__sync_fetch_and_or_8
	.section	.text.__sync_fetch_and_xor_8,"ax",@progbits
	.align	1
	.globl	__sync_fetch_and_xor_8
	.type	__sync_fetch_and_xor_8, @function
__sync_fetch_and_xor_8:
.LFB55:
	.loc 1 252 65 is_stmt 1
	.cfi_startproc
.LVL304:
	.loc 1 252 67
	.loc 1 252 65 is_stmt 0
	addi	sp,sp,-32
	.cfi_def_cfa_offset 32
	sw	ra,28(sp)
	sw	s0,24(sp)
	sw	s1,20(sp)
	sw	s2,16(sp)
	.cfi_offset 1, -4
	.cfi_offset 8, -8
	.cfi_offset 9, -12
	.cfi_offset 18, -16
	.loc 1 252 65
	mv	s0,a0
.LVL305:
	mv	s1,a1
.LVL306:
.LBB24:
.LBB25:
	.loc 1 242 78 is_stmt 1
.LBE25:
.LBE24:
	.loc 1 252 65 is_stmt 0
	sw	a2,12(sp)
.LVL307:
.LBB27:
.LBB26:
	.loc 1 242 95
	call	qcc74x_irq_save
.LVL308:
	.loc 1 242 114 is_stmt 1
	.loc 1 242 123 is_stmt 0
	lw	a1,4(s0)
	lw	s2,0(s0)
.LVL309:
	.loc 1 242 135 is_stmt 1
	.loc 1 242 147 is_stmt 0
	lw	a2,12(sp)
	sw	a1,12(sp)
	xor	s1,s1,s2
	xor	a2,a2,a1
	sw	s1,0(s0)
	sw	a2,4(s0)
	.loc 1 242 156 is_stmt 1
	call	qcc74x_irq_restore
.LVL310:
	.loc 1 242 183
.LBE26:
.LBE27:
	.loc 1 252 111 is_stmt 0
	lw	ra,28(sp)
	.cfi_restore 1
	lw	s0,24(sp)
	.cfi_restore 8
.LVL311:
	lw	a1,12(sp)
	lw	s1,20(sp)
	.cfi_restore 9
	mv	a0,s2
	lw	s2,16(sp)
	.cfi_restore 18
	addi	sp,sp,32
	.cfi_def_cfa_offset 0
	jr	ra
	.cfi_endproc
.LFE55:
	.size	__sync_fetch_and_xor_8, .-__sync_fetch_and_xor_8
	.section	.text.__sync_bool_compare_and_swap_8,"ax",@progbits
	.align	1
	.globl	__sync_bool_compare_and_swap_8
	.type	__sync_bool_compare_and_swap_8, @function
__sync_bool_compare_and_swap_8:
.LFB56:
	.loc 1 254 82 is_stmt 1
	.cfi_startproc
.LVL312:
	.loc 1 254 1
	.loc 1 254 3
	.loc 1 254 82 is_stmt 0
	addi	sp,sp,-32
	.cfi_def_cfa_offset 32
	sw	s0,24(sp)
	sw	s2,20(sp)
	sw	s3,16(sp)
	.cfi_offset 8, -8
	.cfi_offset 18, -12
	.cfi_offset 19, -16
	mv	s0,a0
	sw	a1,12(sp)
	sw	a2,8(sp)
	sw	ra,28(sp)
	.cfi_offset 1, -4
	.loc 1 254 82
	mv	s2,a3
	mv	s3,a4
	.loc 1 254 20
	call	qcc74x_irq_save
.LVL313:
	.loc 1 254 39 is_stmt 1
	.loc 1 254 42 is_stmt 0
	lw	a5,0(s0)
	lw	a1,12(sp)
	lw	a2,8(sp)
	bne	a5,a1,.L117
	lw	a5,4(s0)
	bne	a5,a2,.L117
	.loc 1 254 61 is_stmt 1 discriminator 1
	.loc 1 254 66 is_stmt 0 discriminator 1
	sw	s2,0(s0)
	sw	s3,4(s0)
	.loc 1 254 76 is_stmt 1 discriminator 1
.LVL314:
	.loc 1 254 80 is_stmt 0 discriminator 1
	li	s0,1
.LVL315:
.L116:
	.loc 1 254 5 is_stmt 1 discriminator 3
	call	qcc74x_irq_restore
.LVL316:
	.loc 1 254 32 discriminator 3
	.loc 1 254 44 is_stmt 0 discriminator 3
	lw	ra,28(sp)
	.cfi_remember_state
	.cfi_restore 1
	mv	a0,s0
	lw	s0,24(sp)
	.cfi_restore 8
.LVL317:
	lw	s2,20(sp)
	.cfi_restore 18
	lw	s3,16(sp)
	.cfi_restore 19
	addi	sp,sp,32
	.cfi_def_cfa_offset 0
	jr	ra
.LVL318:
.L117:
	.cfi_restore_state
	.loc 1 254 1
	li	s0,0
.LVL319:
	j	.L116
	.cfi_endproc
.LFE56:
	.size	__sync_bool_compare_and_swap_8, .-__sync_bool_compare_and_swap_8
	.section	.text.__sync_val_compare_and_swap_8,"ax",@progbits
	.align	1
	.globl	__sync_val_compare_and_swap_8
	.type	__sync_val_compare_and_swap_8, @function
__sync_val_compare_and_swap_8:
.LFB57:
	.loc 1 256 90 is_stmt 1
	.cfi_startproc
.LVL320:
	.loc 1 256 92
	.loc 1 256 90 is_stmt 0
	addi	sp,sp,-48
	.cfi_def_cfa_offset 48
	sw	s0,40(sp)
	sw	s1,36(sp)
	.cfi_offset 8, -8
	.cfi_offset 9, -12
	mv	s0,a0
	sw	s2,32(sp)
	sw	s4,28(sp)
	sw	s5,24(sp)
	sw	a1,12(sp)
	sw	a2,8(sp)
	sw	ra,44(sp)
	.cfi_offset 18, -16
	.cfi_offset 20, -20
	.cfi_offset 21, -24
	.cfi_offset 1, -4
	.loc 1 256 90
	mv	s4,a3
	mv	s5,a4
	.loc 1 256 109
	call	qcc74x_irq_save
.LVL321:
	.loc 1 256 128 is_stmt 1
	.loc 1 256 152 is_stmt 0
	lw	a1,12(sp)
	.loc 1 256 137
	lw	s2,0(s0)
	lw	s1,4(s0)
.LVL322:
	.loc 1 256 149 is_stmt 1
	.loc 1 256 152 is_stmt 0
	lw	a2,8(sp)
	bne	s2,a1,.L120
	bne	s1,a2,.L120
	.loc 1 256 171 is_stmt 1 discriminator 1
	.loc 1 256 176 is_stmt 0 discriminator 1
	sw	s4,0(s0)
	sw	s5,4(s0)
.L120:
	.loc 1 256 188 is_stmt 1 discriminator 3
	call	qcc74x_irq_restore
.LVL323:
	.loc 1 256 215 discriminator 3
	.loc 1 256 227 is_stmt 0 discriminator 3
	lw	ra,44(sp)
	.cfi_restore 1
	lw	s0,40(sp)
	.cfi_restore 8
.LVL324:
	lw	s4,28(sp)
	.cfi_restore 20
	lw	s5,24(sp)
	.cfi_restore 21
	mv	a0,s2
	mv	a1,s1
	lw	s2,32(sp)
	.cfi_restore 18
.LVL325:
	lw	s1,36(sp)
	.cfi_restore 9
.LVL326:
	addi	sp,sp,48
	.cfi_def_cfa_offset 0
	jr	ra
	.cfi_endproc
.LFE57:
	.size	__sync_val_compare_and_swap_8, .-__sync_val_compare_and_swap_8
	.text
.Letext0:
	.file 2 "./toolchain/linux_x86_64/riscv64-unknown-elf/include/machine/_default_types.h"
	.file 3 "./toolchain/linux_x86_64/riscv64-unknown-elf/include/sys/_stdint.h"
	.file 4 "./drivers/lhal/include/qcc74x_irq.h"