	.file	"qcc74x_flash.c"
	.option nopic
	.attribute arch, "rv32i2p0_m2p0_a2p0_f2p0_c2p0_p0p9_zpn0p9_zpsfoperand0p9_xtheade2p0"
	.attribute unaligned_access, 0
	.attribute stack_align, 16
	.text
.Ltext0:
	.cfi_sections	.debug_frame
	.section	.tcm_code../drivers/lhal/src/qcc74x_flash.c271,"ax",@progbits
	.align	1
	.type	flash_get_size_from_jedecid, @function
flash_get_size_from_jedecid:
.LFB243:
	.file 1 "./drivers/lhal/src/qcc74x_flash.c"
	.loc 1 272 1
	.cfi_startproc
.LVL0:
	.loc 1 273 5
	.loc 1 274 5
	.loc 1 275 5
	.loc 1 277 5
	.loc 1 277 30 is_stmt 0
	slli	a5,a0,16
	li	a4,16711680
	and	a5,a5,a4
	.loc 1 277 49
	li	a4,65536
	addi	a4,a4,-256
	and	a4,a0,a4
	.loc 1 277 37
	or	a5,a5,a4
	.loc 1 277 84
	extu	a0,a0,16+8-1,16
.LVL1:
	.loc 1 277 9
	add	a0,a5,a0
.LVL2:
	.loc 1 279 5 is_stmt 1
	.loc 1 279 8 is_stmt 0
	beq	a0,zero,.L1
	.loc 1 283 5 is_stmt 1
	.loc 1 283 22 is_stmt 0
	andi	a0,a0,31
.LVL3:
	.loc 1 284 5 is_stmt 1
	.loc 1 285 5
	.loc 1 284 22 is_stmt 0
	addi	a0,a0,-19
.LVL4:
	.loc 1 285 42
	li	a5,524288
.LVL5:
	.loc 1 285 48
	sll	a0,a5,a0
.LVL6:
	.loc 1 287 5 is_stmt 1
.L1:
	.loc 1 288 1 is_stmt 0
	ret
	.cfi_endproc
.LFE243:
	.size	flash_get_size_from_jedecid, .-flash_get_size_from_jedecid
	.section	.tcm_code../drivers/lhal/src/qcc74x_flash.c350,"ax",@progbits
	.align	1
	.type	qcc74x_flash_set_cmds.constprop.0, @function
qcc74x_flash_set_cmds.constprop.0:
.LFB270:
	.loc 1 350 94 is_stmt 1
	.cfi_startproc
.LVL7:
	.loc 1 352 5
	.loc 1 354 5
	.loc 1 355 5
	.loc 1 356 5
	.loc 1 357 5
	.loc 1 358 5
	.loc 1 354 26 is_stmt 0
	li	a5,16842752
	.loc 1 350 94
	addi	sp,sp,-32
	.cfi_def_cfa_offset 32
	.loc 1 354 26
	addi	a5,a5,257
	sw	a5,8(sp)
	.loc 1 358 28
	li	a5,9
	sb	a5,12(sp)
	.loc 1 360 5 is_stmt 1
	.loc 1 360 8 is_stmt 0
	lui	a5,%hi(.LANCHOR0)
	lbu	a5,%lo(.LANCHOR0)(a5)
	.loc 1 350 94
	sw	ra,28(sp)
	.cfi_offset 1, -4
	.loc 1 360 8
	li	a4,4
	andi	a5,a5,31
	bne	a5,a4,.L7
	.loc 1 361 9 is_stmt 1
	.loc 1 361 33 is_stmt 0
	li	a5,2
	sb	a5,11(sp)
	.loc 1 362 9 is_stmt 1
	.loc 1 362 32 is_stmt 0
	sb	a5,12(sp)
.L7:
	.loc 1 364 5 is_stmt 1
	addi	a0,sp,8
	li	a1,0
	call	qcc74x_sf_ctrl_cmds_set
.LVL8:
	.loc 1 365 1 is_stmt 0
	lw	ra,28(sp)
	.cfi_restore 1
	addi	sp,sp,32
	.cfi_def_cfa_offset 0
	jr	ra
	.cfi_endproc
.LFE270:
	.size	qcc74x_flash_set_cmds.constprop.0, .-qcc74x_flash_set_cmds.constprop.0
	.section	.tcm_code../drivers/lhal/src/qcc74x_flash.c330,"ax",@progbits
	.align	1
	.type	flash_set_l1c_wrap.constprop.0, @function
flash_set_l1c_wrap.constprop.0:
.LFB269:
	.loc 1 330 94 is_stmt 1
	.cfi_startproc
.LVL9:
	.loc 1 332 5
	.loc 1 332 21 is_stmt 0
	lui	a0,%hi(.LANCHOR0)
	.loc 1 332 8
	lbu	a5,%lo(.LANCHOR0)(a0)
	li	a4,4
	.loc 1 338 9
	addi	a0,a0,%lo(.LANCHOR0)
	.loc 1 332 8
	andi	a5,a5,31
	bne	a5,a4,.L10
	.loc 1 338 9 is_stmt 1
	tail	qcc74x_sflash_set_burst_wrap
.LVL10:
.L10:
	.loc 1 345 9
	tail	qcc74x_sflash_disable_burst_wrap
.LVL11:
	.cfi_endproc
.LFE269:
	.size	flash_set_l1c_wrap.constprop.0, .-flash_set_l1c_wrap.constprop.0
	.section	.tcm_code../drivers/lhal/src/qcc74x_flash.c323,"ax",@progbits
	.align	1
	.type	flash_set_qspi_enable.constprop.0, @function
flash_set_qspi_enable.constprop.0:
.LFB268:
	.loc 1 323 94
	.cfi_startproc
.LVL12:
	.loc 1 325 5
	.loc 1 325 21 is_stmt 0
	lui	a0,%hi(.LANCHOR0)
	.loc 1 325 8
	lbu	a5,%lo(.LANCHOR0)(a0)
	andi	a5,a5,15
	addi	a5,a5,-2
	andi	a5,a5,253
	bne	a5,zero,.L11
	.loc 1 326 9 is_stmt 1
	addi	a0,a0,%lo(.LANCHOR0)
	tail	qcc74x_sflash_qspi_enable
.LVL13:
.L11:
	.loc 1 328 1 is_stmt 0
	ret
	.cfi_endproc
.LFE268:
	.size	flash_set_qspi_enable.constprop.0, .-flash_set_qspi_enable.constprop.0
	.section	.text.flash_get_clock_delay.constprop.0.isra.0,"ax",@progbits
	.align	1
	.type	flash_get_clock_delay.constprop.0.isra.0, @function
flash_get_clock_delay.constprop.0.isra.0:
.LFB272:
	.loc 1 291 12 is_stmt 1
	.cfi_startproc
.LVL14:
	.loc 1 293 5
	.loc 1 294 5
	.loc 1 296 5
	.loc 1 298 5
	.loc 1 298 12 is_stmt 0
	li	a5,536915968
	lw	a3,0(a5)
.LVL15:
	.loc 1 300 5 is_stmt 1
	.loc 1 303 24 is_stmt 0
	li	a5,0
	.loc 1 300 16
	extu	a4,a3,11+1-1,11
	.loc 1 300 8
	beq	a4,zero,.L14
	.loc 1 301 9 is_stmt 1
	.loc 1 301 50 is_stmt 0
	extu	a5,a3,8+3-1,8
	.loc 1 301 59
	addi	a5,a5,1
.L14:
	.loc 1 305 5 is_stmt 1
	.loc 1 307 5
	.loc 1 309 5
	.loc 1 311 5
	.loc 1 311 12 is_stmt 0
	li	a4,536915968
	lw	a4,52(a4)
.LVL16:
	.loc 1 313 5 is_stmt 1
	.loc 1 313 20 is_stmt 0
	lui	a2,%hi(.LANCHOR0)
	addi	a2,a2,%lo(.LANCHOR0)
	.loc 1 313 59
	srli	a1,a4,12
	andi	a1,a1,48
	.loc 1 313 20
	or	a5,a5,a1
	sb	a5,2(a2)
	.loc 1 315 5 is_stmt 1
	.loc 1 317 5
	.loc 1 309 54 is_stmt 0
	srli	a5,a3,1
	andi	a5,a5,2
	.loc 1 307 54
	extu	a3,a3,4+1-1,4
	.loc 1 309 21
	or	a5,a5,a3
	.loc 1 315 58
	srli	a3,a4,6
	.loc 1 317 58
	slli	a4,a4,5
.LVL17:
	.loc 1 315 58
	andi	a3,a3,12
	.loc 1 317 58
	andi	a4,a4,96
	.loc 1 317 21
	or	a4,a3,a4
	or	a5,a5,a4
	sb	a5,3(a2)
	.loc 1 319 5 is_stmt 1
	.loc 1 320 1 is_stmt 0
	ret
	.cfi_endproc
.LFE272:
	.size	flash_get_clock_delay.constprop.0.isra.0, .-flash_get_clock_delay.constprop.0.isra.0
	.section	.tcm_code../drivers/lhal/src/qcc74x_flash.c429,"ax",@progbits
	.align	1
	.type	flash2_init.isra.0, @function
flash2_init.isra.0:
.LFB266:
	.loc 1 429 93 is_stmt 1
	.cfi_startproc
	.loc 1 431 5
.LVL18:
	.loc 1 432 5
	.loc 1 433 5
	.loc 1 434 5
	.loc 1 429 93 is_stmt 0
	addi	sp,sp,-48
	.cfi_def_cfa_offset 48
	.loc 1 439 31
	li	a5,1
	sw	a5,20(sp)
	.loc 1 443 34
	sw	a5,24(sp)
	.loc 1 447 24
	li	a5,259
	sh	a5,28(sp)
	.loc 1 450 26
	li	a5,16842752
	addi	a5,a5,257
	sw	a5,12(sp)
	.loc 1 454 28
	li	a5,9
	sb	a5,16(sp)
	.loc 1 456 20
	lui	a5,%hi(.LANCHOR1+1)
	.loc 1 456 8
	lbu	a4,%lo(.LANCHOR1+1)(a5)
	.loc 1 429 93
	sw	ra,44(sp)
	sw	s0,40(sp)
	sw	s1,36(sp)
	sw	s2,32(sp)
	.cfi_offset 1, -4
	.cfi_offset 8, -8
	.cfi_offset 9, -12
	.cfi_offset 18, -16
	.loc 1 434 14
	sw	zero,8(sp)
	.loc 1 436 5 is_stmt 1
	.loc 1 437 5
	.loc 1 439 5
	.loc 1 440 5
	.loc 1 441 5
	.loc 1 442 5
	.loc 1 443 5
	.loc 1 444 5
	.loc 1 445 5
	.loc 1 446 5
	.loc 1 447 5
	.loc 1 448 5
	.loc 1 450 5
	.loc 1 451 5
	.loc 1 452 5
	.loc 1 453 5
	.loc 1 454 5
	.loc 1 456 5
	.loc 1 456 8 is_stmt 0
	li	a5,3
	bne	a4,a5,.L17
	.loc 1 458 9 is_stmt 1
.LVL19:
	.loc 1 461 5
	.loc 1 462 9
	addi	a1,sp,20
	li	a0,52
	call	qcc74x_sf_cfg_sbus2_flash_init
.LVL20:
	.loc 1 463 9
	li	a0,1
	call	qcc74x_sf_ctrl_sbus2_replace
.LVL21:
	.loc 1 464 9
	.loc 1 464 15 is_stmt 0
	lui	s1,%hi(.LANCHOR2)
	li	a5,1
	li	a4,0
	addi	a3,s1,%lo(.LANCHOR2)
	li	a2,0
	li	a1,52
	li	a0,0
	addi	s2,s1,%lo(.LANCHOR2)
	call	qcc74x_sf_cfg_flash_identify_ext
.LVL22:
	.loc 1 465 9 is_stmt 1
	.loc 1 465 12 is_stmt 0
	bge	a0,zero,.L17
	.loc 1 468 9 is_stmt 1
	.loc 1 469 9
	.loc 1 468 30 is_stmt 0
	li	a5,17
	sh	a5,0(s2)
	.loc 1 470 9 is_stmt 1
	.loc 1 471 9 is_stmt 0
	addi	a1,sp,8
	.loc 1 470 34
	li	a5,-1
	.loc 1 471 9
	addi	a0,s1,%lo(.LANCHOR2)
.LVL23:
	.loc 1 470 34
	sb	a5,62(s2)
	.loc 1 471 9 is_stmt 1
	call	qcc74x_sflash_get_jedecid
.LVL24:
	.loc 1 472 9
	.loc 1 472 13 is_stmt 0
	lw	a5,8(sp)
	li	a4,16777216
	addi	a4,a4,-1
	.loc 1 473 21
	lui	s0,%hi(.LANCHOR3)
	.loc 1 472 13
	and	a5,a5,a4
	.loc 1 475 9
	li	a1,1
	addi	a0,sp,12
	.loc 1 473 21
	addi	s0,s0,%lo(.LANCHOR3)
	.loc 1 472 13
	sw	a5,8(sp)
	.loc 1 473 9 is_stmt 1
	.loc 1 473 21 is_stmt 0
	sw	a5,0(s0)
	.loc 1 475 9 is_stmt 1
	call	qcc74x_sf_ctrl_cmds_set
.LVL25:
	.loc 1 476 9
	.loc 1 476 16 is_stmt 0
	lbu	a1,0(s2)
	li	a3,1
	li	a2,0
	andi	a1,a1,15
	addi	a0,s1,%lo(.LANCHOR2)
	call	qcc74x_sflash_xip_read_enable
.LVL26:
	.loc 1 477 9 is_stmt 1
	.loc 1 477 12 is_stmt 0
	bne	a0,zero,.L17
	.loc 1 480 9 is_stmt 1
	call	qcc74x_sf_ctrl_sbus2_revoke_replace
.LVL27:
	.loc 1 483 9
	.loc 1 483 23 is_stmt 0
	lw	a0,0(s0)
	call	flash_get_size_from_jedecid
.LVL28:
	.loc 1 483 21
	lui	a5,%hi(.LANCHOR4)
	sw	a0,%lo(.LANCHOR4)(a5)
.LVL29:
.L17:
	.loc 1 488 1
	lw	ra,44(sp)
	.cfi_restore 1
	lw	s0,40(sp)
	.cfi_restore 8
	lw	s1,36(sp)
	.cfi_restore 9
	lw	s2,32(sp)
	.cfi_restore 18
	addi	sp,sp,48
	.cfi_def_cfa_offset 0
	jr	ra
	.cfi_endproc
.LFE266:
	.size	flash2_init.isra.0, .-flash2_init.isra.0
	.section	.text.qcc74x_flash2_get_jedec_id,"ax",@progbits
	.align	1
	.globl	qcc74x_flash2_get_jedec_id
	.type	qcc74x_flash2_get_jedec_id, @function
qcc74x_flash2_get_jedec_id:
.LFB242:
	.loc 1 258 1 is_stmt 1
	.cfi_startproc
	.loc 1 259 5
.LVL30:
	.loc 1 261 5
	.loc 1 261 33 is_stmt 0
	lui	a5,%hi(.LANCHOR3)
	lw	a5,%lo(.LANCHOR3)(a5)
.LVL31:
	.loc 1 262 5 is_stmt 1
	.loc 1 261 33 is_stmt 0
	li	a4,16711680
	slli	a0,a5,16
	and	a0,a0,a4
	.loc 1 261 55
	li	a4,65536
	addi	a4,a4,-256
	and	a4,a5,a4
	.loc 1 261 40
	or	a0,a0,a4
	.loc 1 261 93
	extu	a5,a5,16+8-1,16
.LVL32:
	.loc 1 263 1
	add	a0,a0,a5
	ret
	.cfi_endproc
.LFE242:
	.size	qcc74x_flash2_get_jedec_id, .-qcc74x_flash2_get_jedec_id
	.section	.tcm_code../drivers/lhal/src/qcc74x_flash.c496,"ax",@progbits
	.align	1
	.globl	qcc74x_flash_init
	.type	qcc74x_flash_init, @function
qcc74x_flash_init:
.LFB250:
	.loc 1 497 1 is_stmt 1
	.cfi_startproc
	.loc 1 498 5
.LVL33:
	.loc 1 499 5
	.loc 1 510 5 is_stmt 0
	lui	a0,%hi(.LANCHOR1)
	.loc 1 497 1
	addi	sp,sp,-64
	.cfi_def_cfa_offset 64
	.loc 1 510 5
	addi	a0,a0,%lo(.LANCHOR1)
	.loc 1 497 1
	sw	ra,60(sp)
	sw	s0,56(sp)
	sw	s1,52(sp)
	sw	s3,44(sp)
	sw	s4,40(sp)
	sw	s2,48(sp)
	sw	s5,36(sp)
	.cfi_offset 1, -4
	.cfi_offset 8, -8
	.cfi_offset 9, -12
	.cfi_offset 19, -20
	.cfi_offset 20, -24
	.cfi_offset 18, -16
	.cfi_offset 21, -28
	.loc 1 499 14
	sw	zero,20(sp)
	.loc 1 510 5 is_stmt 1
	call	qcc74x_efuse_get_device_info
.LVL34:
	.loc 1 548 5
	.loc 1 548 16 is_stmt 0
	call	GLB_Get_Flash_Id_Value
.LVL35:
	lui	s1,%hi(.LANCHOR0)
	lui	s0,%hi(.LANCHOR5)
	lui	s3,%hi(.LANCHOR6)
	.loc 1 548 14
	sw	a0,20(sp)
	.loc 1 550 5 is_stmt 1
	addi	s4,s1,%lo(.LANCHOR0)
	addi	s0,s0,%lo(.LANCHOR5)
	addi	s3,s3,%lo(.LANCHOR6)
	.loc 1 550 8 is_stmt 0
	beq	a0,zero,.L24
	.loc 1 551 9 is_stmt 1
	.loc 1 551 15 is_stmt 0
	li	a3,0
	li	a2,0
	addi	a1,s1,%lo(.LANCHOR0)
	call	qcc74x_sf_cfg_get_flash_cfg_need_lock_ext
.LVL36:
	mv	s2,a0
.LVL37:
	.loc 1 552 9 is_stmt 1
	.loc 1 552 12 is_stmt 0
	bne	a0,zero,.L24
	.loc 1 553 13 is_stmt 1
	.loc 1 553 24 is_stmt 0
	lw	a0,20(sp)
.LVL38:
	sw	a0,0(s0)
	.loc 1 554 13 is_stmt 1
	.loc 1 554 29 is_stmt 0
	sb	a0,13(s4)
	sw	a0,12(sp)
	.loc 1 555 13 is_stmt 1
	call	flash_get_clock_delay.constprop.0.isra.0
.LVL39:
	.loc 1 557 13
	.loc 1 557 27 is_stmt 0
	lw	a0,12(sp)
.L32:
	.loc 1 581 19
	call	flash_get_size_from_jedecid
.LVL40:
	.loc 1 581 17
	sw	a0,0(s3)
	.loc 1 585 5 is_stmt 1
	call	flash2_init.isra.0
.LVL41:
	.loc 1 592 5
	.loc 1 593 1 is_stmt 0
	lw	ra,60(sp)
	.cfi_remember_state
	.cfi_restore 1
	lw	s0,56(sp)
	.cfi_restore 8
	lw	s1,52(sp)
	.cfi_restore 9
	lw	s3,44(sp)
	.cfi_restore 19
	lw	s4,40(sp)
	.cfi_restore 20
	lw	s5,36(sp)
	.cfi_restore 21
	mv	a0,s2
	lw	s2,48(sp)
	.cfi_restore 18
.LVL42:
	addi	sp,sp,64
	.cfi_def_cfa_offset 0
	jr	ra
.LVL43:
.L24:
	.cfi_restore_state
	.loc 1 570 5 is_stmt 1
.LBB4:
.LBB5:
	.loc 1 375 5
	.loc 1 376 5
	.loc 1 376 13 is_stmt 0
	sb	zero,19(sp)
	.loc 1 377 5 is_stmt 1
	.loc 1 377 14 is_stmt 0
	sw	zero,24(sp)
	.loc 1 378 5 is_stmt 1
	.loc 1 378 14 is_stmt 0
	sw	zero,28(sp)
	.loc 1 379 5 is_stmt 1
	.loc 1 381 5
	.loc 1 381 12 is_stmt 0
	call	qcc74x_irq_save
.LVL44:
	mv	s5,a0
.LVL45:
	.loc 1 382 5 is_stmt 1
	addi	a0,sp,19
.LVL46:
	call	qcc74x_xip_sflash_opt_enter
.LVL47:
	.loc 1 383 5
	li	a3,0
	li	a2,0
	addi	a1,sp,28
	addi	a0,s1,%lo(.LANCHOR0)
	call	qcc74x_xip_sflash_state_save
.LVL48:
	.loc 1 384 5
	addi	a1,sp,24
	addi	a0,s1,%lo(.LANCHOR0)
	call	qcc74x_sflash_get_jedecid
.LVL49:
	.loc 1 385 5
	li	a2,3
	addi	a1,sp,24
	addi	a0,sp,20
.LVL50:
	call	arch_memcpy
.LVL51:
	.loc 1 386 5
	.loc 1 386 9 is_stmt 0
	lw	a0,24(sp)
	li	a5,16777216
	addi	a5,a5,-1
	and	a0,a0,a5
	.loc 1 388 11
	li	a3,0
	li	a2,0
	addi	a1,s1,%lo(.LANCHOR0)
	.loc 1 386 9
	sw	a0,24(sp)
	.loc 1 387 5 is_stmt 1
	.loc 1 387 16 is_stmt 0
	sw	a0,0(s0)
	.loc 1 388 5 is_stmt 1
	.loc 1 388 11 is_stmt 0
	call	qcc74x_sf_cfg_get_flash_cfg_need_lock_ext
.LVL52:
	lw	a4,24(sp)
	mv	s2,a0
.LVL53:
	.loc 1 389 5 is_stmt 1
	.loc 1 389 8 is_stmt 0
	bne	a0,zero,.L26
	.loc 1 390 9 is_stmt 1
	.loc 1 390 26 is_stmt 0
	sb	a4,13(s4)
.L26:
	.loc 1 394 5 is_stmt 1
	.loc 1 394 8 is_stmt 0
	li	a5,1466368
	addi	a5,a5,239
	bne	a4,a5,.L27
	.loc 1 395 9 is_stmt 1
	.loc 1 396 9
	.loc 1 395 30 is_stmt 0
	li	a5,4
	sh	a5,0(s4)
.L27:
	.loc 1 408 5 is_stmt 1
	call	qcc74x_flash_set_cmds.constprop.0
.LVL54:
	.loc 1 410 5
	call	flash_set_qspi_enable.constprop.0
.LVL55:
	.loc 1 411 5
	call	flash_set_l1c_wrap.constprop.0
.LVL56:
	.loc 1 415 5
	lw	a1,28(sp)
	li	a3,0
	li	a2,0
	addi	a0,s1,%lo(.LANCHOR0)
	call	qcc74x_xip_sflash_state_restore
.LVL57:
	.loc 1 417 5
	lbu	a0,19(sp)
	call	qcc74x_xip_sflash_opt_exit
.LVL58:
	.loc 1 418 5
	mv	a0,s5
	call	qcc74x_irq_restore
.LVL59:
	.loc 1 420 5
.LBE5:
.LBE4:
	.loc 1 572 5
	call	flash_get_clock_delay.constprop.0.isra.0
.LVL60:
	.loc 1 576 5
	lw	a0,0(s0)
	call	GLB_Set_Flash_Id_Value
.LVL61:
	.loc 1 581 5
	.loc 1 581 19 is_stmt 0
	lw	a0,0(s0)
	j	.L32
	.cfi_endproc
.LFE250:
	.size	qcc74x_flash_init, .-qcc74x_flash_init
	.section	.text.qcc74x_flash_get_jedec_id,"ax",@progbits
	.align	1
	.globl	qcc74x_flash_get_jedec_id
	.type	qcc74x_flash_get_jedec_id, @function
qcc74x_flash_get_jedec_id:
.LFB251:
	.loc 1 596 1 is_stmt 1
	.cfi_startproc
	.loc 1 597 5
	.loc 1 598 1 is_stmt 0
	lui	a5,%hi(.LANCHOR5)
	lw	a0,%lo(.LANCHOR5)(a5)
	ret
	.cfi_endproc
.LFE251:
	.size	qcc74x_flash_get_jedec_id, .-qcc74x_flash_get_jedec_id
	.section	.text.qcc74x_flash_get_size,"ax",@progbits
	.align	1
	.globl	qcc74x_flash_get_size
	.type	qcc74x_flash_get_size, @function
qcc74x_flash_get_size:
.LFB252:
	.loc 1 601 1 is_stmt 1
	.cfi_startproc
	.loc 1 602 5
	.loc 1 602 12 is_stmt 0
	lui	a5,%hi(.LANCHOR5)
	lw	a0,%lo(.LANCHOR5)(a5)
	tail	flash_get_size_from_jedecid
.LVL62:
	.cfi_endproc
.LFE252:
	.size	qcc74x_flash_get_size, .-qcc74x_flash_get_size
	.section	.text.qcc74x_flash2_get_size,"ax",@progbits
	.align	1
	.globl	qcc74x_flash2_get_size
	.type	qcc74x_flash2_get_size, @function
qcc74x_flash2_get_size:
.LFB253:
	.loc 1 608 1 is_stmt 1
	.cfi_startproc
	.loc 1 609 5
	.loc 1 609 12 is_stmt 0
	lui	a5,%hi(.LANCHOR3)
	lw	a0,%lo(.LANCHOR3)(a5)
	tail	flash_get_size_from_jedecid
.LVL63:
	.cfi_endproc
.LFE253:
	.size	qcc74x_flash2_get_size, .-qcc74x_flash2_get_size
	.section	.tcm_code../drivers/lhal/src/qcc74x_flash.c614,"ax",@progbits
	.align	1
	.globl	qcc74x_flash_get_cfg
	.type	qcc74x_flash_get_cfg, @function
qcc74x_flash_get_cfg:
.LFB254:
	.loc 1 615 1 is_stmt 1
	.cfi_startproc
.LVL64:
	.loc 1 616 5
	.loc 1 616 15 is_stmt 0
	lui	a5,%hi(.LANCHOR0)
	addi	a5,a5,%lo(.LANCHOR0)
	sw	a5,0(a0)
	.loc 1 617 5 is_stmt 1
	.loc 1 617 10 is_stmt 0
	li	a5,84
	sw	a5,0(a1)
	.loc 1 618 1
	ret
	.cfi_endproc
.LFE254:
	.size	qcc74x_flash_get_cfg, .-qcc74x_flash_get_cfg
	.section	.tcm_code../drivers/lhal/src/qcc74x_flash.c620,"ax",@progbits
	.align	1
	.globl	qcc74x_flash_set_iomode
	.type	qcc74x_flash_set_iomode, @function
qcc74x_flash_set_iomode:
.LFB255:
	.loc 1 621 1 is_stmt 1
	.cfi_startproc
.LVL65:
	.loc 1 622 5
	.loc 1 623 5
	.loc 1 621 1 is_stmt 0
	addi	sp,sp,-48
	.cfi_def_cfa_offset 48
	sw	ra,44(sp)
	sw	s0,40(sp)
	sw	s1,36(sp)
	sw	s2,32(sp)
	.cfi_offset 1, -4
	.cfi_offset 8, -8
	.cfi_offset 9, -12
	.cfi_offset 18, -16
	mv	s1,a0
	sw	s3,28(sp)
	.cfi_offset 19, -20
	.loc 1 623 13
	sb	zero,11(sp)
	.loc 1 624 5 is_stmt 1
	.loc 1 624 14 is_stmt 0
	sw	zero,12(sp)
	.loc 1 626 5 is_stmt 1
	.loc 1 626 12 is_stmt 0
	call	qcc74x_irq_save
.LVL66:
	mv	s2,a0
.LVL67:
	.loc 1 627 5 is_stmt 1
	addi	a0,sp,11
.LVL68:
	call	qcc74x_xip_sflash_opt_enter
.LVL69:
	.loc 1 628 5
	lui	s0,%hi(.LANCHOR0)
	li	a3,0
	li	a2,0
	addi	a1,sp,12
	addi	a0,s0,%lo(.LANCHOR0)
	call	qcc74x_xip_sflash_state_save
.LVL70:
	.loc 1 630 5
	.loc 1 628 5 is_stmt 0
	addi	s3,s0,%lo(.LANCHOR0)
	.loc 1 630 25
	lbu	a0,0(s3)
	.loc 1 631 8
	andi	a3,s1,4
	addi	a4,s0,%lo(.LANCHOR0)
	.loc 1 630 25
	andi	a0,a0,224
	.loc 1 631 5 is_stmt 1
	or	a0,a0,s1
	.loc 1 632 29 is_stmt 0
	andi	a5,a0,0xff
	.loc 1 631 8
	bne	a3,zero,.L39
	ori	a5,a0,16
.L39:
	sb	a5,0(a4)
	.loc 1 639 5 is_stmt 1
	call	qcc74x_flash_set_cmds.constprop.0
.LVL71:
	.loc 1 641 5
	call	flash_set_qspi_enable.constprop.0
.LVL72:
	.loc 1 642 5
	call	flash_set_l1c_wrap.constprop.0
.LVL73:
	.loc 1 646 5
	lw	a1,12(sp)
	li	a3,0
	li	a2,0
	addi	a0,s0,%lo(.LANCHOR0)
	call	qcc74x_xip_sflash_state_restore
.LVL74:
	.loc 1 648 5
	lbu	a0,11(sp)
	call	qcc74x_xip_sflash_opt_exit
.LVL75:
	.loc 1 649 5
	mv	a0,s2
	call	qcc74x_irq_restore
.LVL76:
	.loc 1 650 1 is_stmt 0
	lw	ra,44(sp)
	.cfi_restore 1
	lw	s0,40(sp)
	.cfi_restore 8
	lw	s1,36(sp)
	.cfi_restore 9
	lw	s2,32(sp)
	.cfi_restore 18
.LVL77:
	lw	s3,28(sp)
	.cfi_restore 19
	addi	sp,sp,48
	.cfi_def_cfa_offset 0
	jr	ra
	.cfi_endproc
.LFE255:
	.size	qcc74x_flash_set_iomode, .-qcc74x_flash_set_iomode
	.section	.tcm_code../drivers/lhal/src/qcc74x_flash.c652,"ax",@progbits
	.align	1
	.globl	qcc74x_flash_get_image_offset
	.type	qcc74x_flash_get_image_offset, @function
qcc74x_flash_get_image_offset:
.LFB256:
	.loc 1 653 1 is_stmt 1
	.cfi_startproc
	.loc 1 654 5
	.loc 1 654 12 is_stmt 0
	li	a1,0
	li	a0,0
	tail	qcc74x_sf_ctrl_get_flash_image_offset
.LVL78:
	.cfi_endproc
.LFE256:
	.size	qcc74x_flash_get_image_offset, .-qcc74x_flash_get_image_offset
	.section	.tcm_code../drivers/lhal/src/qcc74x_flash.c664,"ax",@progbits
	.align	1
	.globl	qcc74x_flash_erase
	.type	qcc74x_flash_erase, @function
qcc74x_flash_erase:
.LFB257:
	.loc 1 665 1 is_stmt 1
	.cfi_startproc
.LVL79:
	.loc 1 666 5
	.loc 1 667 5
	.loc 1 670 5
	.loc 1 665 1 is_stmt 0
	addi	sp,sp,-48
	.cfi_def_cfa_offset 48
	sw	s1,36(sp)
	.cfi_offset 9, -12
	.loc 1 670 42
	lui	s1,%hi(.LANCHOR6)
	addi	s1,s1,%lo(.LANCHOR6)
	lui	a4,%hi(.LANCHOR4)
	lw	a5,0(s1)
	lw	a4,%lo(.LANCHOR4)(a4)
	.loc 1 665 1
	sw	s0,40(sp)
	sw	s2,32(sp)
	sw	ra,44(sp)
	sw	s3,28(sp)
	.cfi_offset 8, -8
	.cfi_offset 18, -16
	.cfi_offset 1, -4
	.cfi_offset 19, -20
	.loc 1 670 20
	add	s2,a0,a1
	.loc 1 670 42
	add	a4,a5,a4
	.loc 1 671 16
	li	s0,-12
	.loc 1 670 8
	bgtu	s2,a4,.L43
	mv	s0,a0
	.loc 1 672 12 is_stmt 1
	.loc 1 672 15 is_stmt 0
	bgtu	s2,a5,.L45
	sw	a1,12(sp)
	.loc 1 673 9 is_stmt 1
	.loc 1 673 16 is_stmt 0
	call	qcc74x_irq_save
.LVL80:
	.loc 1 674 16
	lw	a2,12(sp)
	.loc 1 673 16
	mv	s1,a0
.LVL81:
	.loc 1 674 9 is_stmt 1
	.loc 1 674 16 is_stmt 0
	lui	a0,%hi(.LANCHOR0)
	mv	a1,s0
	li	a4,0
	li	a3,0
	addi	a0,a0,%lo(.LANCHOR0)
	call	qcc74x_xip_sflash_erase_need_lock
.LVL82:
	mv	s0,a0
.LVL83:
	.loc 1 675 9 is_stmt 1
	mv	a0,s1
	call	qcc74x_irq_restore
.LVL84:
.L43:
	.loc 1 715 1 is_stmt 0
	lw	ra,44(sp)
	.cfi_remember_state
	.cfi_restore 1
	mv	a0,s0
	lw	s0,40(sp)
	.cfi_restore 8
	lw	s1,36(sp)
	.cfi_restore 9
	lw	s2,32(sp)
	.cfi_restore 18
	lw	s3,28(sp)
	.cfi_restore 19
	addi	sp,sp,48
	.cfi_def_cfa_offset 0
	jr	ra
.LVL85:
.L45:
	.cfi_restore_state
	.loc 1 677 12 is_stmt 1
	.loc 1 677 15 is_stmt 0
	bgtu	a5,a0,.L46
	.loc 1 678 9 is_stmt 1
	li	a0,1
	call	qcc74x_sf_ctrl_sbus2_replace
.LVL86:
	.loc 1 679 9
	.loc 1 679 16 is_stmt 0
	addi	a2,s2,-1
	mv	a1,s0
.LVL87:
.L49:
	.loc 1 689 16
	lui	a0,%hi(.LANCHOR2)
	addi	a0,a0,%lo(.LANCHOR2)
	call	qcc74x_sflash_erase
.LVL88:
	mv	s0,a0
.LVL89:
	.loc 1 690 9 is_stmt 1
	call	qcc74x_sf_ctrl_sbus2_revoke_replace
.LVL90:
	j	.L43
.LVL91:
.L46:
	.loc 1 682 9
	.loc 1 682 16 is_stmt 0
	call	qcc74x_irq_save
.LVL92:
	.loc 1 683 87
	lw	a2,0(s1)
	.loc 1 682 16
	mv	s3,a0
.LVL93:
	.loc 1 683 9 is_stmt 1
	.loc 1 683 16 is_stmt 0
	lui	a0,%hi(.LANCHOR0)
.LVL94:
	sub	a2,a2,s0
	mv	a1,s0
	li	a4,0
	li	a3,0
	addi	a0,a0,%lo(.LANCHOR0)
	call	qcc74x_xip_sflash_erase_need_lock
.LVL95:
	mv	s0,a0
.LVL96:
	.loc 1 684 9 is_stmt 1
	mv	a0,s3
	call	qcc74x_irq_restore
.LVL97:
	.loc 1 685 9
	.loc 1 685 12 is_stmt 0
	bne	s0,zero,.L43
	.loc 1 688 9 is_stmt 1
	li	a0,1
	call	qcc74x_sf_ctrl_sbus2_replace
.LVL98:
	.loc 1 689 9
	.loc 1 689 16 is_stmt 0
	lw	a1,0(s1)
	not	a2,a1
	add	a2,a2,s2
	j	.L49
	.cfi_endproc
.LFE257:
	.size	qcc74x_flash_erase, .-qcc74x_flash_erase
	.section	.tcm_code../drivers/lhal/src/qcc74x_flash.c725,"ax",@progbits
	.align	1
	.globl	qcc74x_flash_write
	.type	qcc74x_flash_write, @function
qcc74x_flash_write:
.LFB258:
	.loc 1 726 1 is_stmt 1
	.cfi_startproc
.LVL99:
	.loc 1 727 5
	.loc 1 728 5
	.loc 1 731 5
	.loc 1 726 1 is_stmt 0
	addi	sp,sp,-32
	.cfi_def_cfa_offset 32
	sw	s3,12(sp)
	.cfi_offset 19, -20
	.loc 1 731 37
	lui	s3,%hi(.LANCHOR6)
	addi	s3,s3,%lo(.LANCHOR6)
	lui	a4,%hi(.LANCHOR4)
	lw	a5,0(s3)
	lw	a4,%lo(.LANCHOR4)(a4)
	.loc 1 726 1
	sw	s1,20(sp)
	sw	s4,8(sp)
	sw	ra,28(sp)
	sw	s0,24(sp)
	sw	s2,16(sp)
	sw	s5,4(sp)
	.cfi_offset 9, -12
	.cfi_offset 20, -24
	.cfi_offset 1, -4
	.cfi_offset 8, -8
	.cfi_offset 18, -16
	.cfi_offset 21, -28
	.loc 1 731 15
	add	s4,a0,a2
	.loc 1 731 37
	add	a4,a5,a4
	.loc 1 732 16
	li	s1,-12
	.loc 1 731 8
	bgtu	s4,a4,.L50
	mv	s1,a2
	mv	s2,a1
	mv	s0,a0
	.loc 1 733 12 is_stmt 1
	.loc 1 733 15 is_stmt 0
	bgtu	s4,a5,.L52
	.loc 1 734 9 is_stmt 1
	.loc 1 734 16 is_stmt 0
	call	qcc74x_irq_save
.LVL100:
	mv	s3,a0
.LVL101:
	.loc 1 735 9 is_stmt 1
	.loc 1 735 16 is_stmt 0
	lui	a0,%hi(.LANCHOR0)
.LVL102:
	mv	a3,s1
	li	a5,0
	li	a4,0
	mv	a2,s2
	mv	a1,s0
	addi	a0,a0,%lo(.LANCHOR0)
	call	qcc74x_xip_sflash_write_need_lock
.LVL103:
	mv	s1,a0
.LVL104:
	.loc 1 736 9 is_stmt 1
	mv	a0,s3
	call	qcc74x_irq_restore
.LVL105:
.L50:
	.loc 1 776 1 is_stmt 0
	lw	ra,28(sp)
	.cfi_remember_state
	.cfi_restore 1
	lw	s0,24(sp)
	.cfi_restore 8
	lw	s2,16(sp)
	.cfi_restore 18
	lw	s3,12(sp)
	.cfi_restore 19
	lw	s4,8(sp)
	.cfi_restore 20
	lw	s5,4(sp)
	.cfi_restore 21
	mv	a0,s1
	lw	s1,20(sp)
	.cfi_restore 9
	addi	sp,sp,32
	.cfi_def_cfa_offset 0
	jr	ra
.LVL106:
.L52:
	.cfi_restore_state
	.loc 1 738 12 is_stmt 1
	.loc 1 738 15 is_stmt 0
	bgtu	a5,a0,.L53
	.loc 1 739 9 is_stmt 1
	li	a0,1
	call	qcc74x_sf_ctrl_sbus2_replace
.LVL107:
	.loc 1 740 9
	.loc 1 740 16 is_stmt 0
	mv	a4,s1
	mv	a3,s2
	mv	a2,s0
.LVL108:
.L56:
	.loc 1 750 16
	lui	a0,%hi(.LANCHOR2)
	li	a1,1
	addi	a0,a0,%lo(.LANCHOR2)
	call	qcc74x_sflash_program
.LVL109:
	mv	s1,a0
.LVL110:
	.loc 1 751 9 is_stmt 1
	call	qcc74x_sf_ctrl_sbus2_revoke_replace
.LVL111:
	j	.L50
.LVL112:
.L53:
	.loc 1 743 9
	.loc 1 743 16 is_stmt 0
	call	qcc74x_irq_save
.LVL113:
	.loc 1 744 16
	lw	a3,0(s3)
	.loc 1 743 16
	mv	s5,a0
.LVL114:
	.loc 1 744 9 is_stmt 1
	.loc 1 744 16 is_stmt 0
	lui	a0,%hi(.LANCHOR0)
.LVL115:
	li	a5,0
	li	a4,0
	sub	a3,a3,s0
	mv	a2,s2
	mv	a1,s0
	addi	a0,a0,%lo(.LANCHOR0)
	call	qcc74x_xip_sflash_write_need_lock
.LVL116:
	mv	s1,a0
.LVL117:
	.loc 1 745 9 is_stmt 1
	mv	a0,s5
	call	qcc74x_irq_restore
.LVL118:
	.loc 1 746 9
	.loc 1 746 12 is_stmt 0
	bne	s1,zero,.L50
	.loc 1 749 9 is_stmt 1
	li	a0,1
	call	qcc74x_sf_ctrl_sbus2_replace
.LVL119:
	.loc 1 750 9
	.loc 1 750 16 is_stmt 0
	lw	a2,0(s3)
	.loc 1 750 89
	sub	a3,a2,s0
	.loc 1 750 16
	sub	a4,s4,a2
	add	a3,s2,a3
	j	.L56
	.cfi_endproc
.LFE258:
	.size	qcc74x_flash_write, .-qcc74x_flash_write
	.section	.tcm_code../drivers/lhal/src/qcc74x_flash.c786,"ax",@progbits
	.align	1
	.globl	qcc74x_flash_read
	.type	qcc74x_flash_read, @function
qcc74x_flash_read:
.LFB259:
	.loc 1 787 1 is_stmt 1
	.cfi_startproc
.LVL120:
	.loc 1 788 5
	.loc 1 789 5
	.loc 1 792 5
	.loc 1 787 1 is_stmt 0
	addi	sp,sp,-32
	.cfi_def_cfa_offset 32
	sw	s3,12(sp)
	.cfi_offset 19, -20
	.loc 1 792 37
	lui	s3,%hi(.LANCHOR6)
	addi	s3,s3,%lo(.LANCHOR6)
	lui	a4,%hi(.LANCHOR4)
	lw	a5,0(s3)
	lw	a4,%lo(.LANCHOR4)(a4)
	.loc 1 787 1
	sw	s1,20(sp)
	sw	s4,8(sp)
	sw	ra,28(sp)
	sw	s0,24(sp)
	sw	s2,16(sp)
	sw	s5,4(sp)
	.cfi_offset 9, -12
	.cfi_offset 20, -24
	.cfi_offset 1, -4
	.cfi_offset 8, -8
	.cfi_offset 18, -16
	.cfi_offset 21, -28
	.loc 1 792 15
	add	s4,a0,a2
	.loc 1 792 37
	add	a4,a5,a4
	.loc 1 793 16
	li	s1,-12
	.loc 1 792 8
	bgtu	s4,a4,.L57
	mv	s1,a2
	mv	s2,a1
	mv	s0,a0
	.loc 1 794 12 is_stmt 1
	.loc 1 794 15 is_stmt 0
	bgtu	s4,a5,.L59
	.loc 1 795 9 is_stmt 1
	.loc 1 795 16 is_stmt 0
	call	qcc74x_irq_save
.LVL121:
	mv	s3,a0
.LVL122:
	.loc 1 796 9 is_stmt 1
	.loc 1 796 16 is_stmt 0
	lui	a0,%hi(.LANCHOR0)
.LVL123:
	mv	a3,s1
	li	a5,0
	li	a4,0
	mv	a2,s2
	mv	a1,s0
	addi	a0,a0,%lo(.LANCHOR0)
	call	qcc74x_xip_sflash_read_need_lock
.LVL124:
	mv	s1,a0
.LVL125:
	.loc 1 797 9 is_stmt 1
	mv	a0,s3
	call	qcc74x_irq_restore
.LVL126:
.L57:
	.loc 1 837 1 is_stmt 0
	lw	ra,28(sp)
	.cfi_remember_state
	.cfi_restore 1
	lw	s0,24(sp)
	.cfi_restore 8
	lw	s2,16(sp)
	.cfi_restore 18
	lw	s3,12(sp)
	.cfi_restore 19
	lw	s4,8(sp)
	.cfi_restore 20
	lw	s5,4(sp)
	.cfi_restore 21
	mv	a0,s1
	lw	s1,20(sp)
	.cfi_restore 9
	addi	sp,sp,32
	.cfi_def_cfa_offset 0
	jr	ra
.LVL127:
.L59:
	.cfi_restore_state
	.loc 1 799 12 is_stmt 1
	.loc 1 799 15 is_stmt 0
	bgtu	a5,a0,.L60
	.loc 1 800 9 is_stmt 1
	li	a0,1
	call	qcc74x_sf_ctrl_sbus2_replace
.LVL128:
	.loc 1 801 9
	.loc 1 801 16 is_stmt 0
	mv	a5,s1
	mv	a4,s2
	mv	a3,s0
.LVL129:
.L63:
	.loc 1 811 16
	lui	a0,%hi(.LANCHOR2)
	li	a2,0
	li	a1,1
	addi	a0,a0,%lo(.LANCHOR2)
	call	qcc74x_sflash_read
.LVL130:
	mv	s1,a0
.LVL131:
	.loc 1 812 9 is_stmt 1
	call	qcc74x_sf_ctrl_sbus2_revoke_replace
.LVL132:
	j	.L57
.LVL133:
.L60:
	.loc 1 804 9
	.loc 1 804 16 is_stmt 0
	call	qcc74x_irq_save
.LVL134:
	.loc 1 805 16
	lw	a3,0(s3)
	.loc 1 804 16
	mv	s5,a0
.LVL135:
	.loc 1 805 9 is_stmt 1
	.loc 1 805 16 is_stmt 0
	lui	a0,%hi(.LANCHOR0)
.LVL136:
	li	a5,0
	li	a4,0
	sub	a3,a3,s0
	mv	a2,s2
	mv	a1,s0
	addi	a0,a0,%lo(.LANCHOR0)
	call	qcc74x_xip_sflash_read_need_lock
.LVL137:
	mv	s1,a0
.LVL138:
	.loc 1 806 9 is_stmt 1
	mv	a0,s5
	call	qcc74x_irq_restore
.LVL139:
	.loc 1 807 9
	.loc 1 807 12 is_stmt 0
	bne	s1,zero,.L57
	.loc 1 810 9 is_stmt 1
	li	a0,1
	call	qcc74x_sf_ctrl_sbus2_replace
.LVL140:
	.loc 1 811 9
	.loc 1 811 16 is_stmt 0
	lw	a3,0(s3)
	.loc 1 811 89
	sub	a4,a3,s0
	.loc 1 811 16
	sub	a5,s4,a3
	add	a4,s2,a4
	j	.L63
	.cfi_endproc
.LFE259:
	.size	qcc74x_flash_read, .-qcc74x_flash_read
	.section	.tcm_code../drivers/lhal/src/qcc74x_flash.c846,"ax",@progbits
	.align	1
	.globl	qcc74x_flash_get_unique_id
	.type	qcc74x_flash_get_unique_id, @function
qcc74x_flash_get_unique_id:
.LFB260:
	.loc 1 847 1 is_stmt 1
	.cfi_startproc
.LVL141:
	.loc 1 848 5
	.loc 1 849 5
	.loc 1 851 5
	.loc 1 847 1 is_stmt 0
	addi	sp,sp,-32
	.cfi_def_cfa_offset 32
	sw	ra,28(sp)
	sw	s0,24(sp)
	sw	s1,20(sp)
	.cfi_offset 1, -4
	.cfi_offset 8, -8
	.cfi_offset 9, -12
	.loc 1 847 1
	mv	s0,a0
	sw	a1,12(sp)
	.loc 1 851 12
	call	qcc74x_irq_save
.LVL142:
	.loc 1 852 12
	lw	a2,12(sp)
	.loc 1 851 12
	mv	s1,a0
.LVL143:
	.loc 1 852 5 is_stmt 1
	.loc 1 852 12 is_stmt 0
	lui	a0,%hi(.LANCHOR0)
	mv	a1,s0
	li	a4,0
	li	a3,0
	addi	a0,a0,%lo(.LANCHOR0)
	call	qcc74x_xip_sflash_get_uniqueid_need_lock
.LVL144:
	mv	s0,a0
.LVL145:
	.loc 1 853 5 is_stmt 1
	mv	a0,s1
	call	qcc74x_irq_restore
.LVL146:
	.loc 1 855 5
	.loc 1 856 1 is_stmt 0
	lw	ra,28(sp)
	.cfi_restore 1
	mv	a0,s0
	lw	s0,24(sp)
	.cfi_restore 8
.LVL147:
	lw	s1,20(sp)
	.cfi_restore 9
.LVL148:
	addi	sp,sp,32
	.cfi_def_cfa_offset 0
	jr	ra
	.cfi_endproc
.LFE260:
	.size	qcc74x_flash_get_unique_id, .-qcc74x_flash_get_unique_id
	.section	.tcm_code../drivers/lhal/src/qcc74x_flash.c858,"ax",@progbits
	.align	1
	.globl	qcc74x_flash_set_cache
	.type	qcc74x_flash_set_cache, @function
qcc74x_flash_set_cache:
.LFB261:
	.loc 1 859 1 is_stmt 1
	.cfi_startproc
.LVL149:
	.loc 1 860 5
	.loc 1 859 1 is_stmt 0
	addi	sp,sp,-48
	.cfi_def_cfa_offset 48
	sw	s1,36(sp)
	.cfi_offset 9, -12
	mv	s1,a0
	.loc 1 864 5
	li	a0,0
.LVL150:
	.loc 1 859 1
	sw	ra,44(sp)
	sw	s0,40(sp)
	sw	s2,32(sp)
	sw	s3,28(sp)
	sw	s4,24(sp)
	sw	s5,20(sp)
	.cfi_offset 1, -4
	.cfi_offset 8, -8
	.cfi_offset 18, -16
	.cfi_offset 19, -20
	.cfi_offset 20, -24
	.cfi_offset 21, -28
	.loc 1 860 13
	sb	zero,11(sp)
	.loc 1 861 5 is_stmt 1
	.loc 1 862 5
	.loc 1 864 5
	.loc 1 859 1 is_stmt 0
	mv	s5,a3
	.loc 1 864 5
	call	qcc74x_sf_ctrl_set_owner
.LVL151:
	.loc 1 866 5 is_stmt 1
	addi	a0,sp,11
	.loc 1 868 5 is_stmt 0
	lui	s0,%hi(.LANCHOR0)
	.loc 1 866 5
	call	qcc74x_xip_sflash_opt_enter
.LVL152:
	.loc 1 868 5 is_stmt 1
	addi	a0,s0,%lo(.LANCHOR0)
	addi	s2,s0,%lo(.LANCHOR0)
	call	qcc74x_sflash_reset_continue_read
.LVL153:
	.loc 1 870 5
	.loc 1 870 20 is_stmt 0
	lbu	a5,1(s2)
	mv	s3,s0
	addi	s4,s0,%lo(.LANCHOR0)
	.loc 1 870 8
	beq	a5,zero,.L69
.LVL154:
	.loc 1 874 5 is_stmt 1
	.loc 1 874 8 is_stmt 0
	li	a5,1
	bne	s1,a5,.L67
	.loc 1 875 9 is_stmt 1
	.loc 1 875 16 is_stmt 0
	lbu	a1,0(s2)
	li	a5,4
	addi	a4,sp,12
	li	a3,0
	li	a2,1
	andi	a1,a1,15
	addi	a0,s0,%lo(.LANCHOR0)
	call	qcc74x_sflash_read
.LVL155:
	.loc 1 877 9 is_stmt 1
	.loc 1 877 12 is_stmt 0
	beq	a0,zero,.L67
	.loc 1 878 13 is_stmt 1
	lbu	a0,11(sp)
.LVL156:
	call	qcc74x_xip_sflash_opt_exit
.LVL157:
	.loc 1 879 13
	.loc 1 879 20 is_stmt 0
	li	a0,-1
.LVL158:
.L66:
	.loc 1 907 1
	lw	ra,44(sp)
	.cfi_remember_state
	.cfi_restore 1
	lw	s0,40(sp)
	.cfi_restore 8
	lw	s1,36(sp)
	.cfi_restore 9
	lw	s2,32(sp)
	.cfi_restore 18
	lw	s3,28(sp)
	.cfi_restore 19
	lw	s4,24(sp)
	.cfi_restore 20
	lw	s5,20(sp)
	.cfi_restore 21
.LVL159:
	addi	sp,sp,48
	.cfi_def_cfa_offset 0
	jr	ra
.LVL160:
.L69:
	.cfi_restore_state
	.loc 1 871 19
	li	s1,0
.LVL161:
.L67:
	.loc 1 900 5 is_stmt 1
	li	a2,0
	li	a1,0
	mv	a0,s5
	call	qcc74x_sf_ctrl_set_flash_image_offset
.LVL162:
	.loc 1 901 5
	lbu	a1,0(s4)
	li	a3,0
	mv	a2,s1
	andi	a1,a1,15
	addi	a0,s3,%lo(.LANCHOR0)
	call	qcc74x_sflash_xip_read_enable
.LVL163:
	.loc 1 904 5
	lbu	a0,11(sp)
	call	qcc74x_xip_sflash_opt_exit
.LVL164:
	.loc 1 906 5
	.loc 1 906 12 is_stmt 0
	li	a0,0
	j	.L66
	.cfi_endproc
.LFE261:
	.size	qcc74x_flash_set_cache, .-qcc74x_flash_set_cache
	.section	.tcm_code../drivers/lhal/src/qcc74x_flash.c909,"ax",@progbits
	.align	1
	.globl	qcc74x_flash_aes_init
	.type	qcc74x_flash_aes_init, @function
qcc74x_flash_aes_init:
.LFB262:
	.loc 1 910 1 is_stmt 1
	.cfi_startproc
.LVL165:
	.loc 1 911 5
	.loc 1 913 5
	.loc 1 910 1 is_stmt 0
	addi	sp,sp,-16
	.cfi_def_cfa_offset 16
	sw	ra,12(sp)
	sw	s0,8(sp)
	sw	s1,4(sp)
	.cfi_offset 1, -4
	.cfi_offset 8, -8
	.cfi_offset 9, -12
	.loc 1 913 15
	lw	s1,4(a0)
.LVL166:
	.loc 1 917 5 is_stmt 1
	.loc 1 910 1 is_stmt 0
	mv	s0,a0
	.loc 1 917 5
	lbu	a2,8(a0)
	lbu	a0,0(a0)
.LVL167:
	mv	a1,s1
	call	qcc74x_sf_ctrl_aes_set_key_be
.LVL168:
	.loc 1 918 5 is_stmt 1
	lw	a2,16(s0)
	lw	a1,12(s0)
	lbu	a0,0(s0)
	call	qcc74x_sf_ctrl_aes_set_iv_be
.LVL169:
	.loc 1 919 5
	lw	a4,20(s0)
	lbu	a5,2(s0)
	lw	a3,16(s0)
	lbu	a1,1(s0)
	lbu	a0,0(s0)
	.loc 1 920 1 is_stmt 0
	lw	s0,8(sp)
	.cfi_restore 8
.LVL170:
	lw	ra,12(sp)
	.cfi_restore 1
	.loc 1 919 5
	seqz	a2,s1
	.loc 1 920 1
	lw	s1,4(sp)
	.cfi_restore 9
.LVL171:
	.loc 1 919 5
	addi	a4,a4,-1
	.loc 1 920 1
	addi	sp,sp,16
	.cfi_def_cfa_offset 0
	.loc 1 919 5
	tail	qcc74x_sf_ctrl_aes_set_region
.LVL172:
	.cfi_endproc
.LFE262:
	.size	qcc74x_flash_aes_init, .-qcc74x_flash_aes_init
	.section	.tcm_code../drivers/lhal/src/qcc74x_flash.c922,"ax",@progbits
	.align	1
	.globl	qcc74x_flash_aes_enable
	.type	qcc74x_flash_aes_enable, @function
qcc74x_flash_aes_enable:
.LFB263:
	.loc 1 923 1 is_stmt 1
	.cfi_startproc
	.loc 1 924 5
	.loc 1 923 1 is_stmt 0
	addi	sp,sp,-16
	.cfi_def_cfa_offset 16
	sw	ra,12(sp)
	.cfi_offset 1, -4
	.loc 1 924 5
	call	qcc74x_sf_ctrl_aes_enable_be
.LVL173:
	.loc 1 925 5 is_stmt 1
	.loc 1 926 1 is_stmt 0
	lw	ra,12(sp)
	.cfi_restore 1
	addi	sp,sp,16
	.cfi_def_cfa_offset 0
	.loc 1 925 5
	tail	qcc74x_sf_ctrl_aes_enable
.LVL174:
	.cfi_endproc
.LFE263:
	.size	qcc74x_flash_aes_enable, .-qcc74x_flash_aes_enable
	.section	.tcm_code../drivers/lhal/src/qcc74x_flash.c928,"ax",@progbits
	.align	1
	.globl	qcc74x_flash_aes_disable
	.type	qcc74x_flash_aes_disable, @function
qcc74x_flash_aes_disable:
.LFB264:
	.loc 1 929 1 is_stmt 1
	.cfi_startproc
	.loc 1 930 5
	tail	qcc74x_sf_ctrl_aes_disable
.LVL175:
	.cfi_endproc
.LFE264:
	.size	qcc74x_flash_aes_disable, .-qcc74x_flash_aes_disable
	.section	.tcm_code../drivers/lhal/src/qcc74x_flash.c933,"ax",@progbits
	.align	1
	.globl	qcc74x_flash_jump_encrypted_app
	.type	qcc74x_flash_jump_encrypted_app, @function
qcc74x_flash_jump_encrypted_app:
.LFB265:
	.loc 1 934 1
	.cfi_startproc
.LVL176:
	.loc 1 935 5
	.loc 1 937 5
	.loc 1 934 1 is_stmt 0
	addi	sp,sp,-32
	.cfi_def_cfa_offset 32
	sw	ra,28(sp)
	sw	s0,24(sp)
	.cfi_offset 1, -4
	.cfi_offset 8, -8
	.loc 1 934 1
	sw	a0,12(sp)
	mv	s0,a1
	sw	a2,8(sp)
	.loc 1 937 5
	call	qcc74x_sf_ctrl_aes_set_region_offset
.LVL177:
	.loc 1 939 5 is_stmt 1
	lw	a2,8(sp)
	lw	a0,12(sp)
	li	a5,0
	addi	a4,a2,-1
	add	a4,a4,s0
	mv	a3,s0
	li	a2,1
	li	a1,1
	call	qcc74x_sf_ctrl_aes_set_region
.LVL178:
	.loc 1 944 5
	call	qcc74x_sf_ctrl_aes_enable_be
.LVL179:
	.loc 1 945 5
	call	qcc74x_sf_ctrl_aes_enable
.LVL180:
	.loc 1 947 5
	mv	a3,s0
	li	a2,0
	li	a1,1
	li	a0,0
	call	qcc74x_flash_set_cache
.LVL181:
	.loc 1 948 5
	call	qcc74x_l1c_dcache_clean_invalidate_all
.LVL182:
	.loc 1 949 5
	call	qcc74x_l1c_icache_invalid_all
.LVL183:
	.loc 1 951 5
	.loc 1 952 5
	.loc 1 953 1 is_stmt 0
	lw	s0,24(sp)
	.cfi_restore 8
.LVL184:
	lw	ra,28(sp)
	.cfi_restore 1
	.loc 1 952 5
	li	a5,-1610612736
	.loc 1 953 1
	addi	sp,sp,32
	.cfi_def_cfa_offset 0
.LVL185:
	.loc 1 952 5
	jr	a5
.LVL186:
	.cfi_endproc
.LFE265:
	.size	qcc74x_flash_jump_encrypted_app, .-qcc74x_flash_jump_encrypted_app
	.section	.bss.device_info,"aw",@nobits
	.align	2
	.set	.LANCHOR1,. + 0
	.type	device_info, @object
	.size	device_info, 36
device_info:
	.zero	36
	.section	.bss.g_jedec_id,"aw",@nobits
	.align	2
	.set	.LANCHOR5,. + 0
	.type	g_jedec_id, @object
	.size	g_jedec_id, 4
g_jedec_id:
	.zero	4
	.section	.bss.g_jedec_id2,"aw",@nobits
	.align	2
	.set	.LANCHOR3,. + 0
	.type	g_jedec_id2, @object
	.size	g_jedec_id2, 4
g_jedec_id2:
	.zero	4
	.section	.data.flash1_size,"aw"
	.align	2
	.set	.LANCHOR6,. + 0
	.type	flash1_size, @object
	.size	flash1_size, 4
flash1_size:
	.word	4194304
	.section	.data.flash2_size,"aw"
	.align	2
	.set	.LANCHOR4,. + 0
	.type	flash2_size, @object
	.size	flash2_size, 4
flash2_size:
	.word	2097152
	.section	.data.g_flash2_cfg,"aw"
	.align	2
	.set	.LANCHOR2,. + 0
	.type	g_flash2_cfg, @object
	.size	g_flash2_cfg, 84
g_flash2_cfg:
	.byte	16
	.byte	0
	.byte	0
	.byte	3
	.byte	102
	.byte	-103
	.byte	-1
	.byte	3
	.byte	-97
	.byte	0
	.byte	-73
	.byte	-23
	.byte	4
	.byte	-56
	.half	256
	.byte	-57
	.byte	32
	.byte	82
	.byte	-40
	.byte	6
	.byte	2
	.byte	50
	.byte	0
	.byte	11
	.byte	1
	.byte	11
	.byte	1
	.byte	59
	.byte	1
	.byte	-69
	.byte	0
	.byte	107
	.byte	1
	.byte	-21
	.byte	2
	.byte	-21
	.byte	2
	.byte	2
	.byte	80
	.byte	0
	.byte	1
	.byte	0
	.byte	1
	.byte	1
	.byte	0
	.byte	0
	.byte	1
	.byte	1
	.byte	1
	.byte	-85
	.byte	1
	.string	"\0055"
	.zero	1
	.string	"\0011"
	.zero	1
	.byte	56
	.byte	-1
	.byte	32
	.byte	-1
	.byte	119
	.byte	3
	.byte	2
	.byte	64
	.byte	119
	.byte	3
	.byte	2
	.byte	-16
	.half	300
	.half	1200
	.half	1200
	.half	5
	.half	-32536
	.byte	20
	.byte	0
	.section	.data.g_flash_cfg,"aw"
	.align	2
	.set	.LANCHOR0,. + 0
	.type	g_flash_cfg, @object
	.size	g_flash_cfg, 84
g_flash_cfg:
	.byte	17
	.byte	0
	.byte	0
	.byte	3
	.byte	102
	.byte	-103
	.byte	-1
	.byte	3
	.byte	-97
	.byte	0
	.byte	-73
	.byte	-23
	.byte	4
	.byte	-56
	.half	256
	.byte	-57
	.byte	32
	.byte	82
	.byte	-40
	.byte	6
	.byte	2
	.byte	50
	.byte	0
	.byte	11
	.byte	1
	.byte	11
	.byte	1
	.byte	59
	.byte	1
	.byte	-69
	.byte	0
	.byte	107
	.byte	1
	.byte	-21
	.byte	2
	.byte	-21
	.byte	2
	.byte	2
	.byte	80
	.byte	0
	.byte	1
	.byte	0
	.byte	1
	.byte	1
	.byte	0
	.byte	0
	.byte	1
	.byte	1
	.byte	1
	.byte	-85
	.byte	1
	.string	"\0055"
	.zero	1
	.string	"\0011"
	.zero	1
	.byte	56
	.byte	-1
	.byte	32
	.byte	-1
	.byte	119
	.byte	3
	.byte	2
	.byte	64
	.byte	119
	.byte	3
	.byte	2
	.byte	-16
	.half	300
	.half	1200
	.half	1200
	.half	5
	.half	-32536
	.byte	20
	.byte	0
	.text
.Letext0:
	.file 2 "./toolchain/linux_x86_64/riscv64-unknown-elf/include/machine/_default_types.h"
	.file 3 "./toolchain/linux_x86_64/riscv64-unknown-elf/include/sys/_stdint.h"
	.file 4 "./drivers/lhal/src/flash/qcc74x_sf_ctrl.h"
	.file 5 "./drivers/lhal/src/flash/qcc74x_sflash.h"
	.file 6 "./drivers/soc/qcc743/std/include/hardware/qcc743.h"
	.file 7 "./drivers/soc/qcc743/std/include/qcc743_clock.h"
	.file 8 "./drivers/lhal/include/qcc74x_flash.h"
	.file 9 "./drivers/lhal/include/qcc74x_efuse.h"
	.file 10 "./drivers/lhal/include/qcc74x_l1c.h"
	.file 11 "./drivers/lhal/src/flash/qcc74x_xip_sflash.h"
	.file 12 "./drivers/lhal/include/qcc74x_irq.h"
	.file 13 "./drivers/soc/qcc743/std/include/qcc743_common.h"
	.file 14 "./drivers/lhal/src/flash/qcc74x_sf_cfg.h"
	.file 15 "./drivers/soc/qcc743/std/include/qcc743_glb.h"