	.file	"qcc74x_uart.c"
	.option nopic
	.attribute arch, "rv32i2p0_m2p0_a2p0_f2p0_c2p0_p0p9_zpn0p9_zpsfoperand0p9_xtheade2p0"
	.attribute unaligned_access, 0
	.attribute stack_align, 16
	.text
.Ltext0:
	.cfi_sections	.debug_frame
	.section	.text.qcc74x_uart_init,"ax",@progbits
	.align	1
	.globl	qcc74x_uart_init
	.type	qcc74x_uart_init, @function
qcc74x_uart_init:
.LFB5:
	.file 1 "./drivers/lhal/src/qcc74x_uart.c"
	.loc 1 8 1
	.cfi_startproc
.LVL0:
	.loc 1 9 5
	.loc 1 10 5
	.loc 1 11 5
	.loc 1 12 5
	.loc 1 13 5
	.loc 1 14 5
	.loc 1 15 5
	.loc 1 20 5
	.loc 1 21 5
	.loc 1 22 5
	.loc 1 23 5
	.loc 1 24 5
	.loc 1 26 5
	.loc 1 8 1 is_stmt 0
	addi	sp,sp,-16
	.cfi_def_cfa_offset 16
	sw	s0,8(sp)
	sw	s1,4(sp)
	sw	ra,12(sp)
	.cfi_offset 8, -8
	.cfi_offset 9, -12
	.cfi_offset 1, -4
	.loc 1 8 1
	mv	s1,a1
	.loc 1 28 12
	lbu	a1,9(a0)
.LVL1:
	.loc 1 26 14
	lw	s0,4(a0)
.LVL2:
	.loc 1 28 5 is_stmt 1
	.loc 1 28 12 is_stmt 0
	li	a0,5
.LVL3:
	call	qcc74x_clk_get_peripheral_clock
.LVL4:
	.loc 1 28 57
	li	a4,10
	mul	a5,a0,a4
	.loc 1 28 62
	lw	a0,0(s1)
	.loc 1 32 12
	lw	a3,0(s0)
	.loc 1 46 5
	li	a2,1
	.loc 1 34 12
	andi	a3,a3,-2
	.loc 1 28 62
	divu	a5,a5,a0
	.loc 1 28 81
	addi	a5,a5,5
	.loc 1 28 9
	divu	a5,a5,a4
.LVL5:
	.loc 1 30 5 is_stmt 1
	.loc 1 32 5
	.loc 1 33 5
	.loc 1 33 12 is_stmt 0
	lw	a4,4(s0)
.LVL6:
	.loc 1 34 5 is_stmt 1
	.loc 1 35 5
	.loc 1 36 58 is_stmt 0
	sw	a3,0(s0)
	.loc 1 35 12
	andi	a4,a4,-2
.LVL7:
	.loc 1 36 5 is_stmt 1
	.loc 1 37 5
	.loc 1 37 58 is_stmt 0
	sw	a4,4(s0)
	.loc 1 39 5 is_stmt 1
	.loc 1 39 67 is_stmt 0
	addi	a5,a5,-1
.LVL8:
	.loc 1 39 81
	pkbb16	a5,a5,a5
.LVL9:
	.loc 1 39 58
	sw	a5,8(s0)
	.loc 1 43 5 is_stmt 1
	.loc 1 46 19 is_stmt 0
	lbu	a3,7(s1)
.LVL10:
	.loc 1 43 12
	lw	a5,0(s0)
.LVL11:
	.loc 1 44 5 is_stmt 1
	.loc 1 44 12 is_stmt 0
	lw	a4,4(s0)
.LVL12:
	.loc 1 46 5 is_stmt 1
	beq	a3,a2,.L2
	li	a2,2
	beq	a3,a2,.L3
	bne	a3,zero,.L4
	.loc 1 48 13
	.loc 1 48 20 is_stmt 0
	andi	a5,a5,-17
.LVL13:
	.loc 1 49 13 is_stmt 1
	.loc 1 49 20 is_stmt 0
	andi	a4,a4,-17
.LVL14:
	.loc 1 50 13 is_stmt 1
.L4:
	.loc 1 68 5
	.loc 1 69 22 is_stmt 0
	lbu	a3,5(s1)
	.loc 1 68 12
	andi	a5,a5,-1793
.LVL15:
	.loc 1 69 5 is_stmt 1
	.loc 1 70 12 is_stmt 0
	andi	a4,a4,-1793
.LVL16:
	.loc 1 69 34
	addi	a3,a3,4
	.loc 1 69 39
	slli	a3,a3,8
	.loc 1 69 12
	or	a5,a3,a5
.LVL17:
	.loc 1 70 5 is_stmt 1
	.loc 1 71 5
	.loc 1 71 12 is_stmt 0
	or	a4,a3,a4
.LVL18:
	.loc 1 74 5 is_stmt 1
	.loc 1 74 12 is_stmt 0
	li	a3,-8192
	addi	a3,a3,2047
	and	a5,a5,a3
.LVL19:
	.loc 1 75 5 is_stmt 1
	.loc 1 75 21 is_stmt 0
	lbu	a3,6(s1)
	.loc 1 75 33
	slli	a3,a3,11
	.loc 1 75 12
	or	a5,a3,a5
.LVL20:
	.loc 1 78 5 is_stmt 1
	.loc 1 78 8 is_stmt 0
	lbu	a3,9(s1)
	.loc 1 81 16
	andi	a2,a5,-3
	.loc 1 78 8
	andi	a3,a3,2
	beq	a3,zero,.L6
	.loc 1 79 9 is_stmt 1
	.loc 1 79 16 is_stmt 0
	ori	a2,a5,2
.LVL21:
.L6:
	.loc 1 85 5 is_stmt 1
	.loc 1 85 12 is_stmt 0
	li	a3,-4096
	addi	a3,a3,2047
	.loc 1 89 58
	sw	a2,0(s0)
	.loc 1 85 12
	and	a4,a4,a3
.LVL22:
	.loc 1 89 5 is_stmt 1
	.loc 1 90 5
	.loc 1 90 58 is_stmt 0
	sw	a4,4(s0)
	.loc 1 97 5 is_stmt 1
	.loc 1 97 12 is_stmt 0
	lw	a5,28(s0)
.LVL23:
	.loc 1 98 5 is_stmt 1
	.loc 1 114 12 is_stmt 0
	addi	a3,s0,128
	.loc 1 116 12
	li	a2,-522125312
.LVL24:
	.loc 1 98 12
	andi	a5,a5,-5
.LVL25:
	.loc 1 99 5 is_stmt 1
	.loc 1 99 59 is_stmt 0
	sw	a5,28(s0)
	.loc 1 101 5 is_stmt 1
	.loc 1 101 12 is_stmt 0
	lw	a5,12(s0)
.LVL26:
	.loc 1 105 5 is_stmt 1
	.loc 1 116 12 is_stmt 0
	addi	a2,a2,-1
	.loc 1 117 52
	li	a4,2031616
.LVL27:
	.loc 1 105 12
	andi	a5,a5,-2
.LVL28:
	.loc 1 106 5 is_stmt 1
	.loc 1 106 58 is_stmt 0
	sw	a5,12(s0)
	.loc 1 109 5 is_stmt 1
	.loc 1 109 12 is_stmt 0
	lw	a5,0(s0)
.LVL29:
	.loc 1 110 5 is_stmt 1
	.loc 1 118 52 is_stmt 0
	li	a1,520093696
	.loc 1 139 1
	lw	ra,12(sp)
	.cfi_remember_state
	.cfi_restore 1
	.loc 1 110 12
	ori	a5,a5,4
.LVL30:
	.loc 1 111 5 is_stmt 1
	.loc 1 111 58 is_stmt 0
	sw	a5,0(s0)
	.loc 1 114 5 is_stmt 1
	.loc 1 114 12 is_stmt 0
	lw	a5,4(a3)
.LVL31:
	.loc 1 115 5 is_stmt 1
	.loc 1 116 5
	.loc 1 116 12 is_stmt 0
	and	a2,a5,a2
.LVL32:
	.loc 1 117 5 is_stmt 1
	.loc 1 118 5
	.loc 1 117 22 is_stmt 0
	lbu	a5,10(s1)
	.loc 1 117 42
	slli	a5,a5,16
	.loc 1 117 52
	and	a5,a5,a4
	.loc 1 118 22
	lbu	a4,11(s1)
	.loc 1 139 1
	lw	s1,4(sp)
	.cfi_restore 9
.LVL33:
	.loc 1 118 42
	slli	a4,a4,24
	.loc 1 118 52
	and	a4,a4,a1
	.loc 1 118 12
	or	a5,a5,a4
	or	a5,a5,a2
.LVL34:
	.loc 1 119 5 is_stmt 1
	.loc 1 119 59 is_stmt 0
	sw	a5,4(a3)
	.loc 1 122 5 is_stmt 1
	.loc 1 122 12 is_stmt 0
	lw	a5,0(a3)
.LVL35:
	.loc 1 123 5 is_stmt 1
	.loc 1 124 5
	.loc 1 125 5
	.loc 1 126 5
	andi	a5,a5,-4
.LVL36:
	.loc 1 126 12 is_stmt 0
	ori	a5,a5,12
.LVL37:
	.loc 1 127 5 is_stmt 1
	.loc 1 127 59 is_stmt 0
	sw	a5,0(a3)
	.loc 1 129 5 is_stmt 1
	.loc 1 129 59 is_stmt 0
	li	a5,-1
.LVL38:
	sw	a5,36(s0)
.LVL39:
	.loc 1 132 5 is_stmt 1
	.loc 1 132 12 is_stmt 0
	lw	a4,0(s0)
.LVL40:
	.loc 1 133 5 is_stmt 1
	.loc 1 133 12 is_stmt 0
	lw	a5,4(s0)
.LVL41:
	.loc 1 134 5 is_stmt 1
	.loc 1 134 12 is_stmt 0
	ori	a4,a4,1
.LVL42:
	.loc 1 135 5 is_stmt 1
	.loc 1 136 58 is_stmt 0
	sw	a4,0(s0)
	.loc 1 135 12
	ori	a5,a5,1
.LVL43:
	.loc 1 136 5 is_stmt 1
	.loc 1 137 5
	.loc 1 137 58 is_stmt 0
	sw	a5,4(s0)
	.loc 1 139 1
	lw	s0,8(sp)
	.cfi_restore 8
.LVL44:
	addi	sp,sp,16
	.cfi_def_cfa_offset 0
	jr	ra
.LVL45:
.L2:
	.cfi_restore_state
	.loc 1 52 13 is_stmt 1
	.loc 1 53 13
	.loc 1 53 20 is_stmt 0
	ori	a5,a5,48
.LVL46:
	.loc 1 54 13 is_stmt 1
	.loc 1 55 13
	.loc 1 55 20 is_stmt 0
	ori	a4,a4,48
.LVL47:
	.loc 1 56 13 is_stmt 1
	j	.L4
.L3:
	.loc 1 58 13
.LVL48:
	.loc 1 59 13
	andi	a5,a5,-33
.LVL49:
	andi	a4,a4,-33
.LVL50:
	.loc 1 59 20 is_stmt 0
	ori	a5,a5,16
.LVL51:
	.loc 1 60 13 is_stmt 1
	.loc 1 61 13
	.loc 1 61 20 is_stmt 0
	ori	a4,a4,16
.LVL52:
	.loc 1 62 13 is_stmt 1
	j	.L4
	.cfi_endproc
.LFE5:
	.size	qcc74x_uart_init, .-qcc74x_uart_init
	.section	.text.qcc74x_uart_deinit,"ax",@progbits
	.align	1
	.globl	qcc74x_uart_deinit
	.type	qcc74x_uart_deinit, @function
qcc74x_uart_deinit:
.LFB6:
	.loc 1 142 1
	.cfi_startproc
.LVL53:
	.loc 1 146 5
	.loc 1 147 5
	.loc 1 148 5
	.loc 1 150 5
	.loc 1 150 14 is_stmt 0
	lw	a5,4(a0)
.LVL54:
	.loc 1 151 5 is_stmt 1
	.loc 1 151 12 is_stmt 0
	lw	a3,0(a5)
.LVL55:
	.loc 1 152 5 is_stmt 1
	.loc 1 152 12 is_stmt 0
	lw	a4,4(a5)
.LVL56:
	.loc 1 153 5 is_stmt 1
	.loc 1 153 12 is_stmt 0
	andi	a3,a3,-2
.LVL57:
	.loc 1 154 5 is_stmt 1
	.loc 1 154 12 is_stmt 0
	andi	a4,a4,-2
.LVL58:
	.loc 1 155 5 is_stmt 1
	.loc 1 155 58 is_stmt 0
	sw	a3,0(a5)
	.loc 1 156 5 is_stmt 1
	.loc 1 156 58 is_stmt 0
	sw	a4,4(a5)
	.loc 1 158 1
	ret
	.cfi_endproc
.LFE6:
	.size	qcc74x_uart_deinit, .-qcc74x_uart_deinit
	.section	.text.qcc74x_uart_enable,"ax",@progbits
	.align	1
	.globl	qcc74x_uart_enable
	.type	qcc74x_uart_enable, @function
qcc74x_uart_enable:
.LFB7:
	.loc 1 161 1 is_stmt 1
	.cfi_startproc
.LVL59:
	.loc 1 165 5
	.loc 1 166 5
	.loc 1 167 5
	.loc 1 169 5
	.loc 1 169 14 is_stmt 0
	lw	a5,4(a0)
.LVL60:
	.loc 1 170 5 is_stmt 1
	.loc 1 170 12 is_stmt 0
	lw	a3,0(a5)
.LVL61:
	.loc 1 171 5 is_stmt 1
	.loc 1 171 12 is_stmt 0
	lw	a4,4(a5)
.LVL62:
	.loc 1 172 5 is_stmt 1
	.loc 1 172 12 is_stmt 0
	ori	a3,a3,1
.LVL63:
	.loc 1 173 5 is_stmt 1
	.loc 1 173 12 is_stmt 0
	ori	a4,a4,1
.LVL64:
	.loc 1 174 5 is_stmt 1
	.loc 1 174 58 is_stmt 0
	sw	a3,0(a5)
	.loc 1 175 5 is_stmt 1
	.loc 1 175 58 is_stmt 0
	sw	a4,4(a5)
	.loc 1 177 1
	ret
	.cfi_endproc
.LFE7:
	.size	qcc74x_uart_enable, .-qcc74x_uart_enable
	.section	.text.qcc74x_uart_disable,"ax",@progbits
	.align	1
	.globl	qcc74x_uart_disable
	.type	qcc74x_uart_disable, @function
qcc74x_uart_disable:
.LFB27:
	.cfi_startproc
	tail	qcc74x_uart_deinit
	.cfi_endproc
.LFE27:
	.size	qcc74x_uart_disable, .-qcc74x_uart_disable
	.section	.text.qcc74x_uart_link_txdma,"ax",@progbits
	.align	1
	.globl	qcc74x_uart_link_txdma
	.type	qcc74x_uart_link_txdma, @function
qcc74x_uart_link_txdma:
.LFB9:
	.loc 1 199 1 is_stmt 1
	.cfi_startproc
.LVL65:
	.loc 1 203 5
	.loc 1 204 5
	.loc 1 206 5
	.loc 1 207 5
	.loc 1 207 58 is_stmt 0
	lw	a5,4(a0)
	.loc 1 207 12
	lw	a3,128(a5)
.LVL66:
	.loc 1 208 5 is_stmt 1
	.loc 1 211 16 is_stmt 0
	andi	a4,a3,-2
	.loc 1 208 8
	beq	a1,zero,.L14
	.loc 1 209 9 is_stmt 1
	.loc 1 209 16 is_stmt 0
	ori	a4,a3,1
.LVL67:
.L14:
	.loc 1 213 5 is_stmt 1
	.loc 1 213 59 is_stmt 0
	sw	a4,128(a5)
.LVL68:
	.loc 1 215 1
	ret
	.cfi_endproc
.LFE9:
	.size	qcc74x_uart_link_txdma, .-qcc74x_uart_link_txdma
	.section	.text.qcc74x_uart_link_rxdma,"ax",@progbits
	.align	1
	.globl	qcc74x_uart_link_rxdma
	.type	qcc74x_uart_link_rxdma, @function
qcc74x_uart_link_rxdma:
.LFB10:
	.loc 1 218 1 is_stmt 1
	.cfi_startproc
.LVL69:
	.loc 1 222 5
	.loc 1 223 5
	.loc 1 225 5
	.loc 1 226 5
	.loc 1 226 58 is_stmt 0
	lw	a5,4(a0)
	.loc 1 226 12
	lw	a3,128(a5)
.LVL70:
	.loc 1 227 5 is_stmt 1
	.loc 1 230 16 is_stmt 0
	andi	a4,a3,-3
	.loc 1 227 8
	beq	a1,zero,.L18
	.loc 1 228 9 is_stmt 1
	.loc 1 228 16 is_stmt 0
	ori	a4,a3,2
.LVL71:
.L18:
	.loc 1 232 5 is_stmt 1
	.loc 1 232 59 is_stmt 0
	sw	a4,128(a5)
.LVL72:
	.loc 1 234 1
	ret
	.cfi_endproc
.LFE10:
	.size	qcc74x_uart_link_rxdma, .-qcc74x_uart_link_rxdma
	.section	.tcm_code../drivers/lhal/src/qcc74x_uart.c236,"ax",@progbits
	.align	1
	.globl	qcc74x_uart_putchar
	.type	qcc74x_uart_putchar, @function
qcc74x_uart_putchar:
.LFB11:
	.loc 1 237 1 is_stmt 1
	.cfi_startproc
.LVL73:
	.loc 1 241 5
	.loc 1 242 5
	.loc 1 244 5
	.loc 1 237 1 is_stmt 0
	addi	sp,sp,-32
	.cfi_def_cfa_offset 32
	sw	s0,24(sp)
	sw	s1,20(sp)
	sw	s2,16(sp)
	sw	s3,12(sp)
	sw	s4,8(sp)
	.cfi_offset 8, -8
	.cfi_offset 9, -12
	.cfi_offset 18, -16
	.cfi_offset 19, -20
	.cfi_offset 20, -24
	.loc 1 244 14
	lw	s1,4(a0)
.LVL74:
	.loc 1 245 5 is_stmt 1
	.loc 1 237 1 is_stmt 0
	sw	ra,28(sp)
	.cfi_offset 1, -4
	.loc 1 237 1
	mv	s0,a1
	.loc 1 245 18
	call	qcc74x_mtimer_get_time_ms
.LVL75:
	mv	s2,a0
	mv	s3,a1
.LVL76:
	.loc 1 246 5 is_stmt 1
	.loc 1 247 12 is_stmt 0
	li	s4,100
.L21:
	.loc 1 246 11 is_stmt 1
	.loc 1 246 14 is_stmt 0
	lw	a5,132(s1)
	.loc 1 246 68
	andi	a5,a5,63
	.loc 1 246 11
	beq	a5,zero,.L24
	.loc 1 251 5 is_stmt 1
	.loc 1 251 58 is_stmt 0
	andi	s0,s0,0xff
.LVL77:
	sb	s0,136(s1)
	.loc 1 252 5 is_stmt 1
	.loc 1 252 12 is_stmt 0
	li	a0,0
.L20:
	.loc 1 254 1
	lw	ra,28(sp)
	.cfi_remember_state
	.cfi_restore 1
	lw	s0,24(sp)
	.cfi_restore 8
	lw	s1,20(sp)
	.cfi_restore 9
.LVL78:
	lw	s2,16(sp)
	.cfi_restore 18
.LVL79:
	lw	s3,12(sp)
	.cfi_restore 19
	lw	s4,8(sp)
	.cfi_restore 20
	addi	sp,sp,32
	.cfi_def_cfa_offset 0
	jr	ra
.LVL80:
.L24:
	.cfi_restore_state
	.loc 1 247 9 is_stmt 1
	.loc 1 247 14 is_stmt 0
	call	qcc74x_mtimer_get_time_ms
.LVL81:
	.loc 1 247 42
	sub64	a0,a0,s2
	.loc 1 247 12
	bne	a1,zero,.L25
	bgeu	s4,a0,.L21
.L25:
	.loc 1 248 20
	li	a0,-116
	j	.L20
	.cfi_endproc
.LFE11:
	.size	qcc74x_uart_putchar, .-qcc74x_uart_putchar
	.section	.tcm_code../drivers/lhal/src/qcc74x_uart.c256,"ax",@progbits
	.align	1
	.globl	qcc74x_uart_getchar
	.type	qcc74x_uart_getchar, @function
qcc74x_uart_getchar:
.LFB12:
	.loc 1 257 1 is_stmt 1
	.cfi_startproc
.LVL82:
	.loc 1 261 5
	.loc 1 262 5
	.loc 1 264 5
	.loc 1 264 14 is_stmt 0
	lw	a3,4(a0)
.LVL83:
	.loc 1 265 5 is_stmt 1
	.loc 1 265 65 is_stmt 0
	li	a4,16384
	addi	a4,a4,-256
	.loc 1 265 11
	lw	a5,132(a3)
	.loc 1 265 65
	and	a5,a5,a4
	.loc 1 265 8
	beq	a5,zero,.L29
	.loc 1 266 9 is_stmt 1
	.loc 1 266 15 is_stmt 0
	lbu	a0,140(a3)
.LVL84:
	andi	a0,a0,0xff
.LVL85:
	ret
.LVL86:
.L29:
	.loc 1 261 9
	li	a0,-1
.LVL87:
	.loc 1 269 5 is_stmt 1
	.loc 1 271 1 is_stmt 0
	ret
	.cfi_endproc
.LFE12:
	.size	qcc74x_uart_getchar, .-qcc74x_uart_getchar
	.section	.tcm_code../drivers/lhal/src/qcc74x_uart.c273,"ax",@progbits
	.align	1
	.globl	qcc74x_uart_put
	.type	qcc74x_uart_put, @function
qcc74x_uart_put:
.LFB13:
	.loc 1 274 1 is_stmt 1
	.cfi_startproc
.LVL88:
	addi	sp,sp,-16
	.cfi_def_cfa_offset 16
	sw	s0,8(sp)
	sw	s1,4(sp)
	sw	s2,0(sp)
	sw	ra,12(sp)
	.cfi_offset 8, -8
	.cfi_offset 9, -12
	.cfi_offset 18, -16
	.cfi_offset 1, -4
	.loc 1 274 1 is_stmt 0
	mv	s2,a0
	.loc 1 278 5 is_stmt 1
	.loc 1 279 5
.LBB2:
	.loc 1 279 10
.LVL89:
	mv	s0,a1
	add	s1,a1,a2
.LVL90:
.L31:
	.loc 1 279 26 discriminator 1
	.loc 1 279 5 is_stmt 0 discriminator 1
	bne	s0,s1,.L33
.LBE2:
	.loc 1 285 12
	li	a0,0
	j	.L30
.L33:
.LBB3:
	.loc 1 280 9 is_stmt 1
	.loc 1 280 15 is_stmt 0
	lbuia	a1,(s0),1,0
.LVL91:
	mv	a0,s2
	call	qcc74x_uart_putchar
.LVL92:
	.loc 1 281 9 is_stmt 1
	.loc 1 281 12 is_stmt 0
	bge	a0,zero,.L31
.LVL93:
.L30:
.LBE3:
	.loc 1 287 1
	lw	ra,12(sp)
	.cfi_restore 1
	lw	s0,8(sp)
	.cfi_restore 8
	lw	s1,4(sp)
	.cfi_restore 9
	lw	s2,0(sp)
	.cfi_restore 18
.LVL94:
	addi	sp,sp,16
	.cfi_def_cfa_offset 0
	jr	ra
	.cfi_endproc
.LFE13:
	.size	qcc74x_uart_put, .-qcc74x_uart_put
	.section	.tcm_code../drivers/lhal/src/qcc74x_uart.c289,"ax",@progbits
	.align	1
	.globl	qcc74x_uart_put_block
	.type	qcc74x_uart_put_block, @function
qcc74x_uart_put_block:
.LFB14:
	.loc 1 290 1 is_stmt 1
	.cfi_startproc
.LVL95:
	addi	sp,sp,-16
	.cfi_def_cfa_offset 16
	sw	s0,8(sp)
	sw	s1,4(sp)
	sw	s2,0(sp)
	sw	ra,12(sp)
	.cfi_offset 8, -8
	.cfi_offset 9, -12
	.cfi_offset 18, -16
	.cfi_offset 1, -4
	.loc 1 290 1 is_stmt 0
	mv	s2,a0
	.loc 1 294 5 is_stmt 1
	.loc 1 295 5
.LVL96:
	.loc 1 296 5
.LBB4:
	.loc 1 296 10
	mv	s0,a1
	add	s1,a1,a2
.LVL97:
.L36:
	.loc 1 296 26 discriminator 1
	.loc 1 296 5 is_stmt 0 discriminator 1
	bne	s0,s1,.L38
.LBE4:
	.loc 1 302 61
	lw	a3,4(s2)
	.loc 1 302 14
	li	a5,159744
	addi	a5,a5,256
	.loc 1 302 61
	addi	a3,a3,48
.LVL98:
.L39:
	.loc 1 302 11 is_stmt 1
	.loc 1 302 13 is_stmt 0
	lw	a4,0(a3)
	.loc 1 302 72
	andi	a4,a4,1
	.loc 1 302 11
	bne	a4,zero,.L40
	.loc 1 309 12
	li	a0,0
	j	.L35
.LVL99:
.L38:
.LBB5:
	.loc 1 297 9 is_stmt 1
	.loc 1 297 15 is_stmt 0
	lbuia	a1,(s0),1,0
.LVL100:
	mv	a0,s2
	call	qcc74x_uart_putchar
.LVL101:
	.loc 1 298 9 is_stmt 1
	.loc 1 298 12 is_stmt 0
	bge	a0,zero,.L36
.LVL102:
.L35:
.LBE5:
	.loc 1 311 1
	lw	ra,12(sp)
	.cfi_remember_state
	.cfi_restore 1
	lw	s0,8(sp)
	.cfi_restore 8
	lw	s1,4(sp)
	.cfi_restore 9
	lw	s2,0(sp)
	.cfi_restore 18
.LVL103:
	addi	sp,sp,16
	.cfi_def_cfa_offset 0
	jr	ra
.LVL104:
.L40:
	.cfi_restore_state
	.loc 1 303 9 is_stmt 1
	.loc 1 305 9
	.loc 1 305 12 is_stmt 0
	addi	a5,a5,-1
.LVL105:
	bne	a5,zero,.L39
	.loc 1 306 20
	li	a0,-116
	j	.L35
	.cfi_endproc
.LFE14:
	.size	qcc74x_uart_put_block, .-qcc74x_uart_put_block
	.section	.tcm_code../drivers/lhal/src/qcc74x_uart.c313,"ax",@progbits
	.align	1
	.globl	qcc74x_uart_get
	.type	qcc74x_uart_get, @function
qcc74x_uart_get:
.LFB15:
	.loc 1 314 1 is_stmt 1
	.cfi_startproc
.LVL106:
	.loc 1 318 5
	.loc 1 319 5
	.loc 1 321 5
	.loc 1 314 1 is_stmt 0
	addi	sp,sp,-32
	.cfi_def_cfa_offset 32
	sw	s0,24(sp)
	sw	s1,20(sp)
	sw	ra,28(sp)
	.cfi_offset 8, -8
	.cfi_offset 9, -12
	.cfi_offset 1, -4
	.loc 1 314 1
	mv	s1,a0
	.loc 1 319 14
	li	s0,0
.LVL107:
.L44:
	.loc 1 321 11 is_stmt 1
	bne	s0,a2,.L46
.L48:
	.loc 1 330 1 is_stmt 0
	lw	ra,28(sp)
	.cfi_remember_state
	.cfi_restore 1
	mv	a0,s0
	lw	s0,24(sp)
	.cfi_restore 8
.LVL108:
	lw	s1,20(sp)
	.cfi_restore 9
.LVL109:
	addi	sp,sp,32
	.cfi_def_cfa_offset 0
	jr	ra
.LVL110:
.L46:
	.cfi_restore_state
	.loc 1 322 19
	mv	a0,s1
	sw	a2,12(sp)
	sw	a1,8(sp)
	.loc 1 322 9 is_stmt 1
	.loc 1 322 19 is_stmt 0
	call	qcc74x_uart_getchar
.LVL111:
	.loc 1 322 12
	blt	a0,zero,.L48
	.loc 1 325 9 is_stmt 1
	.loc 1 325 21 is_stmt 0
	lw	a1,8(sp)
	.loc 1 326 14
	lw	a2,12(sp)
	.loc 1 325 21
	srb	a0,a1,s0,0
	.loc 1 326 9 is_stmt 1
	.loc 1 326 14 is_stmt 0
	addi	s0,s0,1
.LVL112:
	j	.L44
	.cfi_endproc
.LFE15:
	.size	qcc74x_uart_get, .-qcc74x_uart_get
	.section	.text.qcc74x_uart_txready,"ax",@progbits
	.align	1
	.globl	qcc74x_uart_txready
	.type	qcc74x_uart_txready, @function
qcc74x_uart_txready:
.LFB17:
	.loc 1 357 1 is_stmt 1
	.cfi_startproc
.LVL113:
	.loc 1 361 5
	.loc 1 363 5
	.loc 1 364 5
	.loc 1 364 54 is_stmt 0
	lw	a5,4(a0)
	.loc 1 364 11
	lw	a0,132(a5)
.LVL114:
	.loc 1 364 65
	andi	a0,a0,63
	.loc 1 370 1
	snez	a0,a0
	ret
	.cfi_endproc
.LFE17:
	.size	qcc74x_uart_txready, .-qcc74x_uart_txready
	.section	.text.qcc74x_uart_txempty,"ax",@progbits
	.align	1
	.globl	qcc74x_uart_txempty
	.type	qcc74x_uart_txempty, @function
qcc74x_uart_txempty:
.LFB18:
	.loc 1 373 1 is_stmt 1
	.cfi_startproc
.LVL115:
	.loc 1 377 5
	.loc 1 379 5
	.loc 1 380 5
	.loc 1 380 54 is_stmt 0
	lw	a5,4(a0)
	.loc 1 380 11
	lw	a0,132(a5)
.LVL116:
	.loc 1 380 65
	andi	a0,a0,63
	.loc 1 380 8
	addi	a0,a0,-32
	.loc 1 386 1
	seqz	a0,a0
	ret
	.cfi_endproc
.LFE18:
	.size	qcc74x_uart_txempty, .-qcc74x_uart_txempty
	.section	.text.qcc74x_uart_wait_tx_done,"ax",@progbits
	.align	1
	.globl	qcc74x_uart_wait_tx_done
	.type	qcc74x_uart_wait_tx_done, @function
qcc74x_uart_wait_tx_done:
.LFB16:
	.loc 1 333 1 is_stmt 1
	.cfi_startproc
.LVL117:
	.loc 1 337 5
	.loc 1 339 5
	.loc 1 333 1 is_stmt 0
	addi	sp,sp,-32
	.cfi_def_cfa_offset 32
	sw	s0,24(sp)
	sw	s1,20(sp)
	sw	s2,16(sp)
	sw	s3,12(sp)
	sw	ra,28(sp)
	.cfi_offset 8, -8
	.cfi_offset 9, -12
	.cfi_offset 18, -16
	.cfi_offset 19, -20
	.cfi_offset 1, -4
	.loc 1 333 1
	mv	s0,a0
	.loc 1 339 18
	call	qcc74x_mtimer_get_time_ms
.LVL118:
	mv	s2,a0
	mv	s3,a1
.LVL119:
	.loc 1 340 5 is_stmt 1
	.loc 1 341 12 is_stmt 0
	li	s1,1000
.L53:
	.loc 1 340 11 is_stmt 1
	.loc 1 340 13 is_stmt 0
	mv	a0,s0
	call	qcc74x_uart_txempty
.LVL120:
	.loc 1 340 11
	beq	a0,zero,.L56
	.loc 1 346 5 is_stmt 1
	.loc 1 346 18 is_stmt 0
	call	qcc74x_mtimer_get_time_ms
.LVL121:
	mv	s2,a0
.LVL122:
	mv	s3,a1
.LVL123:
	.loc 1 347 5 is_stmt 1
	.loc 1 348 12 is_stmt 0
	li	s1,1000
.L57:
	.loc 1 347 11 is_stmt 1
	.loc 1 347 61 is_stmt 0
	lw	a5,4(s0)
	.loc 1 347 13
	lw	a5,48(a5)
	.loc 1 347 72
	andi	a5,a5,1
	.loc 1 347 11
	bne	a5,zero,.L60
	.loc 1 352 12
	li	a0,0
	j	.L52
.L56:
	.loc 1 341 9 is_stmt 1
	.loc 1 341 14 is_stmt 0
	call	qcc74x_mtimer_get_time_ms
.LVL124:
	.loc 1 341 42
	sub64	a0,a0,s2
	.loc 1 341 12
	bne	a1,zero,.L58
	bgeu	s1,a0,.L53
.L58:
	.loc 1 342 20
	li	a0,-116
.L52:
	.loc 1 354 1
	lw	ra,28(sp)
	.cfi_remember_state
	.cfi_restore 1
	lw	s0,24(sp)
	.cfi_restore 8
.LVL125:
	lw	s1,20(sp)
	.cfi_restore 9
	lw	s2,16(sp)
	.cfi_restore 18
.LVL126:
	lw	s3,12(sp)
	.cfi_restore 19
	addi	sp,sp,32
	.cfi_def_cfa_offset 0
	jr	ra
.LVL127:
.L60:
	.cfi_restore_state
	.loc 1 348 9 is_stmt 1
	.loc 1 348 14 is_stmt 0
	call	qcc74x_mtimer_get_time_ms
.LVL128:
	.loc 1 348 42
	sub64	a0,a0,s2
	.loc 1 348 12
	bne	a1,zero,.L58
	bgeu	s1,a0,.L57
	j	.L58
	.cfi_endproc
.LFE16:
	.size	qcc74x_uart_wait_tx_done, .-qcc74x_uart_wait_tx_done
	.section	.text.qcc74x_uart_rxavailable,"ax",@progbits
	.align	1
	.globl	qcc74x_uart_rxavailable
	.type	qcc74x_uart_rxavailable, @function
qcc74x_uart_rxavailable:
.LFB19:
	.loc 1 389 1 is_stmt 1
	.cfi_startproc
.LVL129:
	.loc 1 393 5
	.loc 1 395 5
	.loc 1 396 5
	.loc 1 396 58 is_stmt 0
	lw	a5,4(a0)
	.loc 1 396 15
	lw	a0,132(a5)
.LVL130:
	.loc 1 396 69
	li	a5,16384
.LVL131:
	addi	a5,a5,-256
	and	a0,a0,a5
	.loc 1 398 1
	snez	a0,a0
	ret
	.cfi_endproc
.LFE19:
	.size	qcc74x_uart_rxavailable, .-qcc74x_uart_rxavailable
	.section	.text.qcc74x_uart_txint_mask,"ax",@progbits
	.align	1
	.globl	qcc74x_uart_txint_mask
	.type	qcc74x_uart_txint_mask, @function
qcc74x_uart_txint_mask:
.LFB20:
	.loc 1 401 1 is_stmt 1
	.cfi_startproc
.LVL132:
	.loc 1 405 5
	.loc 1 406 5
	.loc 1 408 5
	.loc 1 409 5
	.loc 1 409 60 is_stmt 0
	lw	a5,4(a0)
	.loc 1 409 14
	lw	a3,36(a5)
.LVL133:
	.loc 1 410 5 is_stmt 1
	.loc 1 413 18 is_stmt 0
	andi	a4,a3,-5
	.loc 1 410 8
	beq	a1,zero,.L65
	.loc 1 411 9 is_stmt 1
	.loc 1 411 18 is_stmt 0
	ori	a4,a3,4
.LVL134:
.L65:
	.loc 1 415 5 is_stmt 1
	.loc 1 415 59 is_stmt 0
	sw	a4,36(a5)
.LVL135:
	.loc 1 417 1
	ret
	.cfi_endproc
.LFE20:
	.size	qcc74x_uart_txint_mask, .-qcc74x_uart_txint_mask
	.section	.text.qcc74x_uart_rxint_mask,"ax",@progbits
	.align	1
	.globl	qcc74x_uart_rxint_mask
	.type	qcc74x_uart_rxint_mask, @function
qcc74x_uart_rxint_mask:
.LFB21:
	.loc 1 420 1 is_stmt 1
	.cfi_startproc
.LVL136:
	.loc 1 424 5
	.loc 1 425 5
	.loc 1 427 5
	.loc 1 428 5
	.loc 1 428 60 is_stmt 0
	lw	a5,4(a0)
	.loc 1 428 14
	lw	a3,36(a5)
.LVL137:
	.loc 1 429 5 is_stmt 1
	.loc 1 434 18 is_stmt 0
	andi	a4,a3,-25
	.loc 1 429 8
	beq	a1,zero,.L69
	.loc 1 430 9 is_stmt 1
.LVL138:
	.loc 1 431 9
	.loc 1 431 18 is_stmt 0
	ori	a4,a3,24
.LVL139:
.L69:
	.loc 1 436 5 is_stmt 1
	.loc 1 436 59 is_stmt 0
	sw	a4,36(a5)
.LVL140:
	.loc 1 438 1
	ret
	.cfi_endproc
.LFE21:
	.size	qcc74x_uart_rxint_mask, .-qcc74x_uart_rxint_mask
	.section	.text.qcc74x_uart_errint_mask,"ax",@progbits
	.align	1
	.globl	qcc74x_uart_errint_mask
	.type	qcc74x_uart_errint_mask, @function
qcc74x_uart_errint_mask:
.LFB22:
	.loc 1 441 1 is_stmt 1
	.cfi_startproc
.LVL141:
	.loc 1 445 5
	.loc 1 446 5
	.loc 1 448 5
	.loc 1 449 5
	.loc 1 449 60 is_stmt 0
	lw	a5,4(a0)
	.loc 1 449 14
	lw	a3,36(a5)
.LVL142:
	.loc 1 450 5 is_stmt 1
	.loc 1 462 18 is_stmt 0
	andi	a4,a3,-481
	.loc 1 450 8
	beq	a1,zero,.L73
	.loc 1 451 9 is_stmt 1
.LVL143:
	.loc 1 452 9
	.loc 1 453 9
	.loc 1 455 9
	.loc 1 455 18 is_stmt 0
	ori	a4,a3,480
.LVL144:
.L73:
	.loc 1 465 5 is_stmt 1
	.loc 1 465 59 is_stmt 0
	sw	a4,36(a5)
.LVL145:
	.loc 1 467 1
	ret
	.cfi_endproc
.LFE22:
	.size	qcc74x_uart_errint_mask, .-qcc74x_uart_errint_mask
	.section	.text.qcc74x_uart_get_intstatus,"ax",@progbits
	.align	1
	.globl	qcc74x_uart_get_intstatus
	.type	qcc74x_uart_get_intstatus, @function
qcc74x_uart_get_intstatus:
.LFB23:
	.loc 1 470 1 is_stmt 1
	.cfi_startproc
.LVL146:
	.loc 1 474 5
	.loc 1 475 5
	.loc 1 476 5
	.loc 1 478 5
	.loc 1 478 14 is_stmt 0
	lw	a5,4(a0)
.LVL147:
	.loc 1 479 5 is_stmt 1
	.loc 1 479 16 is_stmt 0
	lw	a0,32(a5)
.LVL148:
	.loc 1 480 5 is_stmt 1
	.loc 1 480 14 is_stmt 0
	lw	a5,36(a5)
.LVL149:
	.loc 1 481 5 is_stmt 1
	.loc 1 481 26 is_stmt 0
	not	a5,a5
.LVL150:
	.loc 1 483 1
	and	a0,a5,a0
.LVL151:
	ret
	.cfi_endproc
.LFE23:
	.size	qcc74x_uart_get_intstatus, .-qcc74x_uart_get_intstatus
	.section	.text.qcc74x_uart_int_clear,"ax",@progbits
	.align	1
	.globl	qcc74x_uart_int_clear
	.type	qcc74x_uart_int_clear, @function
qcc74x_uart_int_clear:
.LFB24:
	.loc 1 486 1 is_stmt 1
	.cfi_startproc
.LVL152:
	.loc 1 490 5
	.loc 1 492 5
	.loc 1 493 5
	.loc 1 493 49 is_stmt 0
	lw	a5,4(a0)
	.loc 1 493 59
	sw	a1,40(a5)
.LVL153:
	.loc 1 495 1
	ret
	.cfi_endproc
.LFE24:
	.size	qcc74x_uart_int_clear, .-qcc74x_uart_int_clear
	.section	.text.qcc74x_uart_feature_control,"ax",@progbits
	.align	1
	.globl	qcc74x_uart_feature_control
	.type	qcc74x_uart_feature_control, @function
qcc74x_uart_feature_control:
.LFB25:
	.loc 1 498 1 is_stmt 1
	.cfi_startproc
.LVL154:
	.loc 1 502 5
	.loc 1 503 5
	.loc 1 504 5
	.loc 1 505 5
	.loc 1 506 5
	.loc 1 507 5
	.loc 1 509 5
	.loc 1 498 1 is_stmt 0
	addi	sp,sp,-16
	.cfi_def_cfa_offset 16
	sw	s1,4(sp)
	sw	ra,12(sp)
	sw	s0,8(sp)
	sw	s2,0(sp)
	.cfi_offset 9, -12
	.cfi_offset 1, -4
	.cfi_offset 8, -8
	.cfi_offset 18, -16
	.loc 1 511 5
	li	a5,17
	.loc 1 509 14
	lw	s1,4(a0)
.LVL155:
	.loc 1 511 5 is_stmt 1
	beq	a1,a5,.L78
	bgt	a1,a5,.L79
	li	a5,9
	beq	a1,a5,.L80
	bgt	a1,a5,.L81
	li	a5,5
	beq	a1,a5,.L82
	bgt	a1,a5,.L83
	li	a5,3
	mv	s0,a0
	mv	s2,a2
	beq	a1,a5,.L84
	bgt	a1,a5,.L85
	li	a5,1
	beq	a1,a5,.L86
	li	a5,2
	beq	a1,a5,.L87
.L187:
	li	a0,-1
.LVL156:
.L77:
	.loc 1 925 1 is_stmt 0
	lw	ra,12(sp)
	.cfi_remember_state
	.cfi_restore 1
	lw	s0,8(sp)
	.cfi_restore 8
	lw	s1,4(sp)
	.cfi_restore 9
.LVL157:
	lw	s2,0(sp)
	.cfi_restore 18
	addi	sp,sp,16
	.cfi_def_cfa_offset 0
	jr	ra
.LVL158:
.L85:
	.cfi_restore_state
	.loc 1 511 5
	li	a5,4
	bne	a1,a5,.L187
	.loc 1 554 13 is_stmt 1
	call	qcc74x_uart_deinit
.LVL159:
	.loc 1 557 13
	.loc 1 557 20 is_stmt 0
	lw	a3,0(s1)
.LVL160:
	.loc 1 558 13 is_stmt 1
	.loc 1 558 20 is_stmt 0
	lw	a4,4(s1)
.LVL161:
	.loc 1 560 13 is_stmt 1
	.loc 1 560 16 is_stmt 0
	bne	s2,zero,.L119
	.loc 1 561 17 is_stmt 1
	.loc 1 561 24 is_stmt 0
	andi	a3,a3,-17
.LVL162:
	.loc 1 562 17 is_stmt 1
	.loc 1 562 24 is_stmt 0
	andi	a4,a4,-17
.LVL163:
.L120:
	.loc 1 575 13 is_stmt 1
	.loc 1 575 66 is_stmt 0
	sw	a3,0(s1)
	.loc 1 576 13 is_stmt 1
	.loc 1 576 66 is_stmt 0
	sw	a4,4(s1)
	j	.L188
.LVL164:
.L83:
	.loc 1 511 5
	li	a5,7
	beq	a1,a5,.L90
	li	a5,8
	beq	a1,a5,.L91
	li	a5,6
	bne	a1,a5,.L187
	.loc 1 589 13 is_stmt 1
	.loc 1 589 17 is_stmt 0
	lw	a5,128(s1)
.LVL165:
	.loc 1 590 13 is_stmt 1
	.loc 1 590 17 is_stmt 0
	ori	a5,a5,8
.LVL166:
	j	.L189
.L81:
	.loc 1 511 5
	li	a5,13
	beq	a1,a5,.L93
	bgt	a1,a5,.L94
	li	a5,11
	beq	a1,a5,.L95
	li	a5,12
	beq	a1,a5,.L96
	li	a5,10
	bne	a1,a5,.L187
	.loc 1 626 13 is_stmt 1
	.loc 1 626 21 is_stmt 0
	lw	a0,132(s1)
.LVL167:
	.loc 1 626 17
	extu	a0,a0,8+6-1,8
.LVL168:
	.loc 1 627 13 is_stmt 1
	j	.L77
.LVL169:
.L94:
	.loc 1 511 5 is_stmt 0
	li	a5,15
	beq	a1,a5,.L98
	li	a5,16
	beq	a1,a5,.L99
	li	a5,14
	bne	a1,a5,.L187
	.loc 1 673 13 is_stmt 1
	.loc 1 673 20 is_stmt 0
	lw	a5,0(s1)
.LVL170:
	.loc 1 674 13 is_stmt 1
	.loc 1 674 20 is_stmt 0
	andi	a5,a5,-9
.LVL171:
	.loc 1 675 13 is_stmt 1
	.loc 1 675 16 is_stmt 0
	beq	a2,zero,.L151
	.loc 1 676 17 is_stmt 1
	.loc 1 676 24 is_stmt 0
	ori	a5,a5,8
.LVL172:
	.loc 1 679 13 is_stmt 1
.L151:
	.loc 1 886 13
	.loc 1 886 66 is_stmt 0
	sw	a5,0(s1)
	.loc 1 887 13 is_stmt 1
	j	.L180
.LVL173:
.L79:
	.loc 1 511 5 is_stmt 0
	li	a5,25
	beq	a1,a5,.L101
	bgt	a1,a5,.L102
	li	a5,21
	beq	a1,a5,.L103
	bgt	a1,a5,.L104
	li	a5,19
	beq	a1,a5,.L105
	li	a5,20
	beq	a1,a5,.L106
	li	a5,18
	bne	a1,a5,.L187
	.loc 1 726 13 is_stmt 1
	.loc 1 726 20 is_stmt 0
	lw	a5,84(s1)
.LVL174:
	.loc 1 727 13 is_stmt 1
	.loc 1 727 20 is_stmt 0
	andi	a5,a5,-3
.LVL175:
	.loc 1 729 13 is_stmt 1
	.loc 1 729 16 is_stmt 0
	beq	a2,zero,.L132
	.loc 1 730 17 is_stmt 1
	.loc 1 730 24 is_stmt 0
	ori	a5,a5,2
.LVL176:
	j	.L132
.LVL177:
.L104:
	.loc 1 511 5
	li	a5,23
	beq	a1,a5,.L108
	li	a5,24
	beq	a1,a5,.L109
	li	a5,22
	bne	a1,a5,.L187
	.loc 1 805 13 is_stmt 1
	.loc 1 805 20 is_stmt 0
	lw	a4,0(s1)
.LVL178:
	.loc 1 807 13 is_stmt 1
	.loc 1 810 24 is_stmt 0
	andi	a5,a4,-5
	.loc 1 807 16
	beq	a2,zero,.L151
	.loc 1 808 17 is_stmt 1
	.loc 1 808 24 is_stmt 0
	ori	a5,a4,4
.LVL179:
	.loc 1 813 13 is_stmt 1
	j	.L151
.LVL180:
.L102:
	.loc 1 511 5 is_stmt 0
	li	a5,35
	beq	a1,a5,.L111
	bgt	a1,a5,.L112
	li	a5,33
	beq	a1,a5,.L113
	li	a5,34
	beq	a1,a5,.L114
	li	a5,32
	bne	a1,a5,.L187
	.loc 1 844 13 is_stmt 1
	.loc 1 844 20 is_stmt 0
	lw	a5,4(s1)
.LVL181:
	.loc 1 845 13 is_stmt 1
	.loc 1 846 13
	.loc 1 846 29 is_stmt 0
	addi	a2,a2,-1
.LVL182:
	.loc 1 846 20
	pkbb16	a5,a2,a5
.LVL183:
	j	.L191
.LVL184:
.L112:
	.loc 1 511 5
	li	a5,37
	beq	a1,a5,.L116
	li	a5,38
	beq	a1,a5,.L117
	li	a5,36
	bne	a1,a5,.L187
	.loc 1 880 13 is_stmt 1
	.loc 1 880 20 is_stmt 0
	lw	a4,0(s1)
.LVL185:
	.loc 1 881 13 is_stmt 1
	.loc 1 884 24 is_stmt 0
	andi	a5,a4,-3
	.loc 1 881 16
	beq	a2,zero,.L151
	.loc 1 882 17 is_stmt 1
	.loc 1 882 24 is_stmt 0
	ori	a5,a4,2
.LVL186:
	j	.L151
.LVL187:
.L86:
	.loc 1 513 13 is_stmt 1
	call	qcc74x_uart_deinit
.LVL188:
	.loc 1 516 13
	.loc 1 516 20 is_stmt 0
	lbu	a1,9(s0)
	li	a0,5
	call	qcc74x_clk_get_peripheral_clock
.LVL189:
	.loc 1 518 13 is_stmt 1
	.loc 1 516 65 is_stmt 0
	li	a2,10
	mul	a5,a0,a2
	.loc 1 516 70
	divu	a5,a5,s2
	.loc 1 516 76
	addi	a5,a5,5
	.loc 1 516 17
	divu	a5,a5,a2
.LVL190:
	.loc 1 518 75
	addi	a5,a5,-1
.LVL191:
	.loc 1 518 89
	pkbb16	a5,a5,a5
.LVL192:
	.loc 1 518 66
	sw	a5,8(s1)
	.loc 1 519 13 is_stmt 1
.LVL193:
.L188:
	.loc 1 577 13
	mv	a0,s0
	call	qcc74x_uart_enable
.LVL194:
	.loc 1 578 13
.L180:
	.loc 1 899 13
	.loc 1 502 9 is_stmt 0
	li	a0,0
	.loc 1 923 5 is_stmt 1
	.loc 1 923 12 is_stmt 0
	j	.L77
.LVL195:
.L87:
	.loc 1 523 13 is_stmt 1
	call	qcc74x_uart_deinit
.LVL196:
	.loc 1 526 13
	.loc 1 526 20 is_stmt 0
	lw	a4,0(s1)
.LVL197:
	.loc 1 527 13 is_stmt 1
	.loc 1 527 20 is_stmt 0
	lw	a2,4(s1)
.LVL198:
	.loc 1 529 13 is_stmt 1
	.loc 1 530 28 is_stmt 0
	addi	a5,s2,4
	.loc 1 530 33
	slli	a5,a5,8
	.loc 1 529 20
	andi	a4,a4,-1793
.LVL199:
	.loc 1 530 13 is_stmt 1
	.loc 1 530 20 is_stmt 0
	or	a4,a5,a4
.LVL200:
	.loc 1 532 13 is_stmt 1
	.loc 1 532 20 is_stmt 0
	andi	a2,a2,-1793
.LVL201:
	.loc 1 533 13 is_stmt 1
	.loc 1 533 20 is_stmt 0
	or	a5,a5,a2
.LVL202:
	.loc 1 535 13 is_stmt 1
	.loc 1 535 66 is_stmt 0
	sw	a4,0(s1)
	.loc 1 536 13 is_stmt 1
	.loc 1 536 66 is_stmt 0
	sw	a5,4(s1)
	.loc 1 537 13 is_stmt 1
	j	.L188
.LVL203:
.L84:
	.loc 1 541 13
	call	qcc74x_uart_deinit
.LVL204:
	.loc 1 544 13
	.loc 1 544 20 is_stmt 0
	lw	a5,0(s1)
.LVL205:
	.loc 1 546 13 is_stmt 1
	.loc 1 546 20 is_stmt 0
	li	a2,-8192
	addi	a2,a2,2047
	and	a2,a5,a2
.LVL206:
	.loc 1 547 13 is_stmt 1
	.loc 1 547 27 is_stmt 0
	slli	a5,s2,11
	.loc 1 547 20
	or	a5,a5,a2
.LVL207:
	.loc 1 549 13 is_stmt 1
	.loc 1 549 66 is_stmt 0
	sw	a5,0(s1)
	.loc 1 550 13 is_stmt 1
	j	.L188
.LVL208:
.L119:
	.loc 1 563 20
	.loc 1 563 23 is_stmt 0
	li	a5,1
	bne	s2,a5,.L121
	.loc 1 564 17 is_stmt 1
.LVL209:
	.loc 1 565 17
	.loc 1 565 24 is_stmt 0
	ori	a3,a3,48
.LVL210:
	.loc 1 566 17 is_stmt 1
	.loc 1 567 17
	.loc 1 567 24 is_stmt 0
	ori	a4,a4,48
.LVL211:
	j	.L120
.L121:
	.loc 1 568 20 is_stmt 1
	.loc 1 568 23 is_stmt 0
	li	a5,2
	bne	s2,a5,.L120
	.loc 1 569 17 is_stmt 1
.LVL212:
	.loc 1 570 17
	andi	a3,a3,-33
.LVL213:
	andi	a4,a4,-33
.LVL214:
	.loc 1 570 24 is_stmt 0
	ori	a3,a3,16
.LVL215:
	.loc 1 571 17 is_stmt 1
	.loc 1 572 17
	.loc 1 572 24 is_stmt 0
	ori	a4,a4,16
.LVL216:
	j	.L120
.LVL217:
.L82:
	.loc 1 582 13 is_stmt 1
	.loc 1 582 17 is_stmt 0
	lw	a5,128(s1)
.LVL218:
	.loc 1 583 13 is_stmt 1
	.loc 1 583 17 is_stmt 0
	ori	a5,a5,4
.LVL219:
	.loc 1 584 13 is_stmt 1
.L189:
	.loc 1 591 13
	.loc 1 591 67 is_stmt 0
	sw	a5,128(s1)
	.loc 1 592 13 is_stmt 1
	j	.L180
.LVL220:
.L90:
	.loc 1 596 13
	.loc 1 596 67 is_stmt 0
	sw	a2,24(s1)
	.loc 1 598 13 is_stmt 1
	.loc 1 598 22 is_stmt 0
	lw	a4,36(s1)
.LVL221:
	.loc 1 599 13 is_stmt 1
	.loc 1 602 26 is_stmt 0
	andi	a5,a4,-17
	.loc 1 599 16
	bne	a2,zero,.L147
	.loc 1 600 17 is_stmt 1
	.loc 1 600 26 is_stmt 0
	ori	a5,a4,16
.LVL222:
	.loc 1 604 13 is_stmt 1
.L147:
	.loc 1 833 13
	.loc 1 833 67 is_stmt 0
	sw	a5,36(s1)
	.loc 1 834 13 is_stmt 1
	j	.L180
.LVL223:
.L91:
	.loc 1 611 13
	.loc 1 611 17 is_stmt 0
	lw	a5,28(s1)
.LVL224:
	.loc 1 612 13 is_stmt 1
	.loc 1 612 17 is_stmt 0
	andi	a5,a5,-9
.LVL225:
	.loc 1 613 13 is_stmt 1
	.loc 1 613 16 is_stmt 0
	beq	a2,zero,.L190
	.loc 1 614 17 is_stmt 1
	.loc 1 614 21 is_stmt 0
	ori	a5,a5,8
.LVL226:
	.loc 1 616 13 is_stmt 1
.L190:
	.loc 1 765 17
	.loc 1 765 71 is_stmt 0
	sw	a5,28(s1)
	j	.L180
.LVL227:
.L80:
	.loc 1 622 13 is_stmt 1
	.loc 1 622 21 is_stmt 0
	lw	a0,132(s1)
.LVL228:
	.loc 1 622 17
	andi	a0,a0,63
.LVL229:
	.loc 1 623 13 is_stmt 1
	j	.L77
.LVL230:
.L95:
	.loc 1 630 13
	.loc 1 630 17 is_stmt 0
	lw	a5,4(s1)
.LVL231:
	.loc 1 631 13 is_stmt 1
	.loc 1 631 20 is_stmt 0
	lw	a4,36(s1)
.LVL232:
	.loc 1 632 13 is_stmt 1
	.loc 1 633 16 is_stmt 0
	li	a3,1
	.loc 1 632 17
	andi	a5,a5,-3
.LVL233:
	.loc 1 633 13 is_stmt 1
	.loc 1 633 16 is_stmt 0
	bne	a2,a3,.L125
	.loc 1 634 17 is_stmt 1
	.loc 1 636 24 is_stmt 0
	li	a3,-4096
	addi	a3,a3,2047
	.loc 1 634 21
	ori	a5,a5,2
.LVL234:
	.loc 1 636 17 is_stmt 1
	.loc 1 636 24 is_stmt 0
	and	a4,a4,a3
.LVL235:
.L126:
	.loc 1 647 13 is_stmt 1
	.loc 1 647 66 is_stmt 0
	sw	a5,4(s1)
	.loc 1 648 13 is_stmt 1
	.loc 1 648 67 is_stmt 0
	sw	a4,36(s1)
	.loc 1 649 13 is_stmt 1
	j	.L180
.L125:
	.loc 1 638 20
	.loc 1 638 23 is_stmt 0
	bne	a2,zero,.L126
	.loc 1 639 17 is_stmt 1
	.loc 1 639 21 is_stmt 0
	ori	a5,a5,2
.LVL236:
	.loc 1 641 17 is_stmt 1
	.loc 1 641 24 is_stmt 0
	andi	a4,a4,-1025
.LVL237:
	j	.L126
.LVL238:
.L96:
	.loc 1 653 13 is_stmt 1
	.loc 1 653 17 is_stmt 0
	lw	a5,52(s1)
.LVL239:
	.loc 1 654 13 is_stmt 1
	.loc 1 657 50 is_stmt 0
	srli	a0,a5,16
.LVL240:
	.loc 1 654 16
	bne	a2,zero,.L77
	.loc 1 655 17 is_stmt 1
	.loc 1 655 21 is_stmt 0
	extu	a0,a5,15,0
.LVL241:
	j	.L77
.LVL242:
.L93:
	.loc 1 663 13 is_stmt 1
	.loc 1 663 20 is_stmt 0
	lw	a5,0(s1)
.LVL243:
	.loc 1 665 13 is_stmt 1
	.loc 1 665 20 is_stmt 0
	li	a4,-57344
	addi	a4,a4,-1
	and	a5,a5,a4
.LVL244:
	.loc 1 666 13 is_stmt 1
	.loc 1 666 27 is_stmt 0
	slli	a2,a2,13
.LVL245:
	.loc 1 666 20
	or	a2,a2,a5
.LVL246:
	.loc 1 668 13 is_stmt 1
	.loc 1 668 66 is_stmt 0
	sw	a2,0(s1)
	.loc 1 669 13 is_stmt 1
	j	.L180
.LVL247:
.L98:
	.loc 1 684 13
	.loc 1 684 20 is_stmt 0
	lw	a5,4(s1)
.LVL248:
	.loc 1 685 13 is_stmt 1
	.loc 1 685 20 is_stmt 0
	andi	a5,a5,-9
.LVL249:
	.loc 1 686 13 is_stmt 1
	.loc 1 686 16 is_stmt 0
	beq	a2,zero,.L191
	.loc 1 687 17 is_stmt 1
	.loc 1 687 24 is_stmt 0
	ori	a5,a5,8
.LVL250:
	.loc 1 690 13 is_stmt 1
.L191:
	.loc 1 847 13
	.loc 1 847 66 is_stmt 0
	sw	a5,4(s1)
	.loc 1 848 13 is_stmt 1
	j	.L180
.LVL251:
.L99:
	.loc 1 697 13
	.loc 1 697 20 is_stmt 0
	lw	a5,4(s1)
.LVL252:
	.loc 1 699 13 is_stmt 1
	.loc 1 700 13
	.loc 1 700 20 is_stmt 0
	li	a4,-65536
	addi	a4,a4,2047
	and	a5,a5,a4
.LVL253:
	.loc 1 701 13 is_stmt 1
	.loc 1 701 16 is_stmt 0
	beq	a2,zero,.L191
	.loc 1 702 17 is_stmt 1
	.loc 1 702 42 is_stmt 0
	li	a4,61440
	.loc 1 702 32
	slli	a2,a2,12
.LVL254:
	.loc 1 702 42
	and	a2,a2,a4
	.loc 1 703 24
	li	a4,4096
	.loc 1 702 24
	or	a5,a2,a5
.LVL255:
	.loc 1 703 17 is_stmt 1
	.loc 1 703 24 is_stmt 0
	addi	a4,a4,-2048
	or	a5,a5,a4
.LVL256:
	.loc 1 708 13 is_stmt 1
	j	.L191
.LVL257:
.L78:
	.loc 1 714 13
	.loc 1 714 20 is_stmt 0
	lw	a5,84(s1)
.LVL258:
	.loc 1 715 13 is_stmt 1
	.loc 1 715 20 is_stmt 0
	andi	a5,a5,-2
.LVL259:
	.loc 1 717 13 is_stmt 1
	.loc 1 717 16 is_stmt 0
	beq	a2,zero,.L132
	.loc 1 718 17 is_stmt 1
	.loc 1 718 24 is_stmt 0
	ori	a5,a5,1
.LVL260:
	.loc 1 721 13 is_stmt 1
.L132:
	.loc 1 733 13
	.loc 1 733 67 is_stmt 0
	sw	a5,84(s1)
	.loc 1 734 13 is_stmt 1
	j	.L180
.LVL261:
.L105:
	.loc 1 738 13
	.loc 1 738 20 is_stmt 0
	lw	a5,72(s1)
.LVL262:
	.loc 1 739 13 is_stmt 1
	.loc 1 739 20 is_stmt 0
	andi	a5,a5,-256
.LVL263:
	.loc 1 740 13 is_stmt 1
	.loc 1 740 20 is_stmt 0
	or	a2,a2,a5
.LVL264:
	.loc 1 742 13 is_stmt 1
	.loc 1 742 67 is_stmt 0
	sw	a2,72(s1)
	.loc 1 743 13 is_stmt 1
	j	.L180
.LVL265:
.L106:
	.loc 1 757 13
	.loc 1 758 24 is_stmt 0
	lw	a5,28(s1)
	.loc 1 757 16
	beq	a2,zero,.L133
	.loc 1 758 17 is_stmt 1
.LVL266:
	.loc 1 759 17
	.loc 1 759 24 is_stmt 0
	ori	a5,a5,4
.LVL267:
	.loc 1 760 17 is_stmt 1
	j	.L190
.LVL268:
.L133:
	.loc 1 763 17
	.loc 1 764 17
	.loc 1 764 24 is_stmt 0
	andi	a5,a5,-5
.LVL269:
	j	.L190
.L103:
.LBB6:
	.loc 1 771 13 is_stmt 1
.LVL270:
	.loc 1 772 13
	.loc 1 772 20 is_stmt 0
	lw	a4,0(s1)
.LVL271:
	.loc 1 773 13 is_stmt 1
	.loc 1 773 16 is_stmt 0
	lbu	a3,0(a2)
	.loc 1 776 24
	andi	a5,a4,-65
	.loc 1 773 16
	beq	a3,zero,.L135
	.loc 1 774 17 is_stmt 1
	.loc 1 774 24 is_stmt 0
	ori	a5,a4,64
.LVL272:
.L135:
	.loc 1 778 13 is_stmt 1
	.loc 1 778 16 is_stmt 0
	lbu	a3,2(a2)
	.loc 1 781 24
	andi	a4,a5,-129
	.loc 1 778 16
	beq	a3,zero,.L137
	.loc 1 779 17 is_stmt 1
	.loc 1 779 24 is_stmt 0
	ori	a4,a5,128
.LVL273:
.L137:
	.loc 1 783 13 is_stmt 1
	.loc 1 783 66 is_stmt 0
	sw	a4,0(s1)
	.loc 1 785 13 is_stmt 1
	.loc 1 785 20 is_stmt 0
	lw	a4,4(s1)
.LVL274:
	.loc 1 786 13 is_stmt 1
	.loc 1 786 16 is_stmt 0
	lbu	a3,1(a2)
	.loc 1 789 24
	andi	a5,a4,-65
	.loc 1 786 16
	beq	a3,zero,.L139
	.loc 1 787 17 is_stmt 1
	.loc 1 787 24 is_stmt 0
	ori	a5,a4,64
.LVL275:
.L139:
	.loc 1 791 13 is_stmt 1
	.loc 1 791 16 is_stmt 0
	lbu	a3,3(a2)
	.loc 1 794 24
	andi	a4,a5,-129
	.loc 1 791 16
	beq	a3,zero,.L141
	.loc 1 792 17 is_stmt 1
	.loc 1 792 24 is_stmt 0
	ori	a4,a5,128
.LVL276:
.L141:
	.loc 1 796 13 is_stmt 1
	lhu	a5,6(a2)
	.loc 1 796 66 is_stmt 0
	sw	a4,4(s1)
.LVL277:
	.loc 1 798 13 is_stmt 1
	lhu	a4,4(a2)
.LVL278:
	slli	a5,a5,16
	or	a5,a5,a4
	.loc 1 798 67 is_stmt 0
	sw	a5,16(s1)
.LVL279:
	.loc 1 800 13 is_stmt 1
	.loc 1 800 79 is_stmt 0
	lhu	a5,8(a2)
	.loc 1 800 67
	sw	a5,20(s1)
.LBE6:
	.loc 1 801 11 is_stmt 1
	j	.L180
.LVL280:
.L108:
	.loc 1 817 13
	.loc 1 817 22 is_stmt 0
	lw	a4,36(s1)
.LVL281:
	.loc 1 818 13 is_stmt 1
	.loc 1 821 26 is_stmt 0
	ori	a5,a4,1
	.loc 1 818 16
	beq	a2,zero,.L147
	.loc 1 819 17 is_stmt 1
	.loc 1 819 26 is_stmt 0
	andi	a5,a4,-2
.LVL282:
	.loc 1 823 13 is_stmt 1
	j	.L147
.LVL283:
.L109:
	.loc 1 827 13
	.loc 1 827 22 is_stmt 0
	lw	a4,36(s1)
.LVL284:
	.loc 1 828 13 is_stmt 1
	.loc 1 831 26 is_stmt 0
	ori	a5,a4,2
	.loc 1 828 16
	beq	a2,zero,.L147
	.loc 1 829 17 is_stmt 1
	.loc 1 829 26 is_stmt 0
	andi	a5,a4,-3
.LVL285:
	j	.L147
.LVL286:
.L101:
	.loc 1 837 13 is_stmt 1
	.loc 1 837 20 is_stmt 0
	lw	a5,0(s1)
.LVL287:
	.loc 1 838 13 is_stmt 1
	.loc 1 839 13
	.loc 1 839 29 is_stmt 0
	addi	a2,a2,-1
.LVL288:
	.loc 1 839 20
	pkbb16	a5,a2,a5
.LVL289:
	.loc 1 840 13 is_stmt 1
	j	.L151
.LVL290:
.L113:
	.loc 1 851 13
	.loc 1 851 20 is_stmt 0
	lw	a4,0(s1)
.LVL291:
	.loc 1 853 13 is_stmt 1
	.loc 1 856 24 is_stmt 0
	andi	a5,a4,-2
	.loc 1 853 16
	beq	a2,zero,.L151
	.loc 1 854 17 is_stmt 1
	.loc 1 854 24 is_stmt 0
	ori	a5,a4,1
.LVL292:
	.loc 1 859 13 is_stmt 1
	j	.L151
.LVL293:
.L114:
	.loc 1 864 13
	.loc 1 864 22 is_stmt 0
	lw	a5,36(s1)
.LVL294:
	.loc 1 865 13 is_stmt 1
	.loc 1 869 20 is_stmt 0
	li	a4,-65536
	.loc 1 865 22
	andi	a5,a5,-513
.LVL295:
	.loc 1 866 13 is_stmt 1
	.loc 1 866 67 is_stmt 0
	sw	a5,36(s1)
	.loc 1 868 13 is_stmt 1
	.loc 1 868 20 is_stmt 0
	lw	a5,80(s1)
.LVL296:
	.loc 1 869 13 is_stmt 1
	.loc 1 869 20 is_stmt 0
	and	a5,a5,a4
.LVL297:
	.loc 1 870 13 is_stmt 1
	.loc 1 870 20 is_stmt 0
	or	a2,a2,a5
.LVL298:
	.loc 1 871 13 is_stmt 1
	.loc 1 871 67 is_stmt 0
	sw	a2,80(s1)
.LVL299:
	.loc 1 872 13 is_stmt 1
	j	.L180
.LVL300:
.L111:
	.loc 1 875 13
	.loc 1 875 20 is_stmt 0
	lw	a0,80(s1)
.LVL301:
	.loc 1 876 13 is_stmt 1
	.loc 1 876 49 is_stmt 0
	srli	a0,a0,16
.LVL302:
	.loc 1 877 13 is_stmt 1
	j	.L77
.LVL303:
.L116:
	.loc 1 889 13
	.loc 1 889 20 is_stmt 0
	lw	a5,132(s1)
.LVL304:
	.loc 1 890 13 is_stmt 1
	.loc 1 890 20 is_stmt 0
	li	a4,-2031616
	addi	a4,a4,-1
	and	a5,a5,a4
.LVL305:
	.loc 1 891 13 is_stmt 1
	.loc 1 891 28 is_stmt 0
	slli	a2,a2,16
.LVL306:
	.loc 1 891 38
	li	a4,2031616
.LVL307:
.L181:
	.loc 1 897 38
	and	a2,a2,a4
	.loc 1 897 20
	or	a2,a2,a5
.LVL308:
	.loc 1 898 13 is_stmt 1
	.loc 1 898 67 is_stmt 0
	sw	a2,132(s1)
	j	.L180
.LVL309:
.L117:
	.loc 1 895 13 is_stmt 1
	.loc 1 895 20 is_stmt 0
	lw	a5,132(s1)
.LVL310:
	.loc 1 896 13 is_stmt 1
	.loc 1 896 20 is_stmt 0
	li	a4,-520093696
	addi	a4,a4,-1
	and	a5,a5,a4
.LVL311:
	.loc 1 897 13 is_stmt 1
	.loc 1 897 28 is_stmt 0
	slli	a2,a2,24
.LVL312:
	.loc 1 897 38
	li	a4,520093696
	j	.L181
	.cfi_endproc
.LFE25:
	.size	qcc74x_uart_feature_control, .-qcc74x_uart_feature_control
	.text
.Letext0:
	.file 2 "./toolchain/linux_x86_64/riscv64-unknown-elf/include/machine/_default_types.h"
	.file 3 "./toolchain/linux_x86_64/riscv64-unknown-elf/include/sys/_stdint.h"
	.file 4 "./toolchain/linux_x86_64/lib/gcc/riscv64-unknown-elf/10.4.0/include/stddef.h"
	.file 5 "./drivers/lhal/include/qcc74x_core.h"
	.file 6 "./drivers/lhal/include/qcc74x_uart.h"
	.file 7 "./drivers/lhal/include/qcc74x_clock.h"
	.file 8 "./drivers/lhal/include/qcc74x_mtimer.h"