	.file	"qcc74x_sec_sha.c"
	.option nopic
	.attribute arch, "rv32i2p0_m2p0_a2p0_f2p0_c2p0_p0p9_zpn0p9_zpsfoperand0p9_xtheade2p0"
	.attribute unaligned_access, 0
	.attribute stack_align, 16
	.text
.Ltext0:
	.cfi_sections	.debug_frame
	.section	.text.qcc74x_sha_init,"ax",@progbits
	.align	1
	.globl	qcc74x_sha_init
	.type	qcc74x_sha_init, @function
qcc74x_sha_init:
.LFB5:
	.file 1 "./drivers/lhal/src/qcc74x_sec_sha.c"
	.loc 1 31 1
	.cfi_startproc
.LVL0:
	.loc 1 35 5
	.loc 1 36 5
	.loc 1 38 5
	.loc 1 40 5
	.loc 1 40 16 is_stmt 0
	lw	a3,4(a0)
	.loc 1 42 12
	li	a4,-12288
	addi	a4,a4,-29
	.loc 1 40 12
	lw	a5,0(a3)
.LVL1:
	.loc 1 41 5 is_stmt 1
	.loc 1 42 5
	.loc 1 42 12 is_stmt 0
	and	a5,a5,a4
.LVL2:
	.loc 1 43 5 is_stmt 1
	.loc 1 43 8 is_stmt 0
	li	a4,7
	bgtu	a1,a4,.L2
	.loc 1 44 9 is_stmt 1
	.loc 1 44 25 is_stmt 0
	slli	a1,a1,2
.LVL3:
.L4:
	.loc 1 46 16
	or	a1,a1,a5
.LVL4:
	.loc 1 49 5 is_stmt 1
	.loc 1 49 58 is_stmt 0
	sw	a1,0(a3)
.LVL5:
	.loc 1 51 1
	ret
.LVL6:
.L2:
	.loc 1 46 9 is_stmt 1
	.loc 1 46 26 is_stmt 0
	addi	a1,a1,-7
.LVL7:
	.loc 1 46 31
	slli	a1,a1,12
	j	.L4
	.cfi_endproc
.LFE5:
	.size	qcc74x_sha_init, .-qcc74x_sha_init
	.section	.text.qcc74x_sha1_start,"ax",@progbits
	.align	1
	.globl	qcc74x_sha1_start
	.type	qcc74x_sha1_start, @function
qcc74x_sha1_start:
.LFB6:
	.loc 1 54 1 is_stmt 1
	.cfi_startproc
.LVL8:
	.loc 1 58 5
	.loc 1 59 5
	.loc 1 61 5
	.loc 1 54 1 is_stmt 0
	addi	sp,sp,-16
	.cfi_def_cfa_offset 16
	sw	s1,4(sp)
	.cfi_offset 9, -12
	mv	s1,a1
	sw	s0,8(sp)
	.loc 1 63 5
	li	a2,192
	.cfi_offset 8, -8
	.loc 1 61 14
	lw	s0,4(a0)
.LVL9:
	.loc 1 63 5 is_stmt 1
	li	a1,0
.LVL10:
	mv	a0,s1
.LVL11:
	.loc 1 54 1 is_stmt 0
	sw	ra,12(sp)
	.cfi_offset 1, -4
	.loc 1 63 5
	call	arch_memset
.LVL12:
	.loc 1 64 5 is_stmt 1
	.loc 1 64 25 is_stmt 0
	li	a5,-128
	sb	a5,96(s1)
	.loc 1 66 5 is_stmt 1
	.loc 1 66 12 is_stmt 0
	lw	a5,0(s0)
.LVL13:
	.loc 1 67 5 is_stmt 1
	.loc 1 68 5
	.loc 1 71 1 is_stmt 0
	lw	ra,12(sp)
	.cfi_restore 1
	lw	s1,4(sp)
	.cfi_restore 9
.LVL14:
	andi	a5,a5,-65
.LVL15:
	.loc 1 68 12
	ori	a5,a5,32
.LVL16:
	.loc 1 69 5 is_stmt 1
	.loc 1 69 58 is_stmt 0
	sw	a5,0(s0)
	.loc 1 71 1
	lw	s0,8(sp)
	.cfi_restore 8
.LVL17:
	addi	sp,sp,16
	.cfi_def_cfa_offset 0
	jr	ra
	.cfi_endproc
.LFE6:
	.size	qcc74x_sha1_start, .-qcc74x_sha1_start
	.section	.text.qcc74x_sha256_start,"ax",@progbits
	.align	1
	.globl	qcc74x_sha256_start
	.type	qcc74x_sha256_start, @function
qcc74x_sha256_start:
.LFB7:
	.loc 1 74 1 is_stmt 1
	.cfi_startproc
.LVL18:
	.loc 1 78 5
	.loc 1 78 12 is_stmt 0
	tail	qcc74x_sha1_start
.LVL19:
	.cfi_endproc
.LFE7:
	.size	qcc74x_sha256_start, .-qcc74x_sha256_start
	.section	.text.qcc74x_sha512_start,"ax",@progbits
	.align	1
	.globl	qcc74x_sha512_start
	.type	qcc74x_sha512_start, @function
qcc74x_sha512_start:
.LFB8:
	.loc 1 83 1 is_stmt 1
	.cfi_startproc
.LVL20:
	.loc 1 87 5
	.loc 1 88 5
	.loc 1 90 5
	.loc 1 83 1 is_stmt 0
	addi	sp,sp,-16
	.cfi_def_cfa_offset 16
	sw	s1,4(sp)
	.cfi_offset 9, -12
	mv	s1,a1
	sw	s0,8(sp)
	.loc 1 92 5
	li	a2,320
	.cfi_offset 8, -8
	.loc 1 90 14
	lw	s0,4(a0)
.LVL21:
	.loc 1 92 5 is_stmt 1
	li	a1,0
.LVL22:
	mv	a0,s1
.LVL23:
	.loc 1 83 1 is_stmt 0
	sw	ra,12(sp)
	.cfi_offset 1, -4
	.loc 1 92 5
	call	arch_memset
.LVL24:
	.loc 1 93 5 is_stmt 1
	.loc 1 93 25 is_stmt 0
	li	a5,-128
	sb	a5,160(s1)
	.loc 1 95 5 is_stmt 1
	.loc 1 95 12 is_stmt 0
	lw	a5,0(s0)
.LVL25:
	.loc 1 96 5 is_stmt 1
	.loc 1 97 5
	.loc 1 100 1 is_stmt 0
	lw	ra,12(sp)
	.cfi_restore 1
	lw	s1,4(sp)
	.cfi_restore 9
.LVL26:
	andi	a5,a5,-65
.LVL27:
	.loc 1 97 12
	ori	a5,a5,32
.LVL28:
	.loc 1 98 5 is_stmt 1
	.loc 1 98 58 is_stmt 0
	sw	a5,0(s0)
	.loc 1 100 1
	lw	s0,8(sp)
	.cfi_restore 8
.LVL29:
	addi	sp,sp,16
	.cfi_def_cfa_offset 0
	jr	ra
	.cfi_endproc
.LFE8:
	.size	qcc74x_sha512_start, .-qcc74x_sha512_start
	.section	.text.qcc74x_sha1_update,"ax",@progbits
	.align	1
	.globl	qcc74x_sha1_update
	.type	qcc74x_sha1_update, @function
qcc74x_sha1_update:
.LFB9:
	.loc 1 103 1 is_stmt 1
	.cfi_startproc
.LVL30:
	.loc 1 107 5
	.loc 1 108 5
	.loc 1 109 5
	.loc 1 110 5
	.loc 1 111 5
	.loc 1 113 5
	.loc 1 113 8 is_stmt 0
	bne	a3,zero,.L11
	.loc 1 114 16
	li	a0,0
.LVL31:
	.loc 1 206 1
	ret
.LVL32:
.L11:
	.loc 1 103 1
	addi	sp,sp,-48
	.cfi_def_cfa_offset 48
	sw	s2,32(sp)
	.cfi_offset 18, -16
	lw	s2,4(a0)
.LVL33:
	sw	s0,40(sp)
	sw	s1,36(sp)
	sw	s4,24(sp)
	sw	s5,20(sp)
	sw	ra,44(sp)
	sw	s3,28(sp)
	sw	s6,16(sp)
	sw	s7,12(sp)
	sw	s8,8(sp)
	.cfi_offset 8, -8
	.cfi_offset 9, -12
	.cfi_offset 20, -24
	.cfi_offset 21, -28
	.cfi_offset 1, -4
	.cfi_offset 19, -20
	.cfi_offset 22, -32
	.cfi_offset 23, -36
	.cfi_offset 24, -40
.LBB4:
.LBB5:
	.loc 1 119 12
	lw	a5,0(s2)
	.loc 1 121 8
	lbu	a4,160(a1)
	mv	s0,a1
	mv	s4,a2
.LVL34:
	mv	s1,a3
.LVL35:
	.loc 1 117 5 is_stmt 1
	.loc 1 119 5
	.loc 1 121 5
	.loc 1 124 16 is_stmt 0
	andi	s5,a5,-65
	.loc 1 121 8
	beq	a4,zero,.L14
.LVL36:
	.loc 1 122 9 is_stmt 1
	.loc 1 122 16 is_stmt 0
	ori	s5,a5,64
.LVL37:
.L14:
	.loc 1 127 5 is_stmt 1
	.loc 1 127 22 is_stmt 0
	lw	a5,0(s0)
	.loc 1 127 10
	andi	s3,a5,63
.LVL38:
	.loc 1 128 5 is_stmt 1
	.loc 1 130 5
	.loc 1 130 19 is_stmt 0
	add	a5,s1,a5
	sw	a5,0(s0)
	.loc 1 131 5 is_stmt 1
	.loc 1 133 5
	.loc 1 133 8 is_stmt 0
	bleu	s1,a5,.L15
	.loc 1 134 9 is_stmt 1
	.loc 1 134 22 is_stmt 0
	lw	a5,4(s0)
	addi	a5,a5,1
	sw	a5,4(s0)
.L15:
	.loc 1 137 5 is_stmt 1
	.loc 1 137 8 is_stmt 0
	beq	s3,zero,.L16
	.loc 1 128 10
	li	s6,64
	sub	s6,s6,s3
	.loc 1 137 14
	bltu	s1,s6,.L16
	.loc 1 138 9 is_stmt 1
	.loc 1 138 46 is_stmt 0
	addi	s7,s0,32
	.loc 1 138 9
	mv	a1,s4
	add	a0,s7,s3
.LVL39:
	mv	a2,s6
.LVL40:
	call	arch_memcpy_fast
.LVL41:
	.loc 1 139 9 is_stmt 1
	.loc 1 141 16 is_stmt 0
	li	a5,65536
	extu	s5,s5,15,0
.LVL42:
	.loc 1 139 62
	sw	s7,4(s2)
	.loc 1 141 9 is_stmt 1
.LVL43:
	.loc 1 142 9
	.loc 1 142 16 is_stmt 0
	or	a4,s5,a5
.LVL44:
	.loc 1 143 9 is_stmt 1
	.loc 1 145 16 is_stmt 0
	addi	a5,a5,2
	.loc 1 143 62
	sw	a4,0(s2)
	.loc 1 145 9 is_stmt 1
	.loc 1 145 16 is_stmt 0
	or	s5,s5,a5
.LVL45:
	.loc 1 146 9 is_stmt 1
	.loc 1 150 13 is_stmt 0
	addi	s3,s3,-64
.LVL46:
	.loc 1 146 62
	sw	s5,0(s2)
	.loc 1 148 9 is_stmt 1
	.loc 1 148 23 is_stmt 0
	li	a5,1
	.loc 1 150 13
	add	s1,s1,s3
.LVL47:
	.loc 1 148 23
	sb	a5,160(s0)
	.loc 1 149 9 is_stmt 1
	.loc 1 149 15 is_stmt 0
	add	s4,s4,s6
.LVL48:
	.loc 1 150 9 is_stmt 1
	.loc 1 151 9
	.loc 1 151 14 is_stmt 0
	li	s3,0
.LVL49:
.L16:
	.loc 1 154 5 is_stmt 1
	.loc 1 155 5
	.loc 1 157 8 is_stmt 0
	li	a5,63
	.loc 1 155 9
	andi	s5,s1,63
.LVL50:
	.loc 1 157 5 is_stmt 1
	.loc 1 157 8 is_stmt 0
	bleu	s1,a5,.L17
	.loc 1 158 9 is_stmt 1
	.loc 1 158 22 is_stmt 0
	call	qcc74x_mtimer_get_time_ms
.LVL51:
	mv	s6,a0
	mv	s7,a1
.LVL52:
	.loc 1 159 9 is_stmt 1
	.loc 1 160 16 is_stmt 0
	li	s8,100
.L18:
	.loc 1 159 15 is_stmt 1
	.loc 1 159 17 is_stmt 0
	lw	a5,0(s2)
	.loc 1 159 70
	andi	a5,a5,1
	.loc 1 159 15
	bne	a5,zero,.L20
	.loc 1 166 9 is_stmt 1
	.loc 1 166 16 is_stmt 0
	lw	a4,0(s2)
.LVL53:
	.loc 1 167 9 is_stmt 1
	.loc 1 167 12 is_stmt 0
	lbu	a3,160(s0)
	.loc 1 170 20
	andi	a5,a4,-65
	.loc 1 167 12
	beq	a3,zero,.L22
	.loc 1 168 13 is_stmt 1
	.loc 1 168 20 is_stmt 0
	ori	a5,a4,64
.LVL54:
.L22:
	.loc 1 173 9 is_stmt 1
	.loc 1 154 10 is_stmt 0
	srli	a4,s1,6
	.loc 1 173 62
	sw	s4,4(s2)
	.loc 1 175 9 is_stmt 1
.LVL55:
	.loc 1 176 9
	.loc 1 176 16 is_stmt 0
	pkbb16	a5,a4,a5
.LVL56:
	.loc 1 177 9 is_stmt 1
	.loc 1 177 62 is_stmt 0
	sw	a5,0(s2)
	.loc 1 179 9 is_stmt 1
	.loc 1 179 16 is_stmt 0
	ori	a5,a5,2
.LVL57:
	.loc 1 180 9 is_stmt 1
	.loc 1 180 62 is_stmt 0
	sw	a5,0(s2)
	.loc 1 182 9 is_stmt 1
	.loc 1 182 24 is_stmt 0
	andi	s1,s1,-64
.LVL58:
	.loc 1 183 23
	li	a5,1
.LVL59:
	.loc 1 182 15
	add	s4,s4,s1
.LVL60:
	.loc 1 183 9 is_stmt 1
	.loc 1 183 23 is_stmt 0
	sb	a5,160(s0)
.LVL61:
.L17:
	.loc 1 186 5 is_stmt 1
	.loc 1 186 8 is_stmt 0
	beq	s5,zero,.L23
	.loc 1 187 9 is_stmt 1
	.loc 1 187 22 is_stmt 0
	call	qcc74x_mtimer_get_time_ms
.LVL62:
	mv	s6,a0
	mv	s7,a1
.LVL63:
	.loc 1 188 9 is_stmt 1
	.loc 1 189 16 is_stmt 0
	li	s1,100
.L24:
	.loc 1 188 15 is_stmt 1
	.loc 1 188 17 is_stmt 0
	lw	a5,0(s2)
	.loc 1 188 70
	andi	a5,a5,1
	.loc 1 188 15
	bne	a5,zero,.L27
	.loc 1 195 9 is_stmt 1
	.loc 1 195 46 is_stmt 0
	addi	a0,s0,32
	.loc 1 195 9
	mv	a2,s5
	mv	a1,s4
	add	a0,a0,s3
	call	arch_memcpy_fast
.LVL64:
.L23:
	.loc 1 198 5 is_stmt 1
	.loc 1 198 18 is_stmt 0
	call	qcc74x_mtimer_get_time_ms
.LVL65:
	mv	s0,a0
.LVL66:
	mv	s1,a1
.LVL67:
	.loc 1 199 5 is_stmt 1
	.loc 1 200 12 is_stmt 0
	li	s3,100
.LVL68:
.L28:
	.loc 1 199 11 is_stmt 1
	.loc 1 199 13 is_stmt 0
	lw	a5,0(s2)
	.loc 1 199 66
	andi	a5,a5,1
	.loc 1 199 11
	bne	a5,zero,.L30
.LBE5:
.LBE4:
	.loc 1 114 16
	li	a0,0
.LVL69:
.L10:
	.loc 1 206 1
	lw	ra,44(sp)
	.cfi_remember_state
	.cfi_restore 1
	lw	s0,40(sp)
	.cfi_restore 8
	lw	s1,36(sp)
	.cfi_restore 9
	lw	s2,32(sp)
	.cfi_restore 18
.LVL70:
	lw	s3,28(sp)
	.cfi_restore 19
	lw	s4,24(sp)
	.cfi_restore 20
.LVL71:
	lw	s5,20(sp)
	.cfi_restore 21
.LVL72:
	lw	s6,16(sp)
	.cfi_restore 22
	lw	s7,12(sp)
	.cfi_restore 23
	lw	s8,8(sp)
	.cfi_restore 24
	addi	sp,sp,48
	.cfi_def_cfa_offset 0
	jr	ra
.LVL73:
.L20:
	.cfi_restore_state
.LBB7:
.LBB6:
	.loc 1 160 13 is_stmt 1
	.loc 1 160 18 is_stmt 0
	call	qcc74x_mtimer_get_time_ms
.LVL74:
	.loc 1 160 46
	sub64	a0,a0,s6
	.loc 1 160 16
	bne	a1,zero,.L25
	bgeu	s8,a0,.L18
.LVL75:
.L25:
	.loc 1 161 24
	li	a0,-116
	j	.L10
.LVL76:
.L27:
	.loc 1 189 13 is_stmt 1
	.loc 1 189 18 is_stmt 0
	call	qcc74x_mtimer_get_time_ms
.LVL77:
	.loc 1 189 46
	sub64	a0,a0,s6
	.loc 1 189 16
	bne	a1,zero,.L25
	bgeu	s1,a0,.L24
	j	.L25
.LVL78:
.L30:
	.loc 1 200 9 is_stmt 1
	.loc 1 200 14 is_stmt 0
	call	qcc74x_mtimer_get_time_ms
.LVL79:
	.loc 1 200 42
	sub64	a0,a0,s0
	.loc 1 200 12
	bne	a1,zero,.L25
	bgeu	s3,a0,.L28
	j	.L25
.LBE6:
.LBE7:
	.cfi_endproc
.LFE9:
	.size	qcc74x_sha1_update, .-qcc74x_sha1_update
	.section	.text.qcc74x_sha1_once_padded,"ax",@progbits
	.align	1
	.globl	qcc74x_sha1_once_padded
	.type	qcc74x_sha1_once_padded, @function
qcc74x_sha1_once_padded:
.LFB10:
	.loc 1 209 1 is_stmt 1
	.cfi_startproc
.LVL80:
	.loc 1 210 5
	.loc 1 211 5
	.loc 1 212 5
	.loc 1 213 5
	.loc 1 214 5
	.loc 1 216 5
	.loc 1 216 8 is_stmt 0
	beq	a3,zero,.L48
	.loc 1 209 1
	addi	sp,sp,-32
	.cfi_def_cfa_offset 32
	sw	s1,20(sp)
	.cfi_offset 9, -12
	.loc 1 220 14
	lw	s1,4(a0)
	li	a4,65536
	addi	a4,a4,-65
	.loc 1 222 12
	lw	a5,0(s1)
	.loc 1 230 23
	slli	a3,a3,16
.LVL81:
	.loc 1 209 1
	sw	s0,24(sp)
	and	a5,a5,a4
	sw	s2,16(sp)
	sw	s3,12(sp)
	sw	s4,8(sp)
	sw	ra,28(sp)
	.cfi_offset 8, -8
	.cfi_offset 18, -16
	.cfi_offset 19, -20
	.cfi_offset 20, -24
	.cfi_offset 1, -4
	or	a3,a3,a5
	.loc 1 228 58
	sw	a1,4(s1)
	.loc 1 230 12
	ori	a5,a3,32
	.loc 1 231 58
	sw	a5,0(s1)
	.loc 1 233 12
	ori	a3,a3,34
	.loc 1 234 58
	sw	a3,0(s1)
	mv	s0,a2
	.loc 1 220 5 is_stmt 1
.LVL82:
	.loc 1 222 5
	.loc 1 223 5
	.loc 1 224 5
	.loc 1 228 5
	.loc 1 229 5
	.loc 1 230 5
	.loc 1 231 5
	.loc 1 233 5
	.loc 1 234 5
	.loc 1 236 5
	.loc 1 236 18 is_stmt 0
	call	qcc74x_mtimer_get_time_ms
.LVL83:
	mv	s2,a0
	mv	s3,a1
.LVL84:
	.loc 1 237 5 is_stmt 1
	.loc 1 238 12 is_stmt 0
	li	s4,100
.L45:
	.loc 1 237 11 is_stmt 1
	.loc 1 237 13 is_stmt 0
	lw	a5,0(s1)
	.loc 1 237 66
	andi	a5,a5,1
	.loc 1 237 11
	bne	a5,zero,.L47
	.loc 1 243 5 is_stmt 1
	.loc 1 243 12 is_stmt 0
	lw	a5,16(s1)
.LVL85:
	.loc 1 244 5 is_stmt 1
	.loc 1 269 12 is_stmt 0
	li	a0,0
	.loc 1 245 26
	srli	a4,a5,8
	.loc 1 244 15
	sb	a5,0(s0)
	.loc 1 245 5 is_stmt 1
.LVL86:
	.loc 1 245 15 is_stmt 0
	sb	a4,1(s0)
	.loc 1 246 5 is_stmt 1
.LVL87:
	.loc 1 246 26 is_stmt 0
	srli	a4,a5,16
	.loc 1 247 26
	srli	a5,a5,24
.LVL88:
	.loc 1 246 15
	sb	a4,2(s0)
	.loc 1 247 5 is_stmt 1
.LVL89:
	.loc 1 247 15 is_stmt 0
	sb	a5,3(s0)
	.loc 1 248 5 is_stmt 1
	.loc 1 248 12 is_stmt 0
	lw	a5,20(s1)
.LVL90:
	.loc 1 249 5 is_stmt 1
	.loc 1 250 26 is_stmt 0
	srli	a4,a5,8
	.loc 1 249 15
	sb	a5,4(s0)
	.loc 1 250 5 is_stmt 1
.LVL91:
	.loc 1 250 15 is_stmt 0
	sb	a4,5(s0)
	.loc 1 251 5 is_stmt 1
.LVL92:
	.loc 1 251 26 is_stmt 0
	srli	a4,a5,16
	.loc 1 252 26
	srli	a5,a5,24
.LVL93:
	.loc 1 251 15
	sb	a4,6(s0)
	.loc 1 252 5 is_stmt 1
.LVL94:
	.loc 1 252 15 is_stmt 0
	sb	a5,7(s0)
	.loc 1 253 5 is_stmt 1
	.loc 1 253 12 is_stmt 0
	lw	a5,24(s1)
.LVL95:
	.loc 1 254 5 is_stmt 1
	.loc 1 255 26 is_stmt 0
	srli	a4,a5,8
	.loc 1 254 15
	sb	a5,8(s0)
	.loc 1 255 5 is_stmt 1
.LVL96:
	.loc 1 255 15 is_stmt 0
	sb	a4,9(s0)
	.loc 1 256 5 is_stmt 1
.LVL97:
	.loc 1 256 26 is_stmt 0
	srli	a4,a5,16
	.loc 1 257 26
	srli	a5,a5,24
.LVL98:
	.loc 1 256 15
	sb	a4,10(s0)
	.loc 1 257 5 is_stmt 1
.LVL99:
	.loc 1 257 15 is_stmt 0
	sb	a5,11(s0)
	.loc 1 258 5 is_stmt 1
	.loc 1 258 12 is_stmt 0
	lw	a5,28(s1)
.LVL100:
	.loc 1 259 5 is_stmt 1
	.loc 1 260 26 is_stmt 0
	srli	a4,a5,8
	.loc 1 259 15
	sb	a5,12(s0)
	.loc 1 260 5 is_stmt 1
.LVL101:
	.loc 1 260 15 is_stmt 0
	sb	a4,13(s0)
	.loc 1 261 5 is_stmt 1
.LVL102:
	.loc 1 261 26 is_stmt 0
	srli	a4,a5,16
	.loc 1 262 26
	srli	a5,a5,24
.LVL103:
	.loc 1 261 15
	sb	a4,14(s0)
	.loc 1 262 5 is_stmt 1
.LVL104:
	.loc 1 262 15 is_stmt 0
	sb	a5,15(s0)
	.loc 1 263 5 is_stmt 1
	.loc 1 263 12 is_stmt 0
	lw	a5,32(s1)
.LVL105:
	.loc 1 264 5 is_stmt 1
	.loc 1 265 26 is_stmt 0
	srli	a4,a5,8
	.loc 1 264 15
	sb	a5,16(s0)
	.loc 1 265 5 is_stmt 1
.LVL106:
	.loc 1 265 15 is_stmt 0
	sb	a4,17(s0)
	.loc 1 266 5 is_stmt 1
.LVL107:
	.loc 1 266 26 is_stmt 0
	srli	a4,a5,16
	.loc 1 267 26
	srli	a5,a5,24
.LVL108:
	.loc 1 266 15
	sb	a4,18(s0)
	.loc 1 267 5 is_stmt 1
.LVL109:
	.loc 1 267 15 is_stmt 0
	sb	a5,19(s0)
	.loc 1 269 5 is_stmt 1
.LVL110:
.L43:
	.loc 1 270 1 is_stmt 0
	lw	ra,28(sp)
	.cfi_remember_state
	.cfi_restore 1
	lw	s0,24(sp)
	.cfi_restore 8
	lw	s1,20(sp)
	.cfi_restore 9
.LVL111:
	lw	s2,16(sp)
	.cfi_restore 18
.LVL112:
	lw	s3,12(sp)
	.cfi_restore 19
	lw	s4,8(sp)
	.cfi_restore 20
	addi	sp,sp,32
	.cfi_def_cfa_offset 0
	jr	ra
.LVL113:
.L47:
	.cfi_restore_state
	.loc 1 238 9 is_stmt 1
	.loc 1 238 14 is_stmt 0
	call	qcc74x_mtimer_get_time_ms
.LVL114:
	.loc 1 238 42
	sub64	a0,a0,s2
	.loc 1 238 12
	bne	a1,zero,.L49
	bgeu	s4,a0,.L45
.L49:
	.loc 1 239 20
	li	a0,-116
	j	.L43
.LVL115:
.L48:
	.cfi_def_cfa_offset 0
	.cfi_restore 1
	.cfi_restore 8
	.cfi_restore 9
	.cfi_restore 18
	.cfi_restore 19
	.cfi_restore 20
	.loc 1 217 16
	li	a0,0
.LVL116:
	.loc 1 270 1
	ret
	.cfi_endproc
.LFE10:
	.size	qcc74x_sha1_once_padded, .-qcc74x_sha1_once_padded
	.section	.text.qcc74x_sha256_update,"ax",@progbits
	.align	1
	.globl	qcc74x_sha256_update
	.type	qcc74x_sha256_update, @function
qcc74x_sha256_update:
.LFB11:
	.loc 1 273 1 is_stmt 1
	.cfi_startproc
.LVL117:
	.loc 1 277 5
	.loc 1 277 12 is_stmt 0
	tail	qcc74x_sha1_update
.LVL118:
	.cfi_endproc
.LFE11:
	.size	qcc74x_sha256_update, .-qcc74x_sha256_update
	.section	.text.qcc74x_sha512_update,"ax",@progbits
	.align	1
	.globl	qcc74x_sha512_update
	.type	qcc74x_sha512_update, @function
qcc74x_sha512_update:
.LFB12:
	.loc 1 282 1 is_stmt 1
	.cfi_startproc
.LVL119:
	.loc 1 286 5
	.loc 1 287 5
	.loc 1 288 5
	.loc 1 289 5
	.loc 1 290 5
	.loc 1 292 5
	.loc 1 282 1 is_stmt 0
	addi	sp,sp,-64
	.cfi_def_cfa_offset 64
	sw	a3,8(sp)
	sw	a4,12(sp)
	.loc 1 292 8
	lw	a5,8(sp)
	lw	a4,12(sp)
	.loc 1 282 1
	sw	ra,60(sp)
	sw	s0,56(sp)
	sw	s1,52(sp)
	sw	s2,48(sp)
	sw	s3,44(sp)
	sw	s4,40(sp)
	sw	s5,36(sp)
	sw	s6,32(sp)
	sw	s7,28(sp)
	sw	s8,24(sp)
	sw	s9,20(sp)
	sw	s10,16(sp)
	.cfi_offset 1, -4
	.cfi_offset 8, -8
	.cfi_offset 9, -12
	.cfi_offset 18, -16
	.cfi_offset 19, -20
	.cfi_offset 20, -24
	.cfi_offset 21, -28
	.cfi_offset 22, -32
	.cfi_offset 23, -36
	.cfi_offset 24, -40
	.cfi_offset 25, -44
	.cfi_offset 26, -48
	.loc 1 292 8
	or	a5,a5,a4
	bne	a5,zero,.L56
.LVL120:
.L79:
	.loc 1 293 16
	li	a0,0
.L55:
	.loc 1 384 1
	lw	ra,60(sp)
	.cfi_remember_state
	.cfi_restore 1
	lw	s0,56(sp)
	.cfi_restore 8
	lw	s1,52(sp)
	.cfi_restore 9
	lw	s2,48(sp)
	.cfi_restore 18
	lw	s3,44(sp)
	.cfi_restore 19
	lw	s4,40(sp)
	.cfi_restore 20
	lw	s5,36(sp)
	.cfi_restore 21
	lw	s6,32(sp)
	.cfi_restore 22
	lw	s7,28(sp)
	.cfi_restore 23
	lw	s8,24(sp)
	.cfi_restore 24
	lw	s9,20(sp)
	.cfi_restore 25
	lw	s10,16(sp)
	.cfi_restore 26
	addi	sp,sp,64
	.cfi_def_cfa_offset 0
	jr	ra
.LVL121:
.L56:
	.cfi_restore_state
	lw	s3,4(a0)
.LVL122:
.LBB10:
.LBB11:
	.loc 1 300 8
	lbu	a4,288(a1)
	mv	s2,a1
	.loc 1 298 12
	lw	a5,0(s3)
	mv	s4,a2
.LVL123:
	.loc 1 296 5 is_stmt 1
	.loc 1 298 5
	.loc 1 300 5
	.loc 1 303 16 is_stmt 0
	andi	s6,a5,-65
	.loc 1 300 8
	beq	a4,zero,.L59
.LVL124:
	.loc 1 301 9 is_stmt 1
	.loc 1 301 16 is_stmt 0
	ori	s6,a5,64
.LVL125:
.L59:
	.loc 1 306 5 is_stmt 1
	.loc 1 306 22 is_stmt 0
	lw	a4,0(s2)
	lw	a5,4(s2)
	.loc 1 309 19
	lw	a2,8(sp)
.LVL126:
	lw	a3,12(sp)
.LVL127:
	.loc 1 306 10
	andi	s5,a4,127
.LVL128:
	.loc 1 307 5 is_stmt 1
	.loc 1 309 5
	.loc 1 309 19 is_stmt 0
	add64	a4,a2,a4
	.loc 1 311 8
	lw	a2,12(sp)
	.loc 1 309 19
	sw	a4,0(s2)
	sw	a5,4(s2)
	.loc 1 311 5 is_stmt 1
	.loc 1 311 8 is_stmt 0
	bgtu	a2,a5,.L80
	bne	a2,a5,.L60
	lw	a3,8(sp)
	bgeu	a4,a3,.L60
.L80:
	.loc 1 312 9 is_stmt 1
	.loc 1 312 22 is_stmt 0
	lw	a4,8(s2)
	lw	a5,12(s2)
	li	a2,1
	li	a3,0
	add64	a4,a4,a2
	sw	a4,8(s2)
	sw	a5,12(s2)
.L60:
	.loc 1 315 5 is_stmt 1
	.loc 1 315 8 is_stmt 0
	beq	s5,zero,.L62
	.loc 1 315 14
	lw	a5,12(sp)
	.loc 1 307 10
	li	s7,128
	sub	s7,s7,s5
	.loc 1 315 21
	mv	s8,s7
	li	s9,0
	.loc 1 315 14
	bne	a5,zero,.L81
	lw	a5,8(sp)
	bltu	a5,s7,.L62
.L81:
	.loc 1 316 9 is_stmt 1
	.loc 1 316 46 is_stmt 0
	addi	s10,s2,32
	.loc 1 316 9
	mv	a1,s4
.LVL129:
	add	a0,s10,s5
.LVL130:
	mv	a2,s7
	call	arch_memcpy_fast
.LVL131:
	.loc 1 317 9 is_stmt 1
	.loc 1 319 16 is_stmt 0
	li	a5,65536
	extu	s6,s6,15,0
.LVL132:
	.loc 1 320 16
	or	a4,s6,a5
	.loc 1 317 62
	sw	s10,4(s3)
	.loc 1 319 9 is_stmt 1
.LVL133:
	.loc 1 320 9
	.loc 1 321 9
	.loc 1 323 16 is_stmt 0
	addi	a5,a5,2
	.loc 1 321 62
	sw	a4,0(s3)
	.loc 1 323 9 is_stmt 1
	.loc 1 323 16 is_stmt 0
	or	s6,s6,a5
.LVL134:
	.loc 1 324 9 is_stmt 1
	.loc 1 324 62 is_stmt 0
	sw	s6,0(s3)
	.loc 1 326 9 is_stmt 1
	.loc 1 326 23 is_stmt 0
	li	a5,1
	.loc 1 328 13
	lw	a4,8(sp)
	.loc 1 326 23
	sb	a5,288(s2)
	.loc 1 327 9 is_stmt 1
	.loc 1 328 13 is_stmt 0
	lw	a5,12(sp)
	.loc 1 327 15
	add	s4,s4,s7
.LVL135:
	.loc 1 328 9 is_stmt 1
	.loc 1 329 14 is_stmt 0
	li	s5,0
.LVL136:
	.loc 1 328 13
	sub64	a4,a4,s8
	sw	a4,8(sp)
.LVL137:
	sw	a5,12(sp)
.LVL138:
	.loc 1 329 9 is_stmt 1
.L62:
	.loc 1 332 5
	.loc 1 332 16 is_stmt 0
	lw	a5,12(sp)
	lw	a4,8(sp)
	wexti	s1,a4,7
.LVL139:
	.loc 1 333 5 is_stmt 1
	.loc 1 333 9 is_stmt 0
	lw	a5,8(sp)
	andi	s0,a5,127
.LVL140:
	.loc 1 335 5 is_stmt 1
	.loc 1 335 8 is_stmt 0
	beq	s1,zero,.L64
	.loc 1 336 9 is_stmt 1
	.loc 1 336 22 is_stmt 0
	call	qcc74x_mtimer_get_time_ms
.LVL141:
	mv	s6,a0
.LVL142:
	mv	s7,a1
.LVL143:
	.loc 1 337 9 is_stmt 1
	.loc 1 338 16 is_stmt 0
	li	s8,100
.L65:
	.loc 1 337 15 is_stmt 1
	.loc 1 337 17 is_stmt 0
	lw	a5,0(s3)
	.loc 1 337 70
	andi	a5,a5,1
	.loc 1 337 15
	bne	a5,zero,.L67
	.loc 1 344 9 is_stmt 1
	.loc 1 344 16 is_stmt 0
	lw	a4,0(s3)
.LVL144:
	.loc 1 345 9 is_stmt 1
	.loc 1 345 12 is_stmt 0
	lbu	a3,288(s2)
	.loc 1 348 20
	andi	a5,a4,-65
	.loc 1 345 12
	beq	a3,zero,.L69
	.loc 1 346 13 is_stmt 1
	.loc 1 346 20 is_stmt 0
	ori	a5,a4,64
.LVL145:
.L69:
	.loc 1 351 9 is_stmt 1
	.loc 1 351 62 is_stmt 0
	sw	s4,4(s3)
	.loc 1 353 9 is_stmt 1
.LVL146:
	.loc 1 354 9
	.loc 1 354 16 is_stmt 0
	pkbb16	a5,s1,a5
.LVL147:
	.loc 1 355 9 is_stmt 1
	.loc 1 355 62 is_stmt 0
	sw	a5,0(s3)
	.loc 1 357 9 is_stmt 1
	.loc 1 357 16 is_stmt 0
	ori	a5,a5,2
.LVL148:
	.loc 1 358 9 is_stmt 1
	.loc 1 358 62 is_stmt 0
	sw	a5,0(s3)
	.loc 1 360 9 is_stmt 1
	.loc 1 360 24 is_stmt 0
	slli	s1,s1,7
.LVL149:
	.loc 1 361 23
	li	a5,1
.LVL150:
	.loc 1 360 15
	add	s4,s4,s1
.LVL151:
	.loc 1 361 9 is_stmt 1
	.loc 1 361 23 is_stmt 0
	sb	a5,288(s2)
.LVL152:
.L64:
	.loc 1 364 5 is_stmt 1
	.loc 1 364 8 is_stmt 0
	beq	s0,zero,.L70
	.loc 1 365 9 is_stmt 1
	.loc 1 365 22 is_stmt 0
	call	qcc74x_mtimer_get_time_ms
.LVL153:
	mv	s6,a0
	mv	s7,a1
.LVL154:
	.loc 1 366 9 is_stmt 1
	.loc 1 367 16 is_stmt 0
	li	s1,100
.L72:
	.loc 1 366 15 is_stmt 1
	.loc 1 366 17 is_stmt 0
	lw	a5,0(s3)
	.loc 1 366 70
	andi	a5,a5,1
	.loc 1 366 15
	bne	a5,zero,.L75
	.loc 1 373 9 is_stmt 1
	.loc 1 373 46 is_stmt 0
	addi	a0,s2,32
	.loc 1 373 9
	mv	a2,s0
	mv	a1,s4
	add	a0,a0,s5
	call	arch_memcpy_fast
.LVL155:
.L70:
	.loc 1 376 5 is_stmt 1
	.loc 1 376 18 is_stmt 0
	call	qcc74x_mtimer_get_time_ms
.LVL156:
	mv	s0,a0
.LVL157:
	mv	s1,a1
.LVL158:
	.loc 1 377 5 is_stmt 1
	.loc 1 378 12 is_stmt 0
	li	s2,100
.LVL159:
.L76:
	.loc 1 377 11 is_stmt 1
	.loc 1 377 13 is_stmt 0
	lw	a5,0(s3)
	.loc 1 377 66
	andi	a5,a5,1
	.loc 1 377 11
	beq	a5,zero,.L79
	.loc 1 378 9 is_stmt 1
	.loc 1 378 14 is_stmt 0
	call	qcc74x_mtimer_get_time_ms
.LVL160:
	.loc 1 378 42
	sub64	a0,a0,s0
	.loc 1 378 12
	bne	a1,zero,.L73
	bgeu	s2,a0,.L76
	j	.L73
.LVL161:
.L67:
	.loc 1 338 13 is_stmt 1
	.loc 1 338 18 is_stmt 0
	call	qcc74x_mtimer_get_time_ms
.LVL162:
	.loc 1 338 46
	sub64	a0,a0,s6
	.loc 1 338 16
	bne	a1,zero,.L73
	bgeu	s8,a0,.L65
.LVL163:
.L73:
	.loc 1 339 24
	li	a0,-116
	j	.L55
.LVL164:
.L75:
	.loc 1 367 13 is_stmt 1
	.loc 1 367 18 is_stmt 0
	call	qcc74x_mtimer_get_time_ms
.LVL165:
	.loc 1 367 46
	sub64	a0,a0,s6
	.loc 1 367 16
	bne	a1,zero,.L73
	bgeu	s1,a0,.L72
	j	.L73
.LBE11:
.LBE10:
	.cfi_endproc
.LFE12:
	.size	qcc74x_sha512_update, .-qcc74x_sha512_update
	.section	.text.qcc74x_sha1_finish,"ax",@progbits
	.align	1
	.globl	qcc74x_sha1_finish
	.type	qcc74x_sha1_finish, @function
qcc74x_sha1_finish:
.LFB13:
	.loc 1 387 1 is_stmt 1
	.cfi_startproc
.LVL166:
	.loc 1 391 5
	.loc 1 392 5
	.loc 1 393 5
	.loc 1 394 5
	.loc 1 395 5
	.loc 1 396 5
	.loc 1 397 5
	.loc 1 401 23 is_stmt 0
	lw	a3,0(a1)
	.loc 1 401 51
	lw	a5,4(a1)
	.loc 1 387 1
	addi	sp,sp,-48
	.cfi_def_cfa_offset 48
	.loc 1 401 27
	srli	a4,a3,29
	.loc 1 401 51
	slli	a5,a5,3
	.loc 1 401 10
	or	a5,a5,a4
	rev	a5, a5
	.loc 1 404 21
	sw	a5,8(sp)
	.loc 1 402 9
	slli	a5,a3,3
	rev	a5, a5
	.loc 1 387 1
	sw	s0,40(sp)
	sw	s1,36(sp)
	sw	s2,32(sp)
	sw	s3,28(sp)
	.loc 1 405 21
	sw	a5,12(sp)
	.loc 1 387 1
	sw	ra,44(sp)
	sw	s4,24(sp)
	.cfi_offset 8, -8
	.cfi_offset 9, -12
	.cfi_offset 18, -16
	.cfi_offset 19, -20
	.cfi_offset 1, -4
	.cfi_offset 20, -24
	.loc 1 407 10
	andi	a3,a3,63
	.loc 1 408 38
	li	a5,55
	.loc 1 399 14
	lw	s1,4(a0)
	.loc 1 387 1
	mv	s3,a0
	mv	s2,a1
	mv	s0,a2
.LVL167:
	.loc 1 399 5 is_stmt 1
	.loc 1 401 5
	.loc 1 402 5
	.loc 1 404 7
	.loc 1 404 48
	.loc 1 404 93
	.loc 1 404 137
	.loc 1 404 177
	.loc 1 405 7
	.loc 1 405 47
	.loc 1 405 91
	.loc 1 405 134
	.loc 1 405 173
	.loc 1 407 5
	.loc 1 408 5
	.loc 1 408 38 is_stmt 0
	bgtu	a3,a5,.L95
	.loc 1 408 38 discriminator 1
	li	a5,56
.L101:
	.loc 1 410 45 discriminator 2
	addi	s4,s2,96
	.loc 1 408 38 discriminator 2
	sub	a3,a5,a3
.LVL168:
	.loc 1 410 5 is_stmt 1 discriminator 2
	mv	a2,s4
.LVL169:
	mv	a1,s2
.LVL170:
	mv	a0,s3
.LVL171:
	call	qcc74x_sha1_update
.LVL172:
	.loc 1 411 5 discriminator 2
	li	a2,8
	addi	a1,sp,8
	mv	a0,s4
	call	arch_memcpy_fast
.LVL173:
	.loc 1 412 5 discriminator 2
	li	a3,8
	mv	a2,s4
	mv	a1,s2
	mv	a0,s3
	call	qcc74x_sha1_update
.LVL174:
	.loc 1 415 5 discriminator 2
	.loc 1 415 12 is_stmt 0 discriminator 2
	lw	a5,16(s1)
.LVL175:
	.loc 1 416 5 is_stmt 1 discriminator 2
	.loc 1 417 21 is_stmt 0 discriminator 2
	srli	a4,a5,8
	.loc 1 416 10 discriminator 2
	sb	a5,0(s0)
	.loc 1 417 5 is_stmt 1 discriminator 2
.LVL176:
	.loc 1 417 10 is_stmt 0 discriminator 2
	sb	a4,1(s0)
	.loc 1 418 5 is_stmt 1 discriminator 2
.LVL177:
	.loc 1 418 21 is_stmt 0 discriminator 2
	srli	a4,a5,16
	.loc 1 419 21 discriminator 2
	srli	a5,a5,24
.LVL178:
	.loc 1 418 10 discriminator 2
	sb	a4,2(s0)
	.loc 1 419 5 is_stmt 1 discriminator 2
.LVL179:
	.loc 1 419 10 is_stmt 0 discriminator 2
	sb	a5,3(s0)
	.loc 1 420 5 is_stmt 1 discriminator 2
	.loc 1 420 12 is_stmt 0 discriminator 2
	lw	a5,20(s1)
.LVL180:
	.loc 1 421 5 is_stmt 1 discriminator 2
	.loc 1 422 21 is_stmt 0 discriminator 2
	srli	a4,a5,8
	.loc 1 421 10 discriminator 2
	sb	a5,4(s0)
	.loc 1 422 5 is_stmt 1 discriminator 2
.LVL181:
	.loc 1 422 10 is_stmt 0 discriminator 2
	sb	a4,5(s0)
	.loc 1 423 5 is_stmt 1 discriminator 2
.LVL182:
	.loc 1 423 21 is_stmt 0 discriminator 2
	srli	a4,a5,16
	.loc 1 424 21 discriminator 2
	srli	a5,a5,24
.LVL183:
	.loc 1 423 10 discriminator 2
	sb	a4,6(s0)
	.loc 1 424 5 is_stmt 1 discriminator 2
.LVL184:
	.loc 1 424 10 is_stmt 0 discriminator 2
	sb	a5,7(s0)
	.loc 1 425 5 is_stmt 1 discriminator 2
	.loc 1 425 12 is_stmt 0 discriminator 2
	lw	a5,24(s1)
.LVL185:
	.loc 1 426 5 is_stmt 1 discriminator 2
	.loc 1 427 21 is_stmt 0 discriminator 2
	srli	a4,a5,8
	.loc 1 426 10 discriminator 2
	sb	a5,8(s0)
	.loc 1 427 5 is_stmt 1 discriminator 2
.LVL186:
	.loc 1 427 10 is_stmt 0 discriminator 2
	sb	a4,9(s0)
	.loc 1 428 5 is_stmt 1 discriminator 2
.LVL187:
	.loc 1 428 21 is_stmt 0 discriminator 2
	srli	a4,a5,16
	.loc 1 429 21 discriminator 2
	srli	a5,a5,24
.LVL188:
	.loc 1 428 10 discriminator 2
	sb	a4,10(s0)
	.loc 1 429 5 is_stmt 1 discriminator 2
.LVL189:
	.loc 1 429 10 is_stmt 0 discriminator 2
	sb	a5,11(s0)
	.loc 1 430 5 is_stmt 1 discriminator 2
	.loc 1 430 12 is_stmt 0 discriminator 2
	lw	a5,28(s1)
.LVL190:
	.loc 1 431 5 is_stmt 1 discriminator 2
	.loc 1 432 21 is_stmt 0 discriminator 2
	srli	a4,a5,8
	.loc 1 431 10 discriminator 2
	sb	a5,12(s0)
	.loc 1 432 5 is_stmt 1 discriminator 2
.LVL191:
	.loc 1 432 10 is_stmt 0 discriminator 2
	sb	a4,13(s0)
	.loc 1 433 5 is_stmt 1 discriminator 2
.LVL192:
	.loc 1 433 21 is_stmt 0 discriminator 2
	srli	a4,a5,16
	.loc 1 434 21 discriminator 2
	srli	a5,a5,24
.LVL193:
	.loc 1 433 10 discriminator 2
	sb	a4,14(s0)
	.loc 1 434 5 is_stmt 1 discriminator 2
.LVL194:
	.loc 1 434 10 is_stmt 0 discriminator 2
	sb	a5,15(s0)
	.loc 1 435 5 is_stmt 1 discriminator 2
	.loc 1 435 12 is_stmt 0 discriminator 2
	lw	a5,32(s1)
.LVL195:
	.loc 1 436 5 is_stmt 1 discriminator 2
	.loc 1 437 21 is_stmt 0 discriminator 2
	srli	a4,a5,8
	.loc 1 436 10 discriminator 2
	sb	a5,16(s0)
	.loc 1 437 5 is_stmt 1 discriminator 2
.LVL196:
	.loc 1 437 10 is_stmt 0 discriminator 2
	sb	a4,17(s0)
	.loc 1 438 5 is_stmt 1 discriminator 2
.LVL197:
	.loc 1 438 21 is_stmt 0 discriminator 2
	srli	a4,a5,16
	.loc 1 439 21 discriminator 2
	srli	a5,a5,24
.LVL198:
	.loc 1 438 10 discriminator 2
	sb	a4,18(s0)
	.loc 1 439 5 is_stmt 1 discriminator 2
.LVL199:
	.loc 1 439 10 is_stmt 0 discriminator 2
	sb	a5,19(s0)
	.loc 1 441 5 is_stmt 1 discriminator 2
	.loc 1 441 14 is_stmt 0 discriminator 2
	lw	a5,0(s1)
	.loc 1 441 84 discriminator 2
	extu	a5,a5,2+8-1,2
.LVL200:
	.loc 1 443 5 is_stmt 1 discriminator 2
	.loc 1 443 8 is_stmt 0 discriminator 2
	andi	a4,a5,6
	bne	a4,zero,.L98
	.loc 1 444 9 is_stmt 1
	.loc 1 444 16 is_stmt 0
	lw	a4,36(s1)
.LVL201:
	.loc 1 445 9 is_stmt 1
	.loc 1 455 12 is_stmt 0
	andi	a5,a5,7
.LVL202:
	.loc 1 446 25
	srli	a3,a4,8
	.loc 1 445 14
	sb	a4,20(s0)
	.loc 1 446 9 is_stmt 1
.LVL203:
	.loc 1 446 14 is_stmt 0
	sb	a3,21(s0)
	.loc 1 447 9 is_stmt 1
.LVL204:
	.loc 1 447 25 is_stmt 0
	srli	a3,a4,16
	.loc 1 448 25
	srli	a4,a4,24
.LVL205:
	.loc 1 447 14
	sb	a3,22(s0)
	.loc 1 448 9 is_stmt 1
.LVL206:
	.loc 1 448 14 is_stmt 0
	sb	a4,23(s0)
	.loc 1 449 9 is_stmt 1
	.loc 1 449 16 is_stmt 0
	lw	a4,40(s1)
.LVL207:
	.loc 1 450 9 is_stmt 1
	.loc 1 451 25 is_stmt 0
	srli	a3,a4,8
	.loc 1 450 14
	sb	a4,24(s0)
	.loc 1 451 9 is_stmt 1
.LVL208:
	.loc 1 451 14 is_stmt 0
	sb	a3,25(s0)
	.loc 1 452 9 is_stmt 1
.LVL209:
	.loc 1 452 25 is_stmt 0
	srli	a3,a4,16
	.loc 1 453 25
	srli	a4,a4,24
.LVL210:
	.loc 1 452 14
	sb	a3,26(s0)
	.loc 1 453 9 is_stmt 1
.LVL211:
	.loc 1 453 14 is_stmt 0
	sb	a4,27(s0)
	.loc 1 455 9 is_stmt 1
	.loc 1 455 12 is_stmt 0
	bne	a5,zero,.L98
	.loc 1 456 13 is_stmt 1
	.loc 1 456 20 is_stmt 0
	lw	a5,44(s1)
.LVL212:
	.loc 1 457 13 is_stmt 1
	.loc 1 458 29 is_stmt 0
	srli	a4,a5,8
	.loc 1 457 18
	sb	a5,28(s0)
	.loc 1 458 13 is_stmt 1
.LVL213:
	.loc 1 458 18 is_stmt 0
	sb	a4,29(s0)
	.loc 1 459 13 is_stmt 1
.LVL214:
	.loc 1 459 29 is_stmt 0
	srli	a4,a5,16
	.loc 1 460 29
	srli	a5,a5,24
.LVL215:
	.loc 1 459 18
	sb	a4,30(s0)
	.loc 1 460 13 is_stmt 1
.LVL216:
	.loc 1 460 18 is_stmt 0
	sb	a5,31(s0)
.LVL217:
.L98:
	.loc 1 465 5 is_stmt 1
	.loc 1 465 12 is_stmt 0
	lw	a5,0(s1)
.LVL218:
	.loc 1 466 5 is_stmt 1
	.loc 1 467 5
	.loc 1 470 1 is_stmt 0
	lw	ra,44(sp)
	.cfi_remember_state
	.cfi_restore 1
	lw	s0,40(sp)
	.cfi_restore 8
.LVL219:
	.loc 1 467 12
	andi	a5,a5,-97
.LVL220:
	.loc 1 468 5 is_stmt 1
	.loc 1 468 58 is_stmt 0
	sw	a5,0(s1)
	.loc 1 470 1
	lw	s2,32(sp)
	.cfi_restore 18
.LVL221:
	lw	s1,36(sp)
	.cfi_restore 9
.LVL222:
	lw	s3,28(sp)
	.cfi_restore 19
.LVL223:
	lw	s4,24(sp)
	.cfi_restore 20
.LVL224:
	addi	sp,sp,48
	.cfi_def_cfa_offset 0
	jr	ra
.LVL225:
.L95:
	.cfi_restore_state
	.loc 1 408 38 discriminator 2
	li	a5,120
	j	.L101
	.cfi_endproc
.LFE13:
	.size	qcc74x_sha1_finish, .-qcc74x_sha1_finish
	.section	.text.qcc74x_sha256_finish,"ax",@progbits
	.align	1
	.globl	qcc74x_sha256_finish
	.type	qcc74x_sha256_finish, @function
qcc74x_sha256_finish:
.LFB14:
	.loc 1 473 1 is_stmt 1
	.cfi_startproc
.LVL226:
	.loc 1 477 5
	.loc 1 477 12 is_stmt 0
	tail	qcc74x_sha1_finish
.LVL227:
	.cfi_endproc
.LFE14:
	.size	qcc74x_sha256_finish, .-qcc74x_sha256_finish
	.section	.text.qcc74x_sha512_finish,"ax",@progbits
	.align	1
	.globl	qcc74x_sha512_finish
	.type	qcc74x_sha512_finish, @function
qcc74x_sha512_finish:
.LFB15:
	.loc 1 482 1 is_stmt 1
	.cfi_startproc
.LVL228:
	.loc 1 486 5
	.loc 1 487 5
	.loc 1 488 5
	.loc 1 489 5
	.loc 1 490 5
	.loc 1 491 5
	.loc 1 492 5
	.loc 1 496 23 is_stmt 0
	lw	a7,4(a1)
	.loc 1 496 51
	lw	a4,8(a1)
	lw	a5,12(a1)
	.loc 1 482 1
	addi	sp,sp,-48
	.cfi_def_cfa_offset 48
	.loc 1 496 23
	lw	a6,0(a1)
	.loc 1 482 1
	sw	s2,32(sp)
	.cfi_offset 18, -16
	mv	s2,a1
	.loc 1 496 51
	wexti	a1,a4,29
.LVL229:
	.loc 1 496 27
	srli	a5,a7,29
	.loc 1 496 51
	slli	a4,a4,3
	.loc 1 496 10
	or	a4,a4,a5
	rev	a4, a4
	.loc 1 497 9
	wexti	a5,a6,29
	.loc 1 482 1
	sw	s1,36(sp)
	sw	s3,28(sp)
	.cfi_offset 9, -12
	.cfi_offset 19, -20
	.loc 1 494 14
	lw	s1,4(a0)
	.loc 1 482 1
	mv	s3,a0
	.loc 1 499 201
	sw	a4,4(sp)
	.loc 1 499 40
	srli	a0,a1,24
.LVL230:
	.loc 1 500 39
	srli	a4,a5,24
	.loc 1 497 9
	slli	a3,a6,3
	.loc 1 499 23
	sb	a0,0(sp)
	.loc 1 500 23
	sb	a4,8(sp)
	.loc 1 499 85
	srli	a0,a1,16
	.loc 1 500 83
	srli	a4,a5,16
	.loc 1 499 68
	sb	a0,1(sp)
	.loc 1 500 67
	sb	a4,9(sp)
	.loc 1 499 130
	srli	a0,a1,8
	.loc 1 500 127
	srli	a4,a5,8
	.loc 1 500 155
	sb	a5,11(sp)
	rev	a5, a3
	.loc 1 482 1
	sw	s0,40(sp)
	.loc 1 500 111
	sb	a4,10(sp)
	.loc 1 500 197
	sw	a5,12(sp)
	.loc 1 482 1
	sw	ra,44(sp)
	sw	s4,24(sp)
	.cfi_offset 8, -8
	.cfi_offset 1, -4
	.cfi_offset 20, -24
	.loc 1 499 113
	sb	a0,2(sp)
	.loc 1 499 158
	sb	a1,3(sp)
	.loc 1 502 10
	andi	a4,a6,127
	.loc 1 503 40
	li	a3,111
	.loc 1 482 1
	mv	s0,a2
.LVL231:
	.loc 1 494 5 is_stmt 1
	.loc 1 496 5
	.loc 1 497 5
	.loc 1 499 7
	.loc 1 499 48
	.loc 1 499 93
	.loc 1 499 138
	.loc 1 499 183
	.loc 1 499 228
	.loc 1 499 273
	.loc 1 499 317
	.loc 1 499 357
	.loc 1 500 7
	.loc 1 500 47
	.loc 1 500 91
	.loc 1 500 135
	.loc 1 500 179
	.loc 1 500 223
	.loc 1 500 267
	.loc 1 500 310
	.loc 1 500 349
	.loc 1 502 5
	.loc 1 502 10 is_stmt 0
	li	a5,0
.LVL232:
	.loc 1 503 5 is_stmt 1
	.loc 1 503 40 is_stmt 0
	li	a2,112
.LVL233:
	bgeu	a3,a4,.L112
	.loc 1 503 40 discriminator 2
	li	a2,240
.L112:
	li	a3,0
	sub64	a4,a2,a4
.LVL234:
	.loc 1 505 5 is_stmt 1 discriminator 2
	.loc 1 505 47 is_stmt 0 discriminator 2
	addi	s4,s2,160
	.loc 1 505 5 discriminator 2
	mv	a3,a4
	mv	a2,s4
	mv	a4,a5
.LVL235:
	mv	a1,s2
	mv	a0,s3
	call	qcc74x_sha512_update
.LVL236:
	.loc 1 506 5 is_stmt 1 discriminator 2
	li	a2,16
	mv	a1,sp
	mv	a0,s4
	call	arch_memcpy_fast
.LVL237:
	.loc 1 507 5 discriminator 2
	li	a3,16
	li	a4,0
	mv	a2,s4
	mv	a1,s2
	mv	a0,s3
	call	qcc74x_sha512_update
.LVL238:
	.loc 1 510 5 discriminator 2
	.loc 1 510 12 is_stmt 0 discriminator 2
	lw	a5,48(s1)
.LVL239:
	.loc 1 511 5 is_stmt 1 discriminator 2
	.loc 1 512 21 is_stmt 0 discriminator 2
	srli	a4,a5,8
	.loc 1 511 10 discriminator 2
	sb	a5,0(s0)
	.loc 1 512 5 is_stmt 1 discriminator 2
.LVL240:
	.loc 1 512 10 is_stmt 0 discriminator 2
	sb	a4,1(s0)
	.loc 1 513 5 is_stmt 1 discriminator 2
.LVL241:
	.loc 1 513 21 is_stmt 0 discriminator 2
	srli	a4,a5,16
	.loc 1 514 21 discriminator 2
	srli	a5,a5,24
.LVL242:
	.loc 1 513 10 discriminator 2
	sb	a4,2(s0)
	.loc 1 514 5 is_stmt 1 discriminator 2
.LVL243:
	.loc 1 514 10 is_stmt 0 discriminator 2
	sb	a5,3(s0)
	.loc 1 515 5 is_stmt 1 discriminator 2
	.loc 1 515 12 is_stmt 0 discriminator 2
	lw	a5,16(s1)
.LVL244:
	.loc 1 516 5 is_stmt 1 discriminator 2
	.loc 1 517 21 is_stmt 0 discriminator 2
	srli	a4,a5,8
	.loc 1 516 10 discriminator 2
	sb	a5,4(s0)
	.loc 1 517 5 is_stmt 1 discriminator 2
.LVL245:
	.loc 1 517 10 is_stmt 0 discriminator 2
	sb	a4,5(s0)
	.loc 1 518 5 is_stmt 1 discriminator 2
.LVL246:
	.loc 1 518 21 is_stmt 0 discriminator 2
	srli	a4,a5,16
	.loc 1 519 21 discriminator 2
	srli	a5,a5,24
.LVL247:
	.loc 1 518 10 discriminator 2
	sb	a4,6(s0)
	.loc 1 519 5 is_stmt 1 discriminator 2
.LVL248:
	.loc 1 519 10 is_stmt 0 discriminator 2
	sb	a5,7(s0)
	.loc 1 520 5 is_stmt 1 discriminator 2
	.loc 1 520 12 is_stmt 0 discriminator 2
	lw	a5,52(s1)
.LVL249:
	.loc 1 521 5 is_stmt 1 discriminator 2
	.loc 1 522 21 is_stmt 0 discriminator 2
	srli	a4,a5,8
	.loc 1 521 10 discriminator 2
	sb	a5,8(s0)
	.loc 1 522 5 is_stmt 1 discriminator 2
.LVL250:
	.loc 1 522 10 is_stmt 0 discriminator 2
	sb	a4,9(s0)
	.loc 1 523 5 is_stmt 1 discriminator 2
.LVL251:
	.loc 1 523 21 is_stmt 0 discriminator 2
	srli	a4,a5,16
	.loc 1 524 21 discriminator 2
	srli	a5,a5,24
.LVL252:
	.loc 1 523 10 discriminator 2
	sb	a4,10(s0)
	.loc 1 524 5 is_stmt 1 discriminator 2
.LVL253:
	.loc 1 524 10 is_stmt 0 discriminator 2
	sb	a5,11(s0)
	.loc 1 525 5 is_stmt 1 discriminator 2
	.loc 1 525 12 is_stmt 0 discriminator 2
	lw	a5,20(s1)
.LVL254:
	.loc 1 526 5 is_stmt 1 discriminator 2
	.loc 1 527 21 is_stmt 0 discriminator 2
	srli	a4,a5,8
	.loc 1 526 10 discriminator 2
	sb	a5,12(s0)
	.loc 1 527 5 is_stmt 1 discriminator 2
.LVL255:
	.loc 1 527 10 is_stmt 0 discriminator 2
	sb	a4,13(s0)
	.loc 1 528 5 is_stmt 1 discriminator 2
.LVL256:
	.loc 1 528 21 is_stmt 0 discriminator 2
	srli	a4,a5,16
	.loc 1 529 21 discriminator 2
	srli	a5,a5,24
.LVL257:
	.loc 1 528 10 discriminator 2
	sb	a4,14(s0)
	.loc 1 529 5 is_stmt 1 discriminator 2
.LVL258:
	.loc 1 529 10 is_stmt 0 discriminator 2
	sb	a5,15(s0)
	.loc 1 530 5 is_stmt 1 discriminator 2
	.loc 1 530 12 is_stmt 0 discriminator 2
	lw	a5,56(s1)
.LVL259:
	.loc 1 531 5 is_stmt 1 discriminator 2
	.loc 1 532 21 is_stmt 0 discriminator 2
	srli	a4,a5,8
	.loc 1 531 10 discriminator 2
	sb	a5,16(s0)
	.loc 1 532 5 is_stmt 1 discriminator 2
.LVL260:
	.loc 1 532 10 is_stmt 0 discriminator 2
	sb	a4,17(s0)
	.loc 1 533 5 is_stmt 1 discriminator 2
.LVL261:
	.loc 1 533 21 is_stmt 0 discriminator 2
	srli	a4,a5,16
	.loc 1 534 21 discriminator 2
	srli	a5,a5,24
.LVL262:
	.loc 1 533 10 discriminator 2
	sb	a4,18(s0)
	.loc 1 534 5 is_stmt 1 discriminator 2
.LVL263:
	.loc 1 534 10 is_stmt 0 discriminator 2
	sb	a5,19(s0)
	.loc 1 535 5 is_stmt 1 discriminator 2
	.loc 1 535 12 is_stmt 0 discriminator 2
	lw	a5,24(s1)
.LVL264:
	.loc 1 536 5 is_stmt 1 discriminator 2
	.loc 1 537 21 is_stmt 0 discriminator 2
	srli	a4,a5,8
	.loc 1 536 10 discriminator 2
	sb	a5,20(s0)
	.loc 1 537 5 is_stmt 1 discriminator 2
.LVL265:
	.loc 1 537 10 is_stmt 0 discriminator 2
	sb	a4,21(s0)
	.loc 1 538 5 is_stmt 1 discriminator 2
.LVL266:
	.loc 1 538 21 is_stmt 0 discriminator 2
	srli	a4,a5,16
	.loc 1 539 21 discriminator 2
	srli	a5,a5,24
.LVL267:
	.loc 1 538 10 discriminator 2
	sb	a4,22(s0)
	.loc 1 539 5 is_stmt 1 discriminator 2
.LVL268:
	.loc 1 539 10 is_stmt 0 discriminator 2
	sb	a5,23(s0)
	.loc 1 540 5 is_stmt 1 discriminator 2
	.loc 1 540 12 is_stmt 0 discriminator 2
	lw	a5,60(s1)
.LVL269:
	.loc 1 541 5 is_stmt 1 discriminator 2
	.loc 1 542 21 is_stmt 0 discriminator 2
	srli	a4,a5,8
	.loc 1 541 10 discriminator 2
	sb	a5,24(s0)
	.loc 1 542 5 is_stmt 1 discriminator 2
.LVL270:
	.loc 1 542 10 is_stmt 0 discriminator 2
	sb	a4,25(s0)
	.loc 1 543 5 is_stmt 1 discriminator 2
.LVL271:
	.loc 1 543 21 is_stmt 0 discriminator 2
	srli	a4,a5,16
	.loc 1 544 21 discriminator 2
	srli	a5,a5,24
.LVL272:
	.loc 1 544 10 discriminator 2
	sb	a5,27(s0)
	.loc 1 543 10 discriminator 2
	sb	a4,26(s0)
	.loc 1 544 5 is_stmt 1 discriminator 2
.LVL273:
	.loc 1 546 5 discriminator 2
	.loc 1 546 14 is_stmt 0 discriminator 2
	lw	a4,0(s1)
	.loc 1 548 8 discriminator 2
	li	a5,1
	.loc 1 546 10 discriminator 2
	extu	a4,a4,2+3-1,2
.LVL274:
	.loc 1 548 5 is_stmt 1 discriminator 2
	.loc 1 548 21 is_stmt 0 discriminator 2
	addi	a3,a4,-4
	andi	a3,a3,0xff
	.loc 1 548 8 discriminator 2
	bleu	a3,a5,.L107
	.loc 1 548 36 discriminator 1
	li	a5,7
	bne	a4,a5,.L108
.L107:
	.loc 1 549 9 is_stmt 1
	.loc 1 549 16 is_stmt 0
	lw	a5,28(s1)
	.loc 1 550 9 is_stmt 1
.LVL275:
	.loc 1 551 25 is_stmt 0
	srli	a2,a5,8
	.loc 1 550 14
	sb	a5,28(s0)
	.loc 1 551 9 is_stmt 1
.LVL276:
	.loc 1 551 14 is_stmt 0
	sb	a2,29(s0)
	.loc 1 552 9 is_stmt 1
.LVL277:
	.loc 1 552 25 is_stmt 0
	srli	a2,a5,16
	.loc 1 553 25
	srli	a5,a5,24
	.loc 1 553 14
	sb	a5,31(s0)
	.loc 1 552 14
	sb	a2,30(s0)
	.loc 1 553 9 is_stmt 1
.LVL278:
	.loc 1 555 9
	.loc 1 555 12 is_stmt 0
	li	a5,1
	bgtu	a3,a5,.L108
	.loc 1 556 13 is_stmt 1
	.loc 1 556 20 is_stmt 0
	lw	a5,64(s1)
.LVL279:
	.loc 1 557 13 is_stmt 1
	.loc 1 558 29 is_stmt 0
	srli	a3,a5,8
	.loc 1 557 18
	sb	a5,32(s0)
	.loc 1 558 13 is_stmt 1
.LVL280:
	.loc 1 558 18 is_stmt 0
	sb	a3,33(s0)
	.loc 1 559 13 is_stmt 1
.LVL281:
	.loc 1 559 29 is_stmt 0
	srli	a3,a5,16
	.loc 1 560 29
	srli	a5,a5,24
.LVL282:
	.loc 1 559 18
	sb	a3,34(s0)
	.loc 1 560 13 is_stmt 1
.LVL283:
	.loc 1 560 18 is_stmt 0
	sb	a5,35(s0)
	.loc 1 561 13 is_stmt 1
	.loc 1 561 20 is_stmt 0
	lw	a5,32(s1)
.LVL284:
	.loc 1 562 13 is_stmt 1
	.loc 1 563 29 is_stmt 0
	srli	a3,a5,8
	.loc 1 562 18
	sb	a5,36(s0)
	.loc 1 563 13 is_stmt 1
.LVL285:
	.loc 1 563 18 is_stmt 0
	sb	a3,37(s0)
	.loc 1 564 13 is_stmt 1
.LVL286:
	.loc 1 564 29 is_stmt 0
	srli	a3,a5,16
	.loc 1 565 29
	srli	a5,a5,24
.LVL287:
	.loc 1 564 18
	sb	a3,38(s0)
	.loc 1 565 13 is_stmt 1
.LVL288:
	.loc 1 565 18 is_stmt 0
	sb	a5,39(s0)
	.loc 1 566 13 is_stmt 1
	.loc 1 566 20 is_stmt 0
	lw	a5,68(s1)
.LVL289:
	.loc 1 567 13 is_stmt 1
	.loc 1 568 29 is_stmt 0
	srli	a3,a5,8
	.loc 1 567 18
	sb	a5,40(s0)
	.loc 1 568 13 is_stmt 1
.LVL290:
	.loc 1 568 18 is_stmt 0
	sb	a3,41(s0)
	.loc 1 569 13 is_stmt 1
.LVL291:
	.loc 1 569 29 is_stmt 0
	srli	a3,a5,16
	.loc 1 570 29
	srli	a5,a5,24
.LVL292:
	.loc 1 569 18
	sb	a3,42(s0)
	.loc 1 570 13 is_stmt 1
.LVL293:
	.loc 1 570 18 is_stmt 0
	sb	a5,43(s0)
	.loc 1 571 13 is_stmt 1
	.loc 1 571 20 is_stmt 0
	lw	a5,36(s1)
.LVL294:
	.loc 1 572 13 is_stmt 1
	.loc 1 573 29 is_stmt 0
	srli	a3,a5,8
	.loc 1 572 18
	sb	a5,44(s0)
	.loc 1 573 13 is_stmt 1
.LVL295:
	.loc 1 573 18 is_stmt 0
	sb	a3,45(s0)
	.loc 1 574 13 is_stmt 1
.LVL296:
	.loc 1 574 29 is_stmt 0
	srli	a3,a5,16
	.loc 1 575 29
	srli	a5,a5,24
.LVL297:
	.loc 1 575 18
	sb	a5,47(s0)
	.loc 1 574 18
	sb	a3,46(s0)
	.loc 1 575 13 is_stmt 1
.LVL298:
	.loc 1 577 13
	.loc 1 577 16 is_stmt 0
	li	a5,4
	bne	a4,a5,.L108
	.loc 1 578 17 is_stmt 1
	.loc 1 578 24 is_stmt 0
	lw	a5,72(s1)
.LVL299:
	.loc 1 579 17 is_stmt 1
	.loc 1 580 33 is_stmt 0
	srli	a4,a5,8
.LVL300:
	.loc 1 579 22
	sb	a5,48(s0)
	.loc 1 580 17 is_stmt 1
.LVL301:
	.loc 1 580 22 is_stmt 0
	sb	a4,49(s0)
	.loc 1 581 17 is_stmt 1
.LVL302:
	.loc 1 581 33 is_stmt 0
	srli	a4,a5,16
	.loc 1 582 33
	srli	a5,a5,24
.LVL303:
	.loc 1 581 22
	sb	a4,50(s0)
	.loc 1 582 17 is_stmt 1
.LVL304:
	.loc 1 582 22 is_stmt 0
	sb	a5,51(s0)
	.loc 1 583 17 is_stmt 1
	.loc 1 583 24 is_stmt 0
	lw	a5,40(s1)
.LVL305:
	.loc 1 584 17 is_stmt 1
	.loc 1 585 33 is_stmt 0
	srli	a4,a5,8
	.loc 1 584 22
	sb	a5,52(s0)
	.loc 1 585 17 is_stmt 1
.LVL306:
	.loc 1 585 22 is_stmt 0
	sb	a4,53(s0)
	.loc 1 586 17 is_stmt 1
.LVL307:
	.loc 1 586 33 is_stmt 0
	srli	a4,a5,16
	.loc 1 587 33
	srli	a5,a5,24
.LVL308:
	.loc 1 586 22
	sb	a4,54(s0)
	.loc 1 587 17 is_stmt 1
.LVL309:
	.loc 1 587 22 is_stmt 0
	sb	a5,55(s0)
	.loc 1 588 17 is_stmt 1
	.loc 1 588 24 is_stmt 0
	lw	a5,76(s1)
.LVL310:
	.loc 1 589 17 is_stmt 1
	.loc 1 590 33 is_stmt 0
	srli	a4,a5,8
	.loc 1 589 22
	sb	a5,56(s0)
	.loc 1 590 17 is_stmt 1
.LVL311:
	.loc 1 590 22 is_stmt 0
	sb	a4,57(s0)
	.loc 1 591 17 is_stmt 1
.LVL312:
	.loc 1 591 33 is_stmt 0
	srli	a4,a5,16
	.loc 1 592 33
	srli	a5,a5,24
.LVL313:
	.loc 1 591 22
	sb	a4,58(s0)
	.loc 1 592 17 is_stmt 1
.LVL314:
	.loc 1 592 22 is_stmt 0
	sb	a5,59(s0)
	.loc 1 593 17 is_stmt 1
	.loc 1 593 24 is_stmt 0
	lw	a5,44(s1)
.LVL315:
	.loc 1 594 17 is_stmt 1
	.loc 1 595 33 is_stmt 0
	srli	a4,a5,8
	.loc 1 594 22
	sb	a5,60(s0)
	.loc 1 595 17 is_stmt 1
.LVL316:
	.loc 1 595 22 is_stmt 0
	sb	a4,61(s0)
	.loc 1 596 17 is_stmt 1
.LVL317:
	.loc 1 596 33 is_stmt 0
	srli	a4,a5,16
	.loc 1 597 33
	srli	a5,a5,24
.LVL318:
	.loc 1 596 22
	sb	a4,62(s0)
	.loc 1 597 17 is_stmt 1
.LVL319:
	.loc 1 597 22 is_stmt 0
	sb	a5,63(s0)
.LVL320:
.L108:
	.loc 1 603 5 is_stmt 1
	.loc 1 603 12 is_stmt 0
	lw	a5,0(s1)
.LVL321:
	.loc 1 604 5 is_stmt 1
	.loc 1 605 5
	.loc 1 608 1 is_stmt 0
	lw	ra,44(sp)
	.cfi_restore 1
	lw	s0,40(sp)
	.cfi_restore 8
.LVL322:
	.loc 1 605 12
	andi	a5,a5,-97
.LVL323:
	.loc 1 606 5 is_stmt 1
	.loc 1 606 58 is_stmt 0
	sw	a5,0(s1)
	.loc 1 608 1
	lw	s2,32(sp)
	.cfi_restore 18
.LVL324:
	lw	s1,36(sp)
	.cfi_restore 9
.LVL325:
	lw	s3,28(sp)
	.cfi_restore 19
.LVL326:
	lw	s4,24(sp)
	.cfi_restore 20
.LVL327:
	addi	sp,sp,48
	.cfi_def_cfa_offset 0
	jr	ra
	.cfi_endproc
.LFE15:
	.size	qcc74x_sha512_finish, .-qcc74x_sha512_finish
	.section	.text.qcc74x_sha_link_init,"ax",@progbits
	.align	1
	.globl	qcc74x_sha_link_init
	.type	qcc74x_sha_link_init, @function
qcc74x_sha_link_init:
.LFB16:
	.loc 1 611 1 is_stmt 1
	.cfi_startproc
.LVL328:
	.loc 1 615 5
	.loc 1 616 5
	.loc 1 618 5
	.loc 1 620 5
	.loc 1 620 16 is_stmt 0
	lw	a3,4(a0)
	.loc 1 622 12
	li	a4,32768
	addi	a4,a4,32
	.loc 1 620 12
	lw	a5,0(a3)
.LVL329:
	.loc 1 621 5 is_stmt 1
	.loc 1 622 5
	.loc 1 622 12 is_stmt 0
	or	a5,a5,a4
.LVL330:
	.loc 1 623 5 is_stmt 1
	.loc 1 623 58 is_stmt 0
	sw	a5,0(a3)
.LVL331:
	.loc 1 625 1
	ret
	.cfi_endproc
.LFE16:
	.size	qcc74x_sha_link_init, .-qcc74x_sha_link_init
	.section	.text.qcc74x_sha_link_deinit,"ax",@progbits
	.align	1
	.globl	qcc74x_sha_link_deinit
	.type	qcc74x_sha_link_deinit, @function
qcc74x_sha_link_deinit:
.LFB17:
	.loc 1 628 1 is_stmt 1
	.cfi_startproc
.LVL332:
	.loc 1 632 5
	.loc 1 633 5
	.loc 1 635 5
	.loc 1 637 5
	.loc 1 637 16 is_stmt 0
	lw	a3,4(a0)
	.loc 1 639 12
	li	a4,-32768
	addi	a4,a4,-33
	.loc 1 637 12
	lw	a5,0(a3)
.LVL333:
	.loc 1 638 5 is_stmt 1
	.loc 1 639 5
	.loc 1 639 12 is_stmt 0
	and	a5,a5,a4
.LVL334:
	.loc 1 640 5 is_stmt 1
	.loc 1 640 58 is_stmt 0
	sw	a5,0(a3)
.LVL335:
	.loc 1 642 1
	ret
	.cfi_endproc
.LFE17:
	.size	qcc74x_sha_link_deinit, .-qcc74x_sha_link_deinit
	.section	.text.qcc74x_sha1_link_start,"ax",@progbits
	.align	1
	.globl	qcc74x_sha1_link_start
	.type	qcc74x_sha1_link_start, @function
qcc74x_sha1_link_start:
.LFB18:
	.loc 1 645 1 is_stmt 1
	.cfi_startproc
.LVL336:
	.loc 1 649 5
	.loc 1 645 1 is_stmt 0
	addi	sp,sp,-16
	.cfi_def_cfa_offset 16
	sw	s0,8(sp)
	.cfi_offset 8, -8
	mv	s0,a1
	.loc 1 649 5
	mv	a0,s0
.LVL337:
	li	a2,256
	li	a1,0
.LVL338:
	.loc 1 645 1
	sw	ra,12(sp)
	.cfi_offset 1, -4
	.loc 1 649 5
	call	arch_memset
.LVL339:
	.loc 1 650 5 is_stmt 1
	.loc 1 650 25 is_stmt 0
	li	a5,-128
	sb	a5,96(s0)
	.loc 1 651 5 is_stmt 1
	.loc 1 651 43 is_stmt 0
	addi	a5,s0,164
	.loc 1 651 20
	sw	a5,160(s0)
	.loc 1 652 5 is_stmt 1
	.loc 1 652 28 is_stmt 0
	lw	a5,164(s0)
	.loc 1 654 1
	lw	ra,12(sp)
	.cfi_restore 1
	.loc 1 652 28
	andi	a5,a5,-29
	ori	a5,a5,8
	sw	a5,164(s0)
	.loc 1 654 1
	lw	s0,8(sp)
	.cfi_restore 8
.LVL340:
	addi	sp,sp,16
	.cfi_def_cfa_offset 0
	jr	ra
	.cfi_endproc
.LFE18:
	.size	qcc74x_sha1_link_start, .-qcc74x_sha1_link_start
	.section	.text.qcc74x_sha256_link_start,"ax",@progbits
	.align	1
	.globl	qcc74x_sha256_link_start
	.type	qcc74x_sha256_link_start, @function
qcc74x_sha256_link_start:
.LFB19:
	.loc 1 657 1 is_stmt 1
	.cfi_startproc
.LVL341:
	.loc 1 661 5
	.loc 1 657 1 is_stmt 0
	addi	sp,sp,-16
	.cfi_def_cfa_offset 16
	sw	s0,8(sp)
	.cfi_offset 8, -8
	mv	s0,a1
	sw	s1,4(sp)
	.loc 1 661 5
	mv	a0,s0
.LVL342:
	.cfi_offset 9, -12
	.loc 1 657 1
	mv	s1,a2
	.loc 1 661 5
	li	a1,0
.LVL343:
	li	a2,256
.LVL344:
	.loc 1 657 1
	sw	ra,12(sp)
	.cfi_offset 1, -4
	.loc 1 661 5
	call	arch_memset
.LVL345:
	.loc 1 662 5 is_stmt 1
	lw	a2,164(s0)
	snez	s1,s1
.LVL346:
	.loc 1 662 25 is_stmt 0
	li	a5,-128
	slli	s1,s1,2
	andi	a2,a2,-29
	sb	a5,96(s0)
	.loc 1 663 5 is_stmt 1
	or	a2,a2,s1
	.loc 1 663 43 is_stmt 0
	addi	a5,s0,164
	.loc 1 670 1
	lw	ra,12(sp)
	.cfi_restore 1
	.loc 1 663 20
	sw	a5,160(s0)
	.loc 1 664 5 is_stmt 1
	sw	a2,164(s0)
	.loc 1 670 1 is_stmt 0
	lw	s0,8(sp)
	.cfi_restore 8
.LVL347:
	lw	s1,4(sp)
	.cfi_restore 9
	addi	sp,sp,16
	.cfi_def_cfa_offset 0
	jr	ra
	.cfi_endproc
.LFE19:
	.size	qcc74x_sha256_link_start, .-qcc74x_sha256_link_start
	.section	.text.qcc74x_sha512_link_start,"ax",@progbits
	.align	1
	.globl	qcc74x_sha512_link_start
	.type	qcc74x_sha512_link_start, @function
qcc74x_sha512_link_start:
.LFB20:
	.loc 1 673 1 is_stmt 1
	.cfi_startproc
.LVL348:
	.loc 1 677 5
	.loc 1 673 1 is_stmt 0
	addi	sp,sp,-16
	.cfi_def_cfa_offset 16
	sw	s1,4(sp)
	.cfi_offset 9, -12
	mv	s1,a1
	sw	s0,8(sp)
	.loc 1 677 5
	mv	a0,s1
.LVL349:
	.cfi_offset 8, -8
	.loc 1 673 1
	mv	s0,a2
	.loc 1 677 5
	li	a1,0
.LVL350:
	li	a2,384
.LVL351:
	.loc 1 673 1
	sw	ra,12(sp)
	.cfi_offset 1, -4
	.loc 1 677 5
	call	arch_memset
.LVL352:
	.loc 1 678 5 is_stmt 1
	.loc 1 678 25 is_stmt 0
	li	a5,-128
	sb	a5,160(s1)
	.loc 1 679 5 is_stmt 1
	.loc 1 679 43 is_stmt 0
	addi	a5,s1,292
	.loc 1 679 20
	sw	a5,288(s1)
	.loc 1 680 5 is_stmt 1
	.loc 1 683 32 is_stmt 0
	snez	a2,s0
	lw	a5,292(s1)
	addi	a2,a2,4
	andi	a2,a2,7
	.loc 1 686 1
	lw	ra,12(sp)
	.cfi_restore 1
	lw	s0,8(sp)
	.cfi_restore 8
.LVL353:
	slli	a2,a2,2
	andi	a5,a5,-29
	or	a2,a5,a2
	sw	a2,292(s1)
	lw	s1,4(sp)
	.cfi_restore 9
.LVL354:
	addi	sp,sp,16
	.cfi_def_cfa_offset 0
	jr	ra
	.cfi_endproc
.LFE20:
	.size	qcc74x_sha512_link_start, .-qcc74x_sha512_link_start
	.section	.text.qcc74x_sha1_link_update,"ax",@progbits
	.align	1
	.globl	qcc74x_sha1_link_update
	.type	qcc74x_sha1_link_update, @function
qcc74x_sha1_link_update:
.LFB21:
	.loc 1 692 1 is_stmt 1
	.cfi_startproc
.LVL355:
	.loc 1 696 5
	.loc 1 697 5
	.loc 1 698 5
	.loc 1 699 5
	.loc 1 700 5
	.loc 1 702 5
	.loc 1 702 8 is_stmt 0
	bne	a3,zero,.L124
	.loc 1 703 16
	li	a0,0
.LVL356:
	.loc 1 784 1
	ret
.LVL357:
.L124:
	.loc 1 692 1
	addi	sp,sp,-48
	.cfi_def_cfa_offset 48
	sw	s2,32(sp)
.LBB14:
.LBB15:
	.loc 1 709 65
	lw	a5,160(a1)
	.cfi_offset 18, -16
	lw	s2,4(a0)
.LVL358:
.LBE15:
.LBE14:
	.loc 1 692 1
	sw	s0,40(sp)
	sw	s1,36(sp)
	sw	s3,28(sp)
	sw	s4,24(sp)
	sw	ra,44(sp)
	sw	s5,20(sp)
	sw	s6,16(sp)
	sw	s7,12(sp)
	sw	s8,8(sp)
	.cfi_offset 8, -8
	.cfi_offset 9, -12
	.cfi_offset 19, -20
	.cfi_offset 20, -24
	.cfi_offset 1, -4
	.cfi_offset 21, -28
	.cfi_offset 22, -32
	.cfi_offset 23, -36
	.cfi_offset 24, -40
.LBB18:
.LBB16:
	.loc 1 709 59
	sw	a5,80(s2)
	.loc 1 711 22
	lw	a5,0(a1)
	mv	s0,a1
	mv	s4,a2
.LVL359:
	.loc 1 706 5 is_stmt 1
	.loc 1 709 5
	.loc 1 711 5
	.loc 1 711 10 is_stmt 0
	andi	s3,a5,63
.LVL360:
	.loc 1 712 5 is_stmt 1
	.loc 1 714 5
	.loc 1 714 19 is_stmt 0
	add	a5,a3,a5
	sw	a5,0(a1)
	.loc 1 715 5 is_stmt 1
	.loc 1 717 5
	mv	s1,a3
	.loc 1 717 8 is_stmt 0
	bleu	a3,a5,.L126
.LVL361:
	.loc 1 718 9 is_stmt 1
	.loc 1 718 22 is_stmt 0
	lw	a5,4(a1)
	addi	a5,a5,1
	sw	a5,4(a1)
.L126:
	.loc 1 721 5 is_stmt 1
	.loc 1 721 8 is_stmt 0
	beq	s3,zero,.L127
	.loc 1 712 10
	li	s5,64
	sub	s5,s5,s3
	.loc 1 721 14
	bltu	s1,s5,.L127
	.loc 1 722 9 is_stmt 1
	.loc 1 722 46 is_stmt 0
	addi	s6,s0,32
	.loc 1 722 9
	mv	a1,s4
	add	a0,s6,s3
.LVL362:
	mv	a2,s5
.LVL363:
	call	arch_memcpy_fast
.LVL364:
	.loc 1 724 9 is_stmt 1
	.loc 1 724 54 is_stmt 0
	lw	a5,160(s0)
	.loc 1 727 54
	li	a4,1
	.loc 1 736 13
	addi	s3,s3,-64
.LVL365:
	.loc 1 724 54
	sw	s6,4(a5)
	.loc 1 727 9 is_stmt 1
	.loc 1 727 54 is_stmt 0
	lw	a5,160(s0)
	.loc 1 736 13
	add	s1,s1,s3
.LVL366:
	.loc 1 735 15
	add	s4,s4,s5
.LVL367:
	.loc 1 727 54
	sh	a4,2(a5)
	.loc 1 729 9 is_stmt 1
	.loc 1 729 16 is_stmt 0
	lw	a5,0(s2)
.LVL368:
	.loc 1 730 9 is_stmt 1
	.loc 1 737 14 is_stmt 0
	li	s3,0
.LVL369:
	.loc 1 730 16
	ori	a5,a5,2
.LVL370:
	.loc 1 731 9 is_stmt 1
	.loc 1 731 62 is_stmt 0
	sw	a5,0(s2)
	.loc 1 734 9 is_stmt 1
	.loc 1 734 50 is_stmt 0
	lw	a4,160(s0)
	lw	a5,0(a4)
.LVL371:
	ori	a5,a5,64
	sw	a5,0(a4)
.LVL372:
	.loc 1 735 9 is_stmt 1
	.loc 1 736 9
	.loc 1 737 9
.L127:
	.loc 1 740 5
	.loc 1 741 5
	.loc 1 743 8 is_stmt 0
	li	a5,63
	.loc 1 741 9
	andi	s5,s1,63
.LVL373:
	.loc 1 743 5 is_stmt 1
	.loc 1 743 8 is_stmt 0
	bleu	s1,a5,.L128
	.loc 1 744 9 is_stmt 1
	.loc 1 744 22 is_stmt 0
	call	qcc74x_mtimer_get_time_ms
.LVL374:
	mv	s6,a0
	mv	s7,a1
.LVL375:
	.loc 1 745 9 is_stmt 1
	.loc 1 746 16 is_stmt 0
	li	s8,100
.L129:
	.loc 1 745 15 is_stmt 1
	.loc 1 745 17 is_stmt 0
	lw	a5,0(s2)
	.loc 1 745 70
	andi	a5,a5,1
	.loc 1 745 15
	bne	a5,zero,.L131
	.loc 1 752 9 is_stmt 1
	.loc 1 752 54 is_stmt 0
	lw	a5,160(s0)
	.loc 1 740 10
	srli	a4,s1,6
	.loc 1 759 24
	andi	s1,s1,-64
.LVL376:
	.loc 1 752 54
	sw	s4,4(a5)
	.loc 1 753 9 is_stmt 1
	.loc 1 753 54 is_stmt 0
	lw	a5,160(s0)
	.loc 1 759 15
	add	s4,s4,s1
.LVL377:
	.loc 1 753 54
	sh	a4,2(a5)
	.loc 1 755 9 is_stmt 1
	.loc 1 755 16 is_stmt 0
	lw	a5,0(s2)
.LVL378:
	.loc 1 756 9 is_stmt 1
	.loc 1 756 16 is_stmt 0
	ori	a5,a5,2
.LVL379:
	.loc 1 757 9 is_stmt 1
	.loc 1 757 62 is_stmt 0
	sw	a5,0(s2)
	.loc 1 759 9 is_stmt 1
.LVL380:
	.loc 1 761 9
	.loc 1 761 50 is_stmt 0
	lw	a4,160(s0)
	lw	a5,0(a4)
.LVL381:
	ori	a5,a5,64
	sw	a5,0(a4)
.LVL382:
.L128:
	.loc 1 764 5 is_stmt 1
	.loc 1 764 8 is_stmt 0
	beq	s5,zero,.L132
	.loc 1 765 9 is_stmt 1
	.loc 1 765 22 is_stmt 0
	call	qcc74x_mtimer_get_time_ms
.LVL383:
	mv	s6,a0
	mv	s7,a1
.LVL384:
	.loc 1 766 9 is_stmt 1
	.loc 1 767 16 is_stmt 0
	li	s1,100
.L133:
	.loc 1 766 15 is_stmt 1
	.loc 1 766 17 is_stmt 0
	lw	a5,0(s2)
	.loc 1 766 70
	andi	a5,a5,1
	.loc 1 766 15
	bne	a5,zero,.L136
	.loc 1 773 9 is_stmt 1
	.loc 1 773 46 is_stmt 0
	addi	a0,s0,32
	.loc 1 773 9
	mv	a2,s5
	mv	a1,s4
	add	a0,a0,s3
	call	arch_memcpy_fast
.LVL385:
.L132:
	.loc 1 776 5 is_stmt 1
	.loc 1 776 18 is_stmt 0
	call	qcc74x_mtimer_get_time_ms
.LVL386:
	mv	s0,a0
.LVL387:
	mv	s1,a1
.LVL388:
	.loc 1 777 5 is_stmt 1
	.loc 1 778 12 is_stmt 0
	li	s3,100
.LVL389:
.L137:
	.loc 1 777 11 is_stmt 1
	.loc 1 777 13 is_stmt 0
	lw	a5,0(s2)
	.loc 1 777 66
	andi	a5,a5,1
	.loc 1 777 11
	bne	a5,zero,.L139
.LBE16:
.LBE18:
	.loc 1 703 16
	li	a0,0
.LVL390:
.L123:
	.loc 1 784 1
	lw	ra,44(sp)
	.cfi_remember_state
	.cfi_restore 1
	lw	s0,40(sp)
	.cfi_restore 8
	lw	s1,36(sp)
	.cfi_restore 9
	lw	s2,32(sp)
	.cfi_restore 18
.LVL391:
	lw	s3,28(sp)
	.cfi_restore 19
	lw	s4,24(sp)
	.cfi_restore 20
.LVL392:
	lw	s5,20(sp)
	.cfi_restore 21
.LVL393:
	lw	s6,16(sp)
	.cfi_restore 22
	lw	s7,12(sp)
	.cfi_restore 23
	lw	s8,8(sp)
	.cfi_restore 24
	addi	sp,sp,48
	.cfi_def_cfa_offset 0
	jr	ra
.LVL394:
.L131:
	.cfi_restore_state
.LBB19:
.LBB17:
	.loc 1 746 13 is_stmt 1
	.loc 1 746 18 is_stmt 0
	call	qcc74x_mtimer_get_time_ms
.LVL395:
	.loc 1 746 46
	sub64	a0,a0,s6
	.loc 1 746 16
	bne	a1,zero,.L134
	bgeu	s8,a0,.L129
.LVL396:
.L134:
	.loc 1 747 24
	li	a0,-116
	j	.L123
.LVL397:
.L136:
	.loc 1 767 13 is_stmt 1
	.loc 1 767 18 is_stmt 0
	call	qcc74x_mtimer_get_time_ms
.LVL398:
	.loc 1 767 46
	sub64	a0,a0,s6
	.loc 1 767 16
	bne	a1,zero,.L134
	bgeu	s1,a0,.L133
	j	.L134
.LVL399:
.L139:
	.loc 1 778 9 is_stmt 1
	.loc 1 778 14 is_stmt 0
	call	qcc74x_mtimer_get_time_ms
.LVL400:
	.loc 1 778 42
	sub64	a0,a0,s0
	.loc 1 778 12
	bne	a1,zero,.L134
	bgeu	s3,a0,.L137
	j	.L134
.LBE17:
.LBE19:
	.cfi_endproc
.LFE21:
	.size	qcc74x_sha1_link_update, .-qcc74x_sha1_link_update
	.section	.text.qcc74x_sha256_link_update,"ax",@progbits
	.align	1
	.globl	qcc74x_sha256_link_update
	.type	qcc74x_sha256_link_update, @function
qcc74x_sha256_link_update:
.LFB22:
	.loc 1 790 1 is_stmt 1
	.cfi_startproc
.LVL401:
	.loc 1 794 5
	.loc 1 794 12 is_stmt 0
	tail	qcc74x_sha1_link_update
.LVL402:
	.cfi_endproc
.LFE22:
	.size	qcc74x_sha256_link_update, .-qcc74x_sha256_link_update
	.section	.text.qcc74x_sha512_link_update,"ax",@progbits
	.align	1
	.globl	qcc74x_sha512_link_update
	.type	qcc74x_sha512_link_update, @function
qcc74x_sha512_link_update:
.LFB23:
	.loc 1 802 1 is_stmt 1
	.cfi_startproc
.LVL403:
	.loc 1 806 5
	.loc 1 807 5
	.loc 1 808 5
	.loc 1 809 5
	.loc 1 810 5
	.loc 1 812 5
	.loc 1 812 8 is_stmt 0
	or	a5,a3,a4
	bne	a5,zero,.L152
	.loc 1 813 16
	li	a0,0
.LVL404:
	.loc 1 893 1
	ret
.LVL405:
.L152:
	.loc 1 802 1
	addi	sp,sp,-64
	.cfi_def_cfa_offset 64
	sw	s1,52(sp)
.LBB22:
.LBB23:
	.loc 1 819 65
	lw	a5,288(a1)
	.cfi_offset 9, -12
	lw	s1,4(a0)
.LVL406:
.LBE23:
.LBE22:
	.loc 1 802 1
	sw	s0,56(sp)
	sw	s4,40(sp)
	sw	s5,36(sp)
	sw	s10,16(sp)
	sw	s11,12(sp)
	sw	ra,60(sp)
	sw	s2,48(sp)
	sw	s3,44(sp)
	sw	s6,32(sp)
	sw	s7,28(sp)
	sw	s8,24(sp)
	sw	s9,20(sp)
	.cfi_offset 8, -8
	.cfi_offset 20, -24
	.cfi_offset 21, -28
	.cfi_offset 26, -48
	.cfi_offset 27, -52
	.cfi_offset 1, -4
	.cfi_offset 18, -16
	.cfi_offset 19, -20
	.cfi_offset 22, -32
	.cfi_offset 23, -36
	.cfi_offset 24, -40
	.cfi_offset 25, -44
.LBB26:
.LBB24:
	.loc 1 819 59
	sw	a5,80(s1)
	mv	s11,a4
	.loc 1 821 22
	lw	a5,4(a1)
	lw	a4,0(a1)
	mv	s10,a3
	mv	s0,a1
	.loc 1 821 10
	andi	s5,a4,127
	.loc 1 824 19
	add64	a4,s10,a4
	sw	a4,0(a1)
	sw	a5,4(a1)
	mv	s4,a2
.LVL407:
	.loc 1 816 5 is_stmt 1
	.loc 1 819 5
	.loc 1 821 5
	.loc 1 822 5
	.loc 1 824 5
	.loc 1 826 5
	.loc 1 826 8 is_stmt 0
	bgtu	s11,a5,.L172
.LVL408:
	bne	s11,a5,.L154
	bgeu	a4,s10,.L154
.L172:
	.loc 1 827 9 is_stmt 1
	.loc 1 827 22 is_stmt 0
	lw	a4,8(s0)
	lw	a5,12(s0)
	li	a2,1
.LVL409:
	li	a3,0
.LVL410:
	add64	a4,a4,a2
	sw	a4,8(s0)
	sw	a5,12(s0)
.L154:
	.loc 1 830 5 is_stmt 1
	.loc 1 830 8 is_stmt 0
	beq	s5,zero,.L156
	.loc 1 822 10
	li	s6,128
	sub	s6,s6,s5
	.loc 1 830 21
	mv	s8,s6
	li	s9,0
	.loc 1 830 14
	bne	s11,zero,.L173
	bltu	s10,s6,.L156
.L173:
	.loc 1 831 9 is_stmt 1
	.loc 1 831 46 is_stmt 0
	addi	s7,s0,32
	.loc 1 831 9
	mv	a1,s4
	add	a0,s7,s5
.LVL411:
	mv	a2,s6
	call	arch_memcpy_fast
.LVL412:
	.loc 1 833 9 is_stmt 1
	.loc 1 833 54 is_stmt 0
	lw	a5,288(s0)
	.loc 1 836 54
	li	a4,1
	.loc 1 844 15
	add	s4,s4,s6
.LVL413:
	.loc 1 833 54
	sw	s7,4(a5)
	.loc 1 836 9 is_stmt 1
	.loc 1 836 54 is_stmt 0
	lw	a5,288(s0)
	.loc 1 845 13
	sub64	s10,s10,s8
.LVL414:
	.loc 1 846 14
	li	s5,0
.LVL415:
	.loc 1 836 54
	sh	a4,2(a5)
	.loc 1 838 9 is_stmt 1
	.loc 1 838 16 is_stmt 0
	lw	a5,0(s1)
.LVL416:
	.loc 1 839 9 is_stmt 1
	.loc 1 839 16 is_stmt 0
	ori	a5,a5,2
.LVL417:
	.loc 1 840 9 is_stmt 1
	.loc 1 840 62 is_stmt 0
	sw	a5,0(s1)
	.loc 1 843 9 is_stmt 1
	.loc 1 843 50 is_stmt 0
	lw	a4,288(s0)
	lw	a5,0(a4)
.LVL418:
	ori	a5,a5,64
	sw	a5,0(a4)
.LVL419:
	.loc 1 844 9 is_stmt 1
	.loc 1 845 9
	.loc 1 846 9
.L156:
	.loc 1 849 5
	.loc 1 849 16 is_stmt 0
	wexti	s3,s10,7
.LVL420:
	.loc 1 850 5 is_stmt 1
	.loc 1 850 9 is_stmt 0
	andi	s2,s10,127
.LVL421:
	.loc 1 852 5 is_stmt 1
	.loc 1 852 8 is_stmt 0
	beq	s3,zero,.L158
	.loc 1 853 9 is_stmt 1
	.loc 1 853 22 is_stmt 0
	call	qcc74x_mtimer_get_time_ms
.LVL422:
	mv	s6,a0
	mv	s7,a1
.LVL423:
	.loc 1 854 9 is_stmt 1
	.loc 1 855 16 is_stmt 0
	li	s8,100
.L159:
	.loc 1 854 15 is_stmt 1
	.loc 1 854 17 is_stmt 0
	lw	a5,0(s1)
	.loc 1 854 70
	andi	a5,a5,1
	.loc 1 854 15
	bne	a5,zero,.L161
	.loc 1 861 9 is_stmt 1
	.loc 1 861 54 is_stmt 0
	lw	a5,288(s0)
	sw	s4,4(a5)
	.loc 1 862 9 is_stmt 1
	.loc 1 862 54 is_stmt 0
	lw	a5,288(s0)
	sh	s3,2(a5)
	.loc 1 864 9 is_stmt 1
	.loc 1 864 16 is_stmt 0
	lw	a5,0(s1)
.LVL424:
	.loc 1 865 9 is_stmt 1
	.loc 1 868 24 is_stmt 0
	slli	s3,s3,7
.LVL425:
	.loc 1 868 15
	add	s4,s4,s3
.LVL426:
	.loc 1 865 16
	ori	a5,a5,2
.LVL427:
	.loc 1 866 9 is_stmt 1
	.loc 1 866 62 is_stmt 0
	sw	a5,0(s1)
	.loc 1 868 9 is_stmt 1
.LVL428:
	.loc 1 870 9
	.loc 1 870 50 is_stmt 0
	lw	a4,288(s0)
	lw	a5,0(a4)
.LVL429:
	ori	a5,a5,64
	sw	a5,0(a4)
.LVL430:
.L158:
	.loc 1 873 5 is_stmt 1
	.loc 1 873 8 is_stmt 0
	beq	s2,zero,.L162
	.loc 1 874 9 is_stmt 1
	.loc 1 874 22 is_stmt 0
	call	qcc74x_mtimer_get_time_ms
.LVL431:
	mv	s6,a0
	mv	s7,a1
.LVL432:
	.loc 1 875 9 is_stmt 1
	.loc 1 876 16 is_stmt 0
	li	s3,100
.L164:
	.loc 1 875 15 is_stmt 1
	.loc 1 875 17 is_stmt 0
	lw	a5,0(s1)
	.loc 1 875 70
	andi	a5,a5,1
	.loc 1 875 15
	bne	a5,zero,.L167
	.loc 1 882 9 is_stmt 1
	.loc 1 882 46 is_stmt 0
	addi	a0,s0,32
	.loc 1 882 9
	mv	a2,s2
	mv	a1,s4
	add	a0,a0,s5
	call	arch_memcpy_fast
.LVL433:
.L162:
	.loc 1 885 5 is_stmt 1
	.loc 1 885 18 is_stmt 0
	call	qcc74x_mtimer_get_time_ms
.LVL434:
	mv	s2,a0
.LVL435:
	mv	s3,a1
.LVL436:
	.loc 1 886 5 is_stmt 1
	.loc 1 887 12 is_stmt 0
	li	s0,100
.LVL437:
.L168:
	.loc 1 886 11 is_stmt 1
	.loc 1 886 13 is_stmt 0
	lw	a5,0(s1)
	.loc 1 886 66
	andi	a5,a5,1
	.loc 1 886 11
	bne	a5,zero,.L170
.LBE24:
.LBE26:
	.loc 1 813 16
	li	a0,0
.LVL438:
.L151:
	.loc 1 893 1
	lw	ra,60(sp)
	.cfi_remember_state
	.cfi_restore 1
	lw	s0,56(sp)
	.cfi_restore 8
	lw	s1,52(sp)
	.cfi_restore 9
.LVL439:
	lw	s2,48(sp)
	.cfi_restore 18
	lw	s3,44(sp)
	.cfi_restore 19
	lw	s4,40(sp)
	.cfi_restore 20
.LVL440:
	lw	s5,36(sp)
	.cfi_restore 21
.LVL441:
	lw	s6,32(sp)
	.cfi_restore 22
	lw	s7,28(sp)
	.cfi_restore 23
	lw	s8,24(sp)
	.cfi_restore 24
	lw	s9,20(sp)
	.cfi_restore 25
	lw	s10,16(sp)
	.cfi_restore 26
.LVL442:
	lw	s11,12(sp)
	.cfi_restore 27
	addi	sp,sp,64
	.cfi_def_cfa_offset 0
	jr	ra
.LVL443:
.L161:
	.cfi_restore_state
.LBB27:
.LBB25:
	.loc 1 855 13 is_stmt 1
	.loc 1 855 18 is_stmt 0
	call	qcc74x_mtimer_get_time_ms
.LVL444:
	.loc 1 855 46
	sub64	a0,a0,s6
	.loc 1 855 16
	bne	a1,zero,.L165
	bgeu	s8,a0,.L159
.LVL445:
.L165:
	.loc 1 856 24
	li	a0,-116
	j	.L151
.LVL446:
.L167:
	.loc 1 876 13 is_stmt 1
	.loc 1 876 18 is_stmt 0
	call	qcc74x_mtimer_get_time_ms
.LVL447:
	.loc 1 876 46
	sub64	a0,a0,s6
	.loc 1 876 16
	bne	a1,zero,.L165
	bgeu	s3,a0,.L164
	j	.L165
.LVL448:
.L170:
	.loc 1 887 9 is_stmt 1
	.loc 1 887 14 is_stmt 0
	call	qcc74x_mtimer_get_time_ms
.LVL449:
	.loc 1 887 42
	sub64	a0,a0,s2
	.loc 1 887 12
	bne	a1,zero,.L165
	bgeu	s0,a0,.L168
	j	.L165
.LBE25:
.LBE27:
	.cfi_endproc
.LFE23:
	.size	qcc74x_sha512_link_update, .-qcc74x_sha512_link_update
	.section	.text.qcc74x_sha1_link_finish,"ax",@progbits
	.align	1
	.globl	qcc74x_sha1_link_finish
	.type	qcc74x_sha1_link_finish, @function
qcc74x_sha1_link_finish:
.LFB24:
	.loc 1 898 1 is_stmt 1
	.cfi_startproc
.LVL450:
	.loc 1 902 5
	.loc 1 903 5
	.loc 1 904 5
	.loc 1 906 5
	.loc 1 907 5
	.loc 1 907 53 is_stmt 0
	lw	a4,160(a1)
	.loc 1 898 1
	addi	sp,sp,-48
	.cfi_def_cfa_offset 48
	sw	s1,36(sp)
	.loc 1 907 66
	lw	a5,0(a4)
	.loc 1 898 1
	sw	s2,32(sp)
	sw	s0,40(sp)
	.cfi_offset 9, -12
	.cfi_offset 18, -16
	.cfi_offset 8, -8
	.loc 1 907 66
	srli	s2,a5,2
	.loc 1 907 14
	extu	s1,a5,2+3-1,2
.LVL451:
	.loc 1 909 5 is_stmt 1
	.loc 1 912 5
	.loc 1 912 49 is_stmt 0
	lw	a5,4(a0)
	.loc 1 898 1
	sw	s3,28(sp)
	sw	s4,24(sp)
	sw	ra,44(sp)
	.cfi_offset 19, -20
	.cfi_offset 20, -24
	.cfi_offset 1, -4
	.loc 1 912 59
	sw	a4,80(a5)
.LVL452:
	.loc 1 914 5 is_stmt 1
	.loc 1 914 23 is_stmt 0
	lw	a3,0(a1)
.LVL453:
	.loc 1 915 5 is_stmt 1
	.loc 1 917 7
	.loc 1 917 48
	.loc 1 917 93
	.loc 1 917 137
	.loc 1 914 51 is_stmt 0
	lw	a5,4(a1)
.LVL454:
	.loc 1 898 1
	mv	s4,a0
	.loc 1 914 27
	srli	a4,a3,29
	.loc 1 914 51
	slli	a5,a5,3
	.loc 1 914 10
	or	a5,a5,a4
.LVL455:
	rev	a5, a5
.LVL456:
	.loc 1 917 21
	sw	a5,8(sp)
	.loc 1 917 177 is_stmt 1
	.loc 1 918 7
	.loc 1 918 47
	.loc 1 918 91
	.loc 1 918 134
	.loc 1 915 9 is_stmt 0
	slli	a5,a3,3
.LVL457:
	rev	a5, a5
.LVL458:
	.loc 1 918 21
	sw	a5,12(sp)
	.loc 1 918 173 is_stmt 1
	.loc 1 920 5
	.loc 1 920 10 is_stmt 0
	andi	a3,a3,63
.LVL459:
	.loc 1 921 5 is_stmt 1
	.loc 1 921 38 is_stmt 0
	li	a5,55
	.loc 1 898 1
	mv	s0,a1
	mv	s3,a2
	.loc 1 921 38
	bgtu	a3,a5,.L187
	.loc 1 921 38 discriminator 1
	li	a5,56
.L193:
	.loc 1 921 38 discriminator 2
	sub	a3,a5,a3
.LVL460:
	.loc 1 923 5 is_stmt 1 discriminator 2
	addi	a2,s0,96
.LVL461:
	mv	a1,s0
.LVL462:
	mv	a0,s4
.LVL463:
	call	qcc74x_sha1_link_update
.LVL464:
	.loc 1 924 5 discriminator 2
	li	a3,8
	addi	a2,sp,8
	mv	a1,s0
	mv	a0,s4
	call	qcc74x_sha1_link_update
.LVL465:
	.loc 1 927 5 discriminator 2
	andi	a5,s2,4
	bne	a5,zero,.L189
	.loc 1 927 5 is_stmt 0
	andi	s2,s2,6
	lw	a1,160(s0)
	.loc 1 937 13
	li	a2,20
	.loc 1 927 5
	bne	s2,zero,.L194
	.loc 1 929 13
	li	a2,32
	.loc 1 927 5
	beq	s1,zero,.L194
	.loc 1 933 13 is_stmt 1
	li	a2,28
.L194:
	.loc 1 937 13 is_stmt 0
	addi	a1,a1,8
	mv	a0,s3
	call	arch_memcpy_fast
.LVL466:
	.loc 1 938 13 is_stmt 1
.L189:
	.loc 1 949 5
	.loc 1 949 46 is_stmt 0
	lw	a4,160(s0)
	.loc 1 951 1
	lw	ra,44(sp)
	.cfi_remember_state
	.cfi_restore 1
	lw	s0,40(sp)
	.cfi_restore 8
.LVL467:
	.loc 1 949 46
	lw	a5,0(a4)
	.loc 1 951 1
	lw	s1,36(sp)
	.cfi_restore 9
.LVL468:
	lw	s2,32(sp)
	.cfi_restore 18
	.loc 1 949 46
	andi	a5,a5,-65
	sw	a5,0(a4)
	.loc 1 951 1
	lw	s3,28(sp)
	.cfi_restore 19
.LVL469:
	lw	s4,24(sp)
	.cfi_restore 20
.LVL470:
	addi	sp,sp,48
	.cfi_def_cfa_offset 0
	jr	ra
.LVL471:
.L187:
	.cfi_restore_state
	.loc 1 921 38 discriminator 2
	li	a5,120
	j	.L193
	.cfi_endproc
.LFE24:
	.size	qcc74x_sha1_link_finish, .-qcc74x_sha1_link_finish
	.section	.text.qcc74x_sha256_link_finish,"ax",@progbits
	.align	1
	.globl	qcc74x_sha256_link_finish
	.type	qcc74x_sha256_link_finish, @function
qcc74x_sha256_link_finish:
.LFB25:
	.loc 1 956 1 is_stmt 1
	.cfi_startproc
.LVL472:
	.loc 1 960 5
	.loc 1 960 12 is_stmt 0
	tail	qcc74x_sha1_link_finish
.LVL473:
	.cfi_endproc
.LFE25:
	.size	qcc74x_sha256_link_finish, .-qcc74x_sha256_link_finish
	.section	.text.qcc74x_sha512_link_finish,"ax",@progbits
	.align	1
	.globl	qcc74x_sha512_link_finish
	.type	qcc74x_sha512_link_finish, @function
qcc74x_sha512_link_finish:
.LFB26:
	.loc 1 967 1 is_stmt 1
	.cfi_startproc
.LVL474:
	.loc 1 971 5
	.loc 1 972 5
	.loc 1 973 5
	.loc 1 975 5
	.loc 1 976 5
	.loc 1 976 53 is_stmt 0
	lw	a5,288(a1)
	.loc 1 981 49
	lw	a4,4(a0)
	.loc 1 967 1
	addi	sp,sp,-48
	.cfi_def_cfa_offset 48
	sw	s0,40(sp)
	sw	s1,36(sp)
	sw	s2,32(sp)
	sw	s3,28(sp)
	sw	ra,44(sp)
	.cfi_offset 8, -8
	.cfi_offset 9, -12
	.cfi_offset 18, -16
	.cfi_offset 19, -20
	.cfi_offset 1, -4
	.loc 1 976 66
	lw	s1,0(a5)
	.loc 1 983 23
	lw	a7,4(a1)
	.loc 1 981 59
	sw	a5,80(a4)
	.loc 1 983 51
	lw	a4,8(a1)
	lw	a5,12(a1)
	.loc 1 983 23
	lw	a6,0(a1)
	.loc 1 967 1
	mv	s0,a1
	.loc 1 983 51
	wexti	a1,a4,29
.LVL475:
	.loc 1 983 27
	srli	a5,a7,29
	.loc 1 983 51
	slli	a4,a4,3
	.loc 1 983 10
	or	a4,a4,a5
	rev	a4, a4
	.loc 1 984 9
	wexti	a5,a6,29
	.loc 1 967 1
	mv	s3,a0
	.loc 1 986 201
	sw	a4,4(sp)
	.loc 1 986 40
	srli	a0,a1,24
.LVL476:
	.loc 1 987 39
	srli	a4,a5,24
	.loc 1 984 9
	slli	a3,a6,3
	.loc 1 986 23
	sb	a0,0(sp)
	.loc 1 987 23
	sb	a4,8(sp)
	.loc 1 986 85
	srli	a0,a1,16
	.loc 1 987 83
	srli	a4,a5,16
	.loc 1 986 68
	sb	a0,1(sp)
	.loc 1 987 67
	sb	a4,9(sp)
	.loc 1 986 130
	srli	a0,a1,8
	.loc 1 987 127
	srli	a4,a5,8
	.loc 1 987 155
	sb	a5,11(sp)
	rev	a5, a3
	.loc 1 987 111
	sb	a4,10(sp)
	.loc 1 987 197
	sw	a5,12(sp)
	.loc 1 986 113
	sb	a0,2(sp)
	.loc 1 986 158
	sb	a1,3(sp)
	.loc 1 989 10
	andi	a4,a6,127
	.loc 1 990 40
	li	a3,111
	.loc 1 967 1
	mv	s2,a2
	.loc 1 976 14
	extu	s1,s1,2+3-1,2
.LVL477:
	.loc 1 978 5 is_stmt 1
	.loc 1 981 5
	.loc 1 983 5
	.loc 1 984 5
	.loc 1 986 7
	.loc 1 986 48
	.loc 1 986 93
	.loc 1 986 138
	.loc 1 986 183
	.loc 1 986 228
	.loc 1 986 273
	.loc 1 986 317
	.loc 1 986 357
	.loc 1 987 7
	.loc 1 987 47
	.loc 1 987 91
	.loc 1 987 135
	.loc 1 987 179
	.loc 1 987 223
	.loc 1 987 267
	.loc 1 987 310
	.loc 1 987 349
	.loc 1 989 5
	.loc 1 989 10 is_stmt 0
	li	a5,0
.LVL478:
	.loc 1 990 5 is_stmt 1
	.loc 1 990 40 is_stmt 0
	li	a2,112
.LVL479:
	bgeu	a3,a4,.L207
	.loc 1 990 40 discriminator 2
	li	a2,240
.L207:
	li	a3,0
	sub64	a4,a2,a4
.LVL480:
	.loc 1 992 5 is_stmt 1 discriminator 2
	mv	a3,a4
	addi	a2,s0,160
	mv	a4,a5
.LVL481:
	mv	a1,s0
	mv	a0,s3
	call	qcc74x_sha512_link_update
.LVL482:
	.loc 1 993 5 discriminator 2
	mv	a1,s0
	li	a3,16
	li	a4,0
	mv	a2,sp
	mv	a0,s3
	call	qcc74x_sha512_link_update
.LVL483:
	.loc 1 996 5 discriminator 2
	li	a5,6
	lw	a1,288(s0)
	beq	s1,a5,.L200
	.loc 1 996 5 is_stmt 0
	li	a5,7
	beq	s1,a5,.L201
	li	a5,4
	beq	s1,a5,.L202
	li	a5,5
	.loc 1 1002 13
	li	a2,48
	.loc 1 996 5
	beq	s1,a5,.L208
.L204:
	.loc 1 1018 5 is_stmt 1
	.loc 1 1018 46 is_stmt 0
	lw	a4,288(s0)
	.loc 1 1020 1
	lw	ra,44(sp)
	.cfi_remember_state
	.cfi_restore 1
	lw	s0,40(sp)
	.cfi_restore 8
.LVL484:
	.loc 1 1018 46
	lw	a5,0(a4)
	.loc 1 1020 1
	lw	s1,36(sp)
	.cfi_restore 9
.LVL485:
	lw	s2,32(sp)
	.cfi_restore 18
.LVL486:
	.loc 1 1018 46
	andi	a5,a5,-65
	sw	a5,0(a4)
	.loc 1 1020 1
	lw	s3,28(sp)
	.cfi_restore 19
.LVL487:
	addi	sp,sp,48
	.cfi_def_cfa_offset 0
	jr	ra
.LVL488:
.L202:
	.cfi_restore_state
	.loc 1 998 13 is_stmt 1
	li	a2,64
.L208:
	.loc 1 1010 13 is_stmt 0
	addi	a1,a1,8
	mv	a0,s2
	call	arch_memcpy_fast
.LVL489:
	.loc 1 1011 13 is_stmt 1
	j	.L204
.L200:
	.loc 1 1006 13
	li	a2,28
	j	.L208
.L201:
	.loc 1 1010 13
	li	a2,32
	j	.L208
	.cfi_endproc
.LFE26:
	.size	qcc74x_sha512_link_finish, .-qcc74x_sha512_link_finish
	.section	.text.qcc74x_group0_request_sha_access,"ax",@progbits
	.align	1
	.globl	qcc74x_group0_request_sha_access
	.type	qcc74x_group0_request_sha_access, @function
qcc74x_group0_request_sha_access:
.LFB27:
	.loc 1 1023 1
	.cfi_startproc
.LVL490:
	.loc 1 1027 5
	.loc 1 1028 5
	.loc 1 1030 5
	.loc 1 1030 14 is_stmt 0
	lw	a4,4(a0)
.LVL491:
	.loc 1 1032 5 is_stmt 1
	.loc 1 1032 58 is_stmt 0
	li	a5,4096
	addi	a5,a5,-256
	.loc 1 1032 12
	lrw	a3,a4,a5,0
.LVL492:
	.loc 1 1033 5 is_stmt 1
	.loc 1 1033 8 is_stmt 0
	li	a2,3
	.loc 1 1033 17
	andi	a3,a3,3
.LVL493:
	.loc 1 1033 8
	bne	a3,a2,.L209
	.loc 1 1034 9 is_stmt 1
	.loc 1 1034 63 is_stmt 0
	li	a3,2
	sw	a3,252(a4)
	.loc 1 1036 9 is_stmt 1
	.loc 1 1036 16 is_stmt 0
	lrw	a5,a4,a5,0
	.loc 1 1037 9 is_stmt 1
	.loc 1 1038 9
.L209:
	.loc 1 1041 1 is_stmt 0
	ret
	.cfi_endproc
.LFE27:
	.size	qcc74x_group0_request_sha_access, .-qcc74x_group0_request_sha_access
	.section	.text.qcc74x_group0_release_sha_access,"ax",@progbits
	.align	1
	.globl	qcc74x_group0_release_sha_access
	.type	qcc74x_group0_release_sha_access, @function
qcc74x_group0_release_sha_access:
.LFB28:
	.loc 1 1044 1 is_stmt 1
	.cfi_startproc
.LVL494:
	.loc 1 1048 5
	.loc 1 1050 5
	.loc 1 1052 5
	.loc 1 1052 49 is_stmt 0
	lw	a5,4(a0)
	.loc 1 1052 59
	li	a4,6
	sw	a4,252(a5)
.LVL495:
	.loc 1 1054 1
	ret
	.cfi_endproc
.LFE28:
	.size	qcc74x_group0_release_sha_access, .-qcc74x_group0_release_sha_access
	.section	.text.qcc74x_sha_crc32_link_work,"ax",@progbits
	.align	1
	.globl	qcc74x_sha_crc32_link_work
	.type	qcc74x_sha_crc32_link_work, @function
qcc74x_sha_crc32_link_work:
.LFB29:
	.loc 1 1057 1 is_stmt 1
	.cfi_startproc
.LVL496:
	.loc 1 1061 5
	.loc 1 1062 5
	.loc 1 1063 5
	.loc 1 1065 5
	.loc 1 1057 1 is_stmt 0
	addi	sp,sp,-32
	.cfi_def_cfa_offset 32
	sw	s1,20(sp)
	sw	ra,28(sp)
	sw	s0,24(sp)
	sw	s2,16(sp)
	sw	s3,12(sp)
	sw	s4,8(sp)
	sw	s5,4(sp)
	.cfi_offset 9, -12
	.cfi_offset 1, -4
	.cfi_offset 8, -8
	.cfi_offset 18, -16
	.cfi_offset 19, -20
	.cfi_offset 20, -24
	.cfi_offset 21, -28
	.loc 1 1067 15
	andi	a5,a1,3
	.loc 1 1065 14
	lw	s1,4(a0)
.LVL497:
	.loc 1 1067 5 is_stmt 1
	.loc 1 1068 16 is_stmt 0
	li	a0,-22
.LVL498:
	.loc 1 1067 8
	bne	a5,zero,.L212
	.loc 1 1072 59
	sw	a1,80(s1)
	.loc 1 1075 40
	sw	a2,4(a1)
	.loc 1 1081 12
	lw	a5,0(s1)
	.loc 1 1078 50
	extu	a3,a3,2+27-1,2
.LVL499:
	.loc 1 1078 40
	sh	a3,2(a1)
	.loc 1 1082 12
	ori	a5,a5,2
	.loc 1 1083 58
	sw	a5,0(s1)
	mv	s2,a4
	mv	s0,a1
	.loc 1 1072 5 is_stmt 1
	.loc 1 1075 5
	.loc 1 1078 5
	.loc 1 1081 5
	.loc 1 1082 5
.LVL500:
	.loc 1 1083 5
	.loc 1 1085 5
	.loc 1 1085 18 is_stmt 0
	call	qcc74x_mtimer_get_time_ms
.LVL501:
	mv	s4,a0
	mv	s5,a1
.LVL502:
	.loc 1 1086 5 is_stmt 1
	.loc 1 1087 12 is_stmt 0
	li	s3,100
.L214:
	.loc 1 1086 11 is_stmt 1
	.loc 1 1086 13 is_stmt 0
	lw	a5,0(s1)
	.loc 1 1086 66
	andi	a5,a5,1
	.loc 1 1086 11
	bne	a5,zero,.L216
	.loc 1 1093 5 is_stmt 1
	li	a2,4
	addi	a1,s0,16
	mv	a0,s2
	call	arch_memcpy_fast
.LVL503:
	.loc 1 1095 5
	.loc 1 1095 12 is_stmt 0
	li	a0,0
.LVL504:
.L212:
	.loc 1 1097 1
	lw	ra,28(sp)
	.cfi_remember_state
	.cfi_restore 1
	lw	s0,24(sp)
	.cfi_restore 8
	lw	s1,20(sp)
	.cfi_restore 9
.LVL505:
	lw	s2,16(sp)
	.cfi_restore 18
	lw	s3,12(sp)
	.cfi_restore 19
	lw	s4,8(sp)
	.cfi_restore 20
	lw	s5,4(sp)
	.cfi_restore 21
	addi	sp,sp,32
	.cfi_def_cfa_offset 0
	jr	ra
.LVL506:
.L216:
	.cfi_restore_state
	.loc 1 1087 9 is_stmt 1
	.loc 1 1087 14 is_stmt 0
	call	qcc74x_mtimer_get_time_ms
.LVL507:
	.loc 1 1087 42
	sub64	a0,a0,s4
	.loc 1 1087 12
	bne	a1,zero,.L218
	bgeu	s3,a0,.L214
.L218:
	.loc 1 1088 20
	li	a0,-116
	j	.L212
	.cfi_endproc
.LFE29:
	.size	qcc74x_sha_crc32_link_work, .-qcc74x_sha_crc32_link_work
	.text
.Letext0:
	.file 2 "./toolchain/linux_x86_64/riscv64-unknown-elf/include/machine/_default_types.h"
	.file 3 "./toolchain/linux_x86_64/riscv64-unknown-elf/include/sys/_stdint.h"
	.file 4 "./drivers/lhal/include/qcc74x_core.h"
	.file 5 "./drivers/lhal/include/qcc74x_sec_sha.h"
	.file 6 "./drivers/lhal/include/qcc74x_mtimer.h"
	.file 7 "./drivers/lhal/include/qcc74x_common.h"