	.file	"qcc74x_wo.c"
	.option nopic
	.attribute arch, "rv32i2p0_m2p0_a2p0_f2p0_c2p0_p0p9_zpn0p9_zpsfoperand0p9_xtheade2p0"
	.attribute unaligned_access, 0
	.attribute stack_align, 16
	.text
.Ltext0:
	.cfi_sections	.debug_frame
	.section	.text.qcc74x_wo_pin_init,"ax",@progbits
	.align	1
	.globl	qcc74x_wo_pin_init
	.type	qcc74x_wo_pin_init, @function
qcc74x_wo_pin_init:
.LFB5:
	.file 1 "./drivers/lhal/src/qcc74x_wo.c"
	.loc 1 11 1
	.cfi_startproc
.LVL0:
	.loc 1 15 5
	.loc 1 16 5
	.loc 1 18 5
	.loc 1 18 14 is_stmt 0
	lw	a4,4(a0)
	li	a5,4096
	addi	a5,a5,-1852
	add	a4,a4,a5
.LVL1:
	.loc 1 19 5 is_stmt 1
	.loc 1 20 5
	.loc 1 21 5
	.loc 1 22 5
	.loc 1 23 5
	.loc 1 26 16 is_stmt 0
	li	a5,-1069543424
	.loc 1 23 8
	bne	a2,zero,.L4
	.loc 1 24 16
	li	a5,-2143285248
.L4:
	addi	a5,a5,-1202
.LVL2:
	.loc 1 28 5 is_stmt 1
	.loc 1 28 50 is_stmt 0
	srw	a5,a4,a1,2
	.loc 1 30 1
	ret
	.cfi_endproc
.LFE5:
	.size	qcc74x_wo_pin_init, .-qcc74x_wo_pin_init
	.section	.text.qcc74x_wo_init,"ax",@progbits
	.align	1
	.globl	qcc74x_wo_init
	.type	qcc74x_wo_init, @function
qcc74x_wo_init:
.LFB6:
	.loc 1 33 1 is_stmt 1
	.cfi_startproc
.LVL3:
	.loc 1 37 5
	.loc 1 38 5
	.loc 1 40 5
	.loc 1 40 14 is_stmt 0
	lw	a3,4(a0)
.LVL4:
	.loc 1 42 5 is_stmt 1
	.loc 1 42 58 is_stmt 0
	li	a4,4096
	addi	a4,a4,-1284
	.loc 1 42 12
	lrw	a5,a3,a4,0
.LVL5:
	.loc 1 43 5 is_stmt 1
	.loc 1 43 12 is_stmt 0
	andi	a5,a5,-2
.LVL6:
	.loc 1 44 5 is_stmt 1
	.loc 1 44 60 is_stmt 0
	srw	a5,a3,a4,0
	.loc 1 55 5 is_stmt 1
	.loc 1 55 12 is_stmt 0
	lrw	a5,a3,a4,0
.LVL7:
	.loc 1 56 5 is_stmt 1
	.loc 1 57 5
	.loc 1 58 5
	.loc 1 60 19 is_stmt 0
	lbu	a0,2(a1)
.LVL8:
	.loc 1 58 12
	andi	a2,a5,127
.LVL9:
	.loc 1 59 5 is_stmt 1
	.loc 1 60 5
	.loc 1 61 5
	.loc 1 59 19 is_stmt 0
	lhu	a5,0(a1)
	.loc 1 60 37
	slli	a0,a0,16
.LVL10:
	.loc 1 59 36
	slli	a5,a5,7
	.loc 1 61 12
	or	a5,a5,a0
	.loc 1 61 19
	lbu	a0,3(a1)
.LVL11:
	.loc 1 61 37
	slli	a0,a0,24
	.loc 1 61 12
	or	a5,a5,a0
	.loc 1 62 8
	lbu	a0,4(a1)
	.loc 1 61 12
	or	a5,a5,a2
.LVL12:
	.loc 1 62 5 is_stmt 1
	.loc 1 65 16 is_stmt 0
	ori	a2,a5,2
	.loc 1 62 8
	beq	a0,zero,.L7
	.loc 1 63 9 is_stmt 1
	.loc 1 63 16 is_stmt 0
	andi	a2,a5,-3
.LVL13:
.L7:
	.loc 1 67 5 is_stmt 1
	.loc 1 67 8 is_stmt 0
	lbu	a0,5(a1)
	.loc 1 70 16
	ori	a5,a2,4
	.loc 1 67 8
	beq	a0,zero,.L9
	.loc 1 68 9 is_stmt 1
	.loc 1 68 16 is_stmt 0
	andi	a5,a2,-5
.LVL14:
.L9:
	.loc 1 72 5 is_stmt 1
	.loc 1 75 58 is_stmt 0
	li	a2,4096
	.loc 1 72 60
	srw	a5,a3,a4,0
	.loc 1 75 5 is_stmt 1
	.loc 1 75 58 is_stmt 0
	addi	a2,a2,-1280
	.loc 1 75 12
	lrw	a5,a3,a2,0
.LVL15:
	.loc 1 76 5 is_stmt 1
	.loc 1 76 12 is_stmt 0
	li	a0,-8323072
	addi	a0,a0,-1
	and	a0,a5,a0
.LVL16:
	.loc 1 77 5 is_stmt 1
	.loc 1 77 19 is_stmt 0
	lbu	a5,7(a1)
	.loc 1 78 8
	lbu	a6,6(a1)
	.loc 1 77 36
	slli	a5,a5,16
	.loc 1 77 12
	or	a5,a5,a0
.LVL17:
	.loc 1 78 5 is_stmt 1
	.loc 1 81 16 is_stmt 0
	andi	a0,a5,-129
	.loc 1 78 8
	beq	a6,zero,.L11
	.loc 1 79 9 is_stmt 1
	.loc 1 79 16 is_stmt 0
	ori	a0,a5,128
.LVL18:
.L11:
	.loc 1 83 5 is_stmt 1
	.loc 1 83 8 is_stmt 0
	lbu	a1,8(a1)
.LVL19:
	.loc 1 86 16
	ori	a5,a0,2
	.loc 1 83 8
	bne	a1,zero,.L13
	.loc 1 84 9 is_stmt 1
	.loc 1 84 16 is_stmt 0
	andi	a5,a0,-3
.LVL20:
.L13:
	.loc 1 89 5 is_stmt 1
	.loc 1 90 5
	.loc 1 90 12 is_stmt 0
	ori	a5,a5,12
.LVL21:
	.loc 1 92 5 is_stmt 1
	.loc 1 92 60 is_stmt 0
	srw	a5,a3,a2,0
	.loc 1 95 5 is_stmt 1
	.loc 1 95 12 is_stmt 0
	lrw	a5,a3,a4,0
.LVL22:
	.loc 1 96 5 is_stmt 1
	.loc 1 96 12 is_stmt 0
	ori	a5,a5,1
.LVL23:
	.loc 1 97 5 is_stmt 1
	.loc 1 97 60 is_stmt 0
	srw	a5,a3,a4,0
	.loc 1 99 1
	ret
	.cfi_endproc
.LFE6:
	.size	qcc74x_wo_init, .-qcc74x_wo_init
	.section	.text.qcc74x_wo_enable,"ax",@progbits
	.align	1
	.globl	qcc74x_wo_enable
	.type	qcc74x_wo_enable, @function
qcc74x_wo_enable:
.LFB7:
	.loc 1 102 1 is_stmt 1
	.cfi_startproc
.LVL24:
	.loc 1 106 5
	.loc 1 107 5
	.loc 1 109 5
	.loc 1 110 5
	.loc 1 110 58 is_stmt 0
	lw	a3,4(a0)
	li	a5,4096
	addi	a5,a5,-1284
	.loc 1 110 12
	lrw	a4,a3,a5,0
.LVL25:
	.loc 1 111 5 is_stmt 1
	.loc 1 111 12 is_stmt 0
	ori	a4,a4,1
.LVL26:
	.loc 1 112 5 is_stmt 1
	.loc 1 112 60 is_stmt 0
	srw	a4,a3,a5,0
.LVL27:
	.loc 1 114 1
	ret
	.cfi_endproc
.LFE7:
	.size	qcc74x_wo_enable, .-qcc74x_wo_enable
	.section	.text.qcc74x_wo_disable,"ax",@progbits
	.align	1
	.globl	qcc74x_wo_disable
	.type	qcc74x_wo_disable, @function
qcc74x_wo_disable:
.LFB8:
	.loc 1 117 1 is_stmt 1
	.cfi_startproc
.LVL28:
	.loc 1 121 5
	.loc 1 122 5
	.loc 1 124 5
	.loc 1 125 5
	.loc 1 125 58 is_stmt 0
	lw	a3,4(a0)
	li	a5,4096
	addi	a5,a5,-1284
	.loc 1 125 12
	lrw	a4,a3,a5,0
.LVL29:
	.loc 1 126 5 is_stmt 1
	.loc 1 126 12 is_stmt 0
	andi	a4,a4,-2
.LVL30:
	.loc 1 127 5 is_stmt 1
	.loc 1 127 60 is_stmt 0
	srw	a4,a3,a5,0
.LVL31:
	.loc 1 129 1
	ret
	.cfi_endproc
.LFE8:
	.size	qcc74x_wo_disable, .-qcc74x_wo_disable
	.section	.text.qcc74x_wo_get_fifo_available_cnt,"ax",@progbits
	.align	1
	.globl	qcc74x_wo_get_fifo_available_cnt
	.type	qcc74x_wo_get_fifo_available_cnt, @function
qcc74x_wo_get_fifo_available_cnt:
.LFB9:
	.loc 1 132 1 is_stmt 1
	.cfi_startproc
.LVL32:
	.loc 1 136 5
	.loc 1 138 5
	.loc 1 138 63 is_stmt 0
	lw	a4,4(a0)
	li	a5,4096
	addi	a5,a5,-1280
	.loc 1 138 12
	lrw	a0,a4,a5,0
.LVL33:
	.loc 1 139 5 is_stmt 1
	.loc 1 140 5
	.loc 1 141 5
	.loc 1 143 1 is_stmt 0
	extu	a0,a0,8+8-1,8
.LVL34:
	ret
	.cfi_endproc
.LFE9:
	.size	qcc74x_wo_get_fifo_available_cnt, .-qcc74x_wo_get_fifo_available_cnt
	.section	.text.qcc74x_wo_push_fifo,"ax",@progbits
	.align	1
	.globl	qcc74x_wo_push_fifo
	.type	qcc74x_wo_push_fifo, @function
qcc74x_wo_push_fifo:
.LFB10:
	.loc 1 146 1 is_stmt 1
	.cfi_startproc
.LVL35:
	.loc 1 150 5
	.loc 1 151 5
	.loc 1 146 1 is_stmt 0
	addi	sp,sp,-32
	.cfi_def_cfa_offset 32
	sw	s4,8(sp)
	.cfi_offset 20, -24
	mv	s4,a0
	.loc 1 151 21
	li	a0,1
.LVL36:
	.loc 1 146 1
	sw	ra,28(sp)
	sw	s0,24(sp)
	sw	s1,20(sp)
	sw	s2,16(sp)
	sw	s3,12(sp)
	sw	s5,4(sp)
	sw	s6,0(sp)
	.cfi_offset 1, -4
	.cfi_offset 8, -8
	.cfi_offset 9, -12
	.cfi_offset 18, -16
	.cfi_offset 19, -20
	.cfi_offset 21, -28
	.cfi_offset 22, -32
	.loc 1 146 1
	mv	s5,a2
	mv	s6,a1
	.loc 1 151 21
	call	qcc74x_clk_get_system_clock
.LVL37:
	mv	s0,a0
.LVL38:
	.loc 1 152 5 is_stmt 1
	.loc 1 152 21 is_stmt 0
	li	a0,3
	call	qcc74x_clk_get_system_clock
.LVL39:
	.loc 1 153 5 is_stmt 1
	.loc 1 153 28 is_stmt 0
	divu	s0,s0,a0
.LVL40:
	.loc 1 158 62
	li	s3,4096
	.loc 1 150 14
	li	s1,0
	.loc 1 158 62
	addi	s3,s3,-1276
	.loc 1 153 14
	slli	s0,s0,9
.LVL41:
	.loc 1 154 5 is_stmt 1
	.loc 1 156 5
	.loc 1 154 14 is_stmt 0
	mv	s2,s0
.LVL42:
.L21:
	.loc 1 156 11 is_stmt 1
	bgeu	s1,s5,.L20
	.loc 1 157 9
	.loc 1 157 13 is_stmt 0
	mv	a0,s4
	call	qcc74x_wo_get_fifo_available_cnt
.LVL43:
	.loc 1 157 12
	beq	a0,zero,.L22
	.loc 1 158 13 is_stmt 1
.LVL44:
	.loc 1 158 76 is_stmt 0
	lrhu	a4,s6,s1,1
	.loc 1 158 62
	lw	a5,4(s4)
	.loc 1 159 16
	mv	s2,s0
.LVL45:
	.loc 1 158 94
	addi	s1,s1,1
.LVL46:
	.loc 1 158 73
	srw	a4,a5,s3,0
	.loc 1 159 13 is_stmt 1
.LVL47:
	j	.L21
.L22:
	.loc 1 161 13
	.loc 1 161 15 is_stmt 0
	addi	s2,s2,-1
.LVL48:
	.loc 1 162 13 is_stmt 1
	.loc 1 162 16 is_stmt 0
	bne	s2,zero,.L21
.L20:
	.loc 1 169 1
	lw	ra,28(sp)
	.cfi_restore 1
	lw	s0,24(sp)
	.cfi_restore 8
.LVL49:
	lw	s2,16(sp)
	.cfi_restore 18
.LVL50:
	lw	s3,12(sp)
	.cfi_restore 19
	lw	s4,8(sp)
	.cfi_restore 20
.LVL51:
	lw	s5,4(sp)
	.cfi_restore 21
.LVL52:
	lw	s6,0(sp)
	.cfi_restore 22
.LVL53:
	mv	a0,s1
	lw	s1,20(sp)
	.cfi_restore 9
.LVL54:
	addi	sp,sp,32
	.cfi_def_cfa_offset 0
	jr	ra
	.cfi_endproc
.LFE10:
	.size	qcc74x_wo_push_fifo, .-qcc74x_wo_push_fifo
	.section	.text.qcc74x_wo_clear_fifo,"ax",@progbits
	.align	1
	.globl	qcc74x_wo_clear_fifo
	.type	qcc74x_wo_clear_fifo, @function
qcc74x_wo_clear_fifo:
.LFB11:
	.loc 1 172 1 is_stmt 1
	.cfi_startproc
.LVL55:
	.loc 1 176 5
	.loc 1 177 5
	.loc 1 179 5
	.loc 1 180 5
	.loc 1 180 58 is_stmt 0
	lw	a3,4(a0)
	li	a5,4096
	addi	a5,a5,-1280
	.loc 1 180 12
	lrw	a4,a3,a5,0
.LVL56:
	.loc 1 181 5 is_stmt 1
	.loc 1 181 12 is_stmt 0
	ori	a4,a4,4
.LVL57:
	.loc 1 182 5 is_stmt 1
	.loc 1 182 60 is_stmt 0
	srw	a4,a3,a5,0
.LVL58:
	.loc 1 184 1
	ret
	.cfi_endproc
.LFE11:
	.size	qcc74x_wo_clear_fifo, .-qcc74x_wo_clear_fifo
	.section	.text.qcc74x_wo_enable_dma,"ax",@progbits
	.align	1
	.globl	qcc74x_wo_enable_dma
	.type	qcc74x_wo_enable_dma, @function
qcc74x_wo_enable_dma:
.LFB12:
	.loc 1 187 1 is_stmt 1
	.cfi_startproc
.LVL59:
	.loc 1 191 5
	.loc 1 192 5
	.loc 1 194 5
	.loc 1 195 5
	.loc 1 195 58 is_stmt 0
	lw	a3,4(a0)
	li	a5,4096
	addi	a5,a5,-1280
	.loc 1 195 12
	lrw	a4,a3,a5,0
.LVL60:
	.loc 1 196 5 is_stmt 1
	.loc 1 196 12 is_stmt 0
	ori	a4,a4,1
.LVL61:
	.loc 1 197 5 is_stmt 1
	.loc 1 197 60 is_stmt 0
	srw	a4,a3,a5,0
.LVL62:
	.loc 1 199 1
	ret
	.cfi_endproc
.LFE12:
	.size	qcc74x_wo_enable_dma, .-qcc74x_wo_enable_dma
	.section	.text.qcc74x_wo_disable_dma,"ax",@progbits
	.align	1
	.globl	qcc74x_wo_disable_dma
	.type	qcc74x_wo_disable_dma, @function
qcc74x_wo_disable_dma:
.LFB13:
	.loc 1 202 1 is_stmt 1
	.cfi_startproc
.LVL63:
	.loc 1 206 5
	.loc 1 207 5
	.loc 1 209 5
	.loc 1 210 5
	.loc 1 210 58 is_stmt 0
	lw	a3,4(a0)
	li	a5,4096
	addi	a5,a5,-1280
	.loc 1 210 12
	lrw	a4,a3,a5,0
.LVL64:
	.loc 1 211 5 is_stmt 1
	.loc 1 211 12 is_stmt 0
	andi	a4,a4,-2
.LVL65:
	.loc 1 212 5 is_stmt 1
	.loc 1 212 60 is_stmt 0
	srw	a4,a3,a5,0
.LVL66:
	.loc 1 214 1
	ret
	.cfi_endproc
.LFE13:
	.size	qcc74x_wo_disable_dma, .-qcc74x_wo_disable_dma
	.section	.text.qcc74x_wo_get_int_status,"ax",@progbits
	.align	1
	.globl	qcc74x_wo_get_int_status
	.type	qcc74x_wo_get_int_status, @function
qcc74x_wo_get_int_status:
.LFB14:
	.loc 1 217 1 is_stmt 1
	.cfi_startproc
.LVL67:
	.loc 1 221 5
	.loc 1 222 5
	.loc 1 224 5
	.loc 1 224 63 is_stmt 0
	lw	a4,4(a0)
	li	a5,4096
	addi	a5,a5,-1280
	.loc 1 224 12
	lrw	a5,a4,a5,0
.LVL68:
	.loc 1 225 5 is_stmt 1
	.loc 1 228 16 is_stmt 0
	li	a4,134217728
	and	a4,a5,a4
	.loc 1 225 8
	extu	a0,a5,26+1-1,26
.LVL69:
	.loc 1 228 5 is_stmt 1
	.loc 1 228 8 is_stmt 0
	beq	a4,zero,.L31
	.loc 1 229 9 is_stmt 1
	.loc 1 229 13 is_stmt 0
	ori	a0,a0,2
.LVL70:
.L31:
	.loc 1 231 5 is_stmt 1
	.loc 1 231 16 is_stmt 0
	li	a4,268435456
	and	a5,a5,a4
.LVL71:
	.loc 1 231 8
	beq	a5,zero,.L30
	.loc 1 232 9 is_stmt 1
	.loc 1 232 13 is_stmt 0
	ori	a0,a0,4
.LVL72:
	.loc 1 234 5 is_stmt 1
.L30:
	.loc 1 236 1 is_stmt 0
	ret
	.cfi_endproc
.LFE14:
	.size	qcc74x_wo_get_int_status, .-qcc74x_wo_get_int_status
	.section	.text.qcc74x_wo_int_mask,"ax",@progbits
	.align	1
	.globl	qcc74x_wo_int_mask
	.type	qcc74x_wo_int_mask, @function
qcc74x_wo_int_mask:
.LFB15:
	.loc 1 239 1 is_stmt 1
	.cfi_startproc
.LVL73:
	.loc 1 243 5
	.loc 1 244 5
	.loc 1 246 5
	.loc 1 247 5
	.loc 1 247 58 is_stmt 0
	lw	a3,4(a0)
	li	a4,4096
	addi	a4,a4,-1280
	.loc 1 247 12
	lrw	a5,a3,a4,0
.LVL74:
	.loc 1 248 5 is_stmt 1
	.loc 1 248 18 is_stmt 0
	andi	a2,a1,1
	.loc 1 248 8
	beq	a2,zero,.L40
	.loc 1 249 9 is_stmt 1
	.loc 1 249 16 is_stmt 0
	li	a2,8388608
	or	a5,a5,a2
.LVL75:
.L40:
	.loc 1 251 5 is_stmt 1
	.loc 1 251 18 is_stmt 0
	andi	a2,a1,2
	.loc 1 251 8
	beq	a2,zero,.L41
	.loc 1 252 9 is_stmt 1
	.loc 1 252 16 is_stmt 0
	li	a2,16777216
	or	a5,a5,a2
.LVL76:
.L41:
	.loc 1 254 5 is_stmt 1
	.loc 1 254 18 is_stmt 0
	andi	a1,a1,4
.LVL77:
	.loc 1 254 8
	beq	a1,zero,.L42
	.loc 1 255 9 is_stmt 1
	.loc 1 255 16 is_stmt 0
	li	a2,33554432
	or	a5,a5,a2
.LVL78:
.L42:
	.loc 1 257 5 is_stmt 1
	.loc 1 257 60 is_stmt 0
	srw	a5,a3,a4,0
.LVL79:
	.loc 1 259 1
	ret
	.cfi_endproc
.LFE15:
	.size	qcc74x_wo_int_mask, .-qcc74x_wo_int_mask
	.section	.text.qcc74x_wo_int_unmask,"ax",@progbits
	.align	1
	.globl	qcc74x_wo_int_unmask
	.type	qcc74x_wo_int_unmask, @function
qcc74x_wo_int_unmask:
.LFB16:
	.loc 1 262 1 is_stmt 1
	.cfi_startproc
.LVL80:
	.loc 1 266 5
	.loc 1 267 5
	.loc 1 269 5
	.loc 1 270 5
	.loc 1 270 58 is_stmt 0
	lw	a2,4(a0)
	li	a4,4096
	addi	a4,a4,-1280
	.loc 1 270 12
	lrw	a5,a2,a4,0
.LVL81:
	.loc 1 271 5 is_stmt 1
	.loc 1 271 18 is_stmt 0
	andi	a3,a1,1
	.loc 1 271 8
	beq	a3,zero,.L53
	.loc 1 272 9 is_stmt 1
	.loc 1 272 16 is_stmt 0
	li	a3,-8388608
	addi	a3,a3,-1
	and	a5,a5,a3
.LVL82:
.L53:
	.loc 1 274 5 is_stmt 1
	.loc 1 274 18 is_stmt 0
	andi	a3,a1,2
	.loc 1 274 8
	beq	a3,zero,.L54
	.loc 1 275 9 is_stmt 1
	.loc 1 275 16 is_stmt 0
	li	a3,-16777216
	addi	a3,a3,-1
	and	a5,a5,a3
.LVL83:
.L54:
	.loc 1 277 5 is_stmt 1
	.loc 1 277 18 is_stmt 0
	andi	a1,a1,4
.LVL84:
	.loc 1 277 8
	beq	a1,zero,.L55
	.loc 1 278 9 is_stmt 1
	.loc 1 278 16 is_stmt 0
	li	a3,-33554432
	addi	a3,a3,-1
	and	a5,a5,a3
.LVL85:
.L55:
	.loc 1 280 5 is_stmt 1
	.loc 1 280 60 is_stmt 0
	srw	a5,a2,a4,0
.LVL86:
	.loc 1 282 1
	ret
	.cfi_endproc
.LFE16:
	.size	qcc74x_wo_int_unmask, .-qcc74x_wo_int_unmask
	.section	.text.qcc74x_wo_int_clear,"ax",@progbits
	.align	1
	.globl	qcc74x_wo_int_clear
	.type	qcc74x_wo_int_clear, @function
qcc74x_wo_int_clear:
.LFB17:
	.loc 1 285 1 is_stmt 1
	.cfi_startproc
.LVL87:
	.loc 1 289 5
	.loc 1 290 5
	.loc 1 292 5
	.loc 1 293 5
	.loc 1 293 58 is_stmt 0
	lw	a3,4(a0)
	li	a4,4096
	addi	a4,a4,-1280
	.loc 1 293 12
	lrw	a5,a3,a4,0
.LVL88:
	.loc 1 294 5 is_stmt 1
	.loc 1 294 18 is_stmt 0
	andi	a2,a1,1
	.loc 1 294 8
	beq	a2,zero,.L66
	.loc 1 295 9 is_stmt 1
	.loc 1 295 16 is_stmt 0
	ori	a5,a5,8
.LVL89:
.L66:
	.loc 1 297 5 is_stmt 1
	.loc 1 298 5
	.loc 1 299 5
	.loc 1 299 18 is_stmt 0
	andi	a1,a1,4
.LVL90:
	.loc 1 299 8
	beq	a1,zero,.L67
	.loc 1 300 9 is_stmt 1
	.loc 1 300 16 is_stmt 0
	ori	a5,a5,4
.LVL91:
.L67:
	.loc 1 302 5 is_stmt 1
	.loc 1 302 60 is_stmt 0
	srw	a5,a3,a4,0
.LVL92:
	.loc 1 304 1
	ret
	.cfi_endproc
.LFE17:
	.size	qcc74x_wo_int_clear, .-qcc74x_wo_int_clear
	.section	.text.qcc74x_wo_uart_init,"ax",@progbits
	.align	1
	.globl	qcc74x_wo_uart_init
	.type	qcc74x_wo_uart_init, @function
qcc74x_wo_uart_init:
.LFB18:
	.loc 1 307 1 is_stmt 1
	.cfi_startproc
.LVL93:
	.loc 1 308 5
	.loc 1 313 5
	.loc 1 307 1 is_stmt 0
	addi	sp,sp,-48
	.cfi_def_cfa_offset 48
	sw	s1,36(sp)
	sw	s2,32(sp)
	sw	s3,28(sp)
	sw	ra,44(sp)
	sw	s0,40(sp)
	.cfi_offset 9, -12
	.cfi_offset 18, -16
	.cfi_offset 19, -20
	.cfi_offset 1, -4
	.cfi_offset 8, -8
	.loc 1 307 1
	mv	s3,a0
	mv	s2,a2
	mv	s1,a1
	.loc 1 313 8
	bne	a1,zero,.L75
	.loc 1 314 18
	li	s1,1998848
	addi	s1,s1,1152
.L75:
.LVL94:
	.loc 1 316 5 is_stmt 1
	.loc 1 316 16 is_stmt 0
	li	a0,3
.LVL95:
	call	qcc74x_clk_get_system_clock
.LVL96:
	.loc 1 316 14
	divu	s1,a0,s1
.LVL97:
	.loc 1 317 5 is_stmt 1
	.loc 1 320 27 is_stmt 0
	li	a5,1073807360
	addi	a5,a5,257
	.loc 1 328 14
	li	s0,1
	.loc 1 329 5
	li	a2,1
	mv	a1,s2
	mv	a0,s3
	.loc 1 320 27
	sw	a5,8(sp)
	.loc 1 328 14
	sb	s0,12(sp)
	.loc 1 318 25
	sb	zero,6(sp)
	.loc 1 317 24
	sh	s1,4(sp)
	.loc 1 319 25
	sb	s1,7(sp)
	.loc 1 320 5 is_stmt 1
	.loc 1 321 5
	.loc 1 322 5
	.loc 1 326 5
	.loc 1 328 5
	.loc 1 329 5
	call	qcc74x_wo_pin_init
.LVL98:
	.loc 1 330 5
	addi	a1,sp,4
	mv	a0,s3
	call	qcc74x_wo_init
.LVL99:
	.loc 1 331 5
	.loc 1 332 5
	.loc 1 332 43 is_stmt 0
	andi	a2,s2,7
	.loc 1 332 27
	sll	a2,s0,a2
	.loc 1 332 22
	extu	a2,a2,15,0
	lui	a5,%hi(.LANCHOR0)
	.loc 1 333 41
	slli	a4,a2,8
	.loc 1 332 22
	sh	a2,%lo(.LANCHOR0)(a5)
	.loc 1 333 5 is_stmt 1
	.loc 1 333 41 is_stmt 0
	extu	a4,a4,15,0
	.loc 1 333 21
	lui	a5,%hi(.LANCHOR1)
	.loc 1 336 1
	lw	ra,44(sp)
	.cfi_restore 1
	lw	s0,40(sp)
	.cfi_restore 8
	.loc 1 333 21
	sh	a4,%lo(.LANCHOR1)(a5)
	.loc 1 334 5 is_stmt 1
	.loc 1 334 23 is_stmt 0
	lui	a5,%hi(.LANCHOR2)
	addi	a5,a5,%lo(.LANCHOR2)
	sh	a4,0(a5)
	.loc 1 335 5 is_stmt 1
	.loc 1 335 23 is_stmt 0
	sh	a2,18(a5)
	.loc 1 336 1
	lw	s1,36(sp)
	.cfi_restore 9
.LVL100:
	lw	s2,32(sp)
	.cfi_restore 18
	lw	s3,28(sp)
	.cfi_restore 19
.LVL101:
	addi	sp,sp,48
	.cfi_def_cfa_offset 0
	jr	ra
	.cfi_endproc
.LFE18:
	.size	qcc74x_wo_uart_init, .-qcc74x_wo_uart_init
	.section	.text.qcc74x_wo_uart_putchar,"ax",@progbits
	.align	1
	.globl	qcc74x_wo_uart_putchar
	.type	qcc74x_wo_uart_putchar, @function
qcc74x_wo_uart_putchar:
.LFB19:
	.loc 1 339 1 is_stmt 1
	.cfi_startproc
.LVL102:
	.loc 1 340 5
.LBB2:
	.loc 1 340 10
	.loc 1 340 25
	.loc 1 344 35 is_stmt 0
	lui	a5,%hi(.LANCHOR1)
	lhu	t1,%lo(.LANCHOR1)(a5)
	.loc 1 342 35
	lui	a5,%hi(.LANCHOR0)
	lhu	a7,%lo(.LANCHOR0)(a5)
	lui	a5,%hi(.LANCHOR2)
	addi	a3,a5,%lo(.LANCHOR2)
	li	a4,0
	.loc 1 340 5
	li	a6,8
.LVL103:
.L81:
	.loc 1 341 9 is_stmt 1
	.loc 1 341 17 is_stmt 0
	sra	a2,a1,a4
	.loc 1 341 23
	andi	a2,a2,1
	.loc 1 341 12
	beq	a2,zero,.L79
	.loc 1 342 13 is_stmt 1
	.loc 1 342 35 is_stmt 0
	sh	a7,2(a3)
.L80:
	.loc 1 340 32 is_stmt 1 discriminator 2
.LVL104:
	.loc 1 340 25 discriminator 2
	.loc 1 340 5 is_stmt 0 discriminator 2
	addi	a4,a4,1
.LVL105:
	addi	a3,a3,2
	bne	a4,a6,.L81
.LBE2:
	.loc 1 347 5 is_stmt 1
	li	a2,10
	addi	a1,a5,%lo(.LANCHOR2)
.LVL106:
	tail	qcc74x_wo_push_fifo
.LVL107:
.L79:
.LBB3:
	.loc 1 344 13
	.loc 1 344 35 is_stmt 0
	sh	t1,2(a3)
	j	.L80
.LBE3:
	.cfi_endproc
.LFE19:
	.size	qcc74x_wo_uart_putchar, .-qcc74x_wo_uart_putchar
	.section	.text.qcc74x_wo_uart_put,"ax",@progbits
	.align	1
	.globl	qcc74x_wo_uart_put
	.type	qcc74x_wo_uart_put, @function
qcc74x_wo_uart_put:
.LFB20:
	.loc 1 351 1 is_stmt 1
	.cfi_startproc
.LVL108:
	.loc 1 352 5
.LBB4:
	.loc 1 352 10
.LBE4:
	.loc 1 351 1 is_stmt 0
	addi	sp,sp,-32
	.cfi_def_cfa_offset 32
	sw	s0,24(sp)
	sw	s1,20(sp)
	sw	ra,28(sp)
	.cfi_offset 8, -8
	.cfi_offset 9, -12
	.cfi_offset 1, -4
	mv	s0,a1
	add	s1,a1,a2
.LVL109:
.L84:
.LBB5:
	.loc 1 352 26 is_stmt 1 discriminator 1
	.loc 1 352 5 is_stmt 0 discriminator 1
	bne	s0,s1,.L85
.LBE5:
	.loc 1 355 1
	lw	ra,28(sp)
	.cfi_remember_state
	.cfi_restore 1
	lw	s0,24(sp)
	.cfi_restore 8
.LVL110:
	lw	s1,20(sp)
	.cfi_restore 9
	addi	sp,sp,32
	.cfi_def_cfa_offset 0
	jr	ra
.LVL111:
.L85:
	.cfi_restore_state
.LBB6:
	.loc 1 353 9 is_stmt 1 discriminator 3
	lbuia	a1,(s0),1,0
.LVL112:
	sw	a0,12(sp)
	call	qcc74x_wo_uart_putchar
.LVL113:
	lw	a0,12(sp)
	.loc 1 352 35 discriminator 3
.LVL114:
	j	.L84
.LBE6:
	.cfi_endproc
.LFE20:
	.size	qcc74x_wo_uart_put, .-qcc74x_wo_uart_put
	.section	.bss.wo_uart_buff16,"aw",@nobits
	.align	2
	.set	.LANCHOR2,. + 0
	.type	wo_uart_buff16, @object
	.size	wo_uart_buff16, 20
wo_uart_buff16:
	.zero	20
	.section	.bss.wo_uart_pin_high,"aw",@nobits
	.align	1
	.set	.LANCHOR0,. + 0
	.type	wo_uart_pin_high, @object
	.size	wo_uart_pin_high, 2
wo_uart_pin_high:
	.zero	2
	.section	.bss.wo_uart_pin_low,"aw",@nobits
	.align	1
	.set	.LANCHOR1,. + 0
	.type	wo_uart_pin_low, @object
	.size	wo_uart_pin_low, 2
wo_uart_pin_low:
	.zero	2
	.text
.Letext0:
	.file 2 "./toolchain/linux_x86_64/riscv64-unknown-elf/include/machine/_default_types.h"
	.file 3 "./toolchain/linux_x86_64/riscv64-unknown-elf/include/sys/_stdint.h"
	.file 4 "./drivers/lhal/include/qcc74x_core.h"
	.file 5 "./drivers/lhal/include/qcc74x_wo.h"
	.file 6 "./drivers/lhal/include/qcc74x_clock.h"