	.file	"qcc74x_tlsf.c"
	.option nopic
	.attribute arch, "rv32i2p0_m2p0_a2p0_f2p0_c2p0_p0p9_zpn0p9_zpsfoperand0p9_xtheade2p0"
	.attribute unaligned_access, 0
	.attribute stack_align, 16
	.text
.Ltext0:
	.cfi_sections	.debug_frame
	.section	.text.update_historical_min_free,"ax",@progbits
	.align	1
	.type	update_historical_min_free, @function
update_historical_min_free:
.LFB4:
	.file 1 "./components/mm/tlsf/qcc74x_tlsf.c"
	.loc 1 56 1
	.cfi_startproc
.LVL0:
	.loc 1 57 5
	.loc 1 57 36 is_stmt 0
	lw	a5,12(a0)
	.loc 1 57 8
	lw	a4,16(a0)
	bleu	a4,a5,.L1
	.loc 1 58 9 is_stmt 1
	.loc 1 58 30 is_stmt 0
	sw	a5,16(a0)
.L1:
	.loc 1 60 1
	ret
	.cfi_endproc
.LFE4:
	.size	update_historical_min_free, .-update_historical_min_free
	.section	.text.qcc74x_mem_init,"ax",@progbits
	.align	1
	.globl	qcc74x_mem_init
	.type	qcc74x_mem_init, @function
qcc74x_mem_init:
.LFB5:
	.loc 1 63 1 is_stmt 1
	.cfi_startproc
.LVL1:
	.loc 1 64 5
	.loc 1 63 1 is_stmt 0
	addi	sp,sp,-32
	.cfi_def_cfa_offset 32
	sw	ra,28(sp)
	sw	s0,24(sp)
	sw	s1,20(sp)
	.cfi_offset 1, -4
	.cfi_offset 8, -8
	.cfi_offset 9, -12
	.loc 1 63 1
	mv	s0,a0
	mv	s1,a1
	sw	a2,12(sp)
	.loc 1 64 35
	call	tlsf_size
.LVL2:
	.loc 1 64 33
	add	a0,s1,a0
	.loc 1 64 21
	sw	a0,4(s0)
	.loc 1 65 5 is_stmt 1
	.loc 1 65 33 is_stmt 0
	call	tlsf_size
.LVL3:
	.loc 1 65 31
	lw	a2,12(sp)
	sub	a0,a2,a0
	.loc 1 65 20
	sw	a0,8(s0)
	.loc 1 66 5 is_stmt 1
	.loc 1 66 18 is_stmt 0
	mv	a1,a2
	mv	a0,s1
	call	tlsf_create_with_pool
.LVL4:
	.loc 1 67 28
	lw	a5,8(s0)
	.loc 1 69 1
	lw	ra,28(sp)
	.cfi_restore 1
	.loc 1 66 16
	sw	a0,0(s0)
	.loc 1 67 5 is_stmt 1
	.loc 1 67 22 is_stmt 0
	sw	a5,12(s0)
	.loc 1 68 5 is_stmt 1
	.loc 1 68 26 is_stmt 0
	sw	a5,16(s0)
	.loc 1 69 1
	lw	s0,24(sp)
	.cfi_restore 8
.LVL5:
	lw	s1,20(sp)
	.cfi_restore 9
.LVL6:
	addi	sp,sp,32
	.cfi_def_cfa_offset 0
.LVL7:
	jr	ra
	.cfi_endproc
.LFE5:
	.size	qcc74x_mem_init, .-qcc74x_mem_init
	.section	.rodata.qcc74x_malloc.str1.4,"aMS",@progbits,1
	.align	2
.LC0:
	.string	"tlsf malloc %d bytes failed at function %s using heap base:%p\r\n"
	.section	.text.qcc74x_malloc,"ax",@progbits
	.align	1
	.globl	qcc74x_malloc
	.type	qcc74x_malloc, @function
qcc74x_malloc:
.LFB6:
	.loc 1 72 1 is_stmt 1
	.cfi_startproc
.LVL8:
	.loc 1 73 5
	.loc 1 74 5
	.loc 1 80 5
	.loc 1 72 1 is_stmt 0
	addi	sp,sp,-32
	.cfi_def_cfa_offset 32
	sw	ra,28(sp)
	sw	s0,24(sp)
	sw	s1,20(sp)
	sw	s2,16(sp)
	sw	s3,12(sp)
	.cfi_offset 1, -4
	.cfi_offset 8, -8
	.cfi_offset 9, -12
	.cfi_offset 18, -16
	.cfi_offset 19, -20
	.loc 1 72 1
	mv	s2,a1
	mv	s0,a0
	.loc 1 80 12
	call	qcc74x_irq_save
.LVL9:
	mv	s3,a0
.LVL10:
	.loc 1 83 5 is_stmt 1
	.loc 1 83 11 is_stmt 0
	lw	a0,0(s0)
.LVL11:
	mv	a2,s2
	li	a1,32
	call	tlsf_memalign
.LVL12:
	mv	s1,a0
.LVL13:
	.loc 1 84 7 is_stmt 1
	.loc 1 84 10 is_stmt 0
	bne	a0,zero,.L6
	.loc 1 84 9 is_stmt 1 discriminator 1
	lw	a3,4(s0)
	lui	a2,%hi(.LANCHOR0)
	lui	a0,%hi(.LC0)
	addi	a2,a2,%lo(.LANCHOR0)
	mv	a1,s2
	addi	a0,a0,%lo(.LC0)
	call	printf
.LVL14:
	.loc 1 84 128 discriminator 1
	.loc 1 85 5 discriminator 1
.L7:
	.loc 1 95 5
	mv	a0,s3
	call	qcc74x_irq_restore
.LVL15:
	.loc 1 98 5
	.loc 1 99 1 is_stmt 0
	lw	ra,28(sp)
	.cfi_remember_state
	.cfi_restore 1
	lw	s0,24(sp)
	.cfi_restore 8
.LVL16:
	lw	s2,16(sp)
	.cfi_restore 18
.LVL17:
	lw	s3,12(sp)
	.cfi_restore 19
.LVL18:
	mv	a0,s1
	lw	s1,20(sp)
	.cfi_restore 9
.LVL19:
	addi	sp,sp,32
	.cfi_def_cfa_offset 0
	jr	ra
.LVL20:
.L6:
	.cfi_restore_state
	.loc 1 84 128 is_stmt 1
	.loc 1 85 5
	.loc 1 86 9
	.loc 1 86 29 is_stmt 0
	call	tlsf_block_size
.LVL21:
	.loc 1 86 26
	lw	a5,12(s0)
	sub	a5,a5,a0
	sw	a5,12(s0)
	.loc 1 87 9 is_stmt 1
	.loc 1 87 29 is_stmt 0
	call	tlsf_alloc_overhead
.LVL22:
	.loc 1 87 26
	lw	a5,12(s0)
	sub	a5,a5,a0
	sw	a5,12(s0)
	.loc 1 88 9 is_stmt 1
	mv	a0,s0
	call	update_historical_min_free
.LVL23:
	j	.L7
	.cfi_endproc
.LFE6:
	.size	qcc74x_malloc, .-qcc74x_malloc
	.section	.text.qcc74x_free,"ax",@progbits
	.align	1
	.globl	qcc74x_free
	.type	qcc74x_free, @function
qcc74x_free:
.LFB7:
	.loc 1 102 1
	.cfi_startproc
.LVL24:
	.loc 1 103 5
	.loc 1 109 5
	.loc 1 102 1 is_stmt 0
	addi	sp,sp,-32
	.cfi_def_cfa_offset 32
	sw	s0,24(sp)
	sw	s1,20(sp)
	sw	a1,12(sp)
	sw	ra,28(sp)
	.cfi_offset 8, -8
	.cfi_offset 9, -12
	.cfi_offset 1, -4
	.loc 1 102 1
	mv	s0,a0
	.loc 1 109 12
	call	qcc74x_irq_save
.LVL25:
	.loc 1 112 8
	lw	a1,12(sp)
	.loc 1 109 12
	mv	s1,a0
.LVL26:
	.loc 1 112 5 is_stmt 1
	.loc 1 112 8 is_stmt 0
	beq	a1,zero,.L11
	.loc 1 113 9 is_stmt 1
	.loc 1 113 29 is_stmt 0
	mv	a0,a1
	call	tlsf_block_size
.LVL27:
	.loc 1 113 26
	lw	a5,12(s0)
	add	a5,a5,a0
	sw	a5,12(s0)
	.loc 1 114 9 is_stmt 1
	.loc 1 114 29 is_stmt 0
	call	tlsf_alloc_overhead
.LVL28:
	.loc 1 114 26
	lw	a5,12(s0)
	add	a5,a5,a0
	sw	a5,12(s0)
	.loc 1 115 9 is_stmt 1
	mv	a0,s0
	call	update_historical_min_free
.LVL29:
	lw	a1,12(sp)
.L11:
	.loc 1 118 5
	lw	a0,0(s0)
	call	tlsf_free
.LVL30:
	.loc 1 124 5
	.loc 1 126 1 is_stmt 0
	lw	s0,24(sp)
	.cfi_restore 8
.LVL31:
	lw	ra,28(sp)
	.cfi_restore 1
	.loc 1 124 5
	mv	a0,s1
	.loc 1 126 1
	lw	s1,20(sp)
	.cfi_restore 9
.LVL32:
	addi	sp,sp,32
	.cfi_def_cfa_offset 0
.LVL33:
	.loc 1 124 5
	tail	qcc74x_irq_restore
.LVL34:
	.cfi_endproc
.LFE7:
	.size	qcc74x_free, .-qcc74x_free
	.section	.text.qcc74x_realloc,"ax",@progbits
	.align	1
	.globl	qcc74x_realloc
	.type	qcc74x_realloc, @function
qcc74x_realloc:
.LFB8:
	.loc 1 129 1 is_stmt 1
	.cfi_startproc
.LVL35:
	.loc 1 130 5
	.loc 1 131 5
	.loc 1 137 5
	.loc 1 129 1 is_stmt 0
	addi	sp,sp,-32
	.cfi_def_cfa_offset 32
	sw	ra,28(sp)
	sw	s0,24(sp)
	sw	s1,20(sp)
	sw	s2,16(sp)
	.cfi_offset 1, -4
	.cfi_offset 8, -8
	.cfi_offset 9, -12
	.cfi_offset 18, -16
	mv	s1,a1
	sw	s3,12(sp)
	sw	s4,8(sp)
	.cfi_offset 19, -20
	.cfi_offset 20, -24
	mv	s3,a2
	sw	s5,4(sp)
	.cfi_offset 21, -28
	.loc 1 129 1
	mv	s0,a0
	.loc 1 137 12
	call	qcc74x_irq_save
.LVL36:
	mv	s5,a0
.LVL37:
	.loc 1 140 5 is_stmt 1
	.loc 1 140 34 is_stmt 0
	mv	a0,s1
.LVL38:
	call	tlsf_block_size
.LVL39:
	mv	s4,a0
.LVL40:
	.loc 1 142 5 is_stmt 1
	.loc 1 142 11 is_stmt 0
	lw	a0,0(s0)
.LVL41:
	mv	a2,s3
	mv	a1,s1
	call	tlsf_realloc
.LVL42:
	mv	s2,a0
.LVL43:
	.loc 1 143 7 is_stmt 1
	.loc 1 143 10 is_stmt 0
	bne	a0,zero,.L17
	.loc 1 143 9 is_stmt 1 discriminator 1
	lw	a3,4(s0)
	lui	a2,%hi(.LANCHOR1)
	lui	a0,%hi(.LC0)
.LVL44:
	addi	a2,a2,%lo(.LANCHOR1)
	mv	a1,s3
	addi	a0,a0,%lo(.LC0)
	call	printf
.LVL45:
	.loc 1 143 128 discriminator 1
	.loc 1 144 5 discriminator 1
.L18:
	.loc 1 154 5
	mv	a0,s5
	call	qcc74x_irq_restore
.LVL46:
	.loc 1 157 5
	.loc 1 158 1 is_stmt 0
	lw	ra,28(sp)
	.cfi_remember_state
	.cfi_restore 1
	lw	s0,24(sp)
	.cfi_restore 8
.LVL47:
	lw	s1,20(sp)
	.cfi_restore 9
.LVL48:
	lw	s3,12(sp)
	.cfi_restore 19
.LVL49:
	lw	s4,8(sp)
	.cfi_restore 20
.LVL50:
	lw	s5,4(sp)
	.cfi_restore 21
.LVL51:
	mv	a0,s2
	lw	s2,16(sp)
	.cfi_restore 18
.LVL52:
	addi	sp,sp,32
	.cfi_def_cfa_offset 0
	jr	ra
.LVL53:
.L17:
	.cfi_restore_state
	.loc 1 143 128 is_stmt 1
	.loc 1 144 5
	.loc 1 145 9
	.loc 1 145 26 is_stmt 0
	lw	a0,12(s0)
.LVL54:
	add	a0,a0,s4
	sw	a0,12(s0)
	.loc 1 146 9 is_stmt 1
	.loc 1 146 29 is_stmt 0
	mv	a0,s1
	call	tlsf_block_size
.LVL55:
	.loc 1 146 26
	lw	a5,12(s0)
	sub	a5,a5,a0
	sw	a5,12(s0)
	.loc 1 147 9 is_stmt 1
	mv	a0,s0
	call	update_historical_min_free
.LVL56:
	j	.L18
	.cfi_endproc
.LFE8:
	.size	qcc74x_realloc, .-qcc74x_realloc
	.section	.text.qcc74x_calloc,"ax",@progbits
	.align	1
	.globl	qcc74x_calloc
	.type	qcc74x_calloc, @function
qcc74x_calloc:
.LFB9:
	.loc 1 161 1
	.cfi_startproc
.LVL57:
	.loc 1 162 5
	.loc 1 163 5
	.loc 1 161 1 is_stmt 0
	addi	sp,sp,-48
	.cfi_def_cfa_offset 48
	sw	s0,40(sp)
	sw	s1,36(sp)
	sw	s2,32(sp)
	sw	s3,28(sp)
	sw	ra,44(sp)
	.cfi_offset 8, -8
	.cfi_offset 9, -12
	.cfi_offset 18, -16
	.cfi_offset 19, -20
	.cfi_offset 1, -4
	.loc 1 161 1
	mv	s1,a0
	mv	s0,a1
.LVL58:
	.loc 1 164 5 is_stmt 1
	.loc 1 170 5
	.loc 1 161 1 is_stmt 0
	sw	a2,12(sp)
.LVL59:
	.loc 1 170 12
	call	qcc74x_irq_save
.LVL60:
	mv	s3,a0
.LVL61:
	.loc 1 173 5 is_stmt 1
	.loc 1 162 11 is_stmt 0
	li	s2,0
	.loc 1 173 8
	beq	s0,zero,.L22
	.loc 1 173 19 discriminator 1
	lw	a2,12(sp)
	beq	a2,zero,.L22
	.loc 1 174 9 is_stmt 1
	mulhu	a5,s0,a2
	.loc 1 162 11 is_stmt 0
	li	s2,0
	bne	a5,zero,.L22
	.loc 1 163 12
	mul	s0,s0,a2
.LVL62:
	.loc 1 175 13 is_stmt 1
	.loc 1 175 19 is_stmt 0
	lw	a0,0(s1)
.LVL63:
	li	a1,32
	mv	a2,s0
	call	tlsf_memalign
.LVL64:
	mv	s2,a0
.LVL65:
	.loc 1 176 15 is_stmt 1
	.loc 1 176 18 is_stmt 0
	bne	a0,zero,.L25
	.loc 1 176 17 is_stmt 1 discriminator 1
	lw	a3,4(s1)
	lui	a2,%hi(.LANCHOR2)
	lui	a0,%hi(.LC0)
.LVL66:
	addi	a2,a2,%lo(.LANCHOR2)
	mv	a1,s0
	addi	a0,a0,%lo(.LC0)
	call	printf
.LVL67:
	.loc 1 176 135 discriminator 1
	.loc 1 177 13 discriminator 1
	.loc 1 183 13 discriminator 1
.L22:
	.loc 1 193 5
	mv	a0,s3
	call	qcc74x_irq_restore
.LVL68:
	.loc 1 196 5
	.loc 1 197 1 is_stmt 0
	lw	ra,44(sp)
	.cfi_remember_state
	.cfi_restore 1
	lw	s0,40(sp)
	.cfi_restore 8
	lw	s1,36(sp)
	.cfi_restore 9
.LVL69:
	lw	s3,28(sp)
	.cfi_restore 19
.LVL70:
	mv	a0,s2
	lw	s2,32(sp)
	.cfi_restore 18
.LVL71:
	addi	sp,sp,48
	.cfi_def_cfa_offset 0
.LVL72:
	jr	ra
.LVL73:
.L25:
	.cfi_restore_state
	.loc 1 176 135 is_stmt 1
	.loc 1 177 13
	.loc 1 178 17
	.loc 1 178 37 is_stmt 0
	call	tlsf_block_size
.LVL74:
	.loc 1 178 34
	lw	a5,12(s1)
	sub	a5,a5,a0
	sw	a5,12(s1)
	.loc 1 179 17 is_stmt 1
	.loc 1 179 37 is_stmt 0
	call	tlsf_alloc_overhead
.LVL75:
	.loc 1 179 34
	lw	a5,12(s1)
	sub	a5,a5,a0
	sw	a5,12(s1)
	.loc 1 180 17 is_stmt 1
	mv	a0,s1
	call	update_historical_min_free
.LVL76:
	.loc 1 183 13
	.loc 1 184 17
	mv	a2,s0
	li	a1,0
	mv	a0,s2
	call	memset
.LVL77:
	j	.L22
	.cfi_endproc
.LFE9:
	.size	qcc74x_calloc, .-qcc74x_calloc
	.section	.text.qcc74x_malloc_align,"ax",@progbits
	.align	1
	.globl	qcc74x_malloc_align
	.type	qcc74x_malloc_align, @function
qcc74x_malloc_align:
.LFB10:
	.loc 1 200 1
	.cfi_startproc
.LVL78:
	.loc 1 201 5
	.loc 1 202 5
	.loc 1 208 5
	.loc 1 200 1 is_stmt 0
	addi	sp,sp,-48
	.cfi_def_cfa_offset 48
	sw	ra,44(sp)
	sw	s0,40(sp)
	sw	s1,36(sp)
	sw	s2,32(sp)
	sw	s3,28(sp)
	.cfi_offset 1, -4
	.cfi_offset 8, -8
	.cfi_offset 9, -12
	.cfi_offset 18, -16
	.cfi_offset 19, -20
	.loc 1 200 1
	mv	s0,a0
	sw	a1,12(sp)
	mv	s2,a2
	.loc 1 208 12
	call	qcc74x_irq_save
.LVL79:
	.loc 1 211 11
	lw	a1,12(sp)
	.loc 1 208 12
	mv	s3,a0
.LVL80:
	.loc 1 211 5 is_stmt 1
	.loc 1 211 11 is_stmt 0
	lw	a0,0(s0)
.LVL81:
	mv	a2,s2
	call	tlsf_memalign
.LVL82:
	mv	s1,a0
.LVL83:
	.loc 1 212 7 is_stmt 1
	.loc 1 212 10 is_stmt 0
	bne	a0,zero,.L35
	.loc 1 212 9 is_stmt 1 discriminator 1
	lw	a3,4(s0)
	lui	a2,%hi(.LANCHOR3)
	lui	a0,%hi(.LC0)
	addi	a2,a2,%lo(.LANCHOR3)
	mv	a1,s2
	addi	a0,a0,%lo(.LC0)
	call	printf
.LVL84:
	.loc 1 212 126 discriminator 1
	.loc 1 213 5 discriminator 1
.L36:
	.loc 1 223 5
	mv	a0,s3
	call	qcc74x_irq_restore
.LVL85:
	.loc 1 226 5
	.loc 1 227 1 is_stmt 0
	lw	ra,44(sp)
	.cfi_remember_state
	.cfi_restore 1
	lw	s0,40(sp)
	.cfi_restore 8
.LVL86:
	lw	s2,32(sp)
	.cfi_restore 18
.LVL87:
	lw	s3,28(sp)
	.cfi_restore 19
.LVL88:
	mv	a0,s1
	lw	s1,36(sp)
	.cfi_restore 9
.LVL89:
	addi	sp,sp,48
	.cfi_def_cfa_offset 0
.LVL90:
	jr	ra
.LVL91:
.L35:
	.cfi_restore_state
	.loc 1 212 126 is_stmt 1
	.loc 1 213 5
	.loc 1 214 9
	.loc 1 214 29 is_stmt 0
	call	tlsf_block_size
.LVL92:
	.loc 1 214 26
	lw	a5,12(s0)
	sub	a5,a5,a0
	sw	a5,12(s0)
	.loc 1 215 9 is_stmt 1
	.loc 1 215 29 is_stmt 0
	call	tlsf_alloc_overhead
.LVL93:
	.loc 1 215 26
	lw	a5,12(s0)
	sub	a5,a5,a0
	sw	a5,12(s0)
	.loc 1 216 9 is_stmt 1
	mv	a0,s0
	call	update_historical_min_free
.LVL94:
	j	.L36
	.cfi_endproc
.LFE10:
	.size	qcc74x_malloc_align, .-qcc74x_malloc_align
	.section	.rodata.__FUNCTION__.0,"a"
	.align	2
	.set	.LANCHOR3,. + 0
	.type	__FUNCTION__.0, @object
	.size	__FUNCTION__.0, 20
__FUNCTION__.0:
	.string	"qcc74x_malloc_align"
	.section	.rodata.__FUNCTION__.1,"a"
	.align	2
	.set	.LANCHOR2,. + 0
	.type	__FUNCTION__.1, @object
	.size	__FUNCTION__.1, 14
__FUNCTION__.1:
	.string	"qcc74x_calloc"
	.section	.rodata.__FUNCTION__.2,"a"
	.align	2
	.set	.LANCHOR1,. + 0
	.type	__FUNCTION__.2, @object
	.size	__FUNCTION__.2, 15
__FUNCTION__.2:
	.string	"qcc74x_realloc"
	.section	.rodata.__FUNCTION__.3,"a"
	.align	2
	.set	.LANCHOR0,. + 0
	.type	__FUNCTION__.3, @object
	.size	__FUNCTION__.3, 14
__FUNCTION__.3:
	.string	"qcc74x_malloc"
	.text
.Letext0:
	.file 2 "./toolchain/linux_x86_64/riscv64-unknown-elf/include/machine/_default_types.h"
	.file 3 "./toolchain/linux_x86_64/riscv64-unknown-elf/include/sys/_stdint.h"
	.file 4 "./toolchain/linux_x86_64/lib/gcc/riscv64-unknown-elf/10.4.0/include/stddef.h"
	.file 5 "./components/mm/./mem.h"
	.file 6 "./drivers/lhal/include/qcc74x_irq.h"
	.file 7 "./components/mm/tlsf/tlsf.h"
	.file 8 "./toolchain/linux_x86_64/riscv64-unknown-elf/include/stdio.h"
	.file 9 "./toolchain/linux_x86_64/riscv64-unknown-elf/include/string.h"