	.file	"board_gpio.c"
	.option nopic
	.attribute arch, "rv32i2p0_m2p0_a2p0_f2p0_c2p0_p0p9_zpn0p9_zpsfoperand0p9_xtheade2p0"
	.attribute unaligned_access, 0
	.attribute stack_align, 16
	.text
.Ltext0:
	.cfi_sections	.debug_frame
	.section	.rodata.board_uartx_gpio_init.str1.4,"aMS",@progbits,1
	.align	2
.LC1:
	.string	"gpio"
	.section	.text.board_uartx_gpio_init,"ax",@progbits
	.align	1
	.globl	board_uartx_gpio_init
	.type	board_uartx_gpio_init, @function
board_uartx_gpio_init:
.LFB242:
	.file 1 "./bsp/board/qcc74xdk/board_gpio.c"
	.loc 1 11 1
	.cfi_startproc
	.loc 1 12 5
	.loc 1 14 5
	.loc 1 14 12 is_stmt 0
	lui	a0,%hi(.LC1)
	.loc 1 11 1
	addi	sp,sp,-16
	.cfi_def_cfa_offset 16
	.loc 1 14 12
	addi	a0,a0,%lo(.LC1)
	.loc 1 11 1
	sw	ra,12(sp)
	sw	s0,8(sp)
	.cfi_offset 1, -4
	.cfi_offset 8, -8
	.loc 1 14 12
	call	qcc74x_device_get_by_name
.LVL0:
	.loc 1 16 5
	li	a2,6
	li	a1,27
	.loc 1 14 12
	mv	s0,a0
.LVL1:
	.loc 1 16 5 is_stmt 1
	call	qcc74x_gpio_uart_init
.LVL2:
	.loc 1 17 5
	mv	a0,s0
	li	a2,7
	li	a1,28
	call	qcc74x_gpio_uart_init
.LVL3:
	.loc 1 18 5
	mv	a0,s0
	li	a2,5
	li	a1,29
	call	qcc74x_gpio_uart_init
.LVL4:
	.loc 1 19 5
	mv	a0,s0
	.loc 1 20 1 is_stmt 0
	lw	s0,8(sp)
	.cfi_restore 8
.LVL5:
	lw	ra,12(sp)
	.cfi_restore 1
	.loc 1 19 5
	li	a2,4
	.loc 1 20 1
	.loc 1 19 5
	li	a1,30
	.loc 1 20 1
	addi	sp,sp,16
	.cfi_def_cfa_offset 0
	.loc 1 19 5
	tail	qcc74x_gpio_uart_init
.LVL6:
	.cfi_endproc
.LFE242:
	.size	board_uartx_gpio_init, .-board_uartx_gpio_init
	.section	.text.board_i2c0_gpio_init,"ax",@progbits
	.align	1
	.globl	board_i2c0_gpio_init
	.type	board_i2c0_gpio_init, @function
board_i2c0_gpio_init:
.LFB243:
	.loc 1 23 1 is_stmt 1
	.cfi_startproc
	.loc 1 24 5
	.loc 1 26 5
	.loc 1 26 12 is_stmt 0
	lui	a0,%hi(.LC1)
	.loc 1 23 1
	addi	sp,sp,-32
	.cfi_def_cfa_offset 32
	.loc 1 26 12
	addi	a0,a0,%lo(.LC1)
	.loc 1 23 1
	sw	ra,28(sp)
	sw	s0,24(sp)
	.cfi_offset 1, -4
	.cfi_offset 8, -8
	.loc 1 26 12
	call	qcc74x_device_get_by_name
.LVL7:
	.loc 1 28 5
	li	s0,8192
	addi	a2,s0,-1275
	li	a1,11
	.loc 1 26 12
	sw	a0,12(sp)
.LVL8:
	.loc 1 28 5 is_stmt 1
	call	qcc74x_gpio_init
.LVL9:
	.loc 1 30 5
	addi	a2,s0,-1275
	.loc 1 31 1 is_stmt 0
	lw	s0,24(sp)
	.cfi_restore 8
	.loc 1 30 5
	lw	a0,12(sp)
	.loc 1 31 1
	lw	ra,28(sp)
	.cfi_restore 1
	.loc 1 30 5
	li	a1,14
	.loc 1 31 1
	addi	sp,sp,32
	.cfi_def_cfa_offset 0
.LVL10:
	.loc 1 30 5
	tail	qcc74x_gpio_init
.LVL11:
	.cfi_endproc
.LFE243:
	.size	board_i2c0_gpio_init, .-board_i2c0_gpio_init
	.section	.text.board_spi0_gpio_init,"ax",@progbits
	.align	1
	.globl	board_spi0_gpio_init
	.type	board_spi0_gpio_init, @function
board_spi0_gpio_init:
.LFB244:
	.loc 1 34 1 is_stmt 1
	.cfi_startproc
	.loc 1 35 5
	.loc 1 37 5
	.loc 1 37 12 is_stmt 0
	lui	a0,%hi(.LC1)
	.loc 1 34 1
	addi	sp,sp,-16
	.cfi_def_cfa_offset 16
	.loc 1 37 12
	addi	a0,a0,%lo(.LC1)
	.loc 1 34 1
	sw	ra,12(sp)
	sw	s0,8(sp)
	sw	s1,4(sp)
	.cfi_offset 1, -4
	.cfi_offset 8, -8
	.cfi_offset 9, -12
	.loc 1 40 5
	li	s0,8192
	.loc 1 37 12
	call	qcc74x_device_get_by_name
.LVL12:
	.loc 1 40 5
	addi	a2,s0,-1791
	li	a1,28
	.loc 1 37 12
	mv	s1,a0
.LVL13:
	.loc 1 40 5 is_stmt 1
	call	qcc74x_gpio_init
.LVL14:
	.loc 1 42 5
	addi	a2,s0,-1791
	mv	a0,s1
	li	a1,29
	call	qcc74x_gpio_init
.LVL15:
	.loc 1 44 5
	addi	a2,s0,-1791
	mv	a0,s1
	li	a1,30
	call	qcc74x_gpio_init
.LVL16:
	.loc 1 46 5
	addi	a2,s0,-1791
	.loc 1 47 1 is_stmt 0
	lw	s0,8(sp)
	.cfi_restore 8
	lw	ra,12(sp)
	.cfi_restore 1
	.loc 1 46 5
	mv	a0,s1
	.loc 1 47 1
	lw	s1,4(sp)
	.cfi_restore 9
.LVL17:
	.loc 1 46 5
	li	a1,27
	.loc 1 47 1
	addi	sp,sp,16
	.cfi_def_cfa_offset 0
	.loc 1 46 5
	tail	qcc74x_gpio_init
.LVL18:
	.cfi_endproc
.LFE244:
	.size	board_spi0_gpio_init, .-board_spi0_gpio_init
	.section	.text.board_spi0_gpio_3pin_init,"ax",@progbits
	.align	1
	.globl	board_spi0_gpio_3pin_init
	.type	board_spi0_gpio_3pin_init, @function
board_spi0_gpio_3pin_init:
.LFB245:
	.loc 1 50 1 is_stmt 1
	.cfi_startproc
	.loc 1 51 5
	.loc 1 53 5
	.loc 1 53 12 is_stmt 0
	lui	a0,%hi(.LC1)
	.loc 1 50 1
	addi	sp,sp,-32
	.cfi_def_cfa_offset 32
	.loc 1 53 12
	addi	a0,a0,%lo(.LC1)
	.loc 1 50 1
	sw	ra,28(sp)
	sw	s0,24(sp)
	.cfi_offset 1, -4
	.cfi_offset 8, -8
	.loc 1 53 12
	call	qcc74x_device_get_by_name
.LVL19:
	.loc 1 56 5
	li	s0,8192
	addi	a2,s0,-1791
	li	a1,29
	.loc 1 53 12
	sw	a0,12(sp)
.LVL20:
	.loc 1 56 5 is_stmt 1
	call	qcc74x_gpio_init
.LVL21:
	.loc 1 58 5
	lw	a0,12(sp)
	addi	a2,s0,-1791
	li	a1,30
	call	qcc74x_gpio_init
.LVL22:
	.loc 1 60 5
	addi	a2,s0,-1791
	.loc 1 61 1 is_stmt 0
	lw	s0,24(sp)
	.cfi_restore 8
	.loc 1 60 5
	lw	a0,12(sp)
	.loc 1 61 1
	lw	ra,28(sp)
	.cfi_restore 1
	.loc 1 60 5
	li	a1,27
	.loc 1 61 1
	addi	sp,sp,32
	.cfi_def_cfa_offset 0
.LVL23:
	.loc 1 60 5
	tail	qcc74x_gpio_init
.LVL24:
	.cfi_endproc
.LFE245:
	.size	board_spi0_gpio_3pin_init, .-board_spi0_gpio_3pin_init
	.section	.text.board_pwm_gpio_init,"ax",@progbits
	.align	1
	.globl	board_pwm_gpio_init
	.type	board_pwm_gpio_init, @function
board_pwm_gpio_init:
.LFB246:
	.loc 1 64 1 is_stmt 1
	.cfi_startproc
	.loc 1 65 5
	.loc 1 67 5
	.loc 1 67 12 is_stmt 0
	lui	a0,%hi(.LC1)
	.loc 1 64 1
	addi	sp,sp,-16
	.cfi_def_cfa_offset 16
	.loc 1 67 12
	addi	a0,a0,%lo(.LC1)
	.loc 1 64 1
	sw	ra,12(sp)
	sw	s0,8(sp)
	sw	s1,4(sp)
	.cfi_offset 1, -4
	.cfi_offset 8, -8
	.cfi_offset 9, -12
	.loc 1 68 5
	li	s0,8192
	.loc 1 67 12
	call	qcc74x_device_get_by_name
.LVL25:
	.loc 1 68 5
	addi	a2,s0,-752
	li	a1,24
	.loc 1 67 12
	mv	s1,a0
.LVL26:
	.loc 1 68 5 is_stmt 1
	call	qcc74x_gpio_init
.LVL27:
	.loc 1 69 5
	addi	a2,s0,-1264
	mv	a0,s1
	li	a1,25
	call	qcc74x_gpio_init
.LVL28:
	.loc 1 70 5
	addi	a2,s0,-752
	mv	a0,s1
	li	a1,26
	call	qcc74x_gpio_init
.LVL29:
	.loc 1 71 5
	addi	a2,s0,-1264
	mv	a0,s1
	li	a1,27
	call	qcc74x_gpio_init
.LVL30:
	.loc 1 72 5
	addi	a2,s0,-752
	mv	a0,s1
	li	a1,28
	call	qcc74x_gpio_init
.LVL31:
	.loc 1 73 5
	addi	a2,s0,-1264
	mv	a0,s1
	li	a1,29
	call	qcc74x_gpio_init
.LVL32:
	.loc 1 74 5
	addi	a2,s0,-752
	mv	a0,s1
	li	a1,30
	call	qcc74x_gpio_init
.LVL33:
	.loc 1 75 5
	addi	a2,s0,-1264
	.loc 1 76 1 is_stmt 0
	lw	s0,8(sp)
	.cfi_restore 8
	lw	ra,12(sp)
	.cfi_restore 1
	.loc 1 75 5
	mv	a0,s1
	.loc 1 76 1
	lw	s1,4(sp)
	.cfi_restore 9
.LVL34:
	.loc 1 75 5
	li	a1,31
	.loc 1 76 1
	addi	sp,sp,16
	.cfi_def_cfa_offset 0
	.loc 1 75 5
	tail	qcc74x_gpio_init
.LVL35:
	.cfi_endproc
.LFE246:
	.size	board_pwm_gpio_init, .-board_pwm_gpio_init
	.section	.text.board_adc_gpio_init,"ax",@progbits
	.align	1
	.globl	board_adc_gpio_init
	.type	board_adc_gpio_init, @function
board_adc_gpio_init:
.LFB247:
	.loc 1 79 1 is_stmt 1
	.cfi_startproc
	.loc 1 80 5
	.loc 1 82 5
	.loc 1 82 12 is_stmt 0
	lui	a0,%hi(.LC1)
	.loc 1 79 1
	addi	sp,sp,-16
	.cfi_def_cfa_offset 16
	.loc 1 82 12
	addi	a0,a0,%lo(.LC1)
	.loc 1 79 1
	sw	ra,12(sp)
	sw	s0,8(sp)
	sw	s1,4(sp)
	.cfi_offset 1, -4
	.cfi_offset 8, -8
	.cfi_offset 9, -12
	.loc 1 84 5
	li	s0,4096
	.loc 1 82 12
	call	qcc74x_device_get_by_name
.LVL36:
	.loc 1 84 5
	addi	a2,s0,-1920
	li	a1,20
	.loc 1 82 12
	mv	s1,a0
.LVL37:
	.loc 1 84 5 is_stmt 1
	call	qcc74x_gpio_init
.LVL38:
	.loc 1 86 5
	addi	a2,s0,-1920
	mv	a0,s1
	li	a1,19
	call	qcc74x_gpio_init
.LVL39:
	.loc 1 88 5
	addi	a2,s0,-1920
	mv	a0,s1
	li	a1,2
	call	qcc74x_gpio_init
.LVL40:
	.loc 1 90 5
	addi	a2,s0,-1920
	mv	a0,s1
	li	a1,3
	call	qcc74x_gpio_init
.LVL41:
	.loc 1 92 5
	addi	a2,s0,-1920
	mv	a0,s1
	li	a1,14
	call	qcc74x_gpio_init
.LVL42:
	.loc 1 94 5
	addi	a2,s0,-1920
	mv	a0,s1
	li	a1,13
	call	qcc74x_gpio_init
.LVL43:
	.loc 1 96 5
	addi	a2,s0,-1920
	mv	a0,s1
	li	a1,12
	call	qcc74x_gpio_init
.LVL44:
	.loc 1 98 5
	addi	a2,s0,-1920
	mv	a0,s1
	li	a1,10
	call	qcc74x_gpio_init
.LVL45:
	.loc 1 100 5
	addi	a2,s0,-1920
	mv	a0,s1
	li	a1,1
	call	qcc74x_gpio_init
.LVL46:
	.loc 1 102 5
	addi	a2,s0,-1920
	mv	a0,s1
	li	a1,0
	call	qcc74x_gpio_init
.LVL47:
	.loc 1 104 5
	addi	a2,s0,-1920
	mv	a0,s1
	li	a1,27
	call	qcc74x_gpio_init
.LVL48:
	.loc 1 106 5
	addi	a2,s0,-1920
	.loc 1 107 1 is_stmt 0
	lw	s0,8(sp)
	.cfi_restore 8
	lw	ra,12(sp)
	.cfi_restore 1
	.loc 1 106 5
	mv	a0,s1
	.loc 1 107 1
	lw	s1,4(sp)
	.cfi_restore 9
.LVL49:
	.loc 1 106 5
	li	a1,28
	.loc 1 107 1
	addi	sp,sp,16
	.cfi_def_cfa_offset 0
	.loc 1 106 5
	tail	qcc74x_gpio_init
.LVL50:
	.cfi_endproc
.LFE247:
	.size	board_adc_gpio_init, .-board_adc_gpio_init
	.section	.text.board_dac_gpio_init,"ax",@progbits
	.align	1
	.globl	board_dac_gpio_init
	.type	board_dac_gpio_init, @function
board_dac_gpio_init:
.LFB248:
	.loc 1 110 1 is_stmt 1
	.cfi_startproc
	.loc 1 111 5
	.loc 1 113 5
	.loc 1 113 12 is_stmt 0
	lui	a0,%hi(.LC1)
	.loc 1 110 1
	addi	sp,sp,-32
	.cfi_def_cfa_offset 32
	.loc 1 113 12
	addi	a0,a0,%lo(.LC1)
	.loc 1 110 1
	sw	ra,28(sp)
	sw	s0,24(sp)
	.cfi_offset 1, -4
	.cfi_offset 8, -8
	.loc 1 113 12
	call	qcc74x_device_get_by_name
.LVL51:
	.loc 1 115 5
	li	s0,4096
	addi	a2,s0,-1920
	li	a1,3
	.loc 1 113 12
	sw	a0,12(sp)
.LVL52:
	.loc 1 115 5 is_stmt 1
	call	qcc74x_gpio_init
.LVL53:
	.loc 1 117 5
	addi	a2,s0,-1920
	.loc 1 118 1 is_stmt 0
	lw	s0,24(sp)
	.cfi_restore 8
	.loc 1 117 5
	lw	a0,12(sp)
	.loc 1 118 1
	lw	ra,28(sp)
	.cfi_restore 1
	.loc 1 117 5
	li	a1,2
	.loc 1 118 1
	addi	sp,sp,32
	.cfi_def_cfa_offset 0
.LVL54:
	.loc 1 117 5
	tail	qcc74x_gpio_init
.LVL55:
	.cfi_endproc
.LFE248:
	.size	board_dac_gpio_init, .-board_dac_gpio_init
	.section	.text.board_emac_gpio_init,"ax",@progbits
	.align	1
	.globl	board_emac_gpio_init
	.type	board_emac_gpio_init, @function
board_emac_gpio_init:
.LFB249:
	.loc 1 121 1 is_stmt 1
	.cfi_startproc
	.loc 1 122 5
	.loc 1 124 5
	.loc 1 124 12 is_stmt 0
	lui	a0,%hi(.LC1)
	.loc 1 121 1
	addi	sp,sp,-16
	.cfi_def_cfa_offset 16
	.loc 1 124 12
	addi	a0,a0,%lo(.LC1)
	.loc 1 121 1
	sw	ra,12(sp)
	sw	s0,8(sp)
	sw	s1,4(sp)
	.cfi_offset 1, -4
	.cfi_offset 8, -8
	.cfi_offset 9, -12
	.loc 1 125 5
	li	s0,8192
	.loc 1 124 12
	call	qcc74x_device_get_by_name
.LVL56:
	.loc 1 125 5
	addi	a2,s0,-1272
	li	a1,25
	.loc 1 124 12
	mv	s1,a0
.LVL57:
	.loc 1 125 5 is_stmt 1
	call	qcc74x_gpio_init
.LVL58:
	.loc 1 126 5
	addi	a2,s0,-1272
	mv	a0,s1
	li	a1,26
	call	qcc74x_gpio_init
.LVL59:
	.loc 1 127 5
	addi	a2,s0,-1272
	mv	a0,s1
	li	a1,27
	call	qcc74x_gpio_init
.LVL60:
	.loc 1 128 5
	addi	a2,s0,-1272
	mv	a0,s1
	li	a1,28
	call	qcc74x_gpio_init
.LVL61:
	.loc 1 129 5
	addi	a2,s0,-1272
	mv	a0,s1
	li	a1,29
	call	qcc74x_gpio_init
.LVL62:
	.loc 1 130 5
	addi	a2,s0,-1272
	mv	a0,s1
	li	a1,30
	call	qcc74x_gpio_init
.LVL63:
	.loc 1 131 5
	addi	a2,s0,-1272
	mv	a0,s1
	li	a1,31
	call	qcc74x_gpio_init
.LVL64:
	.loc 1 132 5
	addi	a2,s0,-1272
	mv	a0,s1
	li	a1,32
	call	qcc74x_gpio_init
.LVL65:
	.loc 1 133 5
	addi	a2,s0,-1272
	mv	a0,s1
	li	a1,33
	call	qcc74x_gpio_init
.LVL66:
	.loc 1 134 5
	addi	a2,s0,-1272
	mv	a0,s1
	li	a1,34
	call	qcc74x_gpio_init
.LVL67:
	.loc 1 136 5
	.loc 1 139 1 is_stmt 0
	lw	s0,8(sp)
	.cfi_restore 8
	lw	ra,12(sp)
	.cfi_restore 1
	lw	s1,4(sp)
	.cfi_restore 9
.LVL68:
	addi	sp,sp,16
	.cfi_def_cfa_offset 0
	.loc 1 136 5
	tail	GLB_Config_AUDIO_PLL_To_400M
.LVL69:
	.cfi_endproc
.LFE249:
	.size	board_emac_gpio_init, .-board_emac_gpio_init
	.section	.text.board_sdh_gpio_init,"ax",@progbits
	.align	1
	.globl	board_sdh_gpio_init
	.type	board_sdh_gpio_init, @function
board_sdh_gpio_init:
.LFB250:
	.loc 1 142 1 is_stmt 1
	.cfi_startproc
	.loc 1 143 5
	.loc 1 145 5
	.loc 1 145 12 is_stmt 0
	lui	a0,%hi(.LC1)
	.loc 1 142 1
	addi	sp,sp,-16
	.cfi_def_cfa_offset 16
	.loc 1 145 12
	addi	a0,a0,%lo(.LC1)
	.loc 1 142 1
	sw	ra,12(sp)
	sw	s0,8(sp)
	sw	s1,4(sp)
	.cfi_offset 1, -4
	.cfi_offset 8, -8
	.cfi_offset 9, -12
	.loc 1 146 5
	li	s0,12288
	.loc 1 145 12
	call	qcc74x_device_get_by_name
.LVL70:
	.loc 1 146 5
	addi	a2,s0,-1280
	li	a1,10
	.loc 1 145 12
	mv	s1,a0
.LVL71:
	.loc 1 146 5 is_stmt 1
	call	qcc74x_gpio_init
.LVL72:
	.loc 1 147 5
	addi	a2,s0,-1280
	mv	a0,s1
	li	a1,11
	call	qcc74x_gpio_init
.LVL73:
	.loc 1 148 5
	addi	a2,s0,-1280
	mv	a0,s1
	li	a1,12
	call	qcc74x_gpio_init
.LVL74:
	.loc 1 149 5
	addi	a2,s0,-1280
	mv	a0,s1
	li	a1,13
	call	qcc74x_gpio_init
.LVL75:
	.loc 1 150 5
	addi	a2,s0,-1280
	mv	a0,s1
	li	a1,14
	call	qcc74x_gpio_init
.LVL76:
	.loc 1 151 5
	addi	a2,s0,-1280
	.loc 1 152 1 is_stmt 0
	lw	s0,8(sp)
	.cfi_restore 8
	lw	ra,12(sp)
	.cfi_restore 1
	.loc 1 151 5
	mv	a0,s1
	.loc 1 152 1
	lw	s1,4(sp)
	.cfi_restore 9
.LVL77:
	.loc 1 151 5
	li	a1,15
	.loc 1 152 1
	addi	sp,sp,16
	.cfi_def_cfa_offset 0
	.loc 1 151 5
	tail	qcc74x_gpio_init
.LVL78:
	.cfi_endproc
.LFE250:
	.size	board_sdh_gpio_init, .-board_sdh_gpio_init
	.section	.text.board_ir_gpio_init,"ax",@progbits
	.align	1
	.globl	board_ir_gpio_init
	.type	board_ir_gpio_init, @function
board_ir_gpio_init:
.LFB251:
	.loc 1 155 1 is_stmt 1
	.cfi_startproc
	.loc 1 156 5
	.loc 1 158 5
	.loc 1 158 12 is_stmt 0
	lui	a0,%hi(.LC1)
	.loc 1 155 1
	addi	sp,sp,-16
	.cfi_def_cfa_offset 16
	.loc 1 158 12
	addi	a0,a0,%lo(.LC1)
	.loc 1 155 1
	sw	ra,12(sp)
	.cfi_offset 1, -4
	.loc 1 158 12
	call	qcc74x_device_get_by_name
.LVL79:
	.loc 1 159 5 is_stmt 1
	li	a2,4096
	addi	a2,a2,-2016
	li	a1,10
	call	qcc74x_gpio_init
.LVL80:
	.loc 1 160 5
	.loc 1 161 1 is_stmt 0
	lw	ra,12(sp)
	.cfi_restore 1
	.loc 1 160 5
	li	a0,10
	.loc 1 161 1
	addi	sp,sp,16
	.cfi_def_cfa_offset 0
	.loc 1 160 5
	tail	GLB_IR_RX_GPIO_Sel
.LVL81:
	.cfi_endproc
.LFE251:
	.size	board_ir_gpio_init, .-board_ir_gpio_init
	.section	.text.board_dvp_gpio_init,"ax",@progbits
	.align	1
	.globl	board_dvp_gpio_init
	.type	board_dvp_gpio_init, @function
board_dvp_gpio_init:
.LFB252:
	.loc 1 164 1 is_stmt 1
	.cfi_startproc
	.loc 1 165 5
	.loc 1 167 5
	.loc 1 167 12 is_stmt 0
	lui	a0,%hi(.LC1)
	.loc 1 164 1
	addi	sp,sp,-16
	.cfi_def_cfa_offset 16
	.loc 1 167 12
	addi	a0,a0,%lo(.LC1)
	.loc 1 164 1
	sw	ra,12(sp)
	sw	s0,8(sp)
	sw	s1,4(sp)
	.cfi_offset 1, -4
	.cfi_offset 8, -8
	.cfi_offset 9, -12
	.loc 1 172 5
	li	s1,8192
	.loc 1 167 12
	call	qcc74x_device_get_by_name
.LVL82:
	.loc 1 172 5
	addi	a2,s1,-1275
	li	a1,0
	.loc 1 167 12
	mv	s0,a0
.LVL83:
	.loc 1 172 5 is_stmt 1
	call	qcc74x_gpio_init
.LVL84:
	.loc 1 173 5
	addi	a2,s1,-1275
	mv	a0,s0
	li	a1,1
	call	qcc74x_gpio_init
.LVL85:
	.loc 1 176 5
	addi	a2,s1,-1472
	mv	a0,s0
	li	a1,2
	call	qcc74x_gpio_init
.LVL86:
	.loc 1 177 5
	mv	a0,s0
	li	a1,2
	call	qcc74x_gpio_reset
.LVL87:
	.loc 1 180 5
	addi	a2,s1,-1472
	mv	a0,s0
	li	a1,3
	call	qcc74x_gpio_init
.LVL88:
	.loc 1 181 5
	li	a1,3
	mv	a0,s0
	call	qcc74x_gpio_reset
.LVL89:
	.loc 1 182 5
	li	a0,10
	call	qcc74x_mtimer_delay_ms
.LVL90:
	.loc 1 183 5
	li	a1,3
	mv	a0,s0
	call	qcc74x_gpio_set
.LVL91:
	.loc 1 184 5
	li	a0,10
	call	qcc74x_mtimer_delay_ms
.LVL92:
	.loc 1 187 5
	addi	a2,s1,-1249
	mv	a0,s0
	li	a1,23
	call	qcc74x_gpio_init
.LVL93:
	.loc 1 190 5
	addi	a2,s1,-1271
	mv	a0,s0
	li	a1,24
	call	qcc74x_gpio_init
.LVL94:
	.loc 1 191 5
	addi	a2,s1,-1271
	mv	a0,s0
	li	a1,25
	call	qcc74x_gpio_init
.LVL95:
	.loc 1 192 5
	addi	a2,s1,-1271
	mv	a0,s0
	li	a1,26
	call	qcc74x_gpio_init
.LVL96:
	.loc 1 193 5
	addi	a2,s1,-1271
	mv	a0,s0
	li	a1,27
	call	qcc74x_gpio_init
.LVL97:
	.loc 1 194 5
	addi	a2,s1,-1271
	mv	a0,s0
	li	a1,28
	call	qcc74x_gpio_init
.LVL98:
	.loc 1 195 5
	addi	a2,s1,-1271
	mv	a0,s0
	li	a1,29
	call	qcc74x_gpio_init
.LVL99:
	.loc 1 196 5
	addi	a2,s1,-1271
	mv	a0,s0
	li	a1,30
	call	qcc74x_gpio_init
.LVL100:
	.loc 1 197 5
	addi	a2,s1,-1271
	mv	a0,s0
	li	a1,31
	call	qcc74x_gpio_init
.LVL101:
	.loc 1 198 5
	addi	a2,s1,-1271
	mv	a0,s0
	li	a1,32
	call	qcc74x_gpio_init
.LVL102:
	.loc 1 199 5
	addi	a2,s1,-1271
	mv	a0,s0
	li	a1,33
	call	qcc74x_gpio_init
.LVL103:
	.loc 1 200 5
	mv	a0,s0
	.loc 1 234 1 is_stmt 0
	lw	s0,8(sp)
	.cfi_restore 8
.LVL104:
	lw	ra,12(sp)
	.cfi_restore 1
	.loc 1 200 5
	addi	a2,s1,-1271
	.loc 1 234 1
	lw	s1,4(sp)
	.cfi_restore 9
	.loc 1 200 5
	li	a1,34
	.loc 1 234 1
	addi	sp,sp,16
	.cfi_def_cfa_offset 0
	.loc 1 200 5
	tail	qcc74x_gpio_init
.LVL105:
	.cfi_endproc
.LFE252:
	.size	board_dvp_gpio_init, .-board_dvp_gpio_init
	.section	.text.board_i2s_gpio_init,"ax",@progbits
	.align	1
	.globl	board_i2s_gpio_init
	.type	board_i2s_gpio_init, @function
board_i2s_gpio_init:
.LFB253:
	.loc 1 237 1 is_stmt 1
	.cfi_startproc
	.loc 1 238 5
	.loc 1 240 5
	.loc 1 240 12 is_stmt 0
	lui	a0,%hi(.LC1)
	.loc 1 237 1
	addi	sp,sp,-16
	.cfi_def_cfa_offset 16
	.loc 1 240 12
	addi	a0,a0,%lo(.LC1)
	.loc 1 237 1
	sw	ra,12(sp)
	sw	s0,8(sp)
	sw	s1,4(sp)
	.cfi_offset 1, -4
	.cfi_offset 8, -8
	.cfi_offset 9, -12
	.loc 1 241 5
	li	s0,8192
	.loc 1 240 12
	call	qcc74x_device_get_by_name
.LVL106:
	.loc 1 241 5
	addi	a2,s0,-1277
	li	a1,16
	.loc 1 240 12
	mv	s1,a0
.LVL107:
	.loc 1 241 5 is_stmt 1
	call	qcc74x_gpio_init
.LVL108:
	.loc 1 242 5
	addi	a2,s0,-1277
	mv	a0,s1
	li	a1,17
	call	qcc74x_gpio_init
.LVL109:
	.loc 1 243 5
	addi	a2,s0,-1277
	mv	a0,s1
	li	a1,18
	call	qcc74x_gpio_init
.LVL110:
	.loc 1 244 5
	addi	a2,s0,-1277
	.loc 1 245 1 is_stmt 0
	lw	s0,8(sp)
	.cfi_restore 8
	lw	ra,12(sp)
	.cfi_restore 1
	.loc 1 244 5
	mv	a0,s1
	.loc 1 245 1
	lw	s1,4(sp)
	.cfi_restore 9
.LVL111:
	.loc 1 244 5
	li	a1,19
	.loc 1 245 1
	addi	sp,sp,16
	.cfi_def_cfa_offset 0
	.loc 1 244 5
	tail	qcc74x_gpio_init
.LVL112:
	.cfi_endproc
.LFE253:
	.size	board_i2s_gpio_init, .-board_i2s_gpio_init
	.section	.text.board_timer_gpio_init,"ax",@progbits
	.align	1
	.globl	board_timer_gpio_init
	.type	board_timer_gpio_init, @function
board_timer_gpio_init:
.LFB254:
	.loc 1 248 1 is_stmt 1
	.cfi_startproc
	.loc 1 249 5
	.loc 1 251 5
	.loc 1 251 12 is_stmt 0
	lui	a0,%hi(.LC1)
	.loc 1 248 1
	addi	sp,sp,-16
	.cfi_def_cfa_offset 16
	.loc 1 251 12
	addi	a0,a0,%lo(.LC1)
	.loc 1 248 1
	sw	ra,12(sp)
	sw	s0,8(sp)
	.cfi_offset 1, -4
	.cfi_offset 8, -8
	.loc 1 251 12
	call	qcc74x_device_get_by_name
.LVL113:
	mv	s0,a0
.LVL114:
	.loc 1 252 5 is_stmt 1
	li	a0,0
	call	GLB_Sel_MCU_TMR_GPIO_Clock
.LVL115:
	.loc 1 253 5
	mv	a0,s0
	.loc 1 254 1 is_stmt 0
	lw	s0,8(sp)
	.cfi_restore 8
.LVL116:
	lw	ra,12(sp)
	.cfi_restore 1
	.loc 1 253 5
	li	a2,8192
	.loc 1 254 1
	.loc 1 253 5
	addi	a2,a2,-737
	li	a1,0
	.loc 1 254 1
	addi	sp,sp,16
	.cfi_def_cfa_offset 0
	.loc 1 253 5
	tail	qcc74x_gpio_init
.LVL117:
	.cfi_endproc
.LFE254:
	.size	board_timer_gpio_init, .-board_timer_gpio_init
	.section	.text.board_acomp_init,"ax",@progbits
	.align	1
	.globl	board_acomp_init
	.type	board_acomp_init, @function
board_acomp_init:
.LFB255:
	.loc 1 257 1 is_stmt 1
	.cfi_startproc
	.loc 1 258 5
	.loc 1 260 5
	.loc 1 260 12 is_stmt 0
	lui	a0,%hi(.LC1)
	.loc 1 257 1
	addi	sp,sp,-48
	.cfi_def_cfa_offset 48
	.loc 1 260 12
	addi	a0,a0,%lo(.LC1)
	.loc 1 257 1
	sw	ra,44(sp)
	.cfi_offset 1, -4
	.loc 1 260 12
	call	qcc74x_device_get_by_name
.LVL118:
	.loc 1 262 5
	li	a2,130
	li	a1,3
	.loc 1 260 12
	sw	a0,12(sp)
.LVL119:
	.loc 1 262 5 is_stmt 1
	call	qcc74x_gpio_init
.LVL120:
	.loc 1 263 5
	lw	a0,12(sp)
	li	a2,130
	li	a1,20
	call	qcc74x_gpio_init
.LVL121:
	.loc 1 266 5
	.loc 1 266 34 is_stmt 0
	lui	a5,%hi(.LANCHOR0)
	addi	a5,a5,%lo(.LANCHOR0)
	lw	a4,0(a5)
	lw	a5,4(a5)
	.loc 1 278 5
	addi	a1,sp,24
	.loc 1 266 34
	sw	a4,24(sp)
	sw	a5,28(sp)
	.loc 1 277 5 is_stmt 1
	.loc 1 278 5 is_stmt 0
	li	a0,0
	.loc 1 277 28
	li	a5,3
	sb	a5,25(sp)
	.loc 1 278 5 is_stmt 1
	call	qcc74x_acomp_init
.LVL122:
	.loc 1 279 5
	.loc 1 280 5 is_stmt 0
	addi	a1,sp,24
	li	a0,1
	.loc 1 279 28
	sb	zero,25(sp)
	.loc 1 280 5 is_stmt 1
	call	qcc74x_acomp_init
.LVL123:
	.loc 1 281 1 is_stmt 0
	lw	ra,44(sp)
	.cfi_restore 1
	addi	sp,sp,48
	.cfi_def_cfa_offset 0
.LVL124:
	jr	ra
	.cfi_endproc
.LFE255:
	.size	board_acomp_init, .-board_acomp_init
	.section	.rodata
	.align	2
	.set	.LANCHOR0,. + 0
.LC0:
	.byte	1
	.byte	0
	.byte	11
	.byte	33
	.byte	48
	.byte	0
	.byte	0
	.byte	0
	.text
.Letext0:
	.file 2 "./toolchain/linux_x86_64/riscv64-unknown-elf/include/machine/_default_types.h"
	.file 3 "./toolchain/linux_x86_64/riscv64-unknown-elf/include/sys/_stdint.h"
	.file 4 "./drivers/lhal/include/qcc74x_core.h"
	.file 5 "./drivers/lhal/include/qcc74x_acomp.h"
	.file 6 "./drivers/lhal/include/qcc74x_gpio.h"
	.file 7 "./drivers/soc/qcc743/std/include/qcc743_glb.h"
	.file 8 "./drivers/lhal/include/qcc74x_mtimer.h"
	.file 9 "./drivers/soc/qcc743/std/include/qcc743_common.h"