	.file	"board.c"
	.option nopic
	.attribute arch, "rv32i2p0_m2p0_a2p0_f2p0_c2p0_p0p9_zpn0p9_zpsfoperand0p9_xtheade2p0"
	.attribute unaligned_access, 0
	.attribute stack_align, 16
	.text
.Ltext0:
	.cfi_sections	.debug_frame
	.section	.sclock_rlt_code../bsp/board/qcc74xdk/board.c53,"ax",@progbits
	.align	1
	.type	system_clock_init, @function
system_clock_init:
.LFB242:
	.file 1 "./bsp/board/qcc74xdk/board.c"
	.loc 1 54 1
	.cfi_startproc
	.loc 1 57 5
	.loc 1 54 1 is_stmt 0
	addi	sp,sp,-16
	.cfi_def_cfa_offset 16
	.loc 1 57 5
	li	a1,3
	li	a0,4
	.loc 1 54 1
	sw	ra,12(sp)
	.cfi_offset 1, -4
	.loc 1 57 5
	call	GLB_Power_On_XTAL_And_PLL_CLK
.LVL0:
	.loc 1 58 5 is_stmt 1
	li	a0,5
	call	GLB_Set_MCU_System_CLK
.LVL1:
	.loc 1 59 5
	li	a0,1
	call	HBN_Set_MCU_XCLK_Sel
.LVL2:
	.loc 1 67 5
	.loc 1 67 69 is_stmt 0
	li	a0,5
	call	Clock_System_Clock_Get
.LVL3:
	.loc 1 67 118
	li	a2,999424
	addi	a2,a2,576
	divu	a2,a0,a2
	.loc 1 74 1
	lw	ra,12(sp)
	.cfi_restore 1
	.loc 1 67 5
	li	a1,0
	.loc 1 74 1
	.loc 1 67 5
	li	a0,1
	.loc 1 74 1
	addi	sp,sp,16
	.cfi_def_cfa_offset 0
	.loc 1 67 5
	addi	a2,a2,-1
	extu	a2,a2,15,0
	tail	CPU_Set_MTimer_CLK
.LVL4:
	.cfi_endproc
.LFE242:
	.size	system_clock_init, .-system_clock_init
	.section	.rodata.qcc74x_show_log.str1.4,"aMS",@progbits,1
	.align	2
.LC0:
	.string	"\r\n"
	.align	2
.LC1:
	.string	"Feb  5 2026"
	.align	2
.LC2:
	.string	"15:11:01"
	.align	2
.LC3:
	.string	"Build:%s,%s\r\n"
	.section	.text.qcc74x_show_log,"ax",@progbits
	.align	1
	.globl	qcc74x_show_log
	.type	qcc74x_show_log, @function
qcc74x_show_log:
.LFB244:
	.loc 1 263 1 is_stmt 1
	.cfi_startproc
	.loc 1 264 5
	.loc 1 263 1 is_stmt 0
	addi	sp,sp,-16
	.cfi_def_cfa_offset 16
	sw	s0,8(sp)
	.cfi_offset 8, -8
	.loc 1 264 5
	lui	s0,%hi(.LC0)
	addi	a0,s0,%lo(.LC0)
	.loc 1 263 1
	sw	ra,12(sp)
	.cfi_offset 1, -4
	.loc 1 264 5
	call	printf
.LVL5:
	.loc 1 265 5 is_stmt 1
	addi	a0,s0,%lo(.LC0)
	call	printf
.LVL6:
	.loc 1 266 5
	.loc 1 267 1 is_stmt 0
	lw	s0,8(sp)
	.cfi_restore 8
	lw	ra,12(sp)
	.cfi_restore 1
	.loc 1 266 5
	lui	a2,%hi(.LC1)
	lui	a1,%hi(.LC2)
	lui	a0,%hi(.LC3)
	.loc 1 267 1
	.loc 1 266 5
	addi	a2,a2,%lo(.LC1)
	addi	a1,a1,%lo(.LC2)
	addi	a0,a0,%lo(.LC3)
	.loc 1 267 1
	addi	sp,sp,16
	.cfi_def_cfa_offset 0
	.loc 1 266 5
	tail	printf
.LVL7:
	.cfi_endproc
.LFE244:
	.size	qcc74x_show_log, .-qcc74x_show_log
	.section	.text.qcc74x_sys_version,"ax",@progbits
	.align	1
	.globl	qcc74x_sys_version
	.type	qcc74x_sys_version, @function
qcc74x_sys_version:
.LFB245:
	.loc 1 270 1 is_stmt 1
	.cfi_startproc
.LVL8:
	.loc 1 271 5
	.loc 1 272 5
	.loc 1 273 5
	.loc 1 274 5
	.loc 1 275 5
	.loc 1 278 5
	.loc 1 278 8 is_stmt 0
	lw	a5,0(a0)
	.loc 1 270 1
	mv	a4,a0
	.loc 1 278 8
	bne	a5,zero,.L6
	.loc 1 279 9 is_stmt 1
	.loc 1 279 16 is_stmt 0
	lui	a5,%hi(_version_info_section_start)
	addi	a5,a5,%lo(_version_info_section_start)
	sw	a5,0(a0)
.L6:
	.loc 1 282 5 is_stmt 1
	.loc 1 282 33 is_stmt 0
	lw	a5,0(a4)
	.loc 1 282 8
	lui	a3,%hi(_version_info_section_end)
	addi	a3,a3,%lo(_version_info_section_end)
	.loc 1 283 15
	li	a0,0
.LVL9:
	.loc 1 282 8
	beq	a5,a3,.L5
	.loc 1 285 5 is_stmt 1
	.loc 1 285 17 is_stmt 0
	lwia	a0,(a5),4,0
.LVL10:
	.loc 1 286 5 is_stmt 1
	.loc 1 286 10 is_stmt 0
	sw	a5,0(a4)
	.loc 1 287 5 is_stmt 1
.LVL11:
.L5:
	.loc 1 288 1 is_stmt 0
	ret
	.cfi_endproc
.LFE245:
	.size	qcc74x_sys_version, .-qcc74x_sys_version
	.section	.rodata.qcc74x_show_component_version.str1.4,"aMS",@progbits,1
	.align	2
.LC4:
	.string	"Version of used components:\r\n"
	.align	2
.LC5:
	.string	"\tVersion: "
	.section	.text.qcc74x_show_component_version,"ax",@progbits
	.align	1
	.globl	qcc74x_show_component_version
	.type	qcc74x_show_component_version, @function
qcc74x_show_component_version:
.LFB246:
	.loc 1 291 1 is_stmt 1
	.cfi_startproc
	.loc 1 292 5
	.loc 1 295 5 is_stmt 0
	lui	a0,%hi(.LC4)
	.loc 1 291 1
	addi	sp,sp,-32
	.cfi_def_cfa_offset 32
	.loc 1 295 5
	addi	a0,a0,%lo(.LC4)
	.loc 1 291 1
	sw	s1,20(sp)
	sw	s2,16(sp)
	sw	ra,28(sp)
	sw	s0,24(sp)
	.cfi_offset 9, -12
	.cfi_offset 18, -16
	.cfi_offset 1, -4
	.cfi_offset 8, -8
	.loc 1 292 18
	sw	zero,12(sp)
	.loc 1 293 5 is_stmt 1
	.loc 1 295 5
	.loc 1 297 9 is_stmt 0
	lui	s1,%hi(.LC5)
	.loc 1 295 5
	call	puts
.LVL12:
	.loc 1 296 5 is_stmt 1
	.loc 1 299 9 is_stmt 0
	lui	s2,%hi(.LC0)
.L10:
	.loc 1 296 11 is_stmt 1
	.loc 1 296 27 is_stmt 0
	addi	a0,sp,12
	call	qcc74x_sys_version
.LVL13:
	mv	s0,a0
.LVL14:
	.loc 1 296 11
	bne	a0,zero,.L11
	.loc 1 301 1
	lw	ra,28(sp)
	.cfi_remember_state
	.cfi_restore 1
	lw	s0,24(sp)
	.cfi_restore 8
.LVL15:
	lw	s1,20(sp)
	.cfi_restore 9
	lw	s2,16(sp)
	.cfi_restore 18
	addi	sp,sp,32
	.cfi_def_cfa_offset 0
	jr	ra
.LVL16:
.L11:
	.cfi_restore_state
	.loc 1 297 9 is_stmt 1
	addi	a0,s1,%lo(.LC5)
	call	puts
.LVL17:
	.loc 1 298 9
	mv	a0,s0
	call	puts
.LVL18:
	.loc 1 299 9
	addi	a0,s2,%lo(.LC0)
	call	puts
.LVL19:
	j	.L10
	.cfi_endproc
.LFE246:
	.size	qcc74x_show_component_version, .-qcc74x_show_component_version
	.section	.rodata.qcc74x_show_chipinfo.str1.4,"aMS",@progbits,1
	.align	2
.LC6:
	.string	"======== chip info ========\r\n"
	.align	2
.LC7:
	.string	"package          %s\r\n"
	.align	2
.LC8:
	.string	"flash_info       %s\r\n"
	.align	2
.LC9:
	.string	"psram_info       %s\r\n"
	.align	2
.LC10:
	.string	"version          A%d\r\n"
	.section	.text.qcc74x_show_chipinfo,"ax",@progbits
	.align	1
	.globl	qcc74x_show_chipinfo
	.type	qcc74x_show_chipinfo, @function
qcc74x_show_chipinfo:
.LFB247:
	.loc 1 304 1
	.cfi_startproc
	.loc 1 305 5
	.loc 1 306 5
	.loc 1 304 1 is_stmt 0
	addi	sp,sp,-64
	.cfi_def_cfa_offset 64
	.loc 1 306 5
	addi	a0,sp,12
	.loc 1 304 1
	sw	ra,60(sp)
	.cfi_offset 1, -4
	.loc 1 306 5
	call	qcc74x_efuse_get_device_info
.LVL20:
	.loc 1 308 5 is_stmt 1
	lui	a0,%hi(.LC6)
	addi	a0,a0,%lo(.LC6)
	call	printf
.LVL21:
	.loc 1 309 5
	lw	a1,20(sp)
	lui	a0,%hi(.LC7)
	addi	a0,a0,%lo(.LC7)
	call	printf
.LVL22:
	.loc 1 310 5
	lw	a1,24(sp)
	lui	a0,%hi(.LC8)
	addi	a0,a0,%lo(.LC8)
	call	printf
.LVL23:
	.loc 1 311 5
	lw	a1,28(sp)
	lui	a0,%hi(.LC9)
	addi	a0,a0,%lo(.LC9)
	call	printf
.LVL24:
	.loc 1 312 5
	lbu	a1,15(sp)
	lui	a0,%hi(.LC10)
	addi	a0,a0,%lo(.LC10)
	call	printf
.LVL25:
	.loc 1 313 1 is_stmt 0
	lw	ra,60(sp)
	.cfi_restore 1
	addi	sp,sp,64
	.cfi_def_cfa_offset 0
	jr	ra
	.cfi_endproc
.LFE247:
	.size	qcc74x_show_chipinfo, .-qcc74x_show_chipinfo
	.section	.rodata.board_init.str1.4,"aMS",@progbits,1
	.align	2
.LC11:
	.string	"oscillator"
	.align	2
.LC12:
	.string	"crystal"
	.align	2
.LC13:
	.string	"gpio"
	.align	2
.LC14:
	.string	"uart0"
	.align	2
.LC15:
	.string	"psram data already exists, please enable CONFIG_PSRAM\r\n"
	.align	2
.LC16:
	.string	"dynamic memory init success, ocram heap size = %d Kbyte \r\n"
	.align	2
.LC17:
	.string	"flash init fail!!!\r\n"
	.align	2
.LC18:
	.string	"uart  sig1:%08x, sig2:%08x\r\n"
	.align	2
.LC19:
	.string	"clock gen1:%08x, gen2:%08x\r\n"
	.align	2
.LC20:
	.string	"xtal:%dHz(%s)\r\n"
	.align	2
.LC21:
	.string	"board init done\r\n"
	.align	2
.LC22:
	.string	"===========================\r\n"
	.section	.text.board_init,"ax",@progbits
	.align	1
	.globl	board_init
	.type	board_init, @function
board_init:
.LFB249:
	.loc 1 366 1 is_stmt 1
	.cfi_startproc
	.loc 1 367 5
.LVL26:
	.loc 1 368 5
	.loc 1 369 5
	.loc 1 370 5
	.loc 1 366 1 is_stmt 0
	addi	sp,sp,-128
	.cfi_def_cfa_offset 128
	sw	ra,124(sp)
	sw	s0,120(sp)
	sw	s1,116(sp)
	sw	s2,112(sp)
	sw	s3,108(sp)
	.cfi_offset 1, -4
	.cfi_offset 8, -8
	.cfi_offset 9, -12
	.cfi_offset 18, -16
	.cfi_offset 19, -20
	.loc 1 370 14
	sw	zero,20(sp)
	.loc 1 372 5 is_stmt 1
	.loc 1 372 12 is_stmt 0
	call	qcc74x_irq_save
.LVL27:
	mv	s1,a0
.LVL28:
	.loc 1 375 5 is_stmt 1
	.loc 1 375 11 is_stmt 0
	call	qcc74x_flash_init
.LVL29:
	mv	s2,a0
.LVL30:
	.loc 1 378 5 is_stmt 1
	call	system_clock_init
.LVL31:
	.loc 1 381 5
.LBB21:
.LBB22:
	.loc 1 104 5
.LBB23:
	.loc 1 104 10
	.loc 1 104 38 is_stmt 0
	li	a5,536870912
	addi	a5,a5,1408
	lw	a4,4(a5)
.LBE23:
.LBB24:
	.loc 1 106 103
	li	a3,4096
.LBE24:
.LBB25:
	.loc 1 107 103
	li	s0,65536
.LBE25:
.LBB26:
	.loc 1 104 28
	sw	a4,24(sp)
	.loc 1 104 96 is_stmt 1
	.loc 1 104 103 is_stmt 0
	lw	a4,24(sp)
.LBE26:
.LBB27:
	.loc 1 112 103
	li	a2,2097152
.LBE27:
	.loc 1 120 5
	li	a1,2
.LBB28:
	.loc 1 104 103
	ori	a4,a4,4
	sw	a4,24(sp)
	.loc 1 104 116 is_stmt 1
	.loc 1 104 173 is_stmt 0
	lw	a4,24(sp)
.LBE28:
	.loc 1 120 5
	li	a0,1
.LBB29:
	.loc 1 104 173
	sw	a4,4(a5)
.LBE29:
	.loc 1 104 194 is_stmt 1
	.loc 1 105 5
.LBB30:
	.loc 1 105 10
	.loc 1 105 38 is_stmt 0
	lw	a4,4(a5)
	.loc 1 105 28
	sw	a4,28(sp)
	.loc 1 105 96 is_stmt 1
	.loc 1 105 103 is_stmt 0
	lw	a4,28(sp)
	ori	a4,a4,8
	sw	a4,28(sp)
	.loc 1 105 116 is_stmt 1
	.loc 1 105 123 is_stmt 0
	lw	a4,28(sp)
	ori	a4,a4,16
	sw	a4,28(sp)
	.loc 1 105 136 is_stmt 1
	.loc 1 105 193 is_stmt 0
	lw	a4,28(sp)
	sw	a4,4(a5)
.LBE30:
	.loc 1 105 214 is_stmt 1
	.loc 1 106 5
.LBB31:
	.loc 1 106 10
	.loc 1 106 38 is_stmt 0
	lw	a4,4(a5)
	.loc 1 106 28
	sw	a4,32(sp)
	.loc 1 106 96 is_stmt 1
	.loc 1 106 103 is_stmt 0
	lw	a4,32(sp)
	or	a4,a4,a3
	sw	a4,32(sp)
	.loc 1 106 117 is_stmt 1
	.loc 1 106 174 is_stmt 0
	lw	a4,32(sp)
.LBE31:
.LBB32:
	.loc 1 108 103
	li	a3,131072
.LBE32:
.LBB33:
	.loc 1 106 174
	sw	a4,4(a5)
.LBE33:
	.loc 1 106 195 is_stmt 1
	.loc 1 107 5
.LBB34:
	.loc 1 107 10
	.loc 1 107 38 is_stmt 0
	lw	a4,4(a5)
	.loc 1 107 28
	sw	a4,36(sp)
	.loc 1 107 96 is_stmt 1
	.loc 1 107 103 is_stmt 0
	lw	a4,36(sp)
	or	a4,a4,s0
	sw	a4,36(sp)
	.loc 1 107 117 is_stmt 1
	.loc 1 107 174 is_stmt 0
	lw	a4,36(sp)
.LBE34:
.LBE22:
.LBE21:
.LBB57:
.LBB58:
	.loc 1 334 33
	addi	s0,s0,768
.LBE58:
.LBE57:
.LBB61:
.LBB56:
.LBB35:
	.loc 1 107 174
	sw	a4,4(a5)
.LBE35:
	.loc 1 107 195 is_stmt 1
	.loc 1 108 5
.LBB36:
	.loc 1 108 10
	.loc 1 108 38 is_stmt 0
	lw	a4,4(a5)
	.loc 1 108 28
	sw	a4,40(sp)
	.loc 1 108 96 is_stmt 1
	.loc 1 108 103 is_stmt 0
	lw	a4,40(sp)
	or	a4,a4,a3
	sw	a4,40(sp)
	.loc 1 108 117 is_stmt 1
	.loc 1 108 174 is_stmt 0
	lw	a4,40(sp)
.LBE36:
.LBB37:
	.loc 1 109 103
	li	a3,262144
.LBE37:
.LBB38:
	.loc 1 108 174
	sw	a4,4(a5)
.LBE38:
	.loc 1 108 195 is_stmt 1
	.loc 1 109 5
.LBB39:
	.loc 1 109 10
	.loc 1 109 38 is_stmt 0
	lw	a4,4(a5)
	.loc 1 109 28
	sw	a4,44(sp)
	.loc 1 109 96 is_stmt 1
	.loc 1 109 103 is_stmt 0
	lw	a4,44(sp)
	or	a4,a4,a3
	sw	a4,44(sp)
	.loc 1 109 117 is_stmt 1
	.loc 1 109 174 is_stmt 0
	lw	a4,44(sp)
.LBE39:
.LBB40:
	.loc 1 110 103
	li	a3,524288
.LBE40:
.LBB41:
	.loc 1 109 174
	sw	a4,4(a5)
.LBE41:
	.loc 1 109 195 is_stmt 1
	.loc 1 110 5
.LBB42:
	.loc 1 110 10
	.loc 1 110 38 is_stmt 0
	lw	a4,4(a5)
	.loc 1 110 28
	sw	a4,48(sp)
	.loc 1 110 96 is_stmt 1
	.loc 1 110 103 is_stmt 0
	lw	a4,48(sp)
	or	a4,a4,a3
	sw	a4,48(sp)
	.loc 1 110 117 is_stmt 1
	.loc 1 110 174 is_stmt 0
	lw	a4,48(sp)
.LBE42:
.LBB43:
	.loc 1 111 103
	li	a3,1048576
.LBE43:
.LBB44:
	.loc 1 110 174
	sw	a4,4(a5)
.LBE44:
	.loc 1 110 195 is_stmt 1
	.loc 1 111 5
.LBB45:
	.loc 1 111 10
	.loc 1 111 38 is_stmt 0
	lw	a4,4(a5)
	.loc 1 111 28
	sw	a4,52(sp)
	.loc 1 111 96 is_stmt 1
	.loc 1 111 103 is_stmt 0
	lw	a4,52(sp)
	or	a4,a4,a3
	sw	a4,52(sp)
	.loc 1 111 117 is_stmt 1
	.loc 1 111 174 is_stmt 0
	lw	a4,52(sp)
	sw	a4,4(a5)
.LBE45:
	.loc 1 111 195 is_stmt 1
	.loc 1 112 5
.LBB46:
	.loc 1 112 10
	.loc 1 112 38 is_stmt 0
	lw	a4,4(a5)
	.loc 1 112 28
	sw	a4,56(sp)
	.loc 1 112 96 is_stmt 1
	.loc 1 112 103 is_stmt 0
	lw	a3,56(sp)
	or	a3,a3,a2
	sw	a3,56(sp)
	.loc 1 112 117 is_stmt 1
	.loc 1 112 174 is_stmt 0
	lw	a4,56(sp)
	sw	a4,4(a5)
.LBE46:
	.loc 1 112 195 is_stmt 1
	.loc 1 113 5
.LBB47:
	.loc 1 113 10
	.loc 1 113 38 is_stmt 0
	lw	a4,4(a5)
	.loc 1 113 28
	sw	a4,60(sp)
	.loc 1 113 96 is_stmt 1
	.loc 1 113 103 is_stmt 0
	lw	a3,60(sp)
	li	a4,4194304
	or	a3,a3,a4
	sw	a3,60(sp)
	.loc 1 113 117 is_stmt 1
	.loc 1 113 174 is_stmt 0
	lw	a4,60(sp)
	sw	a4,4(a5)
.LBE47:
	.loc 1 113 195 is_stmt 1
	.loc 1 114 5
.LBB48:
	.loc 1 114 10
	.loc 1 114 38 is_stmt 0
	lw	a4,4(a5)
	.loc 1 114 28
	sw	a4,64(sp)
	.loc 1 114 96 is_stmt 1
	.loc 1 114 103 is_stmt 0
	lw	a3,64(sp)
	li	a4,134217728
	or	a3,a3,a4
	sw	a3,64(sp)
	.loc 1 114 117 is_stmt 1
	.loc 1 114 174 is_stmt 0
	lw	a4,64(sp)
	sw	a4,4(a5)
.LBE48:
	.loc 1 114 195 is_stmt 1
	.loc 1 115 5
.LBB49:
	.loc 1 115 10
	.loc 1 115 38 is_stmt 0
	lw	a4,4(a5)
	.loc 1 115 28
	sw	a4,68(sp)
	.loc 1 115 96 is_stmt 1
	.loc 1 115 103 is_stmt 0
	lw	a3,68(sp)
	li	a4,8192
	or	a3,a3,a4
	sw	a3,68(sp)
	.loc 1 115 117 is_stmt 1
	.loc 1 115 174 is_stmt 0
	lw	a4,68(sp)
	sw	a4,4(a5)
.LBE49:
	.loc 1 115 195 is_stmt 1
	.loc 1 116 5
.LBB50:
	.loc 1 116 10
	.loc 1 116 38 is_stmt 0
	lw	a4,4(a5)
	.loc 1 116 28
	sw	a4,72(sp)
	.loc 1 116 96 is_stmt 1
	.loc 1 116 103 is_stmt 0
	lw	a3,72(sp)
	li	a4,67108864
	or	a3,a3,a4
	sw	a3,72(sp)
	.loc 1 116 117 is_stmt 1
	.loc 1 116 174 is_stmt 0
	lw	a4,72(sp)
.LBE50:
.LBB51:
	.loc 1 118 103
	li	a3,8388608
.LBE51:
.LBB52:
	.loc 1 116 174
	sw	a4,4(a5)
.LBE52:
	.loc 1 116 195 is_stmt 1
	.loc 1 117 5
.LBB53:
	.loc 1 117 10
	.loc 1 117 38 is_stmt 0
	lw	a4,8(a5)
	.loc 1 117 28
	sw	a4,76(sp)
	.loc 1 117 96 is_stmt 1
	.loc 1 117 103 is_stmt 0
	lw	a4,76(sp)
	or	a4,a4,a2
	sw	a4,76(sp)
	.loc 1 117 117 is_stmt 1
	.loc 1 117 174 is_stmt 0
	lw	a4,76(sp)
.LBE53:
	.loc 1 120 5
	li	a2,0
.LBB54:
	.loc 1 117 174
	sw	a4,8(a5)
.LBE54:
	.loc 1 117 195 is_stmt 1
	.loc 1 118 5
.LBB55:
	.loc 1 118 10
	.loc 1 118 38 is_stmt 0
	lw	a4,4(a5)
	.loc 1 118 28
	sw	a4,80(sp)
	.loc 1 118 96 is_stmt 1
	.loc 1 118 103 is_stmt 0
	lw	a4,80(sp)
	or	a4,a4,a3
	sw	a4,80(sp)
	.loc 1 118 117 is_stmt 1
	.loc 1 118 174 is_stmt 0
	lw	a4,80(sp)
	sw	a4,4(a5)
.LBE55:
	.loc 1 118 195 is_stmt 1
	.loc 1 120 5
	call	GLB_Set_UART_CLK
.LVL32:
	.loc 1 121 5
	li	a2,0
	li	a1,0
	li	a0,1
	call	GLB_Set_SPI_CLK
.LVL33:
	.loc 1 122 5
	li	a2,0
	li	a1,0
	li	a0,1
	call	GLB_Set_DBI_CLK
.LVL34:
	.loc 1 123 5
	li	a2,0
	li	a1,1
	li	a0,1
	call	GLB_Set_I2C_CLK
.LVL35:
	.loc 1 124 5
	li	a2,1
	li	a1,1
	li	a0,1
	call	GLB_Set_ADC_CLK
.LVL36:
	.loc 1 125 5
	li	a0,1
	call	GLB_Set_DIG_CLK_Sel
.LVL37:
	.loc 1 126 5
	li	a2,78
	li	a1,1
	li	a0,1
	call	GLB_Set_DIG_512K_CLK
.LVL38:
	.loc 1 127 5
	li	a0,0
	call	GLB_Set_PWM1_IO_Sel
.LVL39:
	.loc 1 128 5
	li	a2,19
	li	a1,0
	li	a0,1
	call	GLB_Set_IR_CLK
.LVL40:
	.loc 1 129 5
	li	a2,3
	li	a1,1
	li	a0,1
	call	GLB_Set_CAM_CLK
.LVL41:
	.loc 1 131 5
	li	a0,1
	call	GLB_Set_PKA_CLK_Sel
.LVL42:
	.loc 1 137 5
	li	a0,1
	call	GLB_Set_USB_CLK_From_WIFIPLL
.LVL43:
	.loc 1 138 5
	li	a0,0
	call	GLB_Swap_MCU_SPI_0_MOSI_With_MISO
.LVL44:
.LBE56:
.LBE61:
	.loc 1 386 5
	call	qcc74x_irq_initialize
.LVL45:
	.loc 1 393 5
.LBB62:
.LBB59:
	.loc 1 328 5
	.loc 1 330 5
	.loc 1 330 12 is_stmt 0
	lui	a0,%hi(.LC13)
	addi	a0,a0,%lo(.LC13)
	call	qcc74x_device_get_by_name
.LVL46:
	.loc 1 331 5
	li	a2,2
	li	a1,21
	.loc 1 330 12
	sw	a0,12(sp)
.LVL47:
	.loc 1 331 5 is_stmt 1
	call	qcc74x_gpio_uart_init
.LVL48:
	.loc 1 332 5
	lw	a0,12(sp)
	li	a2,3
	li	a1,22
	call	qcc74x_gpio_uart_init
.LVL49:
	.loc 1 334 5
	.loc 1 335 5
	.loc 1 336 5
	.loc 1 337 5
	.loc 1 338 5
	.loc 1 339 5
	.loc 1 340 5
	.loc 1 341 5
	.loc 1 335 18 is_stmt 0
	li	a5,1998848
	addi	a5,a5,1152
	.loc 1 344 13
	lui	a0,%hi(.LC14)
	.loc 1 335 18
	sw	a5,84(sp)
	.loc 1 344 13
	addi	a0,a0,%lo(.LC14)
	.loc 1 334 33
	li	a5,117899264
	sw	a5,92(sp)
	.loc 1 342 5 is_stmt 1
	.loc 1 344 5
	.loc 1 334 33 is_stmt 0
	sw	s0,88(sp)
	.loc 1 344 13
	call	qcc74x_device_get_by_name
.LVL50:
	.loc 1 344 11
	lui	s0,%hi(.LANCHOR0)
	addi	s0,s0,%lo(.LANCHOR0)
	.loc 1 346 5
	addi	a1,sp,84
	.loc 1 344 11
	sw	a0,0(s0)
	.loc 1 346 5 is_stmt 1
	call	qcc74x_uart_init
.LVL51:
	.loc 1 347 5
	lw	a0,0(s0)
.LBE59:
.LBE62:
	.loc 1 395 14 is_stmt 0
	lui	s0,%hi(__HeapLimit)
	addi	s0,s0,%lo(__HeapLimit)
.LBB63:
.LBB60:
	.loc 1 347 5
	call	qcc74x_uart_set_console
.LVL52:
.LBE60:
.LBE63:
	.loc 1 395 5 is_stmt 1
	.loc 1 395 14 is_stmt 0
	lui	a0,%hi(__HeapBase)
	addi	a1,a0,%lo(__HeapBase)
	sub	s0,s0,a1
.LVL53:
	.loc 1 396 5 is_stmt 1
	mv	a1,s0
	addi	a0,a0,%lo(__HeapBase)
	call	kmem_init
.LVL54:
	.loc 1 398 5
	call	qcc74x_show_log
.LVL55:
	.loc 1 399 5
	call	qcc74x_show_component_version
.LVL56:
	.loc 1 419 5
	.loc 1 419 29 is_stmt 0
	lui	a5,%hi(__psram_data_end__)
	lui	a4,%hi(__psram_data_start__)
	addi	a5,a5,%lo(__psram_data_end__)
	addi	a4,a4,%lo(__psram_data_start__)
	sub	a5,a5,a4
	.loc 1 419 8
	bgt	a5,zero,.L16
	.loc 1 419 87 discriminator 1
	lui	a5,%hi(__psram_noinit_data_end__)
	lui	a4,%hi(__psram_noinit_data_start__)
	addi	a5,a5,%lo(__psram_noinit_data_end__)
	addi	a4,a4,%lo(__psram_noinit_data_start__)
	sub	a5,a5,a4
	.loc 1 419 57 discriminator 1
	ble	a5,zero,.L17
.L16:
	.loc 1 420 9 is_stmt 1
	lui	a0,%hi(.LC15)
	addi	a0,a0,%lo(.LC15)
	call	puts
.LVL57:
.L18:
	.loc 1 421 9 discriminator 1
	.loc 1 421 20 discriminator 1
	.loc 1 421 15 discriminator 1
	j	.L18
.L17:
	.loc 1 425 5
	srli	s0,s0,10
.LVL58:
	lui	s3,%hi(.LC16)
	mv	a1,s0
	addi	a0,s3,%lo(.LC16)
	call	printf
.LVL59:
	.loc 1 429 5
	call	qcc74x_show_chipinfo
.LVL60:
	.loc 1 431 5
	.loc 1 431 8 is_stmt 0
	beq	s2,zero,.L19
	.loc 1 432 9 is_stmt 1
	lui	a0,%hi(.LC17)
	addi	a0,a0,%lo(.LC17)
	call	printf
.LVL61:
.L19:
	.loc 1 434 5
	mv	a1,s0
	addi	a0,s3,%lo(.LC16)
	call	printf
.LVL62:
	.loc 1 436 5
	li	s0,536870912
	addi	a5,s0,256
	lw	a1,84(a5)
	lw	a2,88(a5)
	lui	a0,%hi(.LC18)
	addi	a0,a0,%lo(.LC18)
	call	printf
.LVL63:
	.loc 1 437 5
	addi	s0,s0,1408
	lw	a1,4(s0)
	lw	a2,8(s0)
	lui	a0,%hi(.LC19)
	addi	a0,a0,%lo(.LC19)
	call	printf
.LVL64:
	.loc 1 439 5
	addi	a0,sp,20
	call	HBN_Get_Xtal_Value
.LVL65:
	.loc 1 440 5
	.loc 1 440 48 is_stmt 0
	li	a5,536936448
	lw	a5,-1916(a5)
	.loc 1 440 5
	lw	a1,20(sp)
	.loc 1 440 123
	extu	a5,a5,3+1-1,3
	.loc 1 440 5
	bne	a5,zero,.L21
	lui	a2,%hi(.LC12)
	addi	a2,a2,%lo(.LC12)
.L20:
	.loc 1 440 5 discriminator 4
	lui	a0,%hi(.LC20)
	addi	a0,a0,%lo(.LC20)
	call	printf
.LVL66:
	.loc 1 442 5 is_stmt 1 discriminator 4
	call	log_start
.LVL67:
	.loc 1 452 5 discriminator 4
	mv	a0,s1
	call	qcc74x_irq_restore
.LVL68:
	.loc 1 454 5 discriminator 4
	lui	a0,%hi(.LC21)
	addi	a0,a0,%lo(.LC21)
	call	printf
.LVL69:
	.loc 1 455 5 discriminator 4
	lui	a0,%hi(.LC22)
	addi	a0,a0,%lo(.LC22)
	call	printf
.LVL70:
	.loc 1 456 1 is_stmt 0 discriminator 4
	lw	ra,124(sp)
	.cfi_remember_state
	.cfi_restore 1
	lw	s0,120(sp)
	.cfi_restore 8
	lw	s1,116(sp)
	.cfi_restore 9
.LVL71:
	lw	s2,112(sp)
	.cfi_restore 18
.LVL72:
	lw	s3,108(sp)
	.cfi_restore 19
	addi	sp,sp,128
	.cfi_def_cfa_offset 0
	jr	ra
.LVL73:
.L21:
	.cfi_restore_state
	.loc 1 440 5
	lui	a2,%hi(.LC11)
	addi	a2,a2,%lo(.LC11)
	j	.L20
	.cfi_endproc
.LFE249:
	.size	board_init, .-board_init
	.section	.text.board_device_info_version,"ax",@progbits
	.align	1
	.globl	board_device_info_version
	.type	board_device_info_version, @function
board_device_info_version:
.LFB250:
	.loc 1 778 1 is_stmt 1
	.cfi_startproc
	.loc 1 779 5
	.loc 1 780 5
	.loc 1 781 5
	.loc 1 782 9
	.loc 1 778 1 is_stmt 0
	addi	sp,sp,-16
	.cfi_def_cfa_offset 16
	.loc 1 782 9
	lui	a0,%hi(.LANCHOR1)
	.loc 1 778 1
	sw	s0,8(sp)
	.cfi_offset 8, -8
	.loc 1 782 9
	addi	s0,a0,%lo(.LANCHOR1)
	addi	a0,a0,%lo(.LANCHOR1)
	.loc 1 778 1
	sw	ra,12(sp)
	.cfi_offset 1, -4
	.loc 1 782 9
	call	qcc74x_efuse_get_device_info
.LVL74:
	.loc 1 784 5 is_stmt 1
	.loc 1 785 1 is_stmt 0
	lbu	a0,3(s0)
	lw	ra,12(sp)
	.cfi_restore 1
	lw	s0,8(sp)
	.cfi_restore 8
	addi	sp,sp,16
	.cfi_def_cfa_offset 0
	jr	ra
	.cfi_endproc
.LFE250:
	.size	board_device_info_version, .-board_device_info_version
	.section	.bss.device_info.0,"aw",@nobits
	.align	2
	.set	.LANCHOR1,. + 0
	.type	device_info.0, @object
	.size	device_info.0, 36
device_info.0:
	.zero	36
	.section	.bss.uart0,"aw",@nobits
	.align	2
	.set	.LANCHOR0,. + 0
	.type	uart0, @object
	.size	uart0, 4
uart0:
	.zero	4
	.text
.Letext0:
	.file 2 "./toolchain/linux_x86_64/riscv64-unknown-elf/include/machine/_default_types.h"
	.file 3 "./toolchain/linux_x86_64/riscv64-unknown-elf/include/sys/_stdint.h"
	.file 4 "./toolchain/linux_x86_64/lib/gcc/riscv64-unknown-elf/10.4.0/include/stddef.h"
	.file 5 "./drivers/lhal/include/qcc74x_core.h"
	.file 6 "./drivers/lhal/include/qcc74x_uart.h"
	.file 7 "./drivers/lhal/include/qcc74x_efuse.h"
	.file 8 "./drivers/soc/qcc743/std/include/hardware/qcc743.h"
	.file 9 "./drivers/soc/qcc743/std/include/qcc743_common.h"
	.file 10 "./drivers/soc/qcc743/std/include/qcc743_clock.h"
	.file 11 "./drivers/soc/qcc743/std/include/qcc743_glb.h"
	.file 12 "./drivers/lhal/include/qcc74x_gpio.h"
	.file 13 "./drivers/lhal/include/qcc74x_irq.h"
	.file 14 "./drivers/lhal/include/qcc74x_flash.h"
	.file 15 "./components/mm/./mem.h"
	.file 16 "./toolchain/linux_x86_64/riscv64-unknown-elf/include/stdio.h"
	.file 17 "./drivers/soc/qcc743/std/include/qcc743_hbn.h"