	.file	"qcc74x_flash_secreg_port.c"
	.option nopic
	.attribute arch, "rv32i2p0_m2p0_a2p0_f2p0_c2p0_p0p9_zpn0p9_zpsfoperand0p9_xtheade2p0"
	.attribute unaligned_access, 0
	.attribute stack_align, 16
	.text
.Ltext0:
	.cfi_sections	.debug_frame
	.section	.tcm_code../drivers/lhal/src/flash/qcc74x_flash_secreg_port.c198,"ax",@progbits
	.align	1
	.type	sflash_general_get_lock, @function
sflash_general_get_lock:
.LFB8:
	.file 1 "./drivers/lhal/src/flash/qcc74x_flash_secreg_port.c"
	.loc 1 199 1
	.cfi_startproc
.LVL0:
	.loc 1 203 5
	.loc 1 204 5
	.loc 1 208 33 is_stmt 0
	lbu	a5,11(a0)
	.loc 1 199 1
	addi	sp,sp,-32
	.cfi_def_cfa_offset 32
	sw	ra,28(sp)
	.loc 1 208 33
	addi	a5,a5,-1
	.loc 1 199 1
	sw	s0,24(sp)
	sw	s1,20(sp)
	sw	s2,16(sp)
	.cfi_offset 1, -4
	.cfi_offset 8, -8
	.cfi_offset 9, -12
	.cfi_offset 18, -16
	.loc 1 204 14
	sw	zero,12(sp)
	.loc 1 205 5 is_stmt 1
.LVL1:
	.loc 1 206 5
	.loc 1 208 5
	.loc 1 208 8 is_stmt 0
	andi	a5,a5,0xff
	li	a4,2
	bgtu	a5,a4,.L6
	mv	s2,a1
	mv	s0,a0
	.loc 1 212 12
	li	s1,0
.LVL2:
.L3:
	.loc 1 212 17 is_stmt 1 discriminator 1
	.loc 1 212 26 is_stmt 0 discriminator 1
	lbu	a1,11(s0)
	.loc 1 213 20 discriminator 1
	lbu	a3,10(s0)
	.loc 1 212 5 discriminator 1
	bgtu	a1,s1,.L4
	.loc 1 219 5 is_stmt 1
	.loc 1 221 28 is_stmt 0
	mul	a3,a3,a1
	.loc 1 219 30
	lbu	a4,0(s0)
	.loc 1 219 22
	li	a5,255
	.loc 1 221 8
	li	a1,1
	.loc 1 219 22
	sll	a5,a5,a4
	.loc 1 219 13
	not	a5,a5
	.loc 1 222 26
	lw	a4,12(sp)
	.loc 1 222 35
	lbu	a2,4(s0)
	.loc 1 219 13
	andi	a5,a5,0xff
.LVL3:
	.loc 1 221 5 is_stmt 1
	.loc 1 221 8 is_stmt 0
	bne	a3,a1,.L5
	.loc 1 222 9 is_stmt 1
	.loc 1 222 47 is_stmt 0
	andi	a2,a2,7
.L5:
	.loc 1 224 9 is_stmt 1
	.loc 1 224 26 is_stmt 0
	srl	a4,a4,a2
	.loc 1 224 47
	and	a5,a5,a4
.LVL4:
	.loc 1 224 13
	sb	a5,0(s2)
.LVL5:
	.loc 1 227 12
	li	a0,0
.LVL6:
.L1:
	.loc 1 229 1
	lw	ra,28(sp)
	.cfi_remember_state
	.cfi_restore 1
	lw	s0,24(sp)
	.cfi_restore 8
	lw	s1,20(sp)
	.cfi_restore 9
	lw	s2,16(sp)
	.cfi_restore 18
	addi	sp,sp,32
	.cfi_def_cfa_offset 0
	jr	ra
.LVL7:
.L4:
	.cfi_restore_state
	.loc 1 213 9 is_stmt 1
	.loc 1 213 20 is_stmt 0
	add	a5,s0,s1
	lbu	a1,7(a5)
	addi	a4,sp,12
	add	a2,a4,s1
	li	a0,0
	call	qcc74x_sflash_read_reg_with_cmd
.LVL8:
	.loc 1 213 12
	bne	a0,zero,.L1
	.loc 1 212 42 is_stmt 1 discriminator 2
	.loc 1 212 43 is_stmt 0 discriminator 2
	addi	s1,s1,1
.LVL9:
	andi	s1,s1,0xff
.LVL10:
	j	.L3
.LVL11:
.L6:
	.loc 1 209 16
	li	a0,-1
.LVL12:
	j	.L1
	.cfi_endproc
.LFE8:
	.size	sflash_general_get_lock, .-sflash_general_get_lock
	.section	.tcm_code../drivers/lhal/src/flash/qcc74x_flash_secreg_port.c231,"ax",@progbits
	.align	1
	.type	sflash_general_set_lock, @function
sflash_general_set_lock:
.LFB9:
	.loc 1 233 1 is_stmt 1
	.cfi_startproc
.LVL13:
	.loc 1 237 5
	.loc 1 238 5
	.loc 1 233 1 is_stmt 0
	addi	sp,sp,-48
	.cfi_def_cfa_offset 48
	sw	s0,40(sp)
	.cfi_offset 8, -8
	mv	s0,a1
	sw	s2,32(sp)
	.loc 1 244 16
	addi	a1,sp,11
.LVL14:
	.cfi_offset 18, -16
	.loc 1 233 1
	mv	s2,a0
	.loc 1 244 16
	mv	a0,s0
.LVL15:
	.loc 1 233 1
	sw	s1,36(sp)
	sw	ra,44(sp)
	sw	s3,28(sp)
	.cfi_offset 9, -12
	.cfi_offset 1, -4
	.cfi_offset 19, -20
	.loc 1 233 1
	mv	s1,a2
	.loc 1 238 13
	sb	zero,11(sp)
	.loc 1 239 5 is_stmt 1
.LVL16:
	.loc 1 240 5
	.loc 1 240 14 is_stmt 0
	sw	zero,12(sp)
	.loc 1 241 5 is_stmt 1
.LVL17:
	.loc 1 242 5
	.loc 1 244 5
	.loc 1 244 16 is_stmt 0
	call	sflash_general_get_lock
.LVL18:
	.loc 1 244 8
	bne	a0,zero,.L8
	.loc 1 248 5 is_stmt 1
	.loc 1 248 13 is_stmt 0
	lbu	a5,11(sp)
.LVL19:
	.loc 1 251 5 is_stmt 1
	.loc 1 255 12 is_stmt 0
	li	s3,0
	.loc 1 251 21
	or	a4,s1,a5
	.loc 1 251 19
	xor	a0,a4,a5
.LVL20:
	.loc 1 251 8
	bne	a4,a5,.L10
.LVL21:
.L8:
	.loc 1 294 1
	lw	ra,44(sp)
	.cfi_remember_state
	.cfi_restore 1
	lw	s0,40(sp)
	.cfi_restore 8
.LVL22:
	lw	s1,36(sp)
	.cfi_restore 9
	lw	s2,32(sp)
	.cfi_restore 18
.LVL23:
	lw	s3,28(sp)
	.cfi_restore 19
	addi	sp,sp,48
	.cfi_def_cfa_offset 0
	jr	ra
.LVL24:
.L11:
	.cfi_restore_state
	.loc 1 256 9 is_stmt 1
	.loc 1 256 21 is_stmt 0
	add	a5,s0,s3
	lbu	a3,10(s0)
	lbu	a1,7(a5)
	addi	a4,sp,12
	add	a2,a4,s3
	mv	a0,s2
	call	qcc74x_sflash_read_reg_with_cmd
.LVL25:
	.loc 1 256 12
	bne	a0,zero,.L8
	.loc 1 255 42 is_stmt 1 discriminator 2
	.loc 1 255 43 is_stmt 0 discriminator 2
	addi	s3,s3,1
.LVL26:
	andi	s3,s3,0xff
.LVL27:
.L10:
	.loc 1 255 17 is_stmt 1 discriminator 1
	.loc 1 255 5 is_stmt 0 discriminator 1
	lbu	a5,11(s0)
	bgtu	a5,s3,.L11
	.loc 1 263 5 is_stmt 1
	.loc 1 263 8 is_stmt 0
	lbu	a2,6(s0)
	li	a3,1
	.loc 1 264 28
	lbu	a5,4(s0)
	.loc 1 264 13
	lw	a4,12(sp)
	.loc 1 263 8
	bne	a2,a3,.L12
	.loc 1 264 9 is_stmt 1
	.loc 1 264 40 is_stmt 0
	andi	a5,a5,7
.L12:
	.loc 1 266 9 is_stmt 1
	.loc 1 266 19 is_stmt 0
	sll	a5,s1,a5
	.loc 1 266 13
	or	a5,a5,a4
	.loc 1 269 16
	mv	a0,s2
	sw	a5,12(sp)
	.loc 1 269 5 is_stmt 1
	.loc 1 269 16 is_stmt 0
	call	qcc74x_sflash_write_enable
.LVL28:
	.loc 1 269 8
	bne	a0,zero,.L8
	.loc 1 273 5 is_stmt 1
	.loc 1 273 36 is_stmt 0
	lbu	a5,11(s0)
	lbu	a2,10(s0)
	.loc 1 273 65
	lbu	a3,6(s0)
.LVL29:
	.loc 1 274 5 is_stmt 1
	.loc 1 274 16 is_stmt 0
	lbu	a1,5(s0)
	.loc 1 273 36
	mul	a2,a2,a5
	.loc 1 274 16
	addi	a5,sp,12
	mv	a0,s2
.LVL30:
	.loc 1 273 15
	sub	a2,a2,a3
	.loc 1 274 16
	andi	a2,a2,0xff
	add	a2,a5,a2
	call	qcc74x_sflash_write_reg_with_cmd
.LVL31:
	.loc 1 274 8
	bne	a0,zero,.L8
	.loc 1 280 5 is_stmt 1
	.loc 1 280 16 is_stmt 0
	addi	a1,sp,11
	mv	a0,s0
.LVL32:
	call	sflash_general_get_lock
.LVL33:
	.loc 1 280 8
	bne	a0,zero,.L8
	.loc 1 284 5 is_stmt 1
	.loc 1 284 13 is_stmt 0
	lbu	a5,11(sp)
.LVL34:
	.loc 1 287 5 is_stmt 1
	.loc 1 287 21 is_stmt 0
	or	a0,s1,a5
.LVL35:
	.loc 1 287 19
	xor	a0,a0,a5
	.loc 1 287 8
	snez	a0,a0
	neg	a0,a0
	j	.L8
	.cfi_endproc
.LFE9:
	.size	sflash_general_set_lock, .-sflash_general_set_lock
	.section	.tcm_code../drivers/lhal/src/flash/qcc74x_flash_secreg_port.c147,"ax",@progbits
	.align	1
	.type	sflash_general_erase, @function
sflash_general_erase:
.LFB7:
	.loc 1 148 1 is_stmt 1
	.cfi_startproc
.LVL36:
	.loc 1 152 5
	.loc 1 153 5
	.loc 1 154 5
	.loc 1 155 5
	.loc 1 157 5
	.loc 1 148 1 is_stmt 0
	addi	sp,sp,-64
	.cfi_def_cfa_offset 64
	sw	s0,56(sp)
	sw	ra,60(sp)
	sw	s1,52(sp)
	.cfi_offset 8, -8
	.cfi_offset 1, -4
	.cfi_offset 9, -12
	.loc 1 148 1
	sw	a0,12(sp)
	mv	s0,a1
	.loc 1 157 16
	call	qcc74x_sflash_write_enable
.LVL37:
	.loc 1 157 8
	bne	a0,zero,.L18
	.loc 1 161 5 is_stmt 1
	li	a2,5
	li	a1,0
	addi	a0,sp,28
.LVL38:
	call	arch_memset4
.LVL39:
	.loc 1 163 5
	.loc 1 164 25 is_stmt 0
	li	a5,3
	sb	a5,31(sp)
	.loc 1 165 32
	lw	a5,12(sp)
	.loc 1 163 23
	sb	zero,28(sp)
	.loc 1 164 5 is_stmt 1
	.loc 1 165 5
.LVL40:
	.loc 1 167 5
	.loc 1 165 20 is_stmt 0
	lbu	a5,0(a5)
.LVL41:
	.loc 1 167 8
	andi	a5,a5,32
	beq	a5,zero,.L20
	.loc 1 169 9 is_stmt 1
	li	a1,1
	addi	a0,sp,12
.LVL42:
	call	qcc74x_sflash_set_32bits_addr_mode
.LVL43:
	.loc 1 170 9
	.loc 1 170 28 is_stmt 0
	lbu	a5,31(sp)
	.loc 1 171 45
	li	a4,1140850688
	.loc 1 170 28
	addi	a5,a5,1
	sb	a5,31(sp)
	.loc 1 171 9 is_stmt 1
	.loc 1 171 56 is_stmt 0
	srli	a5,s0,8
	.loc 1 171 45
	or	a5,a5,a4
	.loc 1 172 41
	slli	s0,s0,24
.LVL44:
	.loc 1 171 30
	sw	a5,40(sp)
	.loc 1 172 9 is_stmt 1
	.loc 1 172 30 is_stmt 0
	sw	s0,44(sp)
.L21:
	.loc 1 182 5 is_stmt 1
	addi	a0,sp,28
	call	qcc74x_sf_ctrl_sendcmd
.LVL45:
	.loc 1 184 5
	.loc 1 185 5
	.loc 1 184 13 is_stmt 0
	li	s0,0
	.loc 1 189 48
	li	s1,3
.LVL46:
.L22:
	.loc 1 185 11 is_stmt 1
	.loc 1 185 12 is_stmt 0
	lw	a0,12(sp)
	call	qcc74x_sflash_busy
.LVL47:
	.loc 1 185 11
	bne	a0,zero,.L23
.LVL48:
.L18:
	.loc 1 196 1
	lw	ra,60(sp)
	.cfi_remember_state
	.cfi_restore 1
	lw	s0,56(sp)
	.cfi_restore 8
	lw	s1,52(sp)
	.cfi_restore 9
	addi	sp,sp,64
	.cfi_def_cfa_offset 0
	jr	ra
.LVL49:
.L20:
	.cfi_restore_state
	.loc 1 179 9 is_stmt 1
	.loc 1 179 45 is_stmt 0
	li	a5,1140850688
	or	s0,s0,a5
.LVL50:
	.loc 1 179 30
	sw	s0,40(sp)
.LVL51:
	j	.L21
.LVL52:
.L23:
	.loc 1 186 9 is_stmt 1
	li	a0,500
	call	arch_delay_us
.LVL53:
	.loc 1 187 9
	.loc 1 189 32 is_stmt 0
	lw	a4,12(sp)
	.loc 1 187 16
	addi	s0,s0,1
.LVL54:
	.loc 1 189 9 is_stmt 1
	.loc 1 189 32 is_stmt 0
	lbu	a5,73(a4)
	lbu	a3,72(a4)
	slli	a5,a5,8
	or	a5,a5,a3
	.loc 1 189 48
	mul	a5,a5,s1
	.loc 1 189 12
	bgeu	a5,s0,.L22
	.loc 1 190 20
	li	a0,-1
	j	.L18
	.cfi_endproc
.LFE7:
	.size	sflash_general_erase, .-sflash_general_erase
	.section	.tcm_code../drivers/lhal/src/flash/qcc74x_flash_secreg_port.c78,"ax",@progbits
	.align	1
	.type	sflash_general_write, @function
sflash_general_write:
.LFB6:
	.loc 1 79 1 is_stmt 1
	.cfi_startproc
.LVL55:
	.loc 1 83 5
	.loc 1 84 5
	.loc 1 85 5
	.loc 1 86 5
	.loc 1 87 5
	.loc 1 88 5
	.loc 1 90 5
	.loc 1 79 1 is_stmt 0
	addi	sp,sp,-96
	.cfi_def_cfa_offset 96
	sw	s1,84(sp)
	sw	s4,72(sp)
	sw	a0,12(sp)
	.cfi_offset 9, -12
	.cfi_offset 20, -24
	mv	s1,a1
	mv	s4,a2
	.loc 1 90 5
	li	a1,0
.LVL56:
	li	a2,5
.LVL57:
	addi	a0,sp,28
.LVL58:
	.loc 1 79 1
	sw	s2,80(sp)
	sw	s3,76(sp)
	sw	ra,92(sp)
	sw	s0,88(sp)
	sw	s5,68(sp)
	sw	s6,64(sp)
	sw	s7,60(sp)
	sw	s8,56(sp)
	.cfi_offset 18, -16
	.cfi_offset 19, -20
	.cfi_offset 1, -4
	.cfi_offset 8, -8
	.cfi_offset 21, -28
	.cfi_offset 22, -32
	.cfi_offset 23, -36
	.cfi_offset 24, -40
	.loc 1 79 1
	mv	s2,a3
	.loc 1 90 5
	call	arch_memset4
.LVL59:
	.loc 1 92 5 is_stmt 1
	.loc 1 92 23 is_stmt 0
	li	a5,1
	sb	a5,28(sp)
	.loc 1 93 5 is_stmt 1
	.loc 1 93 25 is_stmt 0
	li	a5,3
	sb	a5,31(sp)
	.loc 1 94 5 is_stmt 1
	.loc 1 94 32 is_stmt 0
	lw	a5,12(sp)
	.loc 1 94 20
	lbu	s3,0(a5)
	andi	s3,s3,32
.LVL60:
	.loc 1 95 5 is_stmt 1
	.loc 1 95 8 is_stmt 0
	beq	s3,zero,.L27
	.loc 1 97 9 is_stmt 1
	li	a1,1
	addi	a0,sp,12
	call	qcc74x_sflash_set_32bits_addr_mode
.LVL61:
	.loc 1 98 9
	.loc 1 98 28 is_stmt 0
	lbu	a5,31(sp)
	addi	a5,a5,1
	sb	a5,31(sp)
.L27:
	.loc 1 116 9
	li	s5,536915968
	.loc 1 110 16
	li	s7,256
	.loc 1 116 9
	addi	s5,s5,1536
	.loc 1 122 49
	li	s6,1107296256
	.loc 1 137 52
	li	s8,20
	j	.L34
.L35:
	.loc 1 106 9 is_stmt 1
	.loc 1 106 20 is_stmt 0
	lw	a0,12(sp)
	call	qcc74x_sflash_write_enable
.LVL62:
	.loc 1 106 12
	bne	a0,zero,.L26
	.loc 1 110 9 is_stmt 1
	.loc 1 110 32 is_stmt 0
	andi	s0,s1,255
	.loc 1 110 16
	sub	s0,s7,s0
.LVL63:
	.loc 1 112 9 is_stmt 1
	sgtu	a5,s2,s0
	mveqz	s0, s2, a5
.LVL64:
	.loc 1 116 9
	mv	a2,s0
	mv	a1,s4
	mv	a0,s5
.LVL65:
	call	arch_memcpy_fast
.LVL66:
	.loc 1 118 9
	.loc 1 118 12 is_stmt 0
	beq	s3,zero,.L30
	.loc 1 119 13 is_stmt 1
	.loc 1 119 60 is_stmt 0
	srli	a5,s1,8
	.loc 1 119 49
	or	a5,a5,s6
	.loc 1 119 34
	sw	a5,40(sp)
	.loc 1 120 13 is_stmt 1
	.loc 1 120 45 is_stmt 0
	slli	a5,s1,24
	.loc 1 120 34
	sw	a5,44(sp)
.L31:
	.loc 1 124 9 is_stmt 1
	.loc 1 126 9 is_stmt 0
	addi	a0,sp,28
	.loc 1 124 27
	sw	s0,36(sp)
	.loc 1 126 9 is_stmt 1
	.loc 1 128 13 is_stmt 0
	sub	s2,s2,s0
.LVL67:
	.loc 1 129 14
	add	s4,s4,s0
.LVL68:
	.loc 1 130 17
	add	s1,s1,s0
.LVL69:
	.loc 1 126 9
	call	qcc74x_sf_ctrl_sendcmd
.LVL70:
	.loc 1 128 9 is_stmt 1
	.loc 1 129 9
	.loc 1 130 9
	.loc 1 132 9
	.loc 1 133 9
	.loc 1 132 17 is_stmt 0
	li	s0,0
.LVL71:
.L32:
	.loc 1 133 15 is_stmt 1
	.loc 1 133 16 is_stmt 0
	lw	a0,12(sp)
	call	qcc74x_sflash_busy
.LVL72:
	.loc 1 133 15
	bne	a0,zero,.L33
.LVL73:
.L34:
	.loc 1 105 11 is_stmt 1
	bne	s2,zero,.L35
	.loc 1 143 12 is_stmt 0
	li	a0,0
.L26:
	.loc 1 145 1
	lw	ra,92(sp)
	.cfi_remember_state
	.cfi_restore 1
	lw	s0,88(sp)
	.cfi_restore 8
	lw	s1,84(sp)
	.cfi_restore 9
.LVL74:
	lw	s2,80(sp)
	.cfi_restore 18
.LVL75:
	lw	s3,76(sp)
	.cfi_restore 19
.LVL76:
	lw	s4,72(sp)
	.cfi_restore 20
.LVL77:
	lw	s5,68(sp)
	.cfi_restore 21
	lw	s6,64(sp)
	.cfi_restore 22
	lw	s7,60(sp)
	.cfi_restore 23
	lw	s8,56(sp)
	.cfi_restore 24
	addi	sp,sp,96
	.cfi_def_cfa_offset 0
	jr	ra
.LVL78:
.L30:
	.cfi_restore_state
	.loc 1 122 13 is_stmt 1
	.loc 1 122 49 is_stmt 0
	or	a5,s1,s6
	.loc 1 122 34
	sw	a5,40(sp)
	j	.L31
.LVL79:
.L33:
	.loc 1 134 13 is_stmt 1
	li	a0,100
	call	arch_delay_us
.LVL80:
	.loc 1 135 13
	.loc 1 137 36 is_stmt 0
	lw	a4,12(sp)
	.loc 1 135 20
	addi	s0,s0,1
.LVL81:
	.loc 1 137 13 is_stmt 1
	.loc 1 137 36 is_stmt 0
	lbu	a5,79(a4)
	lbu	a3,78(a4)
	slli	a5,a5,8
	or	a5,a5,a3
	.loc 1 137 52
	mul	a5,a5,s8
	.loc 1 137 16
	bgeu	a5,s0,.L32
	.loc 1 138 24
	li	a0,-1
	j	.L26
	.cfi_endproc
.LFE6:
	.size	sflash_general_write, .-sflash_general_write
	.section	.tcm_code../drivers/lhal/src/flash/qcc74x_flash_secreg_port.c12,"ax",@progbits
	.align	1
	.type	sflash_general_read, @function
sflash_general_read:
.LFB5:
	.loc 1 13 1 is_stmt 1
	.cfi_startproc
.LVL82:
	.loc 1 17 5
	.loc 1 18 5
	.loc 1 19 5
	.loc 1 20 5
	.loc 1 21 5
	.loc 1 23 5
	.loc 1 13 1 is_stmt 0
	addi	sp,sp,-96
	.cfi_def_cfa_offset 96
	sw	s1,84(sp)
	sw	s4,72(sp)
	sw	a0,12(sp)
	.cfi_offset 9, -12
	.cfi_offset 20, -24
	mv	s1,a1
	mv	s4,a2
	.loc 1 23 5
	li	a1,0
.LVL83:
	li	a2,5
.LVL84:
	addi	a0,sp,28
.LVL85:
	.loc 1 13 1
	sw	s0,88(sp)
	sw	s3,76(sp)
	sw	ra,92(sp)
	sw	s2,80(sp)
	sw	s5,68(sp)
	sw	s6,64(sp)
	sw	s7,60(sp)
	sw	s8,56(sp)
	sw	s9,52(sp)
	.cfi_offset 8, -8
	.cfi_offset 19, -20
	.cfi_offset 1, -4
	.cfi_offset 18, -16
	.cfi_offset 21, -28
	.cfi_offset 22, -32
	.cfi_offset 23, -36
	.cfi_offset 24, -40
	.cfi_offset 25, -44
	.loc 1 13 1
	mv	s0,a3
	.loc 1 23 5
	call	arch_memset4
.LVL86:
	.loc 1 25 5 is_stmt 1
	.loc 1 26 25 is_stmt 0
	li	a5,3
	sb	a5,31(sp)
	.loc 1 27 26
	li	a5,1
	sb	a5,32(sp)
	.loc 1 28 32
	lw	a5,12(sp)
	.loc 1 25 23
	sb	zero,28(sp)
	.loc 1 26 5 is_stmt 1
	.loc 1 27 5
	.loc 1 28 5
	.loc 1 28 20 is_stmt 0
	lbu	s3,0(a5)
	andi	s3,s3,32
.LVL87:
	.loc 1 29 5 is_stmt 1
	.loc 1 29 8 is_stmt 0
	beq	s3,zero,.L42
	.loc 1 31 9 is_stmt 1
	li	a1,1
	addi	a0,sp,12
	call	qcc74x_sflash_set_32bits_addr_mode
.LVL88:
	.loc 1 32 9
	.loc 1 32 28 is_stmt 0
	lbu	a5,31(sp)
	addi	a5,a5,1
	sb	a5,31(sp)
.L42:
	.loc 1 67 9
	li	s5,536915968
	.loc 1 44 49
	li	s7,1207959552
	.loc 1 47 12
	li	s8,255
	.loc 1 59 15
	li	s9,1601536
	.loc 1 67 9
	addi	s5,s5,1536
.L43:
	.loc 1 39 11 is_stmt 1
	bne	s0,zero,.L50
	.loc 1 74 12 is_stmt 0
	li	a0,0
.L41:
	.loc 1 76 1
	lw	ra,92(sp)
	.cfi_remember_state
	.cfi_restore 1
	lw	s0,88(sp)
	.cfi_restore 8
.LVL89:
	lw	s1,84(sp)
	.cfi_restore 9
.LVL90:
	lw	s2,80(sp)
	.cfi_restore 18
	lw	s3,76(sp)
	.cfi_restore 19
.LVL91:
	lw	s4,72(sp)
	.cfi_restore 20
.LVL92:
	lw	s5,68(sp)
	.cfi_restore 21
	lw	s6,64(sp)
	.cfi_restore 22
	lw	s7,60(sp)
	.cfi_restore 23
	lw	s8,56(sp)
	.cfi_restore 24
	lw	s9,52(sp)
	.cfi_restore 25
	addi	sp,sp,96
	.cfi_def_cfa_offset 0
	jr	ra
.LVL93:
.L50:
	.cfi_restore_state
	.loc 1 40 9 is_stmt 1
	.loc 1 40 12 is_stmt 0
	beq	s3,zero,.L44
	.loc 1 41 13 is_stmt 1
	.loc 1 41 60 is_stmt 0
	srli	a5,s1,8
	.loc 1 41 49
	or	a5,a5,s7
	.loc 1 41 34
	sw	a5,40(sp)
	.loc 1 42 13 is_stmt 1
	.loc 1 42 45 is_stmt 0
	slli	a5,s1,24
	.loc 1 42 34
	sw	a5,44(sp)
.L45:
	.loc 1 47 9 is_stmt 1
	.loc 1 47 12 is_stmt 0
	bgtu	s0,s8,.L51
	.loc 1 51 13 is_stmt 1
.LVL94:
	.loc 1 52 13
	.loc 1 52 38 is_stmt 0
	addi	a5,s0,3
	.loc 1 52 43
	andi	a5,a5,-4
	mv	s2,s0
.LVL95:
.L46:
	.loc 1 55 9
	addi	a0,sp,28
	sw	a5,36(sp)
.LVL96:
	.loc 1 55 9 is_stmt 1
	.loc 1 59 15 is_stmt 0
	addi	s6,s9,-1536
	.loc 1 55 9
	call	qcc74x_sf_ctrl_sendcmd
.LVL97:
	.loc 1 57 9 is_stmt 1
	.loc 1 59 9
.L47:
	.loc 1 59 15
	.loc 1 59 16 is_stmt 0
	call	qcc74x_sf_ctrl_get_busy_state
.LVL98:
	.loc 1 59 15
	bne	a0,zero,.L49
	.loc 1 67 9 is_stmt 1
	mv	a0,s4
	mv	a2,s2
	mv	a1,s5
	call	arch_memcpy_fast
.LVL99:
	.loc 1 69 9
	.loc 1 69 13 is_stmt 0
	sub	s0,s0,s2
.LVL100:
	.loc 1 70 9 is_stmt 1
	.loc 1 70 14 is_stmt 0
	add	s4,s4,s2
.LVL101:
	.loc 1 71 9 is_stmt 1
	.loc 1 71 17 is_stmt 0
	add	s1,s1,s2
.LVL102:
	j	.L43
.LVL103:
.L44:
	.loc 1 44 13 is_stmt 1
	.loc 1 44 49 is_stmt 0
	or	a5,s1,s7
	.loc 1 44 34
	sw	a5,40(sp)
	j	.L45
.L51:
	.loc 1 49 31
	li	a5,256
	.loc 1 48 20
	li	s2,256
	j	.L46
.LVL104:
.L49:
	.loc 1 60 13 is_stmt 1
	.loc 1 62 13
	.loc 1 62 16 is_stmt 0
	addi	s6,s6,-1
.LVL105:
	bne	s6,zero,.L47
	.loc 1 63 24
	li	a0,-1
	j	.L41
	.cfi_endproc
.LFE5:
	.size	sflash_general_read, .-sflash_general_read
	.globl	flash_secreg_apis
	.section	.tcm_code../drivers/lhal/src/flash/qcc74x_flash_secreg_port.c300,"a"
	.align	2
	.type	flash_secreg_apis, @object
	.size	flash_secreg_apis, 60
flash_secreg_apis:
	.word	sflash_general_read
	.word	sflash_general_write
	.word	sflash_general_erase
	.word	sflash_general_get_lock
	.word	sflash_general_set_lock
	.word	0
	.word	0
	.word	0
	.word	0
	.word	0
	.word	0
	.word	0
	.word	0
	.word	0
	.word	0
	.text
.Letext0:
	.file 2 "./toolchain/linux_x86_64/riscv64-unknown-elf/include/machine/_default_types.h"
	.file 3 "./toolchain/linux_x86_64/riscv64-unknown-elf/include/sys/_stdint.h"
	.file 4 "./drivers/lhal/src/flash/qcc74x_sf_ctrl.h"
	.file 5 "./drivers/lhal/src/flash/qcc74x_sflash.h"
	.file 6 "./drivers/lhal/src/flash/qcc74x_flash_secreg.h"
	.file 7 "./drivers/lhal/src/flash/qcc74x_flash_secreg_port.h"
	.file 8 "./drivers/lhal/include/qcc74x_common.h"