	.file	"utils_list.c"
	.option nopic
	.attribute arch, "rv32i2p0_m2p0_a2p0_f2p0_c2p0_p0p9_zpn0p9_zpsfoperand0p9_xtheade2p0"
	.attribute unaligned_access, 0
	.attribute stack_align, 16
	.text
.Ltext0:
	.cfi_sections	.debug_frame
	.section	.text.utils_list_init,"ax",@progbits
	.align	1
	.globl	utils_list_init
	.type	utils_list_init, @function
utils_list_init:
.LFB23:
	.file 1 "./components/utils/list/src/utils_list.c"
	.loc 1 6 1
	.cfi_startproc
.LVL0:
	.loc 1 7 5
	.loc 1 7 17 is_stmt 0
	sw	zero,0(a0)
	.loc 1 8 5 is_stmt 1
	.loc 1 8 16 is_stmt 0
	sw	zero,4(a0)
	.loc 1 9 1
	ret
	.cfi_endproc
.LFE23:
	.size	utils_list_init, .-utils_list_init
	.section	.text.utils_list_push_back,"ax",@progbits
	.align	1
	.globl	utils_list_push_back
	.type	utils_list_push_back, @function
utils_list_push_back:
.LFB25:
	.loc 1 32 1 is_stmt 1
	.cfi_startproc
.LVL1:
	.loc 1 38 5
.LBB12:
.LBB13:
	.file 2 "./components/utils/list/include/utils_list.h"
	.loc 2 190 5
.LBE13:
.LBE12:
	.loc 1 38 8 is_stmt 0
	lw	a5,0(a0)
	bne	a5,zero,.L3
	.loc 1 41 9 is_stmt 1
	.loc 1 41 21 is_stmt 0
	sw	a1,0(a0)
.L4:
	.loc 1 50 5 is_stmt 1
	.loc 1 50 16 is_stmt 0
	sw	a1,4(a0)
	.loc 1 51 5 is_stmt 1
	.loc 1 51 20 is_stmt 0
	sw	zero,0(a1)
	.loc 1 52 1
	ret
.L3:
	.loc 1 46 9 is_stmt 1
	.loc 1 46 26 is_stmt 0
	lw	a5,4(a0)
	sw	a1,0(a5)
	j	.L4
	.cfi_endproc
.LFE25:
	.size	utils_list_push_back, .-utils_list_push_back
	.section	.text.utils_list_pool_init,"ax",@progbits
	.align	1
	.globl	utils_list_pool_init
	.type	utils_list_pool_init, @function
utils_list_pool_init:
.LFB24:
	.loc 1 12 1 is_stmt 1
	.cfi_startproc
.LVL2:
	.loc 1 13 5
	.loc 1 16 5
.LBB14:
.LBB15:
	.loc 1 7 5
.LBE15:
.LBE14:
	.loc 1 12 1 is_stmt 0
	addi	sp,sp,-32
	.cfi_def_cfa_offset 32
	sw	s0,24(sp)
	sw	s1,20(sp)
	sw	s2,16(sp)
	sw	s3,12(sp)
	sw	s4,8(sp)
	sw	s5,4(sp)
	sw	ra,28(sp)
	.cfi_offset 8, -8
	.cfi_offset 9, -12
	.cfi_offset 18, -16
	.cfi_offset 19, -20
	.cfi_offset 20, -24
	.cfi_offset 21, -28
	.cfi_offset 1, -4
	.loc 1 12 1
	mv	s2,a0
	mv	s0,a1
	mv	s3,a2
	mv	s5,a3
	mv	s4,a4
.LBB17:
.LBB16:
	.loc 1 7 17
	sw	zero,0(a0)
	.loc 1 8 5 is_stmt 1
	.loc 1 8 16 is_stmt 0
	sw	zero,4(a0)
.LVL3:
.LBE16:
.LBE17:
	.loc 1 19 5 is_stmt 1
	.loc 1 19 12 is_stmt 0
	li	s1,0
.LVL4:
.L6:
	.loc 1 19 17 is_stmt 1 discriminator 1
	.loc 1 19 5 is_stmt 0 discriminator 1
	bne	s1,s5,.L8
	.loc 1 29 1
	lw	ra,28(sp)
	.cfi_remember_state
	.cfi_restore 1
	lw	s0,24(sp)
	.cfi_restore 8
.LVL5:
	lw	s1,20(sp)
	.cfi_restore 9
.LVL6:
	lw	s2,16(sp)
	.cfi_restore 18
.LVL7:
	lw	s3,12(sp)
	.cfi_restore 19
.LVL8:
	lw	s4,8(sp)
	.cfi_restore 20
.LVL9:
	lw	s5,4(sp)
	.cfi_restore 21
.LVL10:
	addi	sp,sp,32
	.cfi_def_cfa_offset 0
	jr	ra
.LVL11:
.L8:
	.cfi_restore_state
	.loc 1 20 9 is_stmt 1
	.loc 1 20 12 is_stmt 0
	beq	s4,zero,.L7
	.loc 1 22 13 is_stmt 1
	mv	a2,s3
	mv	a1,s4
	mv	a0,s0
	call	memcpy
.LVL12:
.L7:
	.loc 1 24 9 discriminator 2
	mv	a1,s0
	mv	a0,s2
	call	utils_list_push_back
.LVL13:
	.loc 1 27 9 discriminator 2
	.loc 1 27 14 is_stmt 0 discriminator 2
	add	s0,s0,s3
.LVL14:
	.loc 1 19 31 is_stmt 1 discriminator 2
	.loc 1 19 32 is_stmt 0 discriminator 2
	addi	s1,s1,1
.LVL15:
	j	.L6
	.cfi_endproc
.LFE24:
	.size	utils_list_pool_init, .-utils_list_pool_init
	.section	.text.utils_list_push_front,"ax",@progbits
	.align	1
	.globl	utils_list_push_front
	.type	utils_list_push_front, @function
utils_list_push_front:
.LFB26:
	.loc 1 55 1 is_stmt 1
	.cfi_startproc
.LVL16:
	.loc 1 61 5
.LBB18:
.LBB19:
	.loc 2 190 5
	.loc 2 190 24 is_stmt 0
	lw	a5,0(a0)
.LVL17:
.LBE19:
.LBE18:
	.loc 1 61 8
	bne	a5,zero,.L14
	.loc 1 64 9 is_stmt 1
	.loc 1 64 20 is_stmt 0
	sw	a1,4(a0)
.L14:
	.loc 1 68 5 is_stmt 1
	.loc 1 68 20 is_stmt 0
	sw	a5,0(a1)
	.loc 1 69 5 is_stmt 1
	.loc 1 69 17 is_stmt 0
	sw	a1,0(a0)
	.loc 1 70 1
	ret
	.cfi_endproc
.LFE26:
	.size	utils_list_push_front, .-utils_list_push_front
	.section	.text.utils_list_pop_front,"ax",@progbits
	.align	1
	.globl	utils_list_pop_front
	.type	utils_list_pop_front, @function
utils_list_pop_front:
.LFB27:
	.loc 1 73 1 is_stmt 1
	.cfi_startproc
.LVL18:
	.loc 1 74 5
	.loc 1 77 5
	.loc 1 77 13 is_stmt 0
	lw	a5,0(a0)
.LVL19:
	.loc 1 78 5 is_stmt 1
	.loc 1 78 8 is_stmt 0
	beq	a5,zero,.L15
	.loc 1 81 9 is_stmt 1
	.loc 1 81 21 is_stmt 0
	lw	a4,0(a5)
	sw	a4,0(a0)
	.loc 1 84 5 is_stmt 1
.L15:
	.loc 1 85 1 is_stmt 0
	mv	a0,a5
.LVL20:
	ret
	.cfi_endproc
.LFE27:
	.size	utils_list_pop_front, .-utils_list_pop_front
	.section	.text.utils_list_extract,"ax",@progbits
	.align	1
	.globl	utils_list_extract
	.type	utils_list_extract, @function
utils_list_extract:
.LFB28:
	.loc 1 88 1 is_stmt 1
	.cfi_startproc
.LVL21:
	.loc 1 89 5
	.loc 1 95 5
	.loc 1 95 15 is_stmt 0
	lw	a5,0(a0)
.LVL22:
	.loc 1 98 5 is_stmt 1
	.loc 1 98 8 is_stmt 0
	beq	a5,zero,.L20
	.loc 1 102 5 is_stmt 1
	.loc 1 102 8 is_stmt 0
	bne	a5,a1,.L22
	.loc 1 105 9 is_stmt 1
	.loc 1 105 21 is_stmt 0
	lw	a5,0(a5)
.LVL23:
	sw	a5,0(a0)
.LVL24:
	ret
.L22:
.LVL25:
	.loc 1 110 15 is_stmt 1
	mv	a4,a5
	.loc 1 110 26 is_stmt 0
	lw	a5,0(a5)
.LVL26:
	.loc 1 110 15
	beq	a5,zero,.L20
	.loc 1 110 41 discriminator 1
	bne	a5,a1,.L22
	.loc 1 116 9 is_stmt 1
	.loc 1 119 13
	.loc 1 119 16 is_stmt 0
	lw	a5,4(a0)
	bne	a5,a1,.L25
	.loc 1 122 17 is_stmt 1
	.loc 1 122 28 is_stmt 0
	sw	a4,4(a0)
.L25:
	.loc 1 125 13 is_stmt 1
	.loc 1 125 39 is_stmt 0
	lw	a5,0(a1)
	.loc 1 125 29
	sw	a5,0(a4)
	ret
.LVL27:
.L20:
	.loc 1 128 1
	ret
	.cfi_endproc
.LFE28:
	.size	utils_list_extract, .-utils_list_extract
	.section	.text.utils_list_find,"ax",@progbits
	.align	1
	.globl	utils_list_find
	.type	utils_list_find, @function
utils_list_find:
.LFB29:
	.loc 1 131 1 is_stmt 1
	.cfi_startproc
.LVL28:
.L38:
	.loc 1 138 9
	.loc 1 138 22 is_stmt 0
	lw	a0,0(a0)
.LVL29:
	.loc 1 136 10 is_stmt 1
	beq	a0,a1,.L37
	.loc 1 136 38 is_stmt 0 discriminator 1
	bne	a0,zero,.L38
.L37:
	.loc 1 141 5 is_stmt 1
	.loc 1 141 26 is_stmt 0
	sub	a0,a1,a0
.LVL30:
	.loc 1 142 1
	seqz	a0,a0
	ret
	.cfi_endproc
.LFE29:
	.size	utils_list_find, .-utils_list_find
	.section	.text.utils_list_cnt,"ax",@progbits
	.align	1
	.globl	utils_list_cnt
	.type	utils_list_cnt, @function
utils_list_cnt:
.LFB30:
	.loc 1 145 1 is_stmt 1
	.cfi_startproc
.LVL31:
	.loc 1 146 5
	.loc 1 147 5
.LBB20:
.LBB21:
	.loc 2 215 5
	.loc 2 215 16 is_stmt 0
	lw	a5,0(a0)
.LVL32:
.LBE21:
.LBE20:
	.loc 1 150 5 is_stmt 1
	.loc 1 146 18 is_stmt 0
	li	a0,0
.LVL33:
.L41:
	.loc 1 150 11 is_stmt 1
	bne	a5,zero,.L42
	.loc 1 156 5
	.loc 1 157 1 is_stmt 0
	ret
.L42:
	.loc 1 152 9 is_stmt 1
.LBB22:
.LBB23:
	.loc 2 225 20 is_stmt 0
	lw	a5,0(a5)
.LVL34:
.LBE23:
.LBE22:
	.loc 1 152 12
	addi	a0,a0,1
.LVL35:
	.loc 1 153 9 is_stmt 1
.LBB25:
.LBB24:
	.loc 2 225 5
	j	.L41
.LBE24:
.LBE25:
	.cfi_endproc
.LFE30:
	.size	utils_list_cnt, .-utils_list_cnt
	.section	.text.utils_list_insert,"ax",@progbits
	.align	1
	.globl	utils_list_insert
	.type	utils_list_insert, @function
utils_list_insert:
.LFB31:
	.loc 1 176 1
	.cfi_startproc
.LVL36:
	.loc 1 177 5
	.loc 1 178 5
	.loc 1 176 1 is_stmt 0
	addi	sp,sp,-48
	.cfi_def_cfa_offset 48
	sw	s0,40(sp)
	.cfi_offset 8, -8
	.loc 1 178 28
	lw	s0,0(a0)
.LVL37:
	.loc 1 176 1
	sw	s1,36(sp)
	sw	s2,32(sp)
	sw	s3,28(sp)
	sw	ra,44(sp)
	.cfi_offset 9, -12
	.cfi_offset 18, -16
	.cfi_offset 19, -20
	.cfi_offset 1, -4
	.loc 1 176 1
	mv	s2,a0
	mv	s1,a1
	.loc 1 177 28
	li	s3,0
.LVL38:
.L46:
	.loc 1 180 5 is_stmt 1
	.loc 1 183 9
	.loc 1 183 12 is_stmt 0
	beq	s0,zero,.L44
	.loc 1 185 13 is_stmt 1
	.loc 1 185 17 is_stmt 0
	mv	a1,s0
	mv	a0,s1
	sw	a2,12(sp)
	jalr	a2
.LVL39:
	.loc 1 185 16
	bne	a0,zero,.L45
	.loc 1 190 13 is_stmt 1
.LVL40:
	.loc 1 191 13
	.loc 1 180 10
	.loc 1 183 12 is_stmt 0
	mv	s3,s0
	lw	a2,12(sp)
	.loc 1 191 18
	lw	s0,0(s0)
.LVL41:
	.loc 1 183 12
	j	.L46
.L44:
	.loc 1 196 13 is_stmt 1
	.loc 1 196 24 is_stmt 0
	sw	s1,4(s2)
	.loc 1 197 13 is_stmt 1
.L45:
	.loc 1 201 5
	.loc 1 201 19 is_stmt 0
	sw	s0,0(s1)
	.loc 1 203 5 is_stmt 1
	.loc 1 203 8 is_stmt 0
	beq	s3,zero,.L47
	.loc 1 206 9 is_stmt 1
	.loc 1 206 20 is_stmt 0
	sw	s1,0(s3)
.L43:
	.loc 1 213 1
	lw	ra,44(sp)
	.cfi_remember_state
	.cfi_restore 1
	lw	s0,40(sp)
	.cfi_restore 8
.LVL42:
	lw	s1,36(sp)
	.cfi_restore 9
.LVL43:
	lw	s2,32(sp)
	.cfi_restore 18
.LVL44:
	lw	s3,28(sp)
	.cfi_restore 19
.LVL45:
	addi	sp,sp,48
	.cfi_def_cfa_offset 0
	jr	ra
.LVL46:
.L47:
	.cfi_restore_state
	.loc 1 211 9 is_stmt 1
	.loc 1 211 21 is_stmt 0
	sw	s1,0(s2)
	.loc 1 213 1
	j	.L43
	.cfi_endproc
.LFE31:
	.size	utils_list_insert, .-utils_list_insert
	.section	.text.utils_list_insert_after,"ax",@progbits
	.align	1
	.globl	utils_list_insert_after
	.type	utils_list_insert_after, @function
utils_list_insert_after:
.LFB32:
	.loc 1 216 1 is_stmt 1
	.cfi_startproc
.LVL47:
	.loc 1 217 5
	.loc 1 217 28 is_stmt 0
	lw	a5,0(a0)
.LVL48:
	.loc 1 219 5 is_stmt 1
	.loc 1 219 8 is_stmt 0
	bne	a1,zero,.L51
	.loc 1 222 9 is_stmt 1
	mv	a1,a2
.LVL49:
	tail	utils_list_push_front
.LVL50:
.L53:
	.loc 1 229 13
	.loc 1 229 16 is_stmt 0
	beq	a5,a1,.L52
	.loc 1 235 13 is_stmt 1
	.loc 1 235 18 is_stmt 0
	lw	a5,0(a5)
.LVL51:
.L51:
	.loc 1 227 15 is_stmt 1
	bne	a5,zero,.L53
	ret
.LVL52:
.L55:
	.loc 1 246 17
	.loc 1 246 28 is_stmt 0
	sw	a2,4(a0)
	.loc 1 250 1
	ret
.LVL53:
.L52:
	.loc 1 239 9 is_stmt 1
	.loc 1 241 13
	.loc 1 241 41 is_stmt 0
	lw	a4,0(a5)
	.loc 1 241 27
	sw	a4,0(a2)
	.loc 1 242 13 is_stmt 1
	.loc 1 242 32 is_stmt 0
	sw	a2,0(a5)
	.loc 1 244 13 is_stmt 1
	.loc 1 244 16 is_stmt 0
	lw	a5,0(a2)
.LVL54:
	beq	a5,zero,.L55
	.loc 1 250 1
	ret
	.cfi_endproc
.LFE32:
	.size	utils_list_insert_after, .-utils_list_insert_after
	.section	.text.utils_list_insert_before,"ax",@progbits
	.align	1
	.globl	utils_list_insert_before
	.type	utils_list_insert_before, @function
utils_list_insert_before:
.LFB33:
	.loc 1 253 1 is_stmt 1
	.cfi_startproc
.LVL55:
	.loc 1 254 5
	.loc 1 254 8 is_stmt 0
	bne	a1,zero,.L59
	.loc 1 257 9 is_stmt 1
	mv	a1,a2
.LVL56:
	tail	utils_list_push_back
.LVL57:
.L59:
	.loc 1 259 10
	.loc 1 259 34 is_stmt 0
	lw	a5,0(a0)
	.loc 1 259 13
	bne	a5,a1,.L60
	.loc 1 262 9 is_stmt 1
	mv	a1,a2
.LVL58:
	tail	utils_list_push_front
.LVL59:
.L62:
.LBB26:
	.loc 1 271 13
	.loc 1 271 21 is_stmt 0
	lw	a4,0(a5)
	.loc 1 271 16
	beq	a4,a1,.L61
	mv	a5,a4
.LVL60:
.L60:
	.loc 1 269 15 is_stmt 1
	bne	a5,zero,.L62
	ret
.L61:
	.loc 1 281 9
	.loc 1 283 13
	.loc 1 283 27 is_stmt 0
	sw	a1,0(a2)
	.loc 1 284 13 is_stmt 1
	.loc 1 284 24 is_stmt 0
	sw	a2,0(a5)
.LBE26:
	.loc 1 287 1
	ret
	.cfi_endproc
.LFE33:
	.size	utils_list_insert_before, .-utils_list_insert_before
	.section	.text.utils_list_concat,"ax",@progbits
	.align	1
	.globl	utils_list_concat
	.type	utils_list_concat, @function
utils_list_concat:
.LFB34:
	.loc 1 290 1 is_stmt 1
	.cfi_startproc
.LVL61:
	.loc 1 292 5
	.loc 1 292 14 is_stmt 0
	lw	a5,0(a1)
	.loc 1 292 8
	beq	a5,zero,.L65
	.loc 1 295 9 is_stmt 1
	.loc 1 295 12 is_stmt 0
	lw	a4,0(a0)
	bne	a4,zero,.L67
	.loc 1 298 13 is_stmt 1
	.loc 1 298 20 is_stmt 0
	sw	a5,0(a0)
.L72:
	.loc 1 304 13 is_stmt 1
	.loc 1 304 32 is_stmt 0
	lw	a5,4(a1)
	.loc 1 304 25
	sw	a5,4(a0)
	.loc 1 307 9 is_stmt 1
	.loc 1 307 22 is_stmt 0
	sw	zero,0(a1)
.L65:
	.loc 1 309 1
	ret
.L67:
	.loc 1 303 13 is_stmt 1
	.loc 1 303 31 is_stmt 0
	lw	a4,4(a0)
	sw	a5,0(a4)
	j	.L72
	.cfi_endproc
.LFE34:
	.size	utils_list_concat, .-utils_list_concat
	.section	.text.utils_list_remove,"ax",@progbits
	.align	1
	.globl	utils_list_remove
	.type	utils_list_remove, @function
utils_list_remove:
.LFB35:
	.loc 1 313 1 is_stmt 1
	.cfi_startproc
.LVL62:
	.loc 1 321 5
	.loc 1 323 30 is_stmt 0
	lw	a5,0(a2)
	.loc 1 321 8
	bne	a1,zero,.L74
	.loc 1 323 9 is_stmt 1
	.loc 1 323 21 is_stmt 0
	sw	a5,0(a0)
.L75:
	.loc 1 332 5 is_stmt 1
	.loc 1 332 19 is_stmt 0
	sw	zero,0(a2)
	.loc 1 333 1
	ret
.L74:
	.loc 1 327 9 is_stmt 1
	.loc 1 327 28 is_stmt 0
	sw	a5,0(a1)
	.loc 1 328 9 is_stmt 1
	.loc 1 328 12 is_stmt 0
	lw	a5,4(a0)
	bne	a5,a2,.L75
	.loc 1 329 13 is_stmt 1
	.loc 1 329 24 is_stmt 0
	sw	a1,4(a0)
	j	.L75
	.cfi_endproc
.LFE35:
	.size	utils_list_remove, .-utils_list_remove
	.text
.Letext0:
	.file 3 "./toolchain/linux_x86_64/lib/gcc/riscv64-unknown-elf/10.4.0/include/stddef.h"
	.file 4 "./toolchain/linux_x86_64/riscv64-unknown-elf/include/machine/_default_types.h"
	.file 5 "./toolchain/linux_x86_64/riscv64-unknown-elf/include/sys/_stdint.h"
	.file 6 "./toolchain/linux_x86_64/riscv64-unknown-elf/include/string.h"