	.file	"vsnprintf.c"
	.option nopic
	.attribute arch, "rv32i2p0_m2p0_a2p0_f2p0_c2p0_p0p9_zpn0p9_zpsfoperand0p9_xtheade2p0"
	.attribute unaligned_access, 0
	.attribute stack_align, 16
	.text
.Ltext0:
	.cfi_sections	.debug_frame
	.section	.text.out_buffer,"ax",@progbits
	.align	1
	.type	out_buffer, @function
out_buffer:
.LFB8:
	.file 1 "./components/libc/vsnprintf.c"
	.loc 1 220 1
	.cfi_startproc
.LVL0:
	.loc 1 221 3
	.loc 1 221 6 is_stmt 0
	bgeu	a2,a3,.L1
	.loc 1 222 5 is_stmt 1
	.loc 1 222 26 is_stmt 0
	srb	a0,a1,a2,0
.L1:
	.loc 1 224 1
	ret
	.cfi_endproc
.LFE8:
	.size	out_buffer, .-out_buffer
	.section	.text.out_discard,"ax",@progbits
	.align	1
	.type	out_discard, @function
out_discard:
.LFB10:
	.loc 1 240 1 is_stmt 1
	.cfi_startproc
.LVL1:
	.loc 1 241 3
	.loc 1 241 20
	.loc 1 241 34
	.loc 1 241 45
	.loc 1 242 1 is_stmt 0
	ret
	.cfi_endproc
.LFE10:
	.size	out_discard, .-out_discard
	.section	.text.out_rev_,"ax",@progbits
	.align	1
	.type	out_rev_, @function
out_rev_:
.LFB14:
	.loc 1 276 1 is_stmt 1
	.cfi_startproc
.LVL2:
	addi	sp,sp,-48
	.cfi_def_cfa_offset 48
	sw	s0,40(sp)
	sw	s1,36(sp)
	sw	s2,32(sp)
	sw	s3,28(sp)
	sw	s4,24(sp)
	sw	s5,20(sp)
	sw	s6,16(sp)
	sw	s7,12(sp)
	sw	s8,8(sp)
	.cfi_offset 8, -8
	.cfi_offset 9, -12
	.cfi_offset 18, -16
	.cfi_offset 19, -20
	.cfi_offset 20, -24
	.cfi_offset 21, -28
	.cfi_offset 22, -32
	.cfi_offset 23, -36
	.cfi_offset 24, -40
	mv	s1,a5
	sw	ra,44(sp)
	sw	s9,4(sp)
	.cfi_offset 1, -4
	.cfi_offset 25, -44
	.loc 1 280 29 is_stmt 0
	andi	a5,a7,3
.LVL3:
	.loc 1 276 1
	mv	s5,a0
	mv	s6,a1
	mv	s2,a2
	mv	s7,a3
	mv	s8,a4
	.loc 1 277 3 is_stmt 1
.LVL4:
	.loc 1 280 3
	.loc 1 276 1 is_stmt 0
	mv	s3,a6
	mv	s4,a7
.LBB49:
	mv	s0,a2
.LBE49:
	.loc 1 280 6
	bne	a5,zero,.L6
.LBB50:
	.loc 1 281 17
	mv	s0,s1
	sub	s9,a2,s1
	j	.L5
.LVL5:
.L7:
	.loc 1 282 7 is_stmt 1 discriminator 3
	mv	a3,s7
	mv	a1,s6
	li	a0,32
	jalr	s5
.LVL6:
	.loc 1 281 37 discriminator 3
	.loc 1 281 38 is_stmt 0 discriminator 3
	addi	s0,s0,1
.LVL7:
.L5:
	add	a2,s9,s0
.LVL8:
	.loc 1 281 26 is_stmt 1 discriminator 1
	.loc 1 281 5 is_stmt 0 discriminator 1
	bltu	s0,s3,.L7
	li	s0,0
.LVL9:
	bgtu	s1,s3,.L9
	sub	s0,s3,s1
.L9:
	add	s0,s0,s2
.L6:
	add	s0,s1,s0
.LVL10:
.L10:
	mv	a0,s0
	sub	a2,s0,s1
.LVL11:
.LBE50:
	.loc 1 287 9 is_stmt 1
	bne	s1,zero,.L11
	.loc 1 292 3
	.loc 1 292 13 is_stmt 0
	andi	s4,s4,2
.LVL12:
	sub	s0,s0,s2
	.loc 1 292 6
	bne	s4,zero,.L13
.LVL13:
.L4:
	.loc 1 299 1
	lw	ra,44(sp)
	.cfi_remember_state
	.cfi_restore 1
	lw	s0,40(sp)
	.cfi_restore 8
	lw	s1,36(sp)
	.cfi_restore 9
.LVL14:
	lw	s2,32(sp)
	.cfi_restore 18
.LVL15:
	lw	s3,28(sp)
	.cfi_restore 19
.LVL16:
	lw	s4,24(sp)
	.cfi_restore 20
	lw	s5,20(sp)
	.cfi_restore 21
.LVL17:
	lw	s6,16(sp)
	.cfi_restore 22
.LVL18:
	lw	s7,12(sp)
	.cfi_restore 23
.LVL19:
	lw	s8,8(sp)
	.cfi_restore 24
.LVL20:
	lw	s9,4(sp)
	.cfi_restore 25
	addi	sp,sp,48
	.cfi_def_cfa_offset 0
	jr	ra
.LVL21:
.L11:
	.cfi_restore_state
	.loc 1 288 5 is_stmt 1
	addi	s1,s1,-1
.LVL22:
	lrbu	a0,s8,s1,0
	mv	a3,s7
	mv	a1,s6
	jalr	s5
.LVL23:
	j	.L10
.LVL24:
.L14:
	.loc 1 294 7
	mv	a2,a0
	mv	a3,s7
	mv	a1,s6
	li	a0,32
	jalr	s5
.LVL25:
	addi	s0,s0,1
.LVL26:
.L13:
	add	a0,s2,s0
.LVL27:
	.loc 1 293 11
	bgtu	s3,s0,.L14
	j	.L4
	.cfi_endproc
.LFE14:
	.size	out_rev_, .-out_rev_
	.globl	__umoddi3
	.globl	__udivdi3
	.section	.text.print_integer,"ax",@progbits
	.align	1
	.type	print_integer, @function
print_integer:
.LFB16:
	.loc 1 374 1
	.cfi_startproc
.LVL28:
	.loc 1 375 3
	.loc 1 376 3
	.loc 1 378 3
	.loc 1 374 1 is_stmt 0
	addi	sp,sp,-112
	.cfi_def_cfa_offset 112
	sw	s0,104(sp)
	sw	s2,96(sp)
	sw	s3,92(sp)
	sw	s4,88(sp)
	sw	s5,84(sp)
	sw	s6,80(sp)
	sw	s7,76(sp)
	sw	ra,108(sp)
	.cfi_offset 8, -8
	.cfi_offset 18, -16
	.cfi_offset 19, -20
	.cfi_offset 20, -24
	.cfi_offset 21, -28
	.cfi_offset 22, -32
	.cfi_offset 23, -36
	.cfi_offset 1, -4
	mv	s7,a3
	sw	s1,100(sp)
	sw	s8,72(sp)
	sw	s9,68(sp)
	sw	s10,64(sp)
	sw	s11,60(sp)
	.cfi_offset 9, -12
	.cfi_offset 24, -40
	.cfi_offset 25, -44
	.cfi_offset 26, -48
	.cfi_offset 27, -52
	.loc 1 378 6
	or	a3,a4,a5
.LVL29:
	.loc 1 374 1
	mv	s6,a2
	lw	s3,116(sp)
	lw	s0,120(sp)
	mv	s4,a0
	mv	s5,a1
	mv	s2,a6
	mv	a2,a7
.LVL30:
	.loc 1 378 6
	bne	a3,zero,.L21
	.loc 1 379 5 is_stmt 1
	.loc 1 379 18 is_stmt 0
	andi	a5,s0,1024
	.loc 1 379 8
	bne	a5,zero,.L22
	.loc 1 380 7 is_stmt 1
.LVL31:
	.loc 1 380 18 is_stmt 0
	li	a5,48
	sb	a5,16(sp)
	.loc 1 381 7 is_stmt 1
	.loc 1 381 13 is_stmt 0
	andi	s0,s0,-17
.LVL32:
	.loc 1 380 14
	li	s11,1
.LVL33:
.L23:
	.loc 1 400 3 is_stmt 1
.LBB54:
.LBB55:
	.loc 1 306 3
	.loc 1 310 5
	.loc 1 310 17 is_stmt 0
	andi	a4,s0,2
	mv	a5,s11
	.loc 1 310 8
	bne	a4,zero,.L30
	.loc 1 311 7 is_stmt 1
	.loc 1 311 27 is_stmt 0
	andi	a4,s0,1
	.loc 1 311 10
	beq	s3,zero,.L31
	.loc 1 311 17
	beq	a4,zero,.L30
	.loc 1 311 41
	bne	s2,zero,.L32
	.loc 1 311 64
	andi	a5,s0,12
	.loc 1 311 54
	beq	a5,zero,.L31
.L32:
	.loc 1 312 9 is_stmt 1
	.loc 1 312 14 is_stmt 0
	addi	s3,s3,-1
.LVL34:
.L31:
.LBE55:
.LBE54:
	.loc 1 380 14
	mv	a5,s11
.LBB59:
.LBB56:
	.loc 1 314 52
	li	a3,32
	.loc 1 315 20
	li	a1,48
	j	.L33
.LVL35:
.L22:
.LBE56:
.LBE59:
	.loc 1 386 10 is_stmt 1
	.loc 1 386 13 is_stmt 0
	li	a5,16
	.loc 1 376 10
	li	s11,0
	.loc 1 386 13
	bne	a7,a5,.L23
	.loc 1 387 7 is_stmt 1
	.loc 1 387 13 is_stmt 0
	andi	s0,s0,-17
.LVL36:
	j	.L23
.L21:
.LBB60:
	.loc 1 395 61
	andi	a3,s0,32
	li	s1,97
	beq	a3,zero,.L25
	li	s1,65
.L25:
.LBE60:
	.loc 1 376 10
	li	s11,0
.LBB61:
	.loc 1 394 39
	li	s10,0
	.loc 1 395 20
	li	s9,9
	addi	s1,s1,-10
.LBE61:
	.loc 1 397 20
	li	s8,32
.LVL37:
.L29:
	.loc 1 393 5 is_stmt 1
.LBB62:
	.loc 1 394 7
	.loc 1 394 39 is_stmt 0
	mv	a0,a4
	mv	a1,a5
	li	a3,0
	sw	a2,12(sp)
	sw	a4,8(sp)
	sw	a5,4(sp)
	call	__umoddi3
.LVL38:
	.loc 1 394 18
	andi	a0,a0,0xff
.LVL39:
	.loc 1 395 7 is_stmt 1
	.loc 1 395 20 is_stmt 0
	lw	a5,4(sp)
	lw	a4,8(sp)
	lw	a2,12(sp)
	bgtu	a0,s9,.L26
	.loc 1 395 20 discriminator 1
	addi	a0,a0,48
.LVL40:
.L83:
	.loc 1 395 14 discriminator 7
	addi	s11,s11,1
.LVL41:
	.loc 1 395 18 discriminator 7
	addi	a3,s11,16
	.loc 1 395 20 discriminator 7
	andi	a0,a0,0xff
	.loc 1 395 18 discriminator 7
	add	a3,a3,sp
	sb	a0,-1(a3)
	.loc 1 396 7 is_stmt 1 discriminator 7
	.loc 1 396 13 is_stmt 0 discriminator 7
	mv	a1,a5
	mv	a0,a4
	li	a3,0
	sw	a2,12(sp)
	sw	a4,8(sp)
.LVL42:
	sw	a5,4(sp)
.LVL43:
	call	__udivdi3
.LVL44:
.LBE62:
	.loc 1 397 13 is_stmt 1 discriminator 7
	.loc 1 397 5 is_stmt 0 discriminator 7
	lw	a5,4(sp)
	lw	a4,8(sp)
	lw	a2,12(sp)
	bne	s10,a5,.L60
	.loc 1 397 5 discriminator 8
	bgtu	a2,a4,.L23
.L60:
	.loc 1 397 20 discriminator 1
	beq	s11,s8,.L23
.LBB63:
	.loc 1 396 13
	mv	a4,a0
	mv	a5,a1
	j	.L29
.LVL45:
.L26:
	.loc 1 395 20 discriminator 7
	add	a0,a0,s1
.LVL46:
	j	.L83
.LVL47:
.L34:
.LBE63:
.LBB64:
.LBB57:
	.loc 1 315 9 is_stmt 1
	.loc 1 315 20 is_stmt 0
	addi	a0,sp,16
.LVL48:
	srb	a1,a0,a5,0
	addi	a5,a5,1
.LVL49:
.L33:
	.loc 1 314 13 is_stmt 1
	beq	a4,zero,.L30
	.loc 1 314 35 is_stmt 0
	bleu	s3,a5,.L30
	.loc 1 314 52
	bne	a5,a3,.L34
.L30:
.LVL50:
	.loc 1 319 30
	li	a4,32
	.loc 1 320 18
	li	a3,48
	j	.L35
.LVL51:
.L37:
	.loc 1 320 7 is_stmt 1
	.loc 1 320 18 is_stmt 0
	addi	a1,sp,16
.LVL52:
	srb	a3,a1,a5,0
	addi	a5,a5,1
.LVL53:
.L35:
	.loc 1 319 11 is_stmt 1
	lw	a1,112(sp)
	bleu	a1,a5,.L36
	.loc 1 319 30 is_stmt 0
	bne	a5,a4,.L37
.L36:
	.loc 1 323 5 is_stmt 1
	.loc 1 323 8 is_stmt 0
	li	a4,8
	bne	a2,a4,.L38
	.loc 1 323 19
	bgeu	s11,a5,.L38
	.loc 1 325 7 is_stmt 1
	.loc 1 325 13 is_stmt 0
	andi	s0,s0,-17
.LVL54:
.L38:
	.loc 1 330 3 is_stmt 1
	.loc 1 330 13 is_stmt 0
	li	a4,4096
	addi	a4,a4,16
	and	a4,s0,a4
	.loc 1 330 6
	beq	a4,zero,.L39
	.loc 1 331 5 is_stmt 1
	.loc 1 331 17 is_stmt 0
	andi	a4,s0,1024
	.loc 1 331 8
	bne	a4,zero,.L42
	.loc 1 331 32
	beq	a5,zero,.L42
	.loc 1 331 39
	lw	a4,112(sp)
	beq	a4,a5,.L41
	.loc 1 331 62
	bne	s3,a5,.L42
.L41:
	.loc 1 334 7 is_stmt 1
	.loc 1 334 10 is_stmt 0
	bgeu	s11,a5,.L42
	.loc 1 335 9 is_stmt 1
	.loc 1 335 12 is_stmt 0
	addi	a4,a5,-1
.LVL55:
	.loc 1 337 7 is_stmt 1
	.loc 1 337 10 is_stmt 0
	beq	a4,zero,.L57
	.loc 1 337 15
	li	a3,16
	bne	a2,a3,.L58
	.loc 1 338 9 is_stmt 1
	.loc 1 339 14 is_stmt 0
	addi	a5,a5,-2
	.loc 1 338 12
	bltu	s11,a4,.L44
	mv	a5,a4
.LVL56:
.L44:
	.loc 1 343 33
	andi	a4,s0,32
	.loc 1 343 22
	bne	a4,zero,.L45
	.loc 1 343 47
	li	a4,31
	bgtu	a5,a4,.L49
	.loc 1 344 7 is_stmt 1
.LVL57:
	.loc 1 344 18 is_stmt 0
	li	a4,120
.LVL58:
.L85:
	.loc 1 350 18
	addi	a3,sp,16
.LVL59:
	srb	a4,a3,a5,0
.LVL60:
	.loc 1 350 14
	addi	a5,a5,1
.LVL61:
.L47:
	.loc 1 352 5 is_stmt 1
	.loc 1 352 8 is_stmt 0
	li	a4,31
	bgtu	a5,a4,.L49
	.loc 1 353 7 is_stmt 1
.LVL62:
	.loc 1 353 18 is_stmt 0
	li	a4,48
	addi	a3,sp,16
.LVL63:
	srb	a4,a3,a5,0
	.loc 1 353 14
	addi	a5,a5,1
.LVL64:
.L39:
	.loc 1 357 3 is_stmt 1
	.loc 1 357 6 is_stmt 0
	li	a4,31
	bgtu	a5,a4,.L49
	.loc 1 358 5 is_stmt 1
.LVL65:
	.loc 1 359 18 is_stmt 0
	li	a4,45
	.loc 1 358 8
	bne	s2,zero,.L86
	.loc 1 361 10 is_stmt 1
	.loc 1 361 20 is_stmt 0
	andi	a4,s0,4
	.loc 1 361 13
	beq	a4,zero,.L52
	.loc 1 362 7 is_stmt 1
	.loc 1 362 18 is_stmt 0
	li	a4,43
.LVL66:
.L86:
	.loc 1 365 18
	addi	a3,sp,16
.LVL67:
	srb	a4,a3,a5,0
	.loc 1 365 14
	addi	a5,a5,1
.LVL68:
.L49:
	.loc 1 369 3 is_stmt 1
	.loc 1 369 10 is_stmt 0
	mv	a7,s0
	mv	a6,s3
	addi	a4,sp,16
.LVL69:
	mv	a3,s7
	mv	a2,s6
.LVL70:
	mv	a1,s5
	mv	a0,s4
	call	out_rev_
.LVL71:
.LBE57:
.LBE64:
	.loc 1 401 1
	lw	ra,108(sp)
	.cfi_remember_state
	.cfi_restore 1
	lw	s0,104(sp)
	.cfi_restore 8
	lw	s1,100(sp)
	.cfi_restore 9
	lw	s2,96(sp)
	.cfi_restore 18
	lw	s3,92(sp)
	.cfi_restore 19
	lw	s4,88(sp)
	.cfi_restore 20
.LVL72:
	lw	s5,84(sp)
	.cfi_restore 21
.LVL73:
	lw	s6,80(sp)
	.cfi_restore 22
.LVL74:
	lw	s7,76(sp)
	.cfi_restore 23
.LVL75:
	lw	s8,72(sp)
	.cfi_restore 24
	lw	s9,68(sp)
	.cfi_restore 25
	lw	s10,64(sp)
	.cfi_restore 26
	lw	s11,60(sp)
	.cfi_restore 27
.LVL76:
	addi	sp,sp,112
	.cfi_def_cfa_offset 0
	jr	ra
.LVL77:
.L57:
	.cfi_restore_state
.LBB65:
.LBB58:
	li	a5,0
.LVL78:
	.loc 1 343 5 is_stmt 1
.L42:
	.loc 1 337 15 is_stmt 0
	li	a4,16
	bne	a2,a4,.L43
	j	.L44
.LVL79:
.L58:
	mv	a5,a4
.LVL80:
.L43:
	.loc 1 346 10 is_stmt 1
	.loc 1 349 10
	.loc 1 349 13 is_stmt 0
	li	a4,2
	bne	a2,a4,.L47
	.loc 1 349 26
	li	a4,31
	bgtu	a5,a4,.L49
	.loc 1 350 7 is_stmt 1
.LVL81:
	.loc 1 350 18 is_stmt 0
	li	a4,98
	j	.L85
.LVL82:
.L45:
	.loc 1 346 10 is_stmt 1
	.loc 1 346 51 is_stmt 0
	li	a4,31
	bgtu	a5,a4,.L49
	.loc 1 347 7 is_stmt 1
.LVL83:
	.loc 1 347 18 is_stmt 0
	li	a4,88
	j	.L85
.LVL84:
.L52:
	.loc 1 364 10 is_stmt 1
	.loc 1 364 20 is_stmt 0
	andi	a4,s0,8
	.loc 1 364 13
	beq	a4,zero,.L49
	.loc 1 365 7 is_stmt 1
	.loc 1 365 18 is_stmt 0
	li	a4,32
	j	.L86
.LBE58:
.LBE65:
	.cfi_endproc
.LFE16:
	.size	print_integer, .-print_integer
	.globl	__fixdfdi
	.globl	__floatdidf
	.globl	__subdf3
	.globl	__muldf3
	.globl	__gtdf2
	.globl	__ledf2
	.globl	__eqdf2
	.globl	__ltdf2
	.section	.text.get_components,"ax",@progbits
	.align	1
	.type	get_components, @function
get_components:
.LFB17:
	.loc 1 425 1 is_stmt 1
	.cfi_startproc
.LVL85:
	.loc 1 426 3
	.loc 1 427 3
	.loc 1 425 1 is_stmt 0
	addi	sp,sp,-80
	.cfi_def_cfa_offset 80
	.loc 1 427 25
	srli	a5,a2,31
	.loc 1 425 1
	sw	s4,56(sp)
	sw	s5,52(sp)
	sw	s8,40(sp)
	sw	s9,36(sp)
	sw	ra,76(sp)
	sw	s0,72(sp)
	sw	s1,68(sp)
	sw	s2,64(sp)
	sw	s3,60(sp)
	sw	s6,48(sp)
	sw	s7,44(sp)
	sw	s10,32(sp)
	sw	s11,28(sp)
	.cfi_offset 20, -24
	.cfi_offset 21, -28
	.cfi_offset 24, -40
	.cfi_offset 25, -44
	.cfi_offset 1, -4
	.cfi_offset 8, -8
	.cfi_offset 9, -12
	.cfi_offset 18, -16
	.cfi_offset 19, -20
	.cfi_offset 22, -32
	.cfi_offset 23, -36
	.cfi_offset 26, -48
	.cfi_offset 27, -52
	.loc 1 427 25
	sw	a5,0(sp)
	.loc 1 425 1
	mv	s5,a0
	mv	s8,a1
.LVL86:
.LBB66:
.LBB67:
	.loc 1 187 3 is_stmt 1
.LBE67:
.LBE66:
	.loc 1 179 3
	.loc 1 180 3
	.loc 1 181 3
	.loc 1 428 3
	.loc 1 425 1 is_stmt 0
	mv	s4,a2
	mv	s9,a3
	.loc 1 428 55
	beq	a5,zero,.L88
	.loc 1 428 55 discriminator 1
	li	a5,-2147483648
	xor	s4,a5,a2
.L88:
.LVL87:
	.loc 1 429 3 is_stmt 1 discriminator 4
	.loc 1 429 22 is_stmt 0 discriminator 4
	mv	a0,s8
.LVL88:
	mv	a1,s4
.LVL89:
	call	__fixdfdi
.LVL90:
	.loc 1 430 68 discriminator 4
	lui	a5,%hi(.LANCHOR0)
	addi	a5,a5,%lo(.LANCHOR0)
	addsl	a5, a5, s9, 3
	lw	s6,0(a5)
	lw	s7,4(a5)
	.loc 1 429 22 discriminator 4
	mv	s2,a0
	mv	s3,a1
.LVL91:
	.loc 1 430 3 is_stmt 1 discriminator 4
	.loc 1 430 34 is_stmt 0 discriminator 4
	call	__floatdidf
.LVL92:
	mv	a2,a0
	mv	a3,a1
	mv	a0,s8
	mv	a1,s4
	call	__subdf3
.LVL93:
	.loc 1 430 10 discriminator 4
	mv	a2,s6
	mv	a3,s7
	call	__muldf3
.LVL94:
	mv	s10,a0
	mv	s11,a1
.LVL95:
	.loc 1 431 3 is_stmt 1 discriminator 4
	.loc 1 431 24 is_stmt 0 discriminator 4
	call	__fixdfdi
.LVL96:
	mv	s0,a0
	mv	s1,a1
.LVL97:
	.loc 1 433 3 is_stmt 1 discriminator 4
	.loc 1 433 16 is_stmt 0 discriminator 4
	call	__floatdidf
.LVL98:
	mv	a2,a0
	mv	a3,a1
	.loc 1 433 13 discriminator 4
	mv	a0,s10
	mv	a1,s11
	call	__subdf3
.LVL99:
	.loc 1 435 6 discriminator 4
	lui	a6,%hi(.LC0)
	lw	s10,%lo(.LC0)(a6)
.LVL100:
	lw	s11,%lo(.LC0+4)(a6)
	.loc 1 433 13 discriminator 4
	sw	a0,8(sp)
	.loc 1 435 6 discriminator 4
	mv	a2,s10
	mv	a3,s11
	.loc 1 433 13 discriminator 4
	sw	a1,12(sp)
.LVL101:
	.loc 1 435 3 is_stmt 1 discriminator 4
	.loc 1 435 6 is_stmt 0 discriminator 4
	call	__gtdf2
.LVL102:
	lui	a6,%hi(.LC0)
	sw	a6,4(sp)
	lw	a4,8(sp)
	lw	a5,12(sp)
	ble	a0,zero,.L118
	.loc 1 436 5 is_stmt 1
	li	s10,1
	li	s11,0
	add64	s0,s0,s10
.LVL103:
	.loc 1 438 5
	.loc 1 438 9 is_stmt 0
	mv	a0,s0
	mv	a1,s1
	call	__floatdidf
.LVL104:
	mv	a2,a0
	mv	a3,a1
	.loc 1 438 8
	mv	a0,s6
	mv	a1,s7
	call	__ledf2
.LVL105:
	bgt	a0,zero,.L91
	.loc 1 439 7 is_stmt 1
.LVL106:
	.loc 1 440 7
	add64	s2,s2,s10
.LVL107:
	.loc 1 439 26 is_stmt 0
	li	s0,0
	li	s1,0
.LVL108:
.L91:
	.loc 1 450 3 is_stmt 1
	.loc 1 450 6 is_stmt 0
	bne	s9,zero,.L97
	.loc 1 451 5 is_stmt 1
	.loc 1 451 30 is_stmt 0
	mv	a0,s2
	mv	a1,s3
	call	__floatdidf
.LVL109:
	mv	a2,a0
	mv	a3,a1
	.loc 1 451 15
	mv	a0,s8
	mv	a1,s4
	call	__subdf3
.LVL110:
	.loc 1 452 8
	lw	a5,4(sp)
	.loc 1 451 15
	mv	s8,a0
.LVL111:
	mv	s9,a1
.LVL112:
	.loc 1 452 5 is_stmt 1
	.loc 1 452 8 is_stmt 0
	lw	s6,%lo(.LC0)(a5)
	lw	s7,%lo(.LC0+4)(a5)
	mv	a2,s6
	mv	a3,s7
	call	__ltdf2
.LVL113:
	bge	a0,zero,.L98
	.loc 1 452 29 discriminator 2
	mv	a2,s6
	mv	a3,s7
	mv	a0,s8
	mv	a1,s9
	call	__gtdf2
.LVL114:
	ble	a0,zero,.L97
.L98:
	.loc 1 452 72 discriminator 3
	andi	a5,s2,1
	.loc 1 452 51 discriminator 3
	beq	a5,zero,.L97
	.loc 1 455 7 is_stmt 1 discriminator 3
	li	a4,1
	li	a5,0
	add64	s2,s2,a4
.LVL115:
.L97:
	.loc 1 458 3
	.loc 1 458 10 is_stmt 0
	lw	a5,0(sp)
	sw	s0,8(s5)
	.loc 1 459 1
	lw	ra,76(sp)
	.cfi_remember_state
	.cfi_restore 1
	lw	s0,72(sp)
	.cfi_restore 8
.LVL116:
	.loc 1 458 10
	sw	s2,0(s5)
	sw	s3,4(s5)
	sw	s1,12(s5)
	sb	a5,16(s5)
.LVL117:
	.loc 1 459 1
	lw	s1,68(sp)
	.cfi_restore 9
	lw	s2,64(sp)
	.cfi_restore 18
	lw	s3,60(sp)
	.cfi_restore 19
	lw	s4,56(sp)
	.cfi_restore 20
	lw	s6,48(sp)
	.cfi_restore 22
	lw	s7,44(sp)
	.cfi_restore 23
	lw	s8,40(sp)
	.cfi_restore 24
	lw	s9,36(sp)
	.cfi_restore 25
	lw	s10,32(sp)
	.cfi_restore 26
	lw	s11,28(sp)
	.cfi_restore 27
	mv	a0,s5
	lw	s5,52(sp)
	.cfi_restore 21
.LVL118:
	addi	sp,sp,80
	.cfi_def_cfa_offset 0
	jr	ra
.LVL119:
.L118:
	.cfi_restore_state
	.loc 1 443 8 is_stmt 1
	.loc 1 443 11 is_stmt 0
	mv	a2,s10
	mv	a3,s11
	mv	a0,a4
	mv	a1,a5
	call	__eqdf2
.LVL120:
	bne	a0,zero,.L91
	.loc 1 444 5 is_stmt 1
	.loc 1 444 8 is_stmt 0
	or	a5,s0,s1
	beq	a5,zero,.L94
	.loc 1 444 59
	andi	a5,s0,1
	.loc 1 444 36
	beq	a5,zero,.L91
.L94:
	.loc 1 446 7 is_stmt 1
	li	a4,1
	li	a5,0
	add64	s0,s0,a4
.LVL121:
	j	.L91
	.cfi_endproc
.LFE17:
	.size	get_components, .-get_components
	.section	.text.out_console,"ax",@progbits
	.align	1
	.type	out_console, @function
out_console:
.LFB9:
	.loc 1 229 1
	.cfi_startproc
.LVL122:
	.loc 1 233 3
	lui	a5,%hi(console)
	.loc 1 229 1 is_stmt 0
	mv	a1,a0
.LVL123:
	.loc 1 233 3
	lw	a0,%lo(console)(a5)
.LVL124:
	tail	qcc74x_uart_putchar
.LVL125:
	.cfi_endproc
.LFE9:
	.size	out_console, .-out_console
	.globl	__moddi3
	.globl	__divdi3
	.section	.text.print_broken_up_decimal.isra.0,"ax",@progbits
	.align	1
	.type	print_broken_up_decimal.isra.0, @function
print_broken_up_decimal.isra.0:
.LFB29:
	.loc 1 540 15 is_stmt 1
	.cfi_startproc
.LVL126:
	addi	sp,sp,-80
	.cfi_def_cfa_offset 80
	sw	s9,36(sp)
	.cfi_offset 25, -44
	lw	s9,84(sp)
	sw	s0,72(sp)
	sw	s2,64(sp)
	sw	s4,56(sp)
	sw	s5,52(sp)
	sw	s6,48(sp)
	sw	s7,44(sp)
	sw	s8,40(sp)
	sw	s10,32(sp)
	sw	ra,76(sp)
	sw	s1,68(sp)
	sw	s3,60(sp)
	sw	s11,28(sp)
	.cfi_offset 8, -8
	.cfi_offset 18, -16
	.cfi_offset 20, -24
	.cfi_offset 21, -28
	.cfi_offset 22, -32
	.cfi_offset 23, -36
	.cfi_offset 24, -40
	.cfi_offset 26, -48
	.cfi_offset 1, -4
	.cfi_offset 9, -12
	.cfi_offset 19, -20
	.cfi_offset 27, -52
	.loc 1 540 15 is_stmt 0
	sw	a5,4(sp)
	sw	a6,8(sp)
	sw	a7,12(sp)
	lw	s10,80(sp)
	lw	s7,88(sp)
	lw	s8,92(sp)
	lw	s2,96(sp)
	lw	s0,100(sp)
	mv	s4,a0
	mv	s5,a1
.LVL127:
	mv	s6,a4
.LVL128:
	.loc 1 544 3 is_stmt 1
	.loc 1 544 6 is_stmt 0
	beq	s9,zero,.L122
.LBB68:
	.loc 1 549 29
	li	a4,4096
	addi	a4,a4,-2032
	and	a4,s8,a4
	.loc 1 549 8
	addi	a4,a4,-2048
	mv	s3,a2
	mv	s1,a3
	.loc 1 547 5 is_stmt 1
.LVL129:
	.loc 1 549 5
	.loc 1 549 8 is_stmt 0
	bne	a4,zero,.L123
	.loc 1 551 7 is_stmt 1
	.loc 1 551 10 is_stmt 0
	bgt	a3,zero,.L127
	bne	a3,zero,.L124
	beq	a2,zero,.L124
.LVL130:
.L127:
	.loc 1 552 9 is_stmt 1
.LBB69:
	.loc 1 553 11
	.loc 1 554 11
.LBE69:
	li	a2,10
	li	a3,0
	mv	a0,s3
	mv	a1,s1
	call	__moddi3
.LVL131:
.LBB70:
	.loc 1 554 14 is_stmt 0
	or	a0,a0,a1
	bne	a0,zero,.L126
	.loc 1 557 11 is_stmt 1
.LVL132:
	.loc 1 558 30 is_stmt 0
	mv	a0,s3
	mv	a1,s1
	li	a2,10
	li	a3,0
	call	__divdi3
.LVL133:
	.loc 1 557 11
	addi	s9,s9,-1
.LVL134:
	.loc 1 558 11 is_stmt 1
	.loc 1 558 30 is_stmt 0
	mv	s3,a0
.LVL135:
	mv	s1,a1
.LVL136:
.LBE70:
	.loc 1 552 14 is_stmt 1
	.loc 1 552 20 is_stmt 0
	j	.L127
.LVL137:
.L130:
	.loc 1 568 9 is_stmt 1
	.loc 1 569 54 is_stmt 0
	li	a2,10
	li	a3,0
	mv	a0,s3
	mv	a1,s1
	call	__moddi3
.LVL138:
	.loc 1 569 22
	addi	a0,a0,48
	.loc 1 569 16
	addi	s0,s0,1
.LVL139:
	.loc 1 569 20
	srb	a0,s11,s0,0
	.loc 1 570 34
	mv	a1,s1
	mv	a0,s3
	li	a2,10
	li	a3,0
	call	__divdi3
.LVL140:
	mv	s1,a1
.LVL141:
	.loc 1 570 12
	or	a1,a1,a0
	.loc 1 568 9
	addi	s9,s9,-1
.LVL142:
	.loc 1 569 9 is_stmt 1
	.loc 1 570 9
	.loc 1 570 34 is_stmt 0
	mv	s3,a0
	.loc 1 570 12
	li	a4,32
	bne	a1,zero,.L128
	add	a5,s9,s0
	.loc 1 575 13
	li	a2,32
	.loc 1 576 20
	li	a1,48
.LVL143:
.L129:
	.loc 1 575 13 is_stmt 1
	beq	s0,a2,.L132
.LVL144:
	addi	a4,s0,1
	add	a3,s2,s0
	.loc 1 575 25 is_stmt 0
	bne	a5,s0,.L133
	.loc 1 578 7 is_stmt 1
	.loc 1 579 9
.LVL145:
	.loc 1 579 20 is_stmt 0
	li	a5,46
	sb	a5,0(a3)
	mv	s0,a4
.LVL146:
	j	.L124
.L133:
	.loc 1 576 9 is_stmt 1
.LVL147:
	.loc 1 576 20 is_stmt 0
	srb	a1,s2,s0,0
	mv	s0,a4
.LVL148:
	j	.L129
.LVL149:
.L122:
.LBE68:
	.loc 1 584 5 is_stmt 1
	.loc 1 584 15 is_stmt 0
	andi	a5,s8,16
.LVL150:
	.loc 1 584 8
	beq	a5,zero,.L124
	.loc 1 585 7 is_stmt 1
	.loc 1 585 10 is_stmt 0
	li	a5,32
	beq	s0,a5,.L132
	.loc 1 586 9 is_stmt 1
.LVL151:
	.loc 1 586 20 is_stmt 0
	li	a5,46
	srb	a5,s2,s0,0
	.loc 1 586 16
	addi	s0,s0,1
.LVL152:
.L124:
	.loc 1 593 9
	li	s3,32
	.loc 1 594 16
	addi	s1,s2,-1
	j	.L136
.LVL153:
.L137:
	.loc 1 594 5 is_stmt 1
	.loc 1 594 49 is_stmt 0
	li	a2,10
	li	a3,0
	mv	a0,s4
	mv	a1,s5
	call	__moddi3
.LVL154:
	.loc 1 594 18
	addi	a0,a0,48
	.loc 1 594 12
	addi	s0,s0,1
.LVL155:
	.loc 1 594 16
	srb	a0,s1,s0,0
	.loc 1 595 5 is_stmt 1
	.loc 1 595 28 is_stmt 0
	mv	a1,s5
	mv	a0,s4
	li	a2,10
	li	a3,0
	call	__divdi3
.LVL156:
	mv	s5,a1
.LVL157:
	.loc 1 595 8
	or	a1,a1,a0
.LVL158:
	.loc 1 595 28
	mv	s4,a0
	.loc 1 595 8
	beq	a1,zero,.L131
.LVL159:
.L136:
	.loc 1 593 9 is_stmt 1
	bne	s0,s3,.L137
	j	.L132
.LVL160:
.L142:
	.loc 1 606 7
	.loc 1 606 18 is_stmt 0
	srb	a4,s2,s0,0
	addi	s0,s0,1
.LVL161:
.L141:
	.loc 1 605 11 is_stmt 1
	bleu	s7,s0,.L138
	.loc 1 605 26 is_stmt 0
	bne	s0,a5,.L142
.LVL162:
.L143:
	.loc 1 622 3 is_stmt 1
	.loc 1 622 10 is_stmt 0
	mv	a5,s0
	.loc 1 623 1
	lw	s0,72(sp)
	.cfi_remember_state
	.cfi_restore 8
.LVL163:
	.loc 1 622 10
	lw	a2,12(sp)
	lw	a1,8(sp)
	lw	a0,4(sp)
	.loc 1 623 1
	lw	ra,76(sp)
	.cfi_restore 1
	lw	s1,68(sp)
	.cfi_restore 9
	lw	s3,60(sp)
	.cfi_restore 19
	lw	s4,56(sp)
	.cfi_restore 20
	lw	s5,52(sp)
	.cfi_restore 21
	lw	s6,48(sp)
	.cfi_restore 22
.LVL164:
	lw	s9,36(sp)
	.cfi_restore 25
	lw	s11,28(sp)
	.cfi_restore 27
	.loc 1 622 10
	mv	a7,s8
	mv	a6,s7
	.loc 1 623 1
	lw	s8,40(sp)
	.cfi_restore 24
	lw	s7,44(sp)
	.cfi_restore 23
	.loc 1 622 10
	mv	a4,s2
	mv	a3,s10
	.loc 1 623 1
	lw	s2,64(sp)
	.cfi_restore 18
	lw	s10,32(sp)
	.cfi_restore 26
	addi	sp,sp,80
	.cfi_def_cfa_offset 0
	.loc 1 622 10
	tail	out_rev_
.LVL165:
.L138:
	.cfi_restore_state
	.loc 1 610 3 is_stmt 1
	.loc 1 610 6 is_stmt 0
	li	a5,32
	beq	s0,a5,.L143
	.loc 1 611 5 is_stmt 1
	.loc 1 611 8 is_stmt 0
	beq	s6,zero,.L144
	.loc 1 612 7 is_stmt 1
.LVL166:
	.loc 1 612 18 is_stmt 0
	li	a5,45
.LVL167:
.L164:
	.loc 1 618 7 is_stmt 1
	.loc 1 618 18 is_stmt 0
	srb	a5,s2,s0,0
.LVL168:
	.loc 1 618 14
	addi	s0,s0,1
.LVL169:
	j	.L143
.LVL170:
.L144:
	.loc 1 614 10 is_stmt 1
	.loc 1 614 20 is_stmt 0
	andi	a4,s8,4
	.loc 1 614 13
	beq	a4,zero,.L145
	.loc 1 615 7 is_stmt 1
.LVL171:
	.loc 1 615 18 is_stmt 0
	li	a5,43
	j	.L164
.LVL172:
.L145:
	.loc 1 617 10 is_stmt 1
	.loc 1 617 20 is_stmt 0
	andi	a4,s8,8
	.loc 1 617 13
	beq	a4,zero,.L143
	j	.L164
.LVL173:
.L126:
.LBB71:
	.loc 1 566 5 is_stmt 1
	.loc 1 566 8 is_stmt 0
	or	a4,s3,s1
	beq	a4,zero,.L124
.LVL174:
.L123:
	.loc 1 567 13
	li	a4,32
	.loc 1 569 20
	addi	s11,s2,-1
.LVL175:
.L128:
	.loc 1 567 13 is_stmt 1
	bne	s0,a4,.L130
.LVL176:
.L132:
.LBE71:
	.loc 1 586 16 is_stmt 0
	li	s0,32
.L131:
.LVL177:
	.loc 1 601 3 is_stmt 1
	.loc 1 601 29 is_stmt 0
	andi	a5,s8,3
	.loc 1 601 6
	li	a4,1
	bne	a5,a4,.L138
	.loc 1 602 5 is_stmt 1
	.loc 1 602 8 is_stmt 0
	beq	s7,zero,.L138
	.loc 1 602 15
	bne	s6,zero,.L139
	.loc 1 602 49
	andi	a5,s8,12
	.loc 1 602 39
	beq	a5,zero,.L140
.L139:
	.loc 1 603 7 is_stmt 1
	.loc 1 603 12 is_stmt 0
	addi	s7,s7,-1
.LVL178:
.L140:
	.loc 1 605 26
	li	a5,32
	.loc 1 606 18
	li	a4,48
	j	.L141
	.cfi_endproc
.LFE29:
	.size	print_broken_up_decimal.isra.0, .-print_broken_up_decimal.isra.0
	.globl	__divdf3
	.section	.text.apply_scaling,"ax",@progbits
	.align	1
	.globl	apply_scaling
	.type	apply_scaling, @function
apply_scaling:
.LFB18:
	.loc 1 467 1 is_stmt 1
	.cfi_startproc
.LVL179:
	mv	a5,a2
	lw	a3,4(a5)
	.loc 1 468 66 is_stmt 0
	lbu	a5,8(a5)
	.loc 1 467 1
	addi	sp,sp,-16
	.cfi_def_cfa_offset 16
	sw	ra,12(sp)
	.cfi_offset 1, -4
	lw	a2,0(a2)
.LVL180:
	.loc 1 468 3 is_stmt 1
	.loc 1 468 66 is_stmt 0
	beq	a5,zero,.L166
	.loc 1 468 66 discriminator 1
	call	__muldf3
.LVL181:
.L165:
	.loc 1 469 1
	lw	ra,12(sp)
	.cfi_remember_state
	.cfi_restore 1
	addi	sp,sp,16
	.cfi_def_cfa_offset 0
	jr	ra
.LVL182:
.L166:
	.cfi_restore_state
	.loc 1 468 66 discriminator 2
	call	__divdf3
.LVL183:
	j	.L165
	.cfi_endproc
.LFE18:
	.size	apply_scaling, .-apply_scaling
	.section	.text.unapply_scaling,"ax",@progbits
	.align	1
	.globl	unapply_scaling
	.type	unapply_scaling, @function
unapply_scaling:
.LFB19:
	.loc 1 472 1 is_stmt 1
	.cfi_startproc
.LVL184:
	mv	a5,a2
	lw	a3,4(a5)
	.loc 1 473 73 is_stmt 0
	lbu	a5,8(a5)
	.loc 1 472 1
	addi	sp,sp,-16
	.cfi_def_cfa_offset 16
	sw	ra,12(sp)
	.cfi_offset 1, -4
	lw	a2,0(a2)
.LVL185:
	.loc 1 473 3 is_stmt 1
	.loc 1 473 73 is_stmt 0
	beq	a5,zero,.L170
	.loc 1 473 73 discriminator 1
	call	__divdf3
.LVL186:
.L169:
	.loc 1 474 1
	lw	ra,12(sp)
	.cfi_remember_state
	.cfi_restore 1
	addi	sp,sp,16
	.cfi_def_cfa_offset 0
	jr	ra
.LVL187:
.L170:
	.cfi_restore_state
	.loc 1 473 73 discriminator 2
	call	__muldf3
.LVL188:
	j	.L169
	.cfi_endproc
.LFE19:
	.size	unapply_scaling, .-unapply_scaling
	.section	.text.update_normalization,"ax",@progbits
	.align	1
	.globl	update_normalization
	.type	update_normalization, @function
update_normalization:
.LFB20:
	.loc 1 477 1 is_stmt 1
	.cfi_startproc
.LVL189:
	.loc 1 479 6 is_stmt 0
	lbu	a5,8(a1)
	.loc 1 477 1
	addi	sp,sp,-16
	.cfi_def_cfa_offset 16
	sw	s0,8(sp)
	sw	ra,12(sp)
	.cfi_offset 8, -8
	.cfi_offset 1, -4
	.loc 1 477 1
	mv	s0,a0
	lw	t1,0(a1)
	lw	a6,4(a1)
.LVL190:
	.loc 1 478 3 is_stmt 1
	.loc 1 479 3
	.loc 1 477 1 is_stmt 0
	mv	a7,a2
	mv	a0,a3
.LVL191:
	.loc 1 479 6
	beq	a5,zero,.L174
	.loc 1 480 5 is_stmt 1
.LVL192:
	.loc 1 481 5
	.loc 1 481 39 is_stmt 0
	mv	a0,t1
	mv	a1,a6
	call	__muldf3
.LVL193:
.L178:
.LBB72:
	.loc 1 493 23
	li	a5,1
	j	.L175
.LVL194:
.L174:
	.loc 1 484 5 is_stmt 1
.LBE72:
	.loc 1 179 3
	.loc 1 180 3
	.loc 1 181 3
.LBB81:
.LBB73:
.LBB74:
	.loc 1 196 3
.LBE74:
.LBE73:
	.loc 1 485 5
.LBE81:
	.loc 1 179 3
	.loc 1 180 3
	.loc 1 181 3
.LBB82:
.LBB76:
.LBB77:
	.loc 1 196 3
.LBE77:
.LBE76:
	.loc 1 488 5
.LBB79:
.LBB75:
	.loc 1 196 10 is_stmt 0
	extu	a5,a6,20+11-1,20
	.loc 1 196 45
	addi	a5,a5,-1023
.LBE75:
.LBE79:
	.loc 1 488 45
	srai	a4,a5,31
	xor	a5,a4,a5
	sub	a4,a5,a4
.LBB80:
.LBB78:
	.loc 1 196 10
	extu	a5,a3,20+11-1,20
	.loc 1 196 45
	addi	a5,a5,-1023
.LBE78:
.LBE80:
	.loc 1 488 114
	srai	a3,a5,31
	xor	a5,a3,a5
	sub	a5,a5,a3
	.loc 1 488 8
	ble	a4,a5,.L176
	.loc 1 489 7 is_stmt 1
.LVL195:
	.loc 1 490 7
	.loc 1 490 41 is_stmt 0
	mv	a3,a0
	mv	a1,a6
	mv	a0,t1
.LVL196:
	call	__divdf3
.LVL197:
	.loc 1 489 23
	li	a5,0
.LVL198:
.L175:
.LBE82:
	.loc 1 497 3 is_stmt 1
	.loc 1 497 10 is_stmt 0
	sw	a0,0(s0)
	.loc 1 498 1
	lw	ra,12(sp)
	.cfi_remember_state
	.cfi_restore 1
	.loc 1 497 10
	sw	a1,4(s0)
	sb	a5,8(s0)
.LVL199:
	.loc 1 498 1
	mv	a0,s0
	lw	s0,8(sp)
	.cfi_restore 8
.LVL200:
	addi	sp,sp,16
	.cfi_def_cfa_offset 0
	jr	ra
.LVL201:
.L176:
	.cfi_restore_state
.LBB83:
	.loc 1 493 7 is_stmt 1
	.loc 1 494 7
	.loc 1 494 55 is_stmt 0
	mv	a5,a0
	mv	a2,t1
.LVL202:
	mv	a3,a6
	mv	a0,a7
.LVL203:
	mv	a1,a5
	call	__divdf3
.LVL204:
	j	.L178
.LBE83:
	.cfi_endproc
.LFE20:
	.size	update_normalization, .-update_normalization
	.globl	__floatsidf
	.globl	__adddf3
	.globl	__fixdfsi
	.globl	__gedf2
	.section	.text.print_exponential_number,"ax",@progbits
	.align	1
	.type	print_exponential_number, @function
print_exponential_number:
.LFB24:
	.loc 1 635 1 is_stmt 1
	.cfi_startproc
.LVL205:
	.loc 1 636 3
	.loc 1 635 1 is_stmt 0
	addi	sp,sp,-208
	.cfi_def_cfa_offset 208
	sw	s6,176(sp)
	.cfi_offset 22, -32
	mv	s6,a5
.LBB99:
.LBB100:
	.loc 1 187 30
	srli	a5,a5,31
.LBE100:
.LBE99:
	.loc 1 635 1
	sw	s1,196(sp)
	sw	s2,192(sp)
	sw	s7,172(sp)
	sw	s10,160(sp)
	sw	s11,156(sp)
	sw	ra,204(sp)
	sw	s0,200(sp)
	sw	s3,188(sp)
	sw	s4,184(sp)
	sw	s5,180(sp)
	sw	s8,168(sp)
	sw	s9,164(sp)
	.cfi_offset 9, -12
	.cfi_offset 18, -16
	.cfi_offset 23, -36
	.cfi_offset 26, -48
	.cfi_offset 27, -52
	.cfi_offset 1, -4
	.cfi_offset 8, -8
	.cfi_offset 19, -20
	.cfi_offset 20, -24
	.cfi_offset 21, -28
	.cfi_offset 24, -40
	.cfi_offset 25, -44
	.loc 1 635 1
	sw	a1,44(sp)
	sw	a2,52(sp)
	sw	a3,48(sp)
	sw	a7,56(sp)
.LBB103:
.LBB101:
	.loc 1 187 30
	sw	a5,60(sp)
.LBE101:
.LBE103:
	.loc 1 635 1
	lw	s11,208(sp)
	mv	s10,a0
	mv	s7,a4
.LBB104:
.LBB102:
	.loc 1 187 3 is_stmt 1
.LBE102:
.LBE104:
	.loc 1 179 3
	.loc 1 180 3
	.loc 1 181 3
.LVL206:
	.loc 1 638 3
	.loc 1 635 1 is_stmt 0
	mv	s1,a6
	li	s2,0
	.loc 1 638 42
	beq	a5,zero,.L180
	.loc 1 638 42 discriminator 1
	li	a5,-2147483648
	xor	s6,a5,s6
.L180:
.LVL207:
	.loc 1 640 3 is_stmt 1 discriminator 4
	.loc 1 641 2 discriminator 4
	.loc 1 642 3 discriminator 4
	.loc 1 646 3 discriminator 4
	.loc 1 646 6 is_stmt 0 discriminator 4
	li	a2,0
.LVL208:
	li	a3,0
.LVL209:
	mv	a0,s7
.LVL210:
	mv	a1,s6
.LVL211:
	call	__eqdf2
.LVL212:
	.loc 1 648 11 discriminator 4
	li	s0,0
	.loc 1 646 6 discriminator 4
	beq	a0,zero,.L181
.LBB105:
	.loc 1 651 5 is_stmt 1
.LVL213:
.LBE105:
	.loc 1 179 3
	.loc 1 180 3
	.loc 1 181 3
.LBB111:
.LBB106:
	.loc 1 654 7
.LBB107:
.LBB108:
	.loc 1 196 3
.LBE108:
.LBE107:
	.loc 1 656 7
	.loc 1 658 7
.LBB110:
.LBB109:
	.loc 1 196 10 is_stmt 0
	extu	a0,s6,20+11-1,20
.LBE109:
.LBE110:
	.loc 1 658 44
	addi	a0,a0,-1023
	call	__floatsidf
.LVL214:
	lui	a5,%hi(.LC1)
	lw	a2,%lo(.LC1)(a5)
	lw	a3,%lo(.LC1+4)(a5)
	.loc 1 665 59
	lui	s8,%hi(.LC9)
	.loc 1 658 44
	call	__muldf3
.LVL215:
	.loc 1 658 37
	lui	a5,%hi(.LC2)
	lw	a2,%lo(.LC2)(a5)
	lw	a3,%lo(.LC2+4)(a5)
	call	__adddf3
.LVL216:
	.loc 1 656 24
	li	a5,1048576
	.loc 1 658 74
	lui	a4,%hi(.LC3)
	.loc 1 656 24
	addi	a5,a5,-1
	.loc 1 658 74
	lw	a2,%lo(.LC3)(a4)
	lw	a3,%lo(.LC3+4)(a4)
	.loc 1 656 24
	and	a5,s6,a5
	.loc 1 658 74
	li	a4,1072693248
	or	a4,a4,a5
	.loc 1 658 37
	mv	s2,a0
	mv	s3,a1
	.loc 1 658 74
	mv	a0,s7
	mv	a1,a4
	call	__subdf3
.LVL217:
	.loc 1 658 81
	lui	a5,%hi(.LC4)
	lw	a2,%lo(.LC4)(a5)
	lw	a3,%lo(.LC4+4)(a5)
	call	__muldf3
.LVL218:
	mv	a2,a0
	mv	a3,a1
	.loc 1 658 64
	mv	a0,s2
	mv	a1,s3
	call	__adddf3
.LVL219:
	.loc 1 658 13
	call	__fixdfsi
.LVL220:
	mv	s0,a0
.LVL221:
	.loc 1 660 7 is_stmt 1
	.loc 1 660 26 is_stmt 0
	call	__floatsidf
.LVL222:
	lui	a5,%hi(.LC5)
	lw	a2,%lo(.LC5)(a5)
	lw	a3,%lo(.LC5+4)(a5)
	mv	s2,a0
	mv	s3,a1
	call	__muldf3
.LVL223:
	.loc 1 660 46
	lui	a5,%hi(.LC0)
	lw	a2,%lo(.LC0)(a5)
	lw	a3,%lo(.LC0+4)(a5)
	call	__adddf3
.LVL224:
	.loc 1 660 12
	call	__fixdfsi
.LVL225:
	.loc 1 661 30
	lui	a5,%hi(.LC6)
	lw	a2,%lo(.LC6)(a5)
	lw	a3,%lo(.LC6+4)(a5)
	.loc 1 660 12
	mv	s9,a0
.LVL226:
	.loc 1 661 7 is_stmt 1
	.loc 1 661 30 is_stmt 0
	mv	a1,s3
	mv	a0,s2
.LVL227:
	call	__muldf3
.LVL228:
	mv	s2,a0
	.loc 1 661 57
	mv	a0,s9
	.loc 1 661 30
	mv	s3,a1
	.loc 1 661 57
	call	__floatsidf
.LVL229:
	lui	a5,%hi(.LC7)
	lw	a2,%lo(.LC7)(a5)
	lw	a3,%lo(.LC7+4)(a5)
	call	__muldf3
.LVL230:
	mv	a2,a0
	mv	a3,a1
	.loc 1 661 20
	mv	a0,s2
	mv	a1,s3
	call	__subdf3
.LVL231:
	.loc 1 662 20
	mv	a2,a0
	mv	a3,a1
	.loc 1 661 20
	mv	s4,a0
	mv	s5,a1
.LVL232:
	.loc 1 662 7 is_stmt 1
	.loc 1 662 20 is_stmt 0
	call	__muldf3
.LVL233:
	mv	s2,a0
	mv	s3,a1
.LVL234:
	.loc 1 663 7 is_stmt 1
	.loc 1 665 7
	.loc 1 665 23 is_stmt 0
	mv	a2,s4
	mv	a3,s5
	mv	a0,s4
	mv	a1,s5
	call	__adddf3
.LVL235:
	.loc 1 665 64
	lui	a3,%hi(.LC8)
	lw	a2,%lo(.LC8)(a3)
	lw	a3,%lo(.LC8+4)(a3)
	.loc 1 665 23
	sw	a0,64(sp)
	sw	a1,68(sp)
	.loc 1 665 64
	mv	a0,s2
	mv	a1,s3
	call	__divdf3
.LVL236:
	.loc 1 665 59
	lw	a2,%lo(.LC9)(s8)
	lw	a3,%lo(.LC9+4)(s8)
	call	__adddf3
.LVL237:
	mv	a2,a0
	mv	a3,a1
	.loc 1 665 53
	mv	a0,s2
	mv	a1,s3
	call	__divdf3
.LVL238:
	.loc 1 665 47
	lui	a3,%hi(.LC10)
	lw	a2,%lo(.LC10)(a3)
	lw	a3,%lo(.LC10+4)(a3)
	call	__adddf3
.LVL239:
	mv	a2,a0
	mv	a3,a1
	.loc 1 665 42
	mv	a0,s2
	mv	a1,s3
	call	__divdf3
.LVL240:
	mv	s3,a1
	.loc 1 665 32
	lui	a1,%hi(.LC11)
	.loc 1 665 42
	mv	s2,a0
.LVL241:
	.loc 1 665 32
	lw	a0,%lo(.LC11)(a1)
	lw	a1,%lo(.LC11+4)(a1)
	mv	a2,s4
	mv	a3,s5
	call	__subdf3
.LVL242:
	mv	a2,a0
	mv	a3,a1
	.loc 1 665 36
	mv	a0,s2
	mv	a1,s3
	call	__adddf3
.LVL243:
	.loc 1 665 27
	lw	a4,64(sp)
	lw	a5,68(sp)
	.loc 1 665 36
	mv	a2,a0
	mv	a3,a1
	.loc 1 665 27
	mv	a0,a4
	mv	a1,a5
	call	__divdf3
.LVL244:
	.loc 1 665 19
	lui	a5,%hi(.LC12)
	lw	a2,%lo(.LC12)(a5)
	lw	a3,%lo(.LC12+4)(a5)
	call	__adddf3
.LVL245:
	.loc 1 663 39
	li	a2,1023
	li	a3,0
	.loc 1 663 17
	mv	a4,s9
	srai	a5,s9,31
	.loc 1 663 39
	add64	a4,a4,a2
	.loc 1 665 14
	li	a6,0
	slli	a7,a4,20
	mv	a2,a6
	mv	a3,a7
	call	__muldf3
.LVL246:
	.loc 1 667 10
	mv	a2,s7
	mv	a3,s6
	.loc 1 665 14
	mv	s4,a0
.LVL247:
	mv	s5,a1
.LVL248:
	.loc 1 667 7 is_stmt 1
	.loc 1 667 10 is_stmt 0
	call	__gtdf2
.LVL249:
	ble	a0,zero,.L183
	.loc 1 668 9 is_stmt 1
	.loc 1 669 16 is_stmt 0
	lw	a2,%lo(.LC9)(s8)
	lw	a3,%lo(.LC9+4)(s8)
	mv	a0,s4
	mv	a1,s5
	call	__divdf3
.LVL250:
	.loc 1 668 14
	addi	s0,s0,-1
.LVL251:
	.loc 1 669 9 is_stmt 1
	.loc 1 669 16 is_stmt 0
	mv	s4,a0
.LVL252:
	mv	s5,a1
.LVL253:
.L183:
.LBE106:
	.loc 1 672 5 is_stmt 1
	.loc 1 672 78 is_stmt 0
	addi	a5,s0,17
	.loc 1 673 119
	li	a4,34
	.loc 1 672 39
	sltiu	s2,a5,35
.LVL254:
	.loc 1 673 5 is_stmt 1
	.loc 1 673 119 is_stmt 0
	bgtu	a5,a4,.L181
	.loc 1 673 105 discriminator 1
	srai	a4,s0,31
	xor	a5,a4,s0
	sub	a4,a5,a4
	.loc 1 673 119 discriminator 1
	lui	a5,%hi(.LANCHOR0)
	addi	a5,a5,%lo(.LANCHOR0)
	addsl	a5, a5, a4, 3
	lw	s4,0(a5)
	lw	s5,4(a5)
.LVL255:
.L181:
.LBE111:
	.loc 1 682 2 is_stmt 1
	.loc 1 683 3
	.loc 1 683 13 is_stmt 0
	extu	a5,s11,11+1-1,11
	.loc 1 683 6
	beq	a5,zero,.L186
.LBB112:
	.loc 1 684 5 is_stmt 1
.LVL256:
	.loc 1 686 5
	.loc 1 686 51 is_stmt 0
	li	a4,-4
	.loc 1 692 25
	addi	a5,s1,-1
	li	s8,0
	.loc 1 686 51
	blt	s0,a4,.L187
.LVL257:
	.loc 1 691 5 is_stmt 1 discriminator 1
	.loc 1 692 37 is_stmt 0 discriminator 1
	bne	s1,zero,.L188
	li	s1,1
.LVL258:
.L188:
	li	s8,0
	bge	s0,s1,.L187
.LVL259:
	sub	a5,a5,s0
.LVL260:
	.loc 1 686 36 discriminator 1
	li	s8,1
.LVL261:
.L187:
	.loc 1 694 5 is_stmt 1
	.loc 1 694 57 is_stmt 0
	mv	s1,a5
	bge	a5,zero,.L189
	li	s1,0
.L189:
.LVL262:
	.loc 1 695 5 is_stmt 1
	.loc 1 695 11 is_stmt 0
	ori	s11,s11,1024
.LVL263:
.LBE112:
	.loc 1 698 3 is_stmt 1
	.loc 1 698 39 is_stmt 0
	bge	s0,zero,.L190
	.loc 1 698 39 discriminator 1
	li	s9,1
	bne	s2,zero,.L191
.LVL264:
.L225:
	.loc 1 698 39
	li	s9,0
.L191:
.LVL265:
	.loc 1 699 2 is_stmt 1
	.loc 1 699 67 is_stmt 0
	bne	s8,zero,.L192
	j	.L193
.LVL266:
.L190:
	.loc 1 699 2 is_stmt 1 discriminator 6
	.loc 1 699 67 is_stmt 0 discriminator 6
	bne	s8,zero,.L192
.LVL267:
.L223:
	.loc 1 700 3 is_stmt 1 discriminator 2
	.loc 1 700 28 is_stmt 0 discriminator 2
	bne	s0,zero,.L230
	li	s8,0
.LVL268:
.L192:
	.loc 1 702 5
	lw	a5,60(sp)
	beq	a5,zero,.L194
	.loc 1 702 5 discriminator 1
	li	a5,-2147483648
	xor	s6,a5,s6
.LVL269:
.L194:
	.loc 1 702 5 discriminator 4
	mv	a3,s1
	mv	a1,s7
	mv	a2,s6
	addi	a0,sp,120
	call	get_components
.LVL270:
	lbu	a5,136(sp)
	lw	s4,128(sp)
.LVL271:
	lw	s5,132(sp)
.LVL272:
	sw	a5,60(sp)
.LVL273:
	lw	s2,120(sp)
.LVL274:
	lw	s3,124(sp)
.LVL275:
	.loc 1 707 3 is_stmt 1 discriminator 4
	.loc 1 707 6 is_stmt 0 discriminator 4
	bne	s8,zero,.L195
.LVL276:
.L196:
	.loc 1 716 5 is_stmt 1
	.loc 1 716 8 is_stmt 0
	bgt	s3,zero,.L243
	bne	s3,zero,.L213
	li	a5,9
	bgeu	a5,s2,.L213
.L243:
	.loc 1 717 7 is_stmt 1
	.loc 1 717 12 is_stmt 0
	addi	s0,s0,1
.LVL277:
	.loc 1 718 7 is_stmt 1
	.loc 1 719 7
	.loc 1 719 42 is_stmt 0
	li	s4,0
	li	s5,0
	.loc 1 718 40
	li	s2,1
	li	s3,0
.LVL278:
.L213:
	.loc 1 725 3 is_stmt 1
	.loc 1 725 111 is_stmt 0
	addi	a5,s0,99
	.loc 1 725 123
	li	a4,198
	li	s8,0
	li	s7,5
	bgtu	a5,a4,.L211
	li	s7,4
	j	.L211
.LVL279:
.L230:
	li	s9,0
.LVL280:
.L193:
	sw	s4,104(sp)
	sw	s5,108(sp)
	sb	s9,112(sp)
.LVL281:
.LBB113:
.LBB114:
	.loc 1 503 3 is_stmt 1
	.loc 1 504 3
	.loc 1 505 3
.LBB115:
.LBB116:
	.loc 1 468 3
	.loc 1 468 66 is_stmt 0
	mv	a2,s4
	mv	a3,s5
	mv	a0,s7
	mv	a1,s6
	beq	s9,zero,.L197
.LVL282:
	call	__muldf3
.LVL283:
.L198:
.LBE116:
.LBE115:
	.loc 1 505 25
	call	__fixdfdi
.LVL284:
	mv	s2,a0
.LVL285:
	mv	s3,a1
.LVL286:
	.loc 1 506 3 is_stmt 1
	.loc 1 506 39 is_stmt 0
	call	__floatdidf
.LVL287:
	mv	a2,a0
	mv	a3,a1
.LVL288:
.LBB118:
.LBB119:
	.loc 1 473 3 is_stmt 1
	.loc 1 473 73 is_stmt 0
	beq	s9,zero,.L199
.LVL289:
	mv	a2,s4
	mv	a3,s5
	call	__divdf3
.LVL290:
.L200:
.LBE119:
.LBE118:
	.loc 1 506 10
	mv	a3,a1
	mv	a2,a0
	mv	a1,s6
	mv	a0,s7
	call	__subdf3
.LVL291:
	.loc 1 507 10
	lui	a5,%hi(.LANCHOR0)
	addi	a5,a5,%lo(.LANCHOR0)
	addsl	a5, a5, s1, 3
	lw	s8,0(a5)
	lw	s9,4(a5)
	.loc 1 506 10
	mv	s4,a0
.LVL292:
	mv	s5,a1
.LVL293:
	.loc 1 507 3 is_stmt 1
	.loc 1 508 3
	.loc 1 508 49 is_stmt 0
	li	a2,16
	addi	a1,sp,104
	addi	a0,sp,80
	call	memcpy
.LVL294:
	mv	a2,s8
	mv	a3,s9
	addi	a1,sp,80
	addi	a0,sp,120
	call	update_normalization
.LVL295:
	.loc 1 509 3 is_stmt 1
.LBB121:
.LBB122:
	.loc 1 468 66 is_stmt 0
	lbu	a5,128(sp)
	lw	a2,120(sp)
	lw	a3,124(sp)
.LVL296:
	.loc 1 468 3 is_stmt 1
	.loc 1 468 66 is_stmt 0
	mv	a0,s4
	mv	a1,s5
	beq	a5,zero,.L201
	call	__muldf3
.LVL297:
.L262:
	mv	s4,a0
.LVL298:
	mv	s5,a1
.LVL299:
.LBE122:
.LBE121:
	.loc 1 510 3 is_stmt 1
	.loc 1 512 3
	lui	s6,%hi(.LC0)
.LVL300:
	.loc 1 512 6 is_stmt 0
	bne	s1,zero,.L203
	.loc 1 513 5 is_stmt 1
.LVL301:
	.loc 1 514 5
	.loc 1 514 46 is_stmt 0
	lw	s7,%lo(.LC0+4)(s6)
	lw	s6,%lo(.LC0)(s6)
	li	s9,0
	mv	a3,s7
	mv	a2,s6
	call	__gedf2
.LVL302:
	srai	a3,a0,31
	not	a2,a3
	srli	s8,a2,31
.LVL303:
	.loc 1 515 8
	mv	a3,s7
	mv	a2,s6
	mv	a0,s4
	mv	a1,s5
	.loc 1 514 25
	add64	s2,s2,s8
.LVL304:
	.loc 1 515 5 is_stmt 1
	.loc 1 515 8 is_stmt 0
	call	__eqdf2
.LVL305:
	bne	a0,zero,.L260
	.loc 1 517 7 is_stmt 1
	.loc 1 517 27 is_stmt 0
	andi	a4,s2,-2
	mv	s2,a4
.LVL306:
.L260:
	.loc 1 513 27
	li	s4,0
	li	s5,0
	.loc 1 536 3 is_stmt 1
.LVL307:
.LBE114:
.LBE113:
	.loc 1 707 3
	j	.L196
.LVL308:
.L197:
.LBB128:
.LBB127:
.LBB124:
.LBB117:
	.loc 1 468 66 is_stmt 0
	call	__divdf3
.LVL309:
	j	.L198
.LVL310:
.L199:
.LBE117:
.LBE124:
.LBB125:
.LBB120:
	.loc 1 473 73
	mv	a0,s4
	mv	a1,s5
	call	__muldf3
.LVL311:
	j	.L200
.LVL312:
.L201:
.LBE120:
.LBE125:
.LBB126:
.LBB123:
	.loc 1 468 66
	call	__divdf3
.LVL313:
	j	.L262
.LVL314:
.L203:
.LBE123:
.LBE126:
	.loc 1 521 5 is_stmt 1
	.loc 1 521 29 is_stmt 0
	call	__fixdfdi
.LVL315:
	sw	a0,72(sp)
	sw	a1,76(sp)
.LVL316:
	.loc 1 522 5 is_stmt 1
	.loc 1 522 22 is_stmt 0
	call	__floatdidf
.LVL317:
	mv	a2,a0
	mv	a3,a1
	mv	a0,s4
	mv	a1,s5
	call	__subdf3
.LVL318:
	.loc 1 524 48
	lw	s7,%lo(.LC0+4)(s6)
	lw	s6,%lo(.LC0)(s6)
	.loc 1 522 22
	sw	a1,68(sp)
.LVL319:
	.loc 1 524 5 is_stmt 1
	.loc 1 524 48 is_stmt 0
	mv	a3,s7
	mv	a2,s6
	.loc 1 522 22
	sw	a0,64(sp)
.LVL320:
	.loc 1 524 48
	call	__gedf2
.LVL321:
	.loc 1 525 8
	lw	a4,64(sp)
	lw	a5,68(sp)
	.loc 1 524 48
	srai	a3,a0,31
	.loc 1 524 27
	lw	a6,72(sp)
	lw	a7,76(sp)
	.loc 1 524 48
	not	a2,a3
	srli	s4,a2,31
	li	s5,0
	.loc 1 525 8
	mv	a2,s6
	mv	a3,s7
	mv	a0,a4
	mv	a1,a5
	.loc 1 524 27
	add64	s4,s4,a6
.LVL322:
	.loc 1 525 5 is_stmt 1
	.loc 1 525 8 is_stmt 0
	call	__eqdf2
.LVL323:
	bne	a0,zero,.L208
	.loc 1 527 7 is_stmt 1
	.loc 1 527 29 is_stmt 0
	andi	a4,s4,-2
	mv	s4,a4
.LVL324:
.L208:
	.loc 1 531 5 is_stmt 1
	.loc 1 531 9 is_stmt 0
	mv	a0,s4
	mv	a1,s5
	call	__floatdidf
.LVL325:
	mv	a2,a0
	mv	a3,a1
	.loc 1 531 8
	mv	a0,s8
	mv	a1,s9
	call	__ledf2
.LVL326:
	bgt	a0,zero,.L196
	.loc 1 532 7 is_stmt 1
.LVL327:
	.loc 1 533 7
	li	a4,1
	li	a5,0
	add64	s2,s2,a4
.LVL328:
	j	.L260
.LVL329:
.L195:
.LBE127:
.LBE128:
	.loc 1 708 5
	.loc 1 708 17 is_stmt 0
	li	s7,4096
	addi	s7,s7,-2048
	and	s7,s11,s7
	.loc 1 708 8
	beq	s7,zero,.L211
	.loc 1 708 32 discriminator 1
	li	a5,-1
	.loc 1 725 71 discriminator 1
	li	s7,0
	.loc 1 708 32 discriminator 1
	blt	s0,a5,.L211
	.loc 1 708 83 discriminator 2
	mv	a0,s2
	mv	a1,s3
	call	__floatdidf
.LVL330:
	.loc 1 708 98 discriminator 2
	lui	a5,%hi(.LANCHOR0)
	.loc 1 708 105 discriminator 2
	addi	s6,s0,1
	.loc 1 708 98 discriminator 2
	addi	a5,a5,%lo(.LANCHOR0)
	addsl	a5, a5, s6, 3
	.loc 1 708 47 discriminator 2
	lw	a2,0(a5)
	lw	a3,4(a5)
	call	__eqdf2
.LVL331:
	bne	a0,zero,.L211
	.loc 1 709 7 is_stmt 1
.LVL332:
	.loc 1 710 7
	.loc 1 710 16 is_stmt 0
	addi	s1,s1,-1
.LVL333:
	.loc 1 709 12
	mv	s0,s6
.LVL334:
.L211:
	.loc 1 727 3 is_stmt 1 discriminator 8
	.loc 1 728 13 is_stmt 0 discriminator 8
	andi	s6,s11,2
	.loc 1 731 10 discriminator 8
	beq	s6,zero,.L215
	.loc 1 731 10
	li	a5,0
	.loc 1 728 27
	bne	s7,zero,.L216
.L215:
	.loc 1 737 34
	lw	a4,56(sp)
	.loc 1 731 10
	li	a5,0
	.loc 1 737 34
	bgeu	s7,a4,.L216
	.loc 1 737 34 discriminator 1
	sub	a5,a4,s7
.L216:
.LVL335:
	.loc 1 742 3 is_stmt 1
	.loc 1 743 3
	.loc 1 743 9 is_stmt 0
	lw	a4,216(sp)
	sw	a5,8(sp)
	lw	a5,48(sp)
.LVL336:
	sw	a4,20(sp)
	lw	a4,212(sp)
	lw	a7,52(sp)
	lw	a6,44(sp)
	sw	a4,16(sp)
	lw	a4,60(sp)
	sw	a5,0(sp)
	mv	a2,s4
	sw	s11,12(sp)
	sw	s1,4(sp)
	mv	a5,s10
	mv	a3,s5
	mv	a0,s2
	mv	a1,s3
	call	print_broken_up_decimal.isra.0
.LVL337:
	mv	a2,a0
.LVL338:
	.loc 1 745 3 is_stmt 1
	.loc 1 745 6 is_stmt 0
	bne	s8,zero,.L179
	.loc 1 746 5 is_stmt 1
	.loc 1 746 16 is_stmt 0
	andi	s11,s11,32
.LVL339:
	.loc 1 746 5
	li	a0,69
.LVL340:
	bne	s11,zero,.L218
	li	a0,101
.L218:
	.loc 1 746 5 discriminator 4
	lw	a1,44(sp)
	lw	a3,48(sp)
	addi	s1,a2,1
.LVL341:
	jalr	s10
.LVL342:
	.loc 1 747 5 is_stmt 1 discriminator 4
	srai	a1,s0,31
	.loc 1 747 11 is_stmt 0 discriminator 4
	ble	s0,zero,.L219
	.loc 1 747 11 discriminator 1
	mv	a4,s0
	mv	a5,a1
.L220:
	.loc 1 747 11 discriminator 4
	li	a3,5
	sw	a3,8(sp)
	lw	a1,44(sp)
	lw	a3,48(sp)
	addi	s7,s7,-1
.LVL343:
	mv	a2,s1
	sw	s7,4(sp)
	sw	zero,0(sp)
	li	a7,10
	srli	a6,s0,31
	mv	a0,s10
	call	print_integer
.LVL344:
	mv	a2,a0
.LVL345:
	.loc 1 751 5 is_stmt 1 discriminator 4
	.loc 1 751 8 is_stmt 0 discriminator 4
	beq	s6,zero,.L179
	lw	a5,52(sp)
	sub	s0,a0,a5
.LVL346:
.L221:
	lw	a5,52(sp)
	add	a2,a5,s0
.LVL347:
	.loc 1 753 13 is_stmt 1 discriminator 1
	lw	a5,56(sp)
	bgtu	a5,s0,.L222
.LVL348:
.L179:
	.loc 1 757 1 is_stmt 0
	lw	ra,204(sp)
	.cfi_remember_state
	.cfi_restore 1
	lw	s0,200(sp)
	.cfi_restore 8
	lw	s1,196(sp)
	.cfi_restore 9
	lw	s2,192(sp)
	.cfi_restore 18
	lw	s3,188(sp)
	.cfi_restore 19
	lw	s4,184(sp)
	.cfi_restore 20
.LVL349:
	lw	s5,180(sp)
	.cfi_restore 21
	lw	s6,176(sp)
	.cfi_restore 22
	lw	s7,172(sp)
	.cfi_restore 23
	lw	s8,168(sp)
	.cfi_restore 24
	lw	s9,164(sp)
	.cfi_restore 25
	lw	s10,160(sp)
	.cfi_restore 26
.LVL350:
	lw	s11,156(sp)
	.cfi_restore 27
	mv	a0,a2
	addi	sp,sp,208
	.cfi_def_cfa_offset 0
.LVL351:
	jr	ra
.LVL352:
.L219:
	.cfi_restore_state
	.loc 1 748 72 discriminator 2
	mv	a2,s0
	mv	a3,a1
	.loc 1 748 70 discriminator 2
	li	a4,0
	li	a5,0
	sub64	a4,a4,a2
	j	.L220
.LVL353:
.L222:
	.loc 1 753 39 is_stmt 1 discriminator 2
	lw	a3,48(sp)
	lw	a1,44(sp)
	li	a0,32
	addi	s0,s0,1
.LVL354:
	jalr	s10
.LVL355:
	j	.L221
.LVL356:
.L186:
	.loc 1 698 3
	.loc 1 698 39 is_stmt 0
	bge	s0,zero,.L223
	li	s9,1
	.loc 1 682 7
	li	s8,0
	.loc 1 698 39
	bne	s2,zero,.L193
	j	.L225
	.cfi_endproc
.LFE24:
	.size	print_exponential_number, .-print_exponential_number
	.section	.rodata.print_floating_point.str1.4,"aMS",@progbits,1
	.align	2
.LC13:
	.string	"fni"
	.align	2
.LC14:
	.string	"fni+"
	.globl	__nedf2
	.align	2
.LC15:
	.string	"nan"
	.align	2
.LC17:
	.string	"fni-"
	.section	.text.print_floating_point,"ax",@progbits
	.align	1
	.type	print_floating_point, @function
print_floating_point:
.LFB25:
	.loc 1 762 1 is_stmt 1
	.cfi_startproc
.LVL357:
	.loc 1 763 3
	.loc 1 764 3
	.loc 1 767 3
	.loc 1 762 1 is_stmt 0
	addi	sp,sp,-160
	.cfi_def_cfa_offset 160
	sw	s4,136(sp)
	sw	s5,132(sp)
	sw	s6,128(sp)
	sw	s7,124(sp)
	.cfi_offset 20, -24
	.cfi_offset 21, -28
	.cfi_offset 22, -32
	.cfi_offset 23, -36
	mv	s4,a0
	mv	s5,a1
	mv	s6,a2
	mv	s7,a3
	.loc 1 767 6
	mv	a2,a4
.LVL358:
	mv	a3,a5
.LVL359:
	mv	a0,a4
.LVL360:
	mv	a1,a5
.LVL361:
	.loc 1 762 1
	sw	s0,152(sp)
	sw	s1,148(sp)
	sw	s2,144(sp)
	sw	s3,140(sp)
	sw	s8,120(sp)
	sw	s11,108(sp)
	sw	ra,156(sp)
	sw	s9,116(sp)
	sw	s10,112(sp)
	.cfi_offset 8, -8
	.cfi_offset 9, -12
	.cfi_offset 18, -16
	.cfi_offset 19, -20
	.cfi_offset 24, -40
	.cfi_offset 27, -52
	.cfi_offset 1, -4
	.cfi_offset 25, -44
	.cfi_offset 26, -48
	.loc 1 762 1
	lw	s3,160(sp)
	lbu	s11,164(sp)
	mv	s0,a4
	mv	s1,a5
	mv	s2,a6
	mv	s8,a7
	.loc 1 767 6
	call	__nedf2
.LVL362:
	beq	a0,zero,.L286
	.loc 1 768 5 is_stmt 1
	.loc 1 768 12 is_stmt 0
	lui	a4,%hi(.LC15)
	mv	a7,s3
	mv	a6,s8
	li	a5,3
	addi	a4,a4,%lo(.LC15)
.L291:
	.loc 1 802 1 discriminator 8
	lw	s0,152(sp)
	.cfi_remember_state
	.cfi_restore 8
	lw	ra,156(sp)
	.cfi_restore 1
	lw	s1,148(sp)
	.cfi_restore 9
	lw	s2,144(sp)
	.cfi_restore 18
.LVL363:
	lw	s3,140(sp)
	.cfi_restore 19
	lw	s8,120(sp)
	.cfi_restore 24
.LVL364:
	lw	s9,116(sp)
	.cfi_restore 25
	lw	s10,112(sp)
	.cfi_restore 26
	lw	s11,108(sp)
	.cfi_restore 27
	.loc 1 772 12 discriminator 8
	mv	a3,s7
	mv	a2,s6
	.loc 1 802 1 discriminator 8
	lw	s7,124(sp)
	.cfi_restore 23
.LVL365:
	lw	s6,128(sp)
	.cfi_restore 22
.LVL366:
	.loc 1 772 12 discriminator 8
	mv	a1,s5
	mv	a0,s4
	.loc 1 802 1 discriminator 8
	lw	s5,132(sp)
	.cfi_restore 21
.LVL367:
	lw	s4,136(sp)
	.cfi_restore 20
.LVL368:
	addi	sp,sp,160
	.cfi_def_cfa_offset 0
.LVL369:
	.loc 1 772 12 discriminator 8
	tail	out_rev_
.LVL370:
.L286:
	.cfi_restore_state
	.loc 1 769 3 is_stmt 1
	.loc 1 769 6 is_stmt 0
	lui	a5,%hi(.LC16)
	lw	a2,%lo(.LC16)(a5)
	lw	a3,%lo(.LC16+4)(a5)
	mv	a0,s0
	mv	a1,s1
	call	__ltdf2
.LVL371:
	bge	a0,zero,.L287
	.loc 1 770 5 is_stmt 1
	.loc 1 770 12 is_stmt 0
	lui	a4,%hi(.LC17)
	mv	a7,s3
	mv	a6,s8
	li	a5,4
	addi	a4,a4,%lo(.LC17)
	j	.L291
.L287:
	.loc 1 771 3 is_stmt 1
	.loc 1 771 6 is_stmt 0
	lui	a5,%hi(.LC18)
	lw	a2,%lo(.LC18)(a5)
	lw	a3,%lo(.LC18+4)(a5)
	mv	a0,s0
	mv	a1,s1
	call	__gtdf2
.LVL372:
	ble	a0,zero,.L288
	.loc 1 772 5 is_stmt 1
	.loc 1 772 54 is_stmt 0
	andi	a5,s3,4
	.loc 1 772 12
	beq	a5,zero,.L281
	lui	a4,%hi(.LC14)
	addi	a4,a4,%lo(.LC14)
	li	a5,4
.L270:
	.loc 1 772 12 discriminator 8
	mv	a7,s3
	mv	a6,s8
	j	.L291
.L281:
	.loc 1 772 12
	lui	a4,%hi(.LC13)
	addi	a4,a4,%lo(.LC13)
	li	a5,3
	j	.L270
.L288:
	.loc 1 774 3 is_stmt 1
	addi	s10,sp,64
	.loc 1 774 6 is_stmt 0
	bne	s11,zero,.L271
	.loc 1 774 27 discriminator 1
	lui	a5,%hi(.LC19)
	lw	a2,%lo(.LC19)(a5)
	lw	a3,%lo(.LC19+4)(a5)
	mv	a0,s0
	mv	a1,s1
	call	__gtdf2
.LVL373:
	bgt	a0,zero,.L272
	.loc 1 774 45 discriminator 2
	lui	a5,%hi(.LC20)
	lw	a2,%lo(.LC20)(a5)
	lw	a3,%lo(.LC20+4)(a5)
	mv	a0,s0
	mv	a1,s1
	call	__ltdf2
.LVL374:
	bge	a0,zero,.L271
.L272:
	.loc 1 779 5 is_stmt 1
	.loc 1 779 12 is_stmt 0
	sw	zero,8(sp)
.LVL375:
.L290:
	.loc 1 799 7 discriminator 1
	sw	s10,4(sp)
	sw	s3,0(sp)
	mv	a7,s8
	mv	a6,s2
	mv	a4,s0
	mv	a5,s1
	mv	a3,s7
	mv	a2,s6
	mv	a1,s5
	mv	a0,s4
	call	print_exponential_number
.LVL376:
.L263:
	.loc 1 802 1
	lw	ra,156(sp)
	.cfi_remember_state
	.cfi_restore 1
	lw	s0,152(sp)
	.cfi_restore 8
	lw	s1,148(sp)
	.cfi_restore 9
	lw	s2,144(sp)
	.cfi_restore 18
	lw	s3,140(sp)
	.cfi_restore 19
	lw	s4,136(sp)
	.cfi_restore 20
.LVL377:
	lw	s5,132(sp)
	.cfi_restore 21
.LVL378:
	lw	s6,128(sp)
	.cfi_restore 22
.LVL379:
	lw	s7,124(sp)
	.cfi_restore 23
.LVL380:
	lw	s8,120(sp)
	.cfi_restore 24
.LVL381:
	lw	s9,116(sp)
	.cfi_restore 25
	lw	s10,112(sp)
	.cfi_restore 26
	lw	s11,108(sp)
	.cfi_restore 27
	addi	sp,sp,160
	.cfi_def_cfa_offset 0
.LVL382:
	jr	ra
.LVL383:
.L271:
	.cfi_restore_state
	.loc 1 786 3 is_stmt 1
	.loc 1 786 15 is_stmt 0
	andi	a5,s3,1024
	.loc 1 786 6
	beq	a5,zero,.L275
.LVL384:
.L276:
	.loc 1 787 15 discriminator 1
	li	s9,0
	.loc 1 791 21 discriminator 1
	li	a5,17
	.loc 1 792 16 discriminator 1
	li	a4,48
	.loc 1 791 9 discriminator 1
	li	a3,32
.LVL385:
.L277:
	.loc 1 791 21 discriminator 1
	bleu	s2,a5,.L278
	.loc 1 792 5 is_stmt 1
.LVL386:
	.loc 1 792 16 is_stmt 0
	srb	a4,s10,s9,0
	.loc 1 793 5 is_stmt 1
	.loc 1 791 9 is_stmt 0
	addi	s9,s9,1
.LVL387:
	.loc 1 793 14
	addi	s2,s2,-1
.LVL388:
	.loc 1 791 9 is_stmt 1
	bne	s9,a3,.L277
.LVL389:
.L278:
	.loc 1 796 3
	.loc 1 799 100 is_stmt 0
	beq	s11,zero,.L280
	.loc 1 799 7 discriminator 1
	sw	s9,8(sp)
	j	.L290
.LVL390:
.L275:
	.loc 1 787 15
	li	s2,6
.LVL391:
	j	.L276
.LVL392:
.L280:
.LBB131:
.LBB132:
	.loc 1 628 3 is_stmt 1
	.loc 1 628 37 is_stmt 0
	mv	a3,s2
	mv	a1,s0
	mv	a2,s1
	addi	a0,sp,40
	call	get_components
.LVL393:
	.loc 1 629 3 is_stmt 1
	.loc 1 629 10 is_stmt 0
	lbu	a4,56(sp)
	lw	a2,48(sp)
	lw	a3,52(sp)
	lw	a0,40(sp)
	lw	a1,44(sp)
	sw	s9,20(sp)
	sw	s10,16(sp)
	sw	s3,12(sp)
	sw	s8,8(sp)
	sw	s2,4(sp)
	sw	s7,0(sp)
	mv	a7,s6
	mv	a6,s5
	mv	a5,s4
	call	print_broken_up_decimal.isra.0
.LVL394:
	j	.L263
.LBE132:
.LBE131:
	.cfi_endproc
.LFE25:
	.size	print_floating_point, .-print_floating_point
	.section	.rodata.__vsnprintf.str1.4,"aMS",@progbits,1
	.align	2
.LC21:
	.string	")llun("
	.align	2
.LC22:
	.string	")lin("
	.section	.text.__vsnprintf,"ax",@progbits
	.align	1
	.type	__vsnprintf, @function
__vsnprintf:
.LFB26:
	.loc 1 808 1 is_stmt 1
	.cfi_startproc
.LVL395:
	addi	sp,sp,-144
	.cfi_def_cfa_offset 144
	sw	s1,132(sp)
	sw	s7,108(sp)
	sw	s8,104(sp)
	sw	s9,100(sp)
	sw	s10,96(sp)
	sw	ra,140(sp)
	sw	s0,136(sp)
	sw	s2,128(sp)
	sw	s3,124(sp)
	sw	s4,120(sp)
	sw	s5,116(sp)
	sw	s6,112(sp)
	sw	s11,92(sp)
	.cfi_offset 9, -12
	.cfi_offset 23, -36
	.cfi_offset 24, -40
	.cfi_offset 25, -44
	.cfi_offset 26, -48
	.cfi_offset 1, -4
	.cfi_offset 8, -8
	.cfi_offset 18, -16
	.cfi_offset 19, -20
	.cfi_offset 20, -24
	.cfi_offset 21, -28
	.cfi_offset 22, -32
	.cfi_offset 27, -52
	.loc 1 808 1 is_stmt 0
	mv	s8,a0
	mv	s7,a1
	mv	s10,a2
	mv	s9,a3
	.loc 1 809 3 is_stmt 1
	.loc 1 810 3
.LVL396:
	.loc 1 812 3
	.loc 1 808 1 is_stmt 0
	mv	s1,a4
	.loc 1 812 6
	bne	a1,zero,.L293
	.loc 1 812 17 discriminator 1
	lui	a5,%hi(out_console)
	addi	a5,a5,%lo(out_console)
	beq	a0,a5,.L293
	.loc 1 814 9
	lui	s8,%hi(out_discard)
	addi	s8,s8,%lo(out_discard)
.L293:
.LVL397:
	li	a5,65536
	addi	a5,a5,-1
	sw	a5,56(sp)
	.loc 1 911 5
	li	a5,36864
	addi	a5,a5,65
	.loc 1 1074 9
	li	t1,0
	.loc 1 911 5
	sw	a5,60(sp)
	j	.L393
.LVL398:
.L394:
	.loc 1 820 5 is_stmt 1
	.loc 1 820 8 is_stmt 0
	li	a5,37
	.loc 1 823 13
	addi	s9,s9,1
.LVL399:
	.loc 1 820 8
	beq	a0,a5,.L399
.LVL400:
.L328:
	.loc 1 1074 9 is_stmt 1
	addi	s0,t1,1
.LVL401:
	mv	a3,s10
	mv	a2,t1
	mv	a1,s7
	j	.L449
.LVL402:
.L399:
	.loc 1 832 11 is_stmt 0
	li	s0,0
	.loc 1 834 7
	li	a5,43
	li	a2,45
	li	a0,48
	li	a6,32
	li	a7,35
	j	.L294
.LVL403:
.L297:
	beq	a4,a2,.L301
	bne	a4,a0,.L300
	.loc 1 835 19 is_stmt 1
	.loc 1 835 25 is_stmt 0
	ori	s0,s0,1
.LVL404:
	.loc 1 835 40 is_stmt 1
	.loc 1 835 50
	.loc 1 835 58
	.loc 1 842 13
.L305:
.LBB158:
	.loc 1 858 13 is_stmt 0
	mv	s9,a3
.LVL405:
.L294:
.LBE158:
	.loc 1 833 5 is_stmt 1
	.loc 1 834 7
	.loc 1 834 15 is_stmt 0
	mv	a3,s9
	lbuia	a4,(a3),1,0
	.loc 1 834 7
	beq	a4,a5,.L296
	bgtu	a4,a5,.L297
	beq	a4,a6,.L298
	beq	a4,a7,.L299
.L300:
.LVL406:
	.loc 1 842 13 is_stmt 1
	.loc 1 845 5
	.loc 1 846 5
.LBB159:
.LBB160:
	.loc 1 259 3
	.loc 1 259 22 is_stmt 0
	addi	a5,a4,-48
.LBE160:
.LBE159:
	.loc 1 846 8
	andi	a5,a5,0xff
	li	a2,9
	bgtu	a5,a2,.L437
.LBB161:
.LBB162:
	.loc 1 266 16
	li	s6,0
	.loc 1 267 9
	li	a0,9
	.loc 1 268 11
	li	a6,10
	j	.L303
.LVL407:
.L301:
.LBE162:
.LBE161:
	.loc 1 836 19 is_stmt 1
	.loc 1 836 25 is_stmt 0
	ori	s0,s0,2
.LVL408:
	.loc 1 836 40 is_stmt 1
	.loc 1 836 50
	.loc 1 836 58
	.loc 1 842 13
	j	.L305
.LVL409:
.L296:
	.loc 1 837 19
	.loc 1 837 25 is_stmt 0
	ori	s0,s0,4
.LVL410:
	.loc 1 837 40 is_stmt 1
	.loc 1 837 50
	.loc 1 837 58
	.loc 1 842 13
	j	.L305
.LVL411:
.L298:
	.loc 1 838 19
	.loc 1 838 25 is_stmt 0
	ori	s0,s0,8
.LVL412:
	.loc 1 838 40 is_stmt 1
	.loc 1 838 50
	.loc 1 838 58
	.loc 1 842 13
	j	.L305
.LVL413:
.L299:
	.loc 1 839 19
	.loc 1 839 25 is_stmt 0
	ori	s0,s0,16
.LVL414:
	.loc 1 839 40 is_stmt 1
	.loc 1 839 50
	.loc 1 839 58
	.loc 1 842 13
	j	.L305
.LVL415:
.L306:
.LBB166:
.LBB165:
	.loc 1 268 5
	mula	a4,s6,a6
	.loc 1 268 42 is_stmt 0
	mv	s9,a2
.LVL416:
	.loc 1 268 7
	addi	s6,a4,-48
.LVL417:
.L303:
	.loc 1 267 9 is_stmt 1
	.loc 1 267 10 is_stmt 0
	mv	a2,s9
	lbuia	a4,(a2),1,0
.LVL418:
.LBB163:
.LBB164:
	.loc 1 259 3 is_stmt 1
	.loc 1 259 22 is_stmt 0
	addi	a3,a4,-48
.LBE164:
.LBE163:
	.loc 1 267 9
	andi	a3,a3,0xff
	bleu	a3,a0,.L306
.LVL419:
.L307:
.LBE165:
.LBE166:
	.loc 1 862 5 is_stmt 1
	.loc 1 863 5
	.loc 1 863 8 is_stmt 0
	lbu	a3,0(s9)
	li	a4,46
	bne	a3,a4,.L402
	.loc 1 866 11
	lbu	a2,1(s9)
	.loc 1 866 10
	li	a0,9
	.loc 1 865 13
	addi	a4,s9,1
	.loc 1 864 7 is_stmt 1
.LBB167:
.LBB168:
	.loc 1 259 22 is_stmt 0
	addi	a3,a2,-48
.LBE168:
.LBE167:
	.loc 1 866 10
	andi	a3,a3,0xff
	.loc 1 864 13
	ori	s0,s0,1024
.LVL420:
	.loc 1 865 7 is_stmt 1
	.loc 1 866 7
.LBB170:
.LBB169:
	.loc 1 259 3
.LBE169:
.LBE170:
	.loc 1 866 10 is_stmt 0
	bgtu	a3,a0,.L438
.LBB171:
.LBB172:
	.loc 1 266 16
	li	a6,0
	.loc 1 267 9
	li	a7,9
	.loc 1 268 11
	li	t3,10
	j	.L311
.LVL421:
.L437:
.LBE172:
.LBE171:
	.loc 1 849 10 is_stmt 1
	.loc 1 849 13 is_stmt 0
	li	a2,42
	.loc 1 845 11
	li	s6,0
	.loc 1 849 13
	bne	a4,a2,.L307
.LBB176:
	.loc 1 850 7 is_stmt 1
.LVL422:
	.loc 1 850 17 is_stmt 0
	lwia	s6,(s1),4,0
.LVL423:
	.loc 1 851 7 is_stmt 1
	.loc 1 851 10 is_stmt 0
	bge	s6,zero,.L309
	.loc 1 852 9 is_stmt 1
	.loc 1 852 15 is_stmt 0
	ori	s0,s0,2
.LVL424:
	.loc 1 853 9 is_stmt 1
	.loc 1 853 31 is_stmt 0
	neg	s6,s6
.LVL425:
.L309:
	.loc 1 858 7 is_stmt 1
	.loc 1 850 17 is_stmt 0
	mv	s9,a3
	j	.L307
.LVL426:
.L313:
.LBE176:
.LBB177:
.LBB175:
	.loc 1 268 5 is_stmt 1
	mula	a3,a6,t3
	.loc 1 268 42 is_stmt 0
	mv	a4,a0
.LVL427:
	.loc 1 268 7
	addi	a6,a3,-48
.LVL428:
.L311:
	.loc 1 267 9 is_stmt 1
	.loc 1 267 10 is_stmt 0
	mv	a0,a4
	lbuia	a3,(a0),1,0
.LVL429:
.LBB173:
.LBB174:
	.loc 1 259 3 is_stmt 1
	.loc 1 259 22 is_stmt 0
	addi	a2,a3,-48
.LBE174:
.LBE173:
	.loc 1 267 9
	andi	a2,a2,0xff
	bleu	a2,a7,.L313
.LVL430:
.L310:
.LBE175:
.LBE177:
	.loc 1 877 5 is_stmt 1
	.loc 1 877 13 is_stmt 0
	mv	s9,a4
	lbuia	a3,(s9),1,0
	.loc 1 877 5
	li	a2,108
	beq	a3,a2,.L315
	bgtu	a3,a2,.L316
	li	a2,104
	beq	a3,a2,.L317
	li	a2,106
	beq	a3,a2,.L318
.L440:
	mv	s9,a4
.LVL431:
.L319:
	.loc 1 911 5 is_stmt 1
	.loc 1 911 13 is_stmt 0
	lbuia	a0,(s9),1,0
.LVL432:
	.loc 1 911 5
	li	a4,101
	beq	a0,a4,.L323
	bgtu	a0,a4,.L324
	li	a4,70
	beq	a0,a4,.L325
	bgtu	a0,a4,.L326
	li	a4,37
	beq	a0,a4,.L327
	li	a4,69
.L447:
	bne	a0,a4,.L328
.L323:
	.loc 1 998 9 is_stmt 1 discriminator 2
	.loc 1 998 29 is_stmt 0 discriminator 2
	andi	a4,a0,223
	li	a3,71
	bne	a4,a3,.L445
	.loc 1 998 49 is_stmt 1 discriminator 3
	.loc 1 998 55 is_stmt 0 discriminator 3
	li	a5,4096
	addi	a5,a5,-2048
	or	s0,s0,a5
.LVL433:
	.loc 1 999 9 is_stmt 1 discriminator 3
	.loc 1 999 12 is_stmt 0 discriminator 3
	andi	a0,a0,253
.L445:
	li	a4,69
	bne	a0,a4,.L358
	.loc 1 999 49 is_stmt 1 discriminator 3
	.loc 1 999 55 is_stmt 0 discriminator 3
	ori	s0,s0,32
.LVL434:
.L358:
	.loc 1 1000 9 is_stmt 1
	.loc 1 1000 15 is_stmt 0
	addi	s1,s1,7
	andi	a4,s1,-8
.LVL435:
	lw	a2,0(a4)
	lw	a3,4(a4)
	addi	s1,a4,8
.LVL436:
	li	a4,1
	sw	a4,4(sp)
	sw	s0,0(sp)
	mv	a7,s6
	mv	a4,a2
	mv	a5,a3
	j	.L452
.LVL437:
.L438:
	.loc 1 869 12 is_stmt 1
	.loc 1 869 15 is_stmt 0
	li	a3,42
	.loc 1 862 15
	li	a6,0
	.loc 1 869 15
	bne	a2,a3,.L310
.LBB178:
	.loc 1 870 9 is_stmt 1
.LVL438:
	.loc 1 871 9
	.loc 1 871 63 is_stmt 0
	lwia	a6,(s1),4,0
.LVL439:
	bge	a6,zero,.L314
	li	a6,0
.L314:
.LVL440:
	.loc 1 872 9 is_stmt 1
	.loc 1 872 15 is_stmt 0
	addi	a4,s9,2
.LVL441:
	j	.L310
.LVL442:
.L402:
.LBE178:
	mv	a4,s9
	.loc 1 862 15
	li	a6,0
	j	.L310
.LVL443:
.L316:
	.loc 1 877 5
	li	a2,116
	beq	a3,a2,.L320
	li	a2,122
	bne	a3,a2,.L440
.LVL444:
.L320:
	.loc 1 903 9 is_stmt 1
	.loc 1 903 15 is_stmt 0
	ori	s0,s0,256
.LVL445:
	.loc 1 904 9 is_stmt 1
	.loc 1 905 9
	j	.L319
.LVL446:
.L315:
	.loc 1 879 9
	.loc 1 880 9
	.loc 1 881 9
	.loc 1 881 12 is_stmt 0
	lbu	a2,1(a4)
	bne	a2,a3,.L320
	.loc 1 882 11 is_stmt 1
	.loc 1 882 17 is_stmt 0
	ori	s0,s0,768
.LVL447:
	.loc 1 883 11 is_stmt 1
.L441:
	.loc 1 891 11
	.loc 1 891 17 is_stmt 0
	addi	s9,a4,2
.LVL448:
	j	.L319
.LVL449:
.L317:
	.loc 1 887 9 is_stmt 1
	.loc 1 888 9
	.loc 1 889 9
	.loc 1 889 12 is_stmt 0
	lbu	a2,1(a4)
	beq	a2,a3,.L322
	.loc 1 887 15
	ori	s0,s0,128
.LVL450:
	j	.L319
.LVL451:
.L322:
	.loc 1 890 11 is_stmt 1
	.loc 1 890 17 is_stmt 0
	ori	s0,s0,192
.LVL452:
	j	.L441
.LVL453:
.L318:
	.loc 1 899 9 is_stmt 1
	.loc 1 899 15 is_stmt 0
	ori	s0,s0,512
.LVL454:
	.loc 1 900 9 is_stmt 1
	.loc 1 901 9
	j	.L319
.LVL455:
.L335:
	.loc 1 911 5 is_stmt 0
	lw	a5,60(sp)
	li	a3,1
	addi	a4,a0,-105
	sll	a4,a3,a4
	and	a3,a4,a5
	bne	a3,zero,.L329
	andi	a3,a4,1024
	bne	a3,zero,.L330
	andi	a4,a4,128
	beq	a4,zero,.L328
.LBB179:
	.loc 1 1058 9 is_stmt 1
.LVL456:
	.loc 1 1059 9
	.loc 1 1060 37 is_stmt 0
	lwia	a4,(s1),4,0
	.loc 1 1059 15
	li	a5,4096
	addi	a7,a5,1
	or	a7,s0,a7
.LVL457:
	.loc 1 1060 9 is_stmt 1
	.loc 1 1061 9
	.loc 1 1062 72 is_stmt 0
	bne	a4,zero,.L391
	.loc 1 1062 11 discriminator 1
	lui	a4,%hi(.LC22)
.LVL458:
	li	a6,10
.LVL459:
	li	a5,5
	addi	a4,a4,%lo(.LC22)
	j	.L451
.LVL460:
.L326:
.LBE179:
	.loc 1 911 5
	li	a4,99
	beq	a0,a4,.L332
	li	a4,100
	beq	a0,a4,.L329
	li	a4,88
	beq	a0,a4,.L333
	li	a4,98
.LBB180:
	.loc 1 928 16
	li	a7,2
.LBE180:
	.loc 1 911 5
	beq	a0,a4,.L398
	li	a4,71
	j	.L447
.L324:
	li	a4,120
	bgtu	a0,a4,.L328
	li	a4,104
	bgtu	a0,a4,.L335
	li	a4,102
	beq	a0,a4,.L336
	li	a4,103
	j	.L447
.L329:
.LBB186:
	.loc 1 920 9 is_stmt 1
	.loc 1 921 9
	.loc 1 921 12 is_stmt 0
	li	a4,120
	.loc 1 922 16
	li	a7,16
	.loc 1 921 12
	beq	a0,a4,.L337
	.loc 1 921 28 discriminator 1
	li	a4,88
	beq	a0,a4,.L333
	.loc 1 924 14 is_stmt 1
	.loc 1 924 17 is_stmt 0
	li	a4,111
	beq	a0,a4,.L407
	.loc 1 927 14 is_stmt 1
	.loc 1 927 17 is_stmt 0
	li	a4,98
	beq	a0,a4,.L408
	.loc 1 931 11 is_stmt 1
.LVL461:
	.loc 1 932 11
	.loc 1 940 12 is_stmt 0
	li	a4,105
	.loc 1 932 17
	andi	s0,s0,-17
.LVL462:
	.loc 1 935 9 is_stmt 1
	.loc 1 940 9
	.loc 1 931 16 is_stmt 0
	li	a7,10
	.loc 1 940 12
	beq	a0,a4,.L338
.LVL463:
.L398:
	.loc 1 940 30 discriminator 1
	li	a4,100
	beq	a0,a4,.L338
.L337:
	.loc 1 941 11 is_stmt 1
	.loc 1 941 17 is_stmt 0
	andi	s0,s0,-13
.LVL464:
.L338:
	.loc 1 945 9 is_stmt 1
	.loc 1 945 19 is_stmt 0
	andi	a4,s0,1024
	.loc 1 945 12
	beq	a4,zero,.L339
	.loc 1 946 11 is_stmt 1
	.loc 1 946 17 is_stmt 0
	andi	s0,s0,-2
.LVL465:
.L339:
	.loc 1 950 9 is_stmt 1
	.loc 1 950 12 is_stmt 0
	li	a3,105
	.loc 1 969 21
	andi	a4,s0,512
	.loc 1 950 12
	beq	a0,a3,.L340
	.loc 1 950 30 discriminator 1
	li	a3,100
	bne	a0,a3,.L341
.L340:
	.loc 1 952 11 is_stmt 1
	.loc 1 952 14 is_stmt 0
	beq	a4,zero,.L342
.LBB181:
	.loc 1 954 13 is_stmt 1
	.loc 1 954 29 is_stmt 0
	addi	s1,s1,7
	andi	s1,s1,-8
	lw	a4,4(s1)
	mv	s11,s1
.LVL466:
	.loc 1 955 13 is_stmt 1
	.loc 1 954 29 is_stmt 0
	lwia	a3,(s11),8,0
.LVL467:
	.loc 1 955 60
	srai	a5,a4,31
	sw	a5,20(sp)
	sw	a5,16(sp)
	xor	a5,a5,a3
	sw	a5,32(sp)
	lw	a5,20(sp)
	.loc 1 955 19
	lw	a2,16(sp)
	lw	a3,20(sp)
	.loc 1 955 60
	xor	a5,a5,a4
	sw	a5,36(sp)
	.loc 1 955 19
	lw	a5,36(sp)
	sw	a6,0(sp)
	srli	a6,a4,31
.LVL468:
	lw	a4,32(sp)
	sw	s0,8(sp)
	sw	s6,4(sp)
	sub64	a4,a4,a2
.LVL469:
.L443:
.LBE181:
.LBB182:
	.loc 1 979 19 discriminator 8
	mv	a2,t1
	mv	a3,s10
	mv	a1,s7
	mv	a0,s8
	call	print_integer
.LVL470:
	mv	t1,a0
.LVL471:
.LBE182:
	.loc 1 982 9 is_stmt 1 discriminator 8
	.loc 1 983 9 discriminator 8
	mv	s1,s11
.LVL472:
.L393:
.LBE186:
	.loc 1 817 9
	.loc 1 817 10 is_stmt 0
	lbu	a0,0(s9)
	.loc 1 817 9
	bne	a0,zero,.L394
	.loc 1 1080 3 is_stmt 1
	.loc 1 1080 5 is_stmt 0
	lui	a5,%hi(out_console)
	addi	a5,a5,%lo(out_console)
	beq	s8,a5,.L422
	.loc 1 1083 5 is_stmt 1
	mv	a2,t1
	bltu	t1,s10,.L396
	.loc 1 1083 5 is_stmt 0 discriminator 1
	addi	a2,s10,-1
.L396:
	sw	t1,16(sp)
	.loc 1 1083 5 discriminator 4
	mv	a3,s10
	mv	a1,s7
	li	a0,0
	jalr	s8
.LVL473:
	.loc 1 1087 3 is_stmt 1 discriminator 4
	.loc 1 1087 10 is_stmt 0 discriminator 4
	lw	t1,16(sp)
.L422:
	.loc 1 1088 1
	lw	ra,140(sp)
	.cfi_remember_state
	.cfi_restore 1
	lw	s0,136(sp)
	.cfi_restore 8
	lw	s1,132(sp)
	.cfi_restore 9
	lw	s2,128(sp)
	.cfi_restore 18
	lw	s3,124(sp)
	.cfi_restore 19
	lw	s4,120(sp)
	.cfi_restore 20
	lw	s5,116(sp)
	.cfi_restore 21
	lw	s6,112(sp)
	.cfi_restore 22
	lw	s7,108(sp)
	.cfi_restore 23
.LVL474:
	lw	s8,104(sp)
	.cfi_restore 24
.LVL475:
	lw	s9,100(sp)
	.cfi_restore 25
	lw	s10,96(sp)
	.cfi_restore 26
.LVL476:
	lw	s11,92(sp)
	.cfi_restore 27
	mv	a0,t1
	addi	sp,sp,144
	.cfi_def_cfa_offset 0
	jr	ra
.LVL477:
.L342:
	.cfi_restore_state
.LBB187:
	.loc 1 958 16 is_stmt 1
	.loc 1 958 26 is_stmt 0
	andi	a4,s0,256
	.loc 1 975 84
	addi	s11,s1,4
	.loc 1 958 19
	beq	a4,zero,.L344
.LBB183:
	.loc 1 959 13 is_stmt 1
	.loc 1 959 24 is_stmt 0
	lw	a4,0(s1)
	.loc 1 960 13 is_stmt 1
	srai	a3,a4,31
	.loc 1 960 19 is_stmt 0
	ble	a4,zero,.L345
	.loc 1 960 19 discriminator 1
	sw	a4,24(sp)
.L442:
	.loc 1 960 112 discriminator 2
	sw	a3,28(sp)
	.loc 1 960 19 discriminator 2
	sw	a6,0(sp)
	lw	a5,28(sp)
	srli	a6,a4,31
.LVL478:
	sw	s0,8(sp)
	lw	a4,24(sp)
	sw	s6,4(sp)
	j	.L443
.LVL479:
.L345:
	.loc 1 960 114 discriminator 2
	sw	a4,40(sp)
	sw	a3,44(sp)
	.loc 1 960 112 discriminator 2
	lw	a2,40(sp)
	lw	a3,44(sp)
	li	s2,0
	li	s3,0
	sub64	a2,s2,a2
	sw	a2,24(sp)
	j	.L442
.L344:
.LBE183:
.LBB184:
	.loc 1 963 13 is_stmt 1
	.loc 1 963 38 is_stmt 0
	andi	a3,s0,64
	lw	a4,0(s1)
	.loc 1 963 82
	beq	a3,zero,.L347
	ext	a4,a4,7,0
.L348:
.LVL480:
	.loc 1 964 13 is_stmt 1 discriminator 8
	srai	a3,a4,31
	.loc 1 964 19 is_stmt 0 discriminator 8
	ble	a4,zero,.L350
	.loc 1 964 19 discriminator 1
	mv	s4,a4
	mv	s5,a3
.L351:
	.loc 1 964 19 discriminator 4
	sw	a6,0(sp)
	sw	s0,8(sp)
	srli	a6,a4,31
.LVL481:
	sw	s6,4(sp)
	mv	a4,s4
.LVL482:
	mv	a5,s5
	j	.L443
.LVL483:
.L347:
	.loc 1 963 91 discriminator 2
	andi	a3,s0,128
	.loc 1 963 135 discriminator 2
	beq	a3,zero,.L348
	.loc 1 963 135
	ext	a4,a4,15,0
	j	.L348
.LVL484:
.L350:
	.loc 1 964 114 discriminator 2
	sw	a4,48(sp)
	sw	a3,52(sp)
	.loc 1 964 112 discriminator 2
	lw	a2,48(sp)
	lw	a3,52(sp)
	li	s4,0
	li	s5,0
	sub64	s4,s4,a2
	j	.L351
.LVL485:
.L341:
.LBE184:
	.loc 1 969 11 is_stmt 1
	.loc 1 969 14 is_stmt 0
	beq	a4,zero,.L352
	.loc 1 971 13 is_stmt 1
	.loc 1 971 19 is_stmt 0
	addi	s1,s1,7
	andi	s1,s1,-8
	lw	a4,0(s1)
	lw	a5,4(s1)
	addi	s11,s1,8
.LVL486:
	sw	a6,0(sp)
	sw	s0,8(sp)
	sw	s6,4(sp)
	li	a6,0
.LVL487:
	j	.L443
.LVL488:
.L352:
	.loc 1 974 16 is_stmt 1
	.loc 1 974 26 is_stmt 0
	andi	a4,s0,256
	.loc 1 975 84
	addi	s11,s1,4
	.loc 1 974 19
	beq	a4,zero,.L353
	.loc 1 975 13 is_stmt 1
	.loc 1 975 19 is_stmt 0
	lw	a4,0(s1)
.L355:
.LVL489:
.LBB185:
	.loc 1 979 13 is_stmt 1 discriminator 8
	.loc 1 979 19 is_stmt 0 discriminator 8
	sw	a6,0(sp)
	sw	s0,8(sp)
	sw	s6,4(sp)
	li	a6,0
.LVL490:
	li	a5,0
	j	.L443
.LVL491:
.L353:
	.loc 1 978 13 is_stmt 1
	.loc 1 978 47 is_stmt 0
	andi	a3,s0,64
	lw	a4,0(s1)
	.loc 1 978 102
	beq	a3,zero,.L354
	andi	a4,a4,255
	j	.L355
.L354:
	.loc 1 978 111 discriminator 2
	andi	a3,s0,128
	.loc 1 978 173 discriminator 2
	beq	a3,zero,.L355
	lw	a5,56(sp)
	and	a4,a4,a5
	j	.L355
.L325:
.LBE185:
.LBE187:
	.loc 1 988 9 is_stmt 1 discriminator 1
	.loc 1 988 29 discriminator 1
	.loc 1 988 35 is_stmt 0 discriminator 1
	ori	s0,s0,32
.LVL492:
.L336:
	.loc 1 989 9 is_stmt 1
	.loc 1 989 15 is_stmt 0
	addi	s1,s1,7
	andi	a4,s1,-8
.LVL493:
	lw	a5,4(a4)
	addi	s1,a4,8
.LVL494:
	mv	a7,s6
	lw	a4,0(a4)
	sw	zero,4(sp)
	sw	s0,0(sp)
.LVL495:
.L452:
	.loc 1 1000 15
	mv	a3,s10
	mv	a2,t1
	mv	a1,s7
	mv	a0,s8
	call	print_floating_point
.LVL496:
.L450:
.LBB188:
	.loc 1 1063 11
	mv	t1,a0
	.loc 1 1064 9 is_stmt 1
.LVL497:
	.loc 1 1065 9
	j	.L393
.LVL498:
.L332:
.LBE188:
.LBB189:
	.loc 1 1007 9
	.loc 1 1009 9
	.loc 1 1009 21 is_stmt 0
	andi	s0,s0,2
.LVL499:
	.loc 1 1007 22
	li	s11,1
	.loc 1 1009 12
	bne	s0,zero,.L360
	li	s11,0
	j	.L359
.LVL500:
.L361:
	sw	t1,64(sp)
	.loc 1 1011 13 is_stmt 1
.LVL501:
	mv	a3,s10
	mv	a1,s7
	li	a0,32
	jalr	s8
.LVL502:
	lw	t1,64(sp)
.LVL503:
.L359:
	add	a2,s11,t1
.LVL504:
	.loc 1 1010 17
	addi	s11,s11,1
.LVL505:
	bltu	s11,s6,.L361
	li	a4,0
	beq	s6,zero,.L363
	addi	a4,s6,-1
.L363:
	add	t1,t1,a4
	.loc 1 1010 19 is_stmt 0
	li	s11,2
.LVL506:
	beq	s6,zero,.L360
	addi	s11,s6,1
.LVL507:
.L360:
	.loc 1 1015 9 is_stmt 1
	lbuia	a0,(s1),4,0
.LVL508:
	mv	a3,s10
	mv	a2,t1
	mv	a1,s7
	addi	s2,t1,1
.LVL509:
	jalr	s8
.LVL510:
	.loc 1 1017 9
	.loc 1 1017 12 is_stmt 0
	beq	s0,zero,.L367
	mv	s0,s11
	.loc 1 1015 9
	mv	a2,s2
	j	.L366
.LVL511:
.L368:
	.loc 1 1019 13 is_stmt 1
	mv	a3,s10
	mv	a1,s7
	li	a0,32
	addi	s3,a2,1
.LVL512:
	jalr	s8
.LVL513:
	addi	s0,s0,1
.LVL514:
	mv	a2,s3
.LVL515:
.L366:
	.loc 1 1018 17
	bltu	s0,s6,.L368
	li	a3,0
	bltu	s6,s11,.L370
	sub	a3,s6,s11
.L370:
	add	s2,s2,a3
.LVL516:
.L367:
	.loc 1 1022 9
	.loc 1 1023 9
	mv	t1,s2
	j	.L393
.LVL517:
.L330:
.LBE189:
.LBB190:
	.loc 1 1027 9
	.loc 1 1027 21 is_stmt 0
	lwia	s3,(s1),4,0
.LVL518:
	.loc 1 1028 9 is_stmt 1
	.loc 1 1028 12 is_stmt 0
	bne	s3,zero,.L371
	.loc 1 1029 11 is_stmt 1
	.loc 1 1029 17 is_stmt 0
	lui	a4,%hi(.LC21)
	mv	a7,s0
	mv	a6,s6
.LVL519:
	li	a5,6
	addi	a4,a4,%lo(.LC21)
.LVL520:
.L451:
.LBE190:
.LBB198:
	.loc 1 1062 11 discriminator 1
	mv	a3,s10
	mv	a2,t1
	mv	a1,s7
	mv	a0,s8
	call	out_rev_
.LVL521:
	j	.L450
.LVL522:
.L371:
.LBE198:
.LBB199:
.LBB191:
	.loc 1 1032 11 is_stmt 1
	mv	a4,a6
	.loc 1 1032 28 is_stmt 0
	bne	a6,zero,.L373
.LVL523:
	li	a4,-1
.LVL524:
.L373:
	add	a3,s3,a4
	mv	a4,s3
.L374:
.LVL525:
.LBB192:
.LBB193:
	.loc 1 250 17 is_stmt 1
	.loc 1 250 3 is_stmt 0
	lbu	a2,0(a4)
	beq	a2,zero,.L375
	.loc 1 250 20
	bne	a3,a4,.L376
.L375:
	.loc 1 251 3 is_stmt 1
.LBE193:
.LBE192:
	.loc 1 1034 21 is_stmt 0
	andi	s11,s0,1024
.LBB196:
.LBB194:
	.loc 1 251 27
	sub	s2,a4,s3
.LVL526:
.LBE194:
.LBE196:
	.loc 1 1034 11 is_stmt 1
	.loc 1 1034 14 is_stmt 0
	beq	s11,zero,.L377
	.loc 1 1035 13 is_stmt 1
	.loc 1 1035 15 is_stmt 0
	sgtu	a3,s2,a6
	mvnez	s2, a6, a3
.LVL527:
.L377:
	.loc 1 1037 11 is_stmt 1
	.loc 1 1037 23 is_stmt 0
	andi	s0,s0,2
.LVL528:
	.loc 1 1037 14
	bne	s0,zero,.L380
	mv	a2,t1
	sub	t4,s2,t1
	j	.L379
.LVL529:
.L376:
.LBB197:
.LBB195:
	.loc 1 250 38 is_stmt 1
	.loc 1 250 34
	addi	a4,a4,1
.LVL530:
	j	.L374
.LVL531:
.L381:
.LBE195:
.LBE197:
	.loc 1 1039 15 is_stmt 0
	addi	t3,a2,1
	sw	t4,76(sp)
	sw	t1,72(sp)
	sw	a6,68(sp)
	.loc 1 1039 15 is_stmt 1
	sw	t3,64(sp)
.LVL532:
	mv	a3,s10
	mv	a1,s7
	li	a0,32
	jalr	s8
.LVL533:
	lw	t3,64(sp)
	lw	a6,68(sp)
	lw	t1,72(sp)
	lw	t4,76(sp)
	mv	a2,t3
.LVL534:
.L379:
	.loc 1 1038 19
	add	a3,a2,t4
	bltu	a3,s6,.L381
	li	a3,0
	bltu	s6,s2,.L383
	sub	a3,s6,s2
.L383:
.LVL535:
	addi	a4,s2,1
	add	t1,t1,a3
.LVL536:
	.loc 1 1038 21 is_stmt 0
	add	s2,a3,a4
.LVL537:
.L380:
	.loc 1 1043 19
	sub	s3,s3,t1
	j	.L384
.LVL538:
.L414:
	mv	a6,a3
.LVL539:
.L386:
	.loc 1 1044 13
	addi	a7,t1,1
	sw	a6,68(sp)
.LVL540:
	.loc 1 1044 13 is_stmt 1
	sw	a7,64(sp)
.LVL541:
	mv	a2,t1
	mv	a3,s10
	mv	a1,s7
	jalr	s8
.LVL542:
	lw	a7,64(sp)
	lw	a6,68(sp)
	mv	t1,a7
.LVL543:
.L384:
	.loc 1 1043 17
	.loc 1 1043 19 is_stmt 0
	lrbu	a0,s3,t1,0
	.loc 1 1043 17
	beq	a0,zero,.L385
	.loc 1 1043 28 discriminator 1
	beq	s11,zero,.L386
	.loc 1 1043 67 discriminator 2
	addi	a3,a6,-1
.LVL544:
	.loc 1 1043 55 discriminator 2
	bne	a6,zero,.L414
.LVL545:
.L385:
	.loc 1 1047 11 is_stmt 1
	.loc 1 1047 14 is_stmt 0
	beq	s0,zero,.L393
	mv	a2,t1
	sub	s0,s2,t1
	j	.L387
.LVL546:
.L388:
	sw	t1,64(sp)
	.loc 1 1049 15 is_stmt 1
	mv	a3,s10
	mv	a1,s7
	li	a0,32
	addi	s11,a2,1
.LVL547:
	jalr	s8
.LVL548:
	lw	t1,64(sp)
	mv	a2,s11
.LVL549:
.L387:
	.loc 1 1048 19
	add	a3,a2,s0
	bgtu	s6,a3,.L388
	li	a3,0
	bltu	s6,s2,.L390
	sub	a3,s6,s2
.L390:
	add	t1,t1,a3
.LVL550:
.LBE191:
	.loc 1 1053 9
	.loc 1 1054 9
	j	.L393
.LVL551:
.L391:
.LBE199:
.LBB200:
	.loc 1 1063 11 is_stmt 0
	li	a5,10
	sw	a7,8(sp)
	sw	a5,4(sp)
	sw	a6,0(sp)
	li	a7,16
.LVL552:
	li	a6,0
.LVL553:
	li	a5,0
	mv	a3,s10
	mv	a2,t1
	mv	a1,s7
	mv	a0,s8
	call	print_integer
.LVL554:
	j	.L450
.LVL555:
.L327:
.LBE200:
	.loc 1 1069 9 is_stmt 1
	addi	s0,t1,1
.LVL556:
	mv	a3,s10
	mv	a2,t1
	mv	a1,s7
	li	a0,37
.LVL557:
.L449:
	.loc 1 1074 9 is_stmt 0
	jalr	s8
.LVL558:
	.loc 1 1075 9 is_stmt 1
	.loc 1 1076 9
	.loc 1 1074 9 is_stmt 0
	mv	t1,s0
	.loc 1 1076 9
	j	.L393
.LVL559:
.L333:
.LBB201:
	.loc 1 935 9 is_stmt 1
	.loc 1 936 11
	.loc 1 936 17 is_stmt 0
	ori	s0,s0,32
.LVL560:
	.loc 1 940 9 is_stmt 1
	.loc 1 922 16 is_stmt 0
	li	a7,16
	j	.L337
.LVL561:
.L407:
	.loc 1 925 16
	li	a7,8
	j	.L398
.L408:
	.loc 1 928 16
	li	a7,2
.LVL562:
	.loc 1 935 9 is_stmt 1
	.loc 1 940 9
	j	.L398
.LBE201:
	.cfi_endproc
.LFE26:
	.size	__vsnprintf, .-__vsnprintf
	.section	.text.vsnprintf,"ax",@progbits
	.align	1
	.globl	vsnprintf
	.type	vsnprintf, @function
vsnprintf:
.LFB27:
	.loc 1 1091 1
	.cfi_startproc
.LVL563:
	.loc 1 1092 3
	.loc 1 1091 1 is_stmt 0
	mv	a4,a3
	.loc 1 1092 10
	mv	a3,a2
.LVL564:
	mv	a2,a1
.LVL565:
	mv	a1,a0
.LVL566:
	lui	a0,%hi(out_buffer)
.LVL567:
	addi	a0,a0,%lo(out_buffer)
	tail	__vsnprintf
.LVL568:
	.cfi_endproc
.LFE27:
	.size	vsnprintf, .-vsnprintf
	.section	.text.console_vsnprintf,"ax",@progbits
	.align	1
	.globl	console_vsnprintf
	.type	console_vsnprintf, @function
console_vsnprintf:
.LFB28:
	.loc 1 1096 1 is_stmt 1
	.cfi_startproc
.LVL569:
	.loc 1 1097 3
	.loc 1 1096 1 is_stmt 0
	mv	a3,a0
	.loc 1 1097 10
	lui	a0,%hi(out_console)
.LVL570:
	.loc 1 1096 1
	mv	a4,a1
	.loc 1 1097 10
	li	a2,0
	li	a1,0
.LVL571:
	addi	a0,a0,%lo(out_console)
	tail	__vsnprintf
.LVL572:
	.cfi_endproc
.LFE28:
	.size	console_vsnprintf, .-console_vsnprintf
	.section	.rodata.cst8,"aM",@progbits,8
	.align	3
.LC0:
	.word	0
	.word	1071644672
	.align	3
.LC1:
	.word	1352628731
	.word	1070810131
	.align	3
.LC2:
	.word	-1956591437
	.word	1069976104
	.align	3
.LC3:
	.word	0
	.word	1073217536
	.align	3
.LC4:
	.word	1668236129
	.word	1070761895
	.align	3
.LC5:
	.word	158966641
	.word	1074434895
	.align	3
.LC6:
	.word	-1145744106
	.word	1073900465
	.align	3
.LC7:
	.word	-17155601
	.word	1072049730
	.align	3
.LC8:
	.word	0
	.word	1076625408
	.align	3
.LC9:
	.word	0
	.word	1076101120
	.align	3
.LC10:
	.word	0
	.word	1075314688
	.align	3
.LC11:
	.word	0
	.word	1073741824
	.align	3
.LC12:
	.word	0
	.word	1072693248
	.align	3
.LC16:
	.word	-1
	.word	-1048577
	.align	3
.LC18:
	.word	-1
	.word	2146435071
	.align	3
.LC19:
	.word	0
	.word	1104006501
	.align	3
.LC20:
	.word	0
	.word	-1043477147
	.section	.rodata.powers_of_10,"a"
	.align	3
	.set	.LANCHOR0,. + 0
	.type	powers_of_10, @object
	.size	powers_of_10, 144
powers_of_10:
	.word	0
	.word	1072693248
	.word	0
	.word	1076101120
	.word	0
	.word	1079574528
	.word	0
	.word	1083129856
	.word	0
	.word	1086556160
	.word	0
	.word	1090021888
	.word	0
	.word	1093567616
	.word	0
	.word	1097011920
	.word	0
	.word	1100470148
	.word	0
	.word	1104006501
	.word	536870912
	.word	1107468383
	.word	-402653184
	.word	1110919286
	.word	-1577058304
	.word	1114446484
	.word	-448790528
	.word	1117925532
	.word	512753664
	.word	1121369284
	.word	640942080
	.word	1124887541
	.word	937459712
	.word	1128383353
	.word	-2049400832
	.word	1131820119
	.text
.Letext0:
	.file 2 "./toolchain/linux_x86_64/riscv64-unknown-elf/include/machine/_default_types.h"
	.file 3 "./toolchain/linux_x86_64/riscv64-unknown-elf/include/sys/_stdint.h"
	.file 4 "./toolchain/linux_x86_64/riscv64-unknown-elf/include/stdint.h"
	.file 5 "./toolchain/linux_x86_64/lib/gcc/riscv64-unknown-elf/10.4.0/include/stdarg.h"
	.file 6 "./toolchain/linux_x86_64/lib/gcc/riscv64-unknown-elf/10.4.0/include/stddef.h"
	.file 7 "./drivers/lhal/include/qcc74x_core.h"
	.file 8 "./toolchain/linux_x86_64/riscv64-unknown-elf/include/stdio.h"
	.file 9 "<built-in>"
	.file 10 "./drivers/lhal/include/qcc74x_uart.h"