	.file	"qcc743_clock.c"
	.option nopic
	.attribute arch, "rv32i2p0_m2p0_a2p0_f2p0_c2p0_p0p9_zpn0p9_zpsfoperand0p9_xtheade2p0"
	.attribute unaligned_access, 0
	.attribute stack_align, 16
	.text
.Ltext0:
	.cfi_sections	.debug_frame
	.section	.sclock_rlt_code../drivers/soc/qcc743/std/src/qcc743_clock.c56,"ax",@progbits
	.align	1
	.type	Clock_Get_AUPLL_Output, @function
Clock_Get_AUPLL_Output:
.LFB243:
	.file 1 "./drivers/soc/qcc743/std/src/qcc743_clock.c"
	.loc 1 57 1
	.cfi_startproc
.LVL0:
	.loc 1 58 5
	.loc 1 57 1 is_stmt 0
	addi	sp,sp,-32
	.cfi_def_cfa_offset 32
	sw	s1,20(sp)
	.loc 1 58 13
	sb	zero,15(sp)
	.loc 1 59 5 is_stmt 1
.LVL1:
	.loc 1 60 5
	.loc 1 61 5
	.loc 1 63 5
	.cfi_offset 9, -12
	.loc 1 57 1 is_stmt 0
	mv	s1,a0
	.loc 1 63 18
	li	a5,536903680
	.loc 1 65 9
	addi	a0,sp,15
.LVL2:
	.loc 1 57 1
	sw	s0,24(sp)
	sw	ra,28(sp)
	.cfi_offset 8, -8
	.cfi_offset 1, -4
	.loc 1 63 18
	lw	s0,1896(a5)
.LVL3:
	.loc 1 65 5 is_stmt 1
	.loc 1 65 9 is_stmt 0
	call	HBN_Get_Xtal_Type
.LVL4:
	.loc 1 65 8
	bne	a0,zero,.L19
	.loc 1 66 9
	lbu	a4,15(sp)
	.loc 1 63 12
	li	a5,524288
	addi	a5,a5,-1
	.loc 1 66 9
	li	a3,4
	.loc 1 63 12
	and	a5,s0,a5
	.loc 1 66 9 is_stmt 1
	beq	a4,a3,.L3
	bgtu	a4,a3,.L4
	li	a3,2
	beq	a4,a3,.L9
	li	a3,3
	beq	a4,a3,.L6
	li	a3,1
	beq	a4,a3,.L7
.LVL5:
.L1:
	.loc 1 139 1 is_stmt 0
	lw	ra,28(sp)
	.cfi_remember_state
	.cfi_restore 1
	lw	s0,24(sp)
	.cfi_restore 8
.LVL6:
	lw	s1,20(sp)
	.cfi_restore 9
	addi	sp,sp,32
	.cfi_def_cfa_offset 0
	jr	ra
.LVL7:
.L4:
	.cfi_restore_state
	.loc 1 66 9
	li	a3,5
	beq	a4,a3,.L8
	li	a3,6
	beq	a4,a3,.L9
.L19:
	.loc 1 98 16
	li	a0,0
	j	.L1
.L7:
	.loc 1 72 17 is_stmt 1
	.loc 1 72 37 is_stmt 0
	li	a4,24576
	addi	a4,a4,-576
.L29:
	.loc 1 88 37
	mul	a5,a5,a4
	.loc 1 88 25
	li	a4,500
	.loc 1 88 46
	srli	a5,a5,11
.L26:
	.loc 1 92 25
	mul	a5,a5,a4
.LVL8:
	.loc 1 93 17 is_stmt 1
	.loc 1 101 5
	.loc 1 101 32 is_stmt 0
	li	a4,-490999808
	addi	a4,a4,-192
	.loc 1 101 8
	li	a3,999424
	addi	a3,a3,576
	.loc 1 101 32
	add	a4,a5,a4
	.loc 1 101 8
	bleu	a4,a3,.L20
	.loc 1 104 12 is_stmt 1
	.loc 1 104 39 is_stmt 0
	li	a4,-450998272
	addi	a4,a4,-1728
	add	a4,a5,a4
	.loc 1 104 15
	bleu	a4,a3,.L21
	.loc 1 107 12 is_stmt 1
	.loc 1 107 39 is_stmt 0
	li	a4,-398999552
	addi	a4,a4,-448
	.loc 1 107 15
	li	a3,1998848
	.loc 1 107 39
	add	a4,a5,a4
	.loc 1 107 15
	addi	a3,a3,1152
	bleu	a4,a3,.L22
	.loc 1 110 12 is_stmt 1
	.loc 1 110 39 is_stmt 0
	li	a4,-383000576
	addi	a4,a4,576
	add	a5,a5,a4
.LVL9:
	.loc 1 98 16
	li	a0,0
	.loc 1 110 15
	bgtu	a5,a3,.L1
	.loc 1 112 17
	li	a0,384000000
.LVL10:
.L11:
	.loc 1 117 5 is_stmt 1
	li	a5,4
	beq	s1,a5,.L12
	bgtu	s1,a5,.L13
	li	a5,2
	beq	s1,a5,.L14
	li	a5,3
	beq	s1,a5,.L17
	li	a5,1
	bne	s1,a5,.L1
	.loc 1 121 13
	.loc 1 121 29 is_stmt 0
	srli	a0,a0,1
.LVL11:
	j	.L1
.LVL12:
.L6:
	.loc 1 80 17 is_stmt 1
	.loc 1 80 37 is_stmt 0
	li	a4,36864
	addi	a4,a4,1536
.L27:
	.loc 1 92 37
	mul	a5,a5,a4
	.loc 1 92 25
	li	a4,250
	.loc 1 92 46
	srli	a5,a5,11
	j	.L26
.L3:
	.loc 1 84 17 is_stmt 1
	.loc 1 84 37 is_stmt 0
	li	a4,40960
	addi	a4,a4,-960
	j	.L27
.L8:
	.loc 1 88 17 is_stmt 1
	.loc 1 88 37 is_stmt 0
	li	a4,24576
	addi	a4,a4,1424
	j	.L29
.L9:
	.loc 1 92 17 is_stmt 1
	.loc 1 92 37 is_stmt 0
	li	a4,32768
	addi	a4,a4,-768
	j	.L27
.LVL13:
.L20:
	.loc 1 103 17
	li	a0,491520000
	j	.L11
.L21:
	.loc 1 106 17
	li	a0,451579904
	addi	a0,a0,96
	j	.L11
.L22:
	.loc 1 109 17
	li	a0,399998976
	addi	a0,a0,1024
	j	.L11
.LVL14:
.L13:
	.loc 1 117 5
	li	a5,5
	bne	s1,a5,.L24
.L17:
	.loc 1 129 13 is_stmt 1
	.loc 1 129 29 is_stmt 0
	divu	a0,a0,s1
.LVL15:
	j	.L1
.LVL16:
.L14:
	.loc 1 123 13 is_stmt 1
	.loc 1 123 29 is_stmt 0
	slli	a0,a0,1
.LVL17:
	.loc 1 123 33
	li	a5,5
.L28:
	.loc 1 131 29
	divu	a0,a0,a5
	j	.L1
.LVL18:
.L12:
	.loc 1 127 13 is_stmt 1
	.loc 1 127 29 is_stmt 0
	srli	a0,a0,2
.LVL19:
	j	.L1
.LVL20:
.L24:
	.loc 1 131 13 is_stmt 1
	.loc 1 131 29 is_stmt 0
	li	a5,6
	j	.L28
	.cfi_endproc
.LFE243:
	.size	Clock_Get_AUPLL_Output, .-Clock_Get_AUPLL_Output
	.section	.sclock_rlt_code../drivers/soc/qcc743/std/src/qcc743_clock.c141,"ax",@progbits
	.align	1
	.type	Clock_Get_Audio_PLL_Output, @function
Clock_Get_Audio_PLL_Output:
.LFB244:
	.loc 1 142 1 is_stmt 1
	.cfi_startproc
	.loc 1 143 5
.LVL21:
	.loc 1 145 5
	.loc 1 142 1 is_stmt 0
	addi	sp,sp,-16
	.cfi_def_cfa_offset 16
	.loc 1 145 18
	li	a5,536903680
	.loc 1 142 1
	sw	s0,8(sp)
	.cfi_offset 8, -8
	.loc 1 145 18
	lw	s0,1876(a5)
.LVL22:
	.loc 1 147 5 is_stmt 1
	.loc 1 147 12 is_stmt 0
	li	a0,0
	.loc 1 142 1
	sw	ra,12(sp)
	.cfi_offset 1, -4
	.loc 1 145 12
	andi	s0,s0,127
.LVL23:
	.loc 1 147 12
	call	Clock_Get_AUPLL_Output
.LVL24:
	.loc 1 148 1
	divu	a0,a0,s0
	lw	ra,12(sp)
	.cfi_restore 1
	lw	s0,8(sp)
	.cfi_restore 8
.LVL25:
	addi	sp,sp,16
	.cfi_def_cfa_offset 0
	jr	ra
	.cfi_endproc
.LFE244:
	.size	Clock_Get_Audio_PLL_Output, .-Clock_Get_Audio_PLL_Output
	.section	.sclock_rlt_code../drivers/soc/qcc743/std/src/qcc743_clock.c231,"ax",@progbits
	.align	1
	.type	Clock_160M_Clk_Mux_Output, @function
Clock_160M_Clk_Mux_Output:
.LFB249:
	.loc 1 232 1 is_stmt 1
	.cfi_startproc
.LVL26:
	.loc 1 233 5
	.loc 1 233 8 is_stmt 0
	beq	a0,zero,.L36
	.loc 1 236 12 is_stmt 1
	.loc 1 236 15 is_stmt 0
	li	a5,1
	bne	a0,a5,.L34
	.loc 1 238 9 is_stmt 1
	.loc 1 238 16 is_stmt 0
	li	a0,3
.LVL27:
.L38:
	.loc 1 244 16
	tail	Clock_Get_AUPLL_Output
.LVL28:
.L34:
	.loc 1 239 12 is_stmt 1
	.loc 1 239 15 is_stmt 0
	li	a5,2
	bne	a0,a5,.L35
	.loc 1 241 9 is_stmt 1
	.loc 1 241 16 is_stmt 0
	li	a0,1
.LVL29:
	j	.L38
.LVL30:
.L35:
	.loc 1 242 12 is_stmt 1
	.loc 1 242 15 is_stmt 0
	li	a4,3
	.loc 1 246 16
	li	a5,0
	.loc 1 242 15
	bne	a0,a4,.L32
	.loc 1 244 9 is_stmt 1
	.loc 1 244 16 is_stmt 0
	li	a0,2
.LVL31:
	j	.L38
.LVL32:
.L36:
	.loc 1 235 16
	li	a5,160002048
	addi	a5,a5,-2048
.L32:
	.loc 1 248 1
	mv	a0,a5
.LVL33:
	ret
	.cfi_endproc
.LFE249:
	.size	Clock_160M_Clk_Mux_Output, .-Clock_160M_Clk_Mux_Output
	.section	.sclock_rlt_code../drivers/soc/qcc743/std/src/qcc743_clock.c150,"ax",@progbits
	.align	1
	.type	Clock_Xtal_Output, @function
Clock_Xtal_Output:
.LFB245:
	.loc 1 151 1 is_stmt 1
	.cfi_startproc
	.loc 1 152 5
	.loc 1 151 1 is_stmt 0
	addi	sp,sp,-32
	.cfi_def_cfa_offset 32
	.loc 1 154 9
	addi	a0,sp,15
	.loc 1 151 1
	sw	ra,28(sp)
	.cfi_offset 1, -4
	.loc 1 152 13
	sb	zero,15(sp)
	.loc 1 154 5 is_stmt 1
	.loc 1 154 9 is_stmt 0
	call	HBN_Get_Xtal_Type
.LVL34:
	.loc 1 154 8
	bne	a0,zero,.L41
	.loc 1 155 9 is_stmt 1
	lbu	a4,15(sp)
	li	a5,6
	bgtu	a4,a5,.L39
	lui	a5,%hi(.LANCHOR0)
	addi	a5,a5,%lo(.LANCHOR0)
	lrw	a0,a5,a4,2
.L39:
	.loc 1 176 1 is_stmt 0
	lw	ra,28(sp)
	.cfi_remember_state
	.cfi_restore 1
	addi	sp,sp,32
	.cfi_def_cfa_offset 0
	jr	ra
.L41:
	.cfi_restore_state
	.loc 1 174 16
	li	a0,40001536
	addi	a0,a0,-1536
	j	.L39
	.cfi_endproc
.LFE245:
	.size	Clock_Xtal_Output, .-Clock_Xtal_Output
	.section	.sclock_rlt_code../drivers/soc/qcc743/std/src/qcc743_clock.c191,"ax",@progbits
	.align	1
	.type	Clock_F32k_Mux_Output, @function
Clock_F32k_Mux_Output:
.LFB247:
	.loc 1 192 1 is_stmt 1
	.cfi_startproc
.LVL35:
	.loc 1 193 5
	.loc 1 194 5
	.loc 1 196 5
	.loc 1 196 12 is_stmt 0
	li	a5,536870912
	lw	a5,592(a5)
.LVL36:
	.loc 1 197 5 is_stmt 1
	.loc 1 199 5
	.loc 1 199 8 is_stmt 0
	li	a4,2
	bleu	a0,a4,.L48
	.loc 1 202 12 is_stmt 1
	.loc 1 207 9
	.loc 1 207 65 is_stmt 0
	li	a0,4096
.LVL37:
	and	a0,a5,a0
	.loc 1 207 12
	beq	a0,zero,.L53
	.loc 1 192 1
	addi	sp,sp,-16
	.cfi_def_cfa_offset 16
	sw	s0,8(sp)
	sw	ra,12(sp)
	.cfi_offset 8, -8
	.cfi_offset 1, -4
	.loc 1 197 9
	andi	s0,a5,2047
.LVL38:
	.loc 1 210 13 is_stmt 1
	.loc 1 210 17 is_stmt 0
	extu	a5,a5,28+2-1,28
.LVL39:
	.loc 1 211 13 is_stmt 1
	.loc 1 211 16 is_stmt 0
	bne	a5,zero,.L46
	.loc 1 212 17 is_stmt 1
.LVL40:
	.loc 1 53 5
	.loc 1 212 68 is_stmt 0
	li	a0,32002048
	addi	a0,a0,-2048
.LVL41:
.L56:
	.loc 1 216 53
	divu	a0,a0,s0
	.loc 1 220 1
	lw	ra,12(sp)
	.cfi_remember_state
	.cfi_restore 1
	lw	s0,8(sp)
	.cfi_restore 8
.LVL42:
	addi	sp,sp,16
	.cfi_def_cfa_offset 0
	jr	ra
.LVL43:
.L46:
	.cfi_restore_state
	.loc 1 213 20 is_stmt 1
	.loc 1 213 23 is_stmt 0
	li	a4,1
	bne	a5,a4,.L47
	.loc 1 214 17 is_stmt 1
	.loc 1 214 24 is_stmt 0
	call	Clock_Xtal_Output
.LVL44:
	j	.L56
.LVL45:
.L47:
	.loc 1 216 17 is_stmt 1
	.loc 1 216 24 is_stmt 0
	call	Clock_Get_Audio_PLL_Output
.LVL46:
	j	.L56
.LVL47:
.L48:
	.cfi_def_cfa_offset 0
	.cfi_restore 1
	.cfi_restore 8
	.loc 1 201 16
	li	a0,32768
.LVL48:
	ret
.L53:
	.loc 1 220 1
	ret
	.cfi_endproc
.LFE247:
	.size	Clock_F32k_Mux_Output, .-Clock_F32k_Mux_Output
	.section	.sclock_rlt_code../drivers/soc/qcc743/std/src/qcc743_clock.c323,"ax",@progbits
	.align	1
	.type	Clock_MCU_Root_Clk_Mux_Output, @function
Clock_MCU_Root_Clk_Mux_Output:
.LFB256:
	.loc 1 324 1 is_stmt 1
	.cfi_startproc
.LVL49:
	.loc 1 325 5
	.loc 1 327 5
	.loc 1 327 8 is_stmt 0
	bne	a0,zero,.L58
	.loc 1 329 9 is_stmt 1
.LBB76:
.LBB77:
	.loc 1 305 5
	.loc 1 307 5
	.loc 1 307 12 is_stmt 0
	li	a5,536932352
	lw	a5,48(a5)
.LVL50:
	.loc 1 308 5 is_stmt 1
	.loc 1 310 5
.LBE77:
.LBE76:
.LBB78:
.LBB79:
	.loc 1 180 5
	.loc 1 180 8 is_stmt 0
	andi	a5,a5,1
.LVL51:
	beq	a5,zero,.L62
	.loc 1 183 12 is_stmt 1
	.loc 1 185 9
	.loc 1 185 16 is_stmt 0
	tail	Clock_Xtal_Output
.LVL52:
.L58:
.LBE79:
.LBE78:
	.loc 1 330 12 is_stmt 1
	.loc 1 330 15 is_stmt 0
	li	a3,1
	.loc 1 336 16
	li	a5,0
	.loc 1 330 15
	bne	a0,a3,.L57
	.loc 1 332 9 is_stmt 1
	.loc 1 332 16 is_stmt 0
	li	a5,536928256
	lw	a5,276(a5)
.LVL53:
	.loc 1 333 9 is_stmt 1
	.loc 1 333 13 is_stmt 0
	extu	a5,a5,4+2-1,4
.LVL54:
	.loc 1 334 9 is_stmt 1
.LBB81:
.LBB82:
	.loc 1 286 5
	.loc 1 286 8 is_stmt 0
	bne	a5,zero,.L60
.L65:
	.loc 1 291 16
	tail	Clock_Get_AUPLL_Output
.LVL55:
.L60:
	.loc 1 289 12 is_stmt 1
	.loc 1 289 15 is_stmt 0
	bne	a5,a0,.L61
	.loc 1 291 9 is_stmt 1
	.loc 1 291 16 is_stmt 0
	li	a0,0
	j	.L65
.L61:
	.loc 1 292 12 is_stmt 1
	.loc 1 292 15 is_stmt 0
	li	a4,2
	beq	a5,a4,.L64
	.loc 1 297 16
	li	a5,320000000
.LVL56:
.L57:
.LBE82:
.LBE81:
	.loc 1 338 1
	mv	a0,a5
	ret
.LVL57:
.L62:
.LBB84:
.LBB80:
	.loc 1 182 16
	li	a5,32002048
	addi	a5,a5,-2048
	j	.L57
.LVL58:
.L64:
.LBE80:
.LBE84:
.LBB85:
.LBB83:
	.loc 1 294 16
	li	a5,240001024
.LVL59:
	addi	a5,a5,-1024
	j	.L57
.LBE83:
.LBE85:
	.cfi_endproc
.LFE256:
	.size	Clock_MCU_Root_Clk_Mux_Output, .-Clock_MCU_Root_Clk_Mux_Output
	.section	.sclock_rlt_code../drivers/soc/qcc743/std/src/qcc743_clock.c366,"ax",@progbits
	.align	1
	.globl	Clock_System_Clock_Get
	.type	Clock_System_Clock_Get, @function
Clock_System_Clock_Get:
.LFB259:
	.loc 1 367 1 is_stmt 1
	.cfi_startproc
.LVL60:
	.loc 1 368 5
	.loc 1 369 5
	.loc 1 371 5
	li	a5,4
	beq	a0,a5,.L67
	bgtu	a0,a5,.L68
	.loc 1 367 1 is_stmt 0
	addi	sp,sp,-16
	.cfi_def_cfa_offset 16
	sw	ra,12(sp)
	.cfi_offset 1, -4
	.loc 1 371 5
	li	a5,1
	beq	a0,a5,.L69
	li	a5,3
	beq	a0,a5,.L70
	beq	a0,zero,.L71
	li	a0,0
.LVL61:
.L66:
	.loc 1 403 1
	lw	ra,12(sp)
	.cfi_restore 1
	addi	sp,sp,16
	.cfi_def_cfa_offset 0
	jr	ra
.LVL62:
.L68:
	.loc 1 371 5
	li	a5,5
	beq	a0,a5,.L73
	li	a5,6
	beq	a0,a5,.L74
	li	a0,0
.LVL63:
	ret
.LVL64:
.L71:
	.cfi_def_cfa_offset 16
	.cfi_offset 1, -4
	.loc 1 374 13 is_stmt 1
.LBB100:
.LBB101:
	.loc 1 315 5
	.loc 1 317 5
	.loc 1 317 12 is_stmt 0
	li	a5,536932352
	lw	a0,48(a5)
.LVL65:
	.loc 1 318 5 is_stmt 1
	.loc 1 320 5
.LBE101:
.LBE100:
	.loc 1 403 1 is_stmt 0
	lw	ra,12(sp)
	.cfi_remember_state
	.cfi_restore 1
	.loc 1 374 20
	extu	a0,a0,1+1-1,1
	.loc 1 403 1
	addi	sp,sp,16
	.cfi_def_cfa_offset 0
	.loc 1 374 20
	tail	Clock_MCU_Root_Clk_Mux_Output
.LVL66:
.L69:
	.cfi_restore_state
	.loc 1 378 13 is_stmt 1
.LBB102:
.LBB103:
	.loc 1 315 5
	.loc 1 317 5
	.loc 1 317 12 is_stmt 0
	li	a5,536932352
	lw	a0,48(a5)
.LVL67:
	.loc 1 318 5 is_stmt 1
	.loc 1 320 5
.LBE103:
.LBE102:
	.loc 1 378 21 is_stmt 0
	extu	a0,a0,1+1-1,1
	call	Clock_MCU_Root_Clk_Mux_Output
.LVL68:
	.loc 1 379 13 is_stmt 1
.LBB104:
.LBB105:
	.loc 1 342 5
	.loc 1 344 5
	.loc 1 344 12 is_stmt 0
	li	a5,536870912
	lw	a5,144(a5)
.LVL69:
	.loc 1 346 5 is_stmt 1
.LBE105:
.LBE104:
	.loc 1 380 13
	.loc 1 380 33 is_stmt 0
	extu	a5,a5,8+8-1,8
.LVL70:
.L80:
	.loc 1 386 33
	addi	a5,a5,1
	.loc 1 386 26
	divu	a0,a0,a5
.LVL71:
	j	.L66
.LVL72:
.L70:
	.loc 1 384 13 is_stmt 1
	.loc 1 384 21 is_stmt 0
	li	a0,1
.LVL73:
	call	Clock_System_Clock_Get
.LVL74:
	.loc 1 385 13 is_stmt 1
.LBB106:
.LBB107:
	.loc 1 351 5
	.loc 1 353 5
	.loc 1 353 12 is_stmt 0
	li	a5,536870912
	lw	a5,144(a5)
.LVL75:
	.loc 1 355 5 is_stmt 1
.LBE107:
.LBE106:
	.loc 1 386 13
	.loc 1 386 33 is_stmt 0
	extu	a5,a5,16+8-1,16
.LVL76:
	j	.L80
.LVL77:
.L67:
	.cfi_def_cfa_offset 0
	.cfi_restore 1
	.loc 1 390 13 is_stmt 1
.LBB108:
.LBB109:
	.loc 1 224 5
	.loc 1 226 5
	.loc 1 226 12 is_stmt 0
	li	a5,536932352
	lw	a0,48(a5)
.LVL78:
	.loc 1 228 5 is_stmt 1
.LBE109:
.LBE108:
	.loc 1 390 20 is_stmt 0
	extu	a0,a0,3+2-1,3
	tail	Clock_F32k_Mux_Output
.LVL79:
.L73:
	.loc 1 394 13 is_stmt 1
.LBB110:
.LBB111:
	.loc 1 305 5
	.loc 1 307 5
	.loc 1 307 12 is_stmt 0
	li	a5,536932352
	lw	a5,48(a5)
.LVL80:
	.loc 1 308 5 is_stmt 1
	.loc 1 310 5
.LBE111:
.LBE110:
.LBB112:
.LBB113:
	.loc 1 180 5
	.loc 1 180 8 is_stmt 0
	andi	a5,a5,1
.LVL81:
	beq	a5,zero,.L75
.L74:
.LBE113:
.LBE112:
	.loc 1 398 13 is_stmt 1
	.loc 1 398 20 is_stmt 0
	tail	Clock_Xtal_Output
.LVL82:
.L75:
.LBB115:
.LBB114:
	.loc 1 182 16
	li	a0,32002048
.LVL83:
	addi	a0,a0,-2048
.LBE114:
.LBE115:
	.loc 1 403 1
	ret
	.cfi_endproc
.LFE259:
	.size	Clock_System_Clock_Get, .-Clock_System_Clock_Get
	.section	.text.Clock_SPI_Clk_Mux_Output,"ax",@progbits
	.align	1
	.type	Clock_SPI_Clk_Mux_Output, @function
Clock_SPI_Clk_Mux_Output:
.LFB279:
	.loc 1 606 1 is_stmt 1
	.cfi_startproc
.LVL84:
	.loc 1 607 5
	.loc 1 607 8 is_stmt 0
	bne	a0,zero,.L82
	.loc 1 609 9 is_stmt 1
.LBB118:
.LBB119:
	.loc 1 252 5
	.loc 1 254 5
	.loc 1 254 12 is_stmt 0
	li	a5,536870912
	lw	a0,596(a5)
.LVL85:
	.loc 1 256 5 is_stmt 1
.LBE119:
.LBE118:
	.loc 1 609 16 is_stmt 0
	extu	a0,a0,10+2-1,10
	tail	Clock_160M_Clk_Mux_Output
.LVL86:
.L82:
	.loc 1 612 9 is_stmt 1
	.loc 1 612 16 is_stmt 0
	li	a0,5
.LVL87:
	tail	Clock_System_Clock_Get
.LVL88:
	.cfi_endproc
.LFE279:
	.size	Clock_SPI_Clk_Mux_Output, .-Clock_SPI_Clk_Mux_Output
	.set	Clock_DBI_Clk_Mux_Output,Clock_SPI_Clk_Mux_Output
	.section	.text.Clock_Get_PSRAMB_Clk,"ax",@progbits
	.align	1
	.globl	Clock_Get_PSRAMB_Clk
	.type	Clock_Get_PSRAMB_Clk, @function
Clock_Get_PSRAMB_Clk:
.LFB263:
	.loc 1 437 1 is_stmt 1
	.cfi_startproc
	.loc 1 438 5
.LVL89:
	.loc 1 440 5
.LBB126:
.LBB127:
	.loc 1 420 5
	.loc 1 422 5
.LBE127:
.LBE126:
	.loc 1 437 1 is_stmt 0
	addi	sp,sp,-16
	.cfi_def_cfa_offset 16
.LBB131:
.LBB128:
	.loc 1 422 12
	li	a5,536870912
.LBE128:
.LBE131:
	.loc 1 437 1
	sw	s0,8(sp)
	.cfi_offset 8, -8
.LBB132:
.LBB129:
	.loc 1 422 12
	lw	s0,1568(a5)
.LVL90:
	.loc 1 424 5 is_stmt 1
.LBE129:
.LBE132:
.LBB133:
.LBB134:
	.loc 1 431 12 is_stmt 0
	lw	a5,1568(a5)
.LBE134:
.LBE133:
	.loc 1 437 1
	sw	ra,12(sp)
	.cfi_offset 1, -4
.LBB136:
.LBB130:
	.loc 1 424 54
	srli	s0,s0,30
.LVL91:
.LBE130:
.LBE136:
	.loc 1 442 5 is_stmt 1
.LBB137:
.LBB135:
	.loc 1 429 5
	.loc 1 431 5
	.loc 1 433 5
.LBE135:
.LBE137:
.LBB138:
.LBB139:
	.loc 1 407 5
	.loc 1 407 8 is_stmt 0
	extu	a5,a5,28+1-1,28
.LVL92:
	li	a0,320000000
	beq	a5,zero,.L84
	.loc 1 410 12 is_stmt 1
	.loc 1 412 9
	.loc 1 412 16 is_stmt 0
	li	a0,0
	call	Clock_Get_AUPLL_Output
.LVL93:
.L84:
.LBE139:
.LBE138:
	.loc 1 442 79
	addi	s0,s0,1
.LVL94:
	.loc 1 443 1
	divu	a0,a0,s0
	lw	ra,12(sp)
	.cfi_restore 1
	lw	s0,8(sp)
	.cfi_restore 8
.LVL95:
	addi	sp,sp,16
	.cfi_def_cfa_offset 0
	jr	ra
	.cfi_endproc
.LFE263:
	.size	Clock_Get_PSRAMB_Clk, .-Clock_Get_PSRAMB_Clk
	.section	.text.Clock_Get_ISP_Clk,"ax",@progbits
	.align	1
	.globl	Clock_Get_ISP_Clk
	.type	Clock_Get_ISP_Clk, @function
Clock_Get_ISP_Clk:
.LFB266:
	.loc 1 471 1 is_stmt 1
	.cfi_startproc
	.loc 1 472 5
.LBB144:
.LBB145:
	.loc 1 463 5
	.loc 1 465 5
	.loc 1 465 12 is_stmt 0
	li	a5,536870912
	lw	a5,596(a5)
.LVL96:
	.loc 1 467 5 is_stmt 1
	.loc 1 467 53 is_stmt 0
	andi	a5,a5,3
.LVL97:
.LBE145:
.LBE144:
.LBB146:
.LBB147:
	.loc 1 447 5 is_stmt 1
	.loc 1 447 8 is_stmt 0
	beq	a5,zero,.L89
	.loc 1 450 12 is_stmt 1
	.loc 1 450 15 is_stmt 0
	li	a4,1
	.loc 1 452 16
	li	a0,5
	.loc 1 450 15
	beq	a5,a4,.L91
	.loc 1 453 12 is_stmt 1
	.loc 1 455 9
	.loc 1 455 16 is_stmt 0
	li	a0,6
.L91:
	tail	Clock_Get_AUPLL_Output
.LVL98:
.L89:
.LBE147:
.LBE146:
	.loc 1 473 1
	li	a0,79998976
	addi	a0,a0,1024
	ret
	.cfi_endproc
.LFE266:
	.size	Clock_Get_ISP_Clk, .-Clock_Get_ISP_Clk
	.section	.text.Clock_Audio_ADC_Clock_Get,"ax",@progbits
	.align	1
	.globl	Clock_Audio_ADC_Clock_Get
	.type	Clock_Audio_ADC_Clock_Get, @function
Clock_Audio_ADC_Clock_Get:
.LFB306:
	.loc 1 878 1 is_stmt 1
	.cfi_startproc
	.loc 1 879 5
.LVL99:
	.loc 1 880 5
	.loc 1 882 5
.LBB148:
.LBB149:
	.loc 1 754 5
.LBE149:
.LBE148:
	.loc 1 878 1 is_stmt 0
	addi	sp,sp,-16
	.cfi_def_cfa_offset 16
	sw	ra,12(sp)
	.cfi_offset 1, -4
.LBB151:
.LBB150:
	.loc 1 754 12
	call	Clock_Get_Audio_PLL_Output
.LVL100:
.LBE150:
.LBE151:
	.loc 1 883 5 is_stmt 1
.LBB152:
.LBB153:
	.loc 1 759 5
	.loc 1 761 5
	.loc 1 761 12 is_stmt 0
	li	a5,536870912
	lw	a5,836(a5)
.LVL101:
	.loc 1 763 5 is_stmt 1
.LBE153:
.LBE152:
	.loc 1 885 5
	.loc 1 886 1 is_stmt 0
	lw	ra,12(sp)
	.cfi_restore 1
	.loc 1 885 25
	extu	a5,a5,16+8-1,16
.LVL102:
	addi	a5,a5,1
	.loc 1 886 1
	divu	a0,a0,a5
.LVL103:
	addi	sp,sp,16
	.cfi_def_cfa_offset 0
	jr	ra
	.cfi_endproc
.LFE306:
	.size	Clock_Audio_ADC_Clock_Get, .-Clock_Audio_ADC_Clock_Get
	.section	.text.Clock_Peripheral_Clock_Get,"ax",@progbits
	.align	1
	.globl	Clock_Peripheral_Clock_Get
	.type	Clock_Peripheral_Clock_Get, @function
Clock_Peripheral_Clock_Get:
.LFB308:
	.loc 1 910 1 is_stmt 1
	.cfi_startproc
.LVL104:
	.loc 1 911 5
	.loc 1 912 5
	.loc 1 914 5
	.loc 1 910 1 is_stmt 0
	addi	sp,sp,-16
	.cfi_def_cfa_offset 16
	sw	ra,12(sp)
	sw	s0,8(sp)
	.cfi_offset 1, -4
	.cfi_offset 8, -8
	.loc 1 914 5
	li	a4,12
	beq	a0,a4,.L95
	mv	a5,a0
	bgtu	a0,a4,.L96
	li	a4,7
	beq	a0,a4,.L97
	bgtu	a0,a4,.L98
	li	a4,5
	beq	a0,a4,.L99
	bgtu	a0,a4,.L100
	li	a4,2
	bleu	a0,a4,.L101
	li	a4,3
	beq	a0,a4,.L102
.LVL105:
.L154:
	li	a0,0
	j	.L94
.LVL106:
.L100:
	li	a4,6
	bne	a0,a4,.L154
.L155:
.LBB234:
.LBB235:
	.loc 1 511 9 is_stmt 1
.LBE235:
.LBE234:
	.loc 1 1019 1 is_stmt 0
	lw	s0,8(sp)
	.cfi_remember_state
	.cfi_restore 8
	lw	ra,12(sp)
	.cfi_restore 1
.LBB243:
.LBB238:
	.loc 1 511 16
	li	a0,3
.LVL107:
.LBE238:
.LBE243:
	.loc 1 1019 1
	addi	sp,sp,16
	.cfi_def_cfa_offset 0
.LBB244:
.LBB239:
	.loc 1 511 16
	tail	Clock_System_Clock_Get
.LVL108:
.L98:
	.cfi_restore_state
.LBE239:
.LBE244:
	.loc 1 914 5
	li	a4,10
	beq	a0,a4,.L105
	li	a3,11
	beq	a0,a3,.L106
	li	a0,0
.LVL109:
	bne	a5,a4,.L146
.LVL110:
.L94:
	.loc 1 1019 1
	lw	ra,12(sp)
	.cfi_remember_state
	.cfi_restore 1
	lw	s0,8(sp)
	.cfi_restore 8
	addi	sp,sp,16
	.cfi_def_cfa_offset 0
	jr	ra
.LVL111:
.L96:
	.cfi_restore_state
	.loc 1 914 5
	li	a4,17
	beq	a0,a4,.L108
	bgtu	a0,a4,.L109
	li	a4,15
	beq	a0,a4,.L110
	bgtu	a0,a4,.L111
	li	a4,13
	beq	a0,a4,.L112
	li	a4,14
	bne	a0,a4,.L154
	.loc 1 984 13 is_stmt 1
	.loc 1 1019 1 is_stmt 0
	lw	s0,8(sp)
	.cfi_remember_state
	.cfi_restore 8
	lw	ra,12(sp)
	.cfi_restore 1
	addi	sp,sp,16
	.cfi_def_cfa_offset 0
	.loc 1 984 20
	tail	Clock_Audio_ADC_Clock_Get
.LVL112:
.L111:
	.cfi_restore_state
	.loc 1 914 5
	li	a4,16
	bne	a0,a4,.L154
	.loc 1 992 13 is_stmt 1
.LBB245:
.LBB246:
	.loc 1 800 5
	.loc 1 802 5
	.loc 1 802 12 is_stmt 0
	li	a5,536870912
	lw	a5,592(a5)
.LVL113:
	.loc 1 804 5 is_stmt 1
	.loc 1 804 54 is_stmt 0
	extu	a5,a5,28+2-1,28
.LVL114:
.LBE246:
.LBE245:
.LBB247:
.LBB248:
	.loc 1 777 5 is_stmt 1
	.loc 1 777 8 is_stmt 0
	beq	a5,zero,.L143
	.loc 1 780 12 is_stmt 1
	.loc 1 780 15 is_stmt 0
	li	a4,1
	bne	a5,a4,.L131
	.loc 1 782 9 is_stmt 1
	.loc 1 782 16 is_stmt 0
	li	a0,5
.LVL115:
	call	Clock_System_Clock_Get
.LVL116:
.L130:
.LBE248:
.LBE247:
	.loc 1 993 13 is_stmt 1
.LBB250:
.LBB251:
	.loc 1 791 5
	.loc 1 793 5
	.loc 1 793 12 is_stmt 0
	li	a5,536870912
	lw	a5,592(a5)
.LVL117:
	.loc 1 795 5 is_stmt 1
.LBE251:
.LBE250:
	.loc 1 994 13
.LBB253:
.LBB252:
	.loc 1 795 54 is_stmt 0
	extu	a5,a5,16+7-1,16
.LVL118:
	j	.L152
.LVL119:
.L109:
.LBE252:
.LBE253:
	.loc 1 914 5
	li	a4,19
	beq	a0,a4,.L115
	li	a4,20
	.loc 1 1014 20
	li	a0,32768
.LVL120:
	.loc 1 914 5
	beq	a5,a4,.L94
	li	a4,18
	bne	a5,a4,.L154
	.loc 1 1004 13 is_stmt 1
.LBB254:
.LBB255:
	.loc 1 820 5
	.loc 1 822 5
	.loc 1 822 12 is_stmt 0
	li	a5,536870912
	lw	a5,1072(a5)
.LVL121:
	.loc 1 824 5 is_stmt 1
.LBE255:
.LBE254:
.LBB256:
.LBB257:
	.loc 1 809 5
	.loc 1 809 8 is_stmt 0
	extu	a5,a5,12+1-1,12
.LVL122:
	beq	a5,zero,.L145
	.loc 1 814 9 is_stmt 1
	.loc 1 814 16 is_stmt 0
	li	a0,5
	call	Clock_Get_AUPLL_Output
.LVL123:
.L134:
.LBE257:
.LBE256:
	.loc 1 1005 13 is_stmt 1
.LBB259:
.LBB260:
	.loc 1 829 5
	.loc 1 831 5
	.loc 1 831 12 is_stmt 0
	li	a5,536870912
	lw	a5,1072(a5)
.LVL124:
	.loc 1 833 5 is_stmt 1
.LBE260:
.LBE259:
	.loc 1 1006 13
.LBB262:
.LBB261:
	.loc 1 833 53 is_stmt 0
	extu	a5,a5,9+3-1,9
.LVL125:
	j	.L152
.LVL126:
.L101:
.LBE261:
.LBE262:
	.loc 1 917 41 is_stmt 1
	.loc 1 921 41
	.loc 1 925 13
.LBB263:
.LBB264:
	.loc 1 491 5
	.loc 1 493 5
	.loc 1 493 12 is_stmt 0
	li	a3,536870912
	lw	a4,336(a3)
.LVL127:
	.loc 1 495 5 is_stmt 1
.LBE264:
.LBE263:
.LBB266:
.LBB267:
	.loc 1 479 16 is_stmt 0
	li	a0,3
.LVL128:
.LBE267:
.LBE266:
.LBB272:
.LBB265:
	.loc 1 495 66
	srli	a5,a4,21
	andi	a5,a5,2
	.loc 1 495 115
	extu	a4,a4,7+1-1,7
.LVL129:
	.loc 1 495 72
	or	a5,a5,a4
.LVL130:
.LBE265:
.LBE272:
.LBB273:
.LBB270:
	.loc 1 477 5 is_stmt 1
	.loc 1 477 8 is_stmt 0
	beq	a5,zero,.L148
	.loc 1 480 12 is_stmt 1
	.loc 1 480 15 is_stmt 0
	li	a4,1
	.loc 1 485 16
	li	a0,5
	.loc 1 480 15
	bne	a5,a4,.L148
	.loc 1 482 9 is_stmt 1
.LBB268:
.LBB269:
	.loc 1 252 5
	.loc 1 254 5
	.loc 1 254 12 is_stmt 0
	lw	a0,596(a3)
.LVL131:
	.loc 1 256 5 is_stmt 1
.LBE269:
.LBE268:
	.loc 1 482 16 is_stmt 0
	extu	a0,a0,10+2-1,10
	call	Clock_160M_Clk_Mux_Output
.LVL132:
.L118:
.LBE270:
.LBE273:
	.loc 1 926 13 is_stmt 1
.LBB274:
.LBB275:
	.loc 1 500 5
	.loc 1 502 5
	.loc 1 502 12 is_stmt 0
	li	a5,536870912
	lw	a5,336(a5)
.LVL133:
	.loc 1 504 5 is_stmt 1
.LBE275:
.LBE274:
	.loc 1 927 13
.LBB277:
.LBB276:
	.loc 1 504 53 is_stmt 0
	andi	a5,a5,7
.LVL134:
.L152:
.LBE276:
.LBE277:
	.loc 1 1006 33
	addi	a5,a5,1
	.loc 1 1006 26
	divu	a0,a0,a5
.LVL135:
	j	.L94
.LVL136:
.L148:
.LBB278:
.LBB271:
	.loc 1 485 16
	call	Clock_System_Clock_Get
.LVL137:
	j	.L118
.LVL138:
.L102:
.LBE271:
.LBE278:
	.loc 1 931 13 is_stmt 1
.LBB279:
.LBB280:
	.loc 1 618 5
	.loc 1 620 5
	.loc 1 620 12 is_stmt 0
	li	s0,536870912
	lw	a0,432(s0)
.LVL139:
	.loc 1 622 5 is_stmt 1
.LBE280:
.LBE279:
	.loc 1 931 21 is_stmt 0
	extu	a0,a0,9+1-1,9
	call	Clock_SPI_Clk_Mux_Output
.LVL140:
	.loc 1 932 13 is_stmt 1
.LBB281:
.LBB282:
	.loc 1 627 5
	.loc 1 629 5
	.loc 1 629 12 is_stmt 0
	lw	a5,432(s0)
.LVL141:
	.loc 1 631 5 is_stmt 1
.LBE282:
.LBE281:
	.loc 1 933 13
.L156:
.LBB283:
.LBB284:
	.loc 1 660 5
.LBE284:
.LBE283:
	.loc 1 939 13
.LBB287:
.LBB285:
	.loc 1 660 53 is_stmt 0
	andi	a5,a5,31
.LVL142:
	j	.L152
.LVL143:
.L99:
.LBE285:
.LBE287:
	.loc 1 937 13 is_stmt 1
.LBB288:
.LBB289:
	.loc 1 647 5
	.loc 1 649 5
	.loc 1 649 12 is_stmt 0
	li	s0,536870912
	lw	a0,496(s0)
.LVL144:
	.loc 1 651 5 is_stmt 1
.LBE289:
.LBE288:
	.loc 1 937 21 is_stmt 0
	extu	a0,a0,9+1-1,9
	call	Clock_DBI_Clk_Mux_Output
.LVL145:
	.loc 1 938 13 is_stmt 1
.LBB290:
.LBB286:
	.loc 1 656 5
	.loc 1 658 5
	.loc 1 658 12 is_stmt 0
	lw	a5,496(s0)
	j	.L156
.LVL146:
.L146:
.LBE286:
.LBE290:
	.loc 1 943 41 is_stmt 1
	.loc 1 947 13
.LBB291:
.LBB292:
	.loc 1 678 5
	.loc 1 680 5
	.loc 1 680 12 is_stmt 0
	li	a5,536870912
	lw	a5,384(a5)
.LVL147:
	.loc 1 682 5 is_stmt 1
.LBE292:
.LBE291:
.LBB293:
.LBB294:
	.loc 1 665 5
	.loc 1 667 16 is_stmt 0
	li	a0,3
	.loc 1 665 8
	extu	a5,a5,25+1-1,25
.LVL148:
	beq	a5,zero,.L149
	.loc 1 668 12 is_stmt 1
	.loc 1 670 9
	.loc 1 670 16 is_stmt 0
	li	a0,5
.L149:
	call	Clock_System_Clock_Get
.LVL149:
.LBE294:
.LBE293:
	.loc 1 948 13 is_stmt 1
.LBB295:
.LBB296:
	.loc 1 687 5
	.loc 1 689 5
	.loc 1 689 12 is_stmt 0
	li	a5,536870912
	lw	a5,384(a5)
.LVL150:
	.loc 1 691 5 is_stmt 1
.LBE296:
.LBE295:
	.loc 1 949 13
	.loc 1 949 33 is_stmt 0
	extu	a5,a5,16+8-1,16
.LVL151:
	j	.L152
.LVL152:
.L105:
	.loc 1 953 13 is_stmt 1
	.loc 1 1019 1 is_stmt 0
	lw	s0,8(sp)
	.cfi_remember_state
	.cfi_restore 8
	lw	ra,12(sp)
	.cfi_restore 1
	addi	sp,sp,16
	.cfi_def_cfa_offset 0
	.loc 1 953 20
	tail	Clock_Get_PSRAMB_Clk
.LVL153:
.L97:
	.cfi_restore_state
	.loc 1 962 13 is_stmt 1
	.loc 1 1019 1 is_stmt 0
	lw	s0,8(sp)
	.cfi_remember_state
	.cfi_restore 8
	lw	ra,12(sp)
	.cfi_restore 1
	addi	sp,sp,16
	.cfi_def_cfa_offset 0
	.loc 1 962 20
	tail	Clock_Get_ISP_Clk
.LVL154:
.L106:
	.cfi_restore_state
	.loc 1 966 13 is_stmt 1
.LBB297:
.LBB298:
	.loc 1 589 5
	.loc 1 591 5
	.loc 1 591 12 is_stmt 0
	li	a4,536870912
	lw	a5,368(a4)
.LVL155:
	.loc 1 593 5 is_stmt 1
	.loc 1 593 54 is_stmt 0
	extu	a5,a5,12+2-1,12
.LVL156:
.LBE298:
.LBE297:
.LBB299:
.LBB300:
	.loc 1 572 5 is_stmt 1
	.loc 1 572 8 is_stmt 0
	bne	a5,zero,.L122
	.loc 1 574 9 is_stmt 1
.LBB301:
.LBB302:
	.loc 1 546 5
	.loc 1 548 5
	.loc 1 548 12 is_stmt 0
	lw	a5,368(a4)
.LVL157:
	.loc 1 550 5 is_stmt 1
	.loc 1 550 54 is_stmt 0
	extu	a5,a5,14+2-1,14
.LVL158:
.LBE302:
.LBE301:
.LBB303:
.LBB304:
	.loc 1 555 5 is_stmt 1
	.loc 1 555 8 is_stmt 0
	beq	a5,zero,.L139
	.loc 1 558 12 is_stmt 1
	.loc 1 558 15 is_stmt 0
	li	a4,1
	bne	a5,a4,.L124
	.loc 1 560 9 is_stmt 1
	.loc 1 560 16 is_stmt 0
	call	Clock_Xtal_Output
.LVL159:
.L123:
.LBE304:
.LBE303:
.LBE300:
.LBE299:
	.loc 1 967 13 is_stmt 1
.LBB318:
.LBB319:
	.loc 1 598 5
	.loc 1 600 5
	.loc 1 600 12 is_stmt 0
	li	a5,536870912
	lw	a5,368(a5)
.LVL160:
	.loc 1 602 5 is_stmt 1
.LBE319:
.LBE318:
	.loc 1 968 13
.LBB321:
.LBB320:
	.loc 1 602 53 is_stmt 0
	extu	a5,a5,8+3-1,8
.LVL161:
	j	.L152
.LVL162:
.L124:
.LBE320:
.LBE321:
.LBB322:
.LBB317:
.LBB307:
.LBB305:
	.loc 1 561 12 is_stmt 1
	.loc 1 561 15 is_stmt 0
	li	a4,2
	beq	a5,a4,.L139
.LVL163:
.L126:
	.loc 1 566 9 is_stmt 1
	.loc 1 566 16 is_stmt 0
	li	a0,5
.LVL164:
.L150:
.LBE305:
.LBE307:
.LBB308:
.LBB309:
	.loc 1 269 16
	call	Clock_Get_AUPLL_Output
.LVL165:
	j	.L123
.LVL166:
.L122:
.LBE309:
.LBE308:
	.loc 1 575 12 is_stmt 1
	.loc 1 575 15 is_stmt 0
	li	a3,1
	bne	a5,a3,.L125
	.loc 1 577 9 is_stmt 1
.LBB312:
.LBB313:
	.loc 1 277 5
	.loc 1 279 5
	.loc 1 279 12 is_stmt 0
	lw	a4,596(a4)
.LVL167:
	.loc 1 281 5 is_stmt 1
	.loc 1 281 53 is_stmt 0
	extu	a4,a4,8+2-1,8
.LVL168:
.LBE313:
.LBE312:
.LBB314:
.LBB310:
	.loc 1 261 5 is_stmt 1
	.loc 1 261 8 is_stmt 0
	beq	a4,zero,.L140
	.loc 1 264 12 is_stmt 1
	.loc 1 264 15 is_stmt 0
	beq	a4,a5,.L126
	.loc 1 267 12 is_stmt 1
	.loc 1 267 15 is_stmt 0
	li	a5,2
.LVL169:
	.loc 1 271 16
	li	a0,0
.LVL170:
	.loc 1 267 15
	bne	a4,a5,.L123
	.loc 1 269 9 is_stmt 1
	.loc 1 269 16 is_stmt 0
	li	a0,6
	j	.L150
.LVL171:
.L125:
.LBE310:
.LBE314:
	.loc 1 578 12 is_stmt 1
	.loc 1 578 15 is_stmt 0
	li	a4,2
	bne	a5,a4,.L142
	.loc 1 580 9 is_stmt 1
	.loc 1 580 16 is_stmt 0
	li	a0,3
.LVL172:
	call	Clock_System_Clock_Get
.LVL173:
	j	.L123
.LVL174:
.L139:
.LBB315:
.LBB306:
	.loc 1 557 16
	li	a0,120000512
.LVL175:
	addi	a0,a0,-512
	j	.L123
.LVL176:
.L140:
.LBE306:
.LBE315:
.LBB316:
.LBB311:
	.loc 1 263 16
	li	a0,79998976
.LVL177:
	addi	a0,a0,1024
	j	.L123
.LVL178:
.L142:
.LBE311:
.LBE316:
	.loc 1 583 16
	li	a0,96002048
.LVL179:
	addi	a0,a0,-2048
	j	.L123
.LVL180:
.L95:
.LBE317:
.LBE322:
	.loc 1 972 13 is_stmt 1
.LBB323:
.LBB324:
	.loc 1 739 5
	.loc 1 739 12 is_stmt 0
	call	Clock_Get_Audio_PLL_Output
.LVL181:
.LBE324:
.LBE323:
	.loc 1 973 13 is_stmt 1
.LBB325:
.LBB326:
	.loc 1 744 5
	.loc 1 746 5
	.loc 1 746 12 is_stmt 0
	li	a5,536870912
	lw	a5,400(a5)
.LVL182:
	.loc 1 748 5 is_stmt 1
.LBE326:
.LBE325:
	.loc 1 974 13
.LBB328:
.LBB327:
	.loc 1 748 53 is_stmt 0
	andi	a5,a5,63
.LVL183:
	j	.L152
.LVL184:
.L112:
.LBE327:
.LBE328:
	.loc 1 978 13 is_stmt 1
.LBB329:
.LBB330:
	.loc 1 532 5
	.loc 1 532 12 is_stmt 0
	li	a0,5
.LVL185:
	call	Clock_System_Clock_Get
.LVL186:
.LBE330:
.LBE329:
	.loc 1 979 13 is_stmt 1
.LBB331:
.LBB332:
	.loc 1 537 5
	.loc 1 539 5
	.loc 1 539 12 is_stmt 0
	li	a5,536870912
	lw	a5,320(a5)
.LVL187:
	.loc 1 541 5 is_stmt 1
.LBE332:
.LBE331:
	.loc 1 980 13
.LBB334:
.LBB333:
	.loc 1 541 54 is_stmt 0
	extu	a5,a5,16+6-1,16
.LVL188:
	j	.L152
.LVL189:
.L110:
.LBE333:
.LBE334:
	.loc 1 988 13 is_stmt 1
.LBB335:
.LBB336:
	.loc 1 768 5
	.loc 1 770 5
	.loc 1 770 12 is_stmt 0
	li	a4,536932352
	lw	a5,32(a4)
.LVL190:
	.loc 1 772 5 is_stmt 1
.LBE336:
.LBE335:
.LBB337:
.LBB338:
	.loc 1 725 5
	.loc 1 727 5
	.loc 1 727 8 is_stmt 0
	extu	a5,a5,8+1-1,8
.LVL191:
	beq	a5,zero,.L127
	.loc 1 729 9 is_stmt 1
.LBB339:
.LBB340:
	.loc 1 224 5
	.loc 1 226 5
	.loc 1 226 12 is_stmt 0
	lw	a0,48(a4)
.LVL192:
	.loc 1 228 5 is_stmt 1
.LBE340:
.LBE339:
.LBE338:
.LBE337:
	.loc 1 1019 1 is_stmt 0
	lw	s0,8(sp)
	.cfi_remember_state
	.cfi_restore 8
	lw	ra,12(sp)
	.cfi_restore 1
.LBB355:
.LBB353:
	.loc 1 729 16
	extu	a0,a0,3+2-1,3
.LBE353:
.LBE355:
	.loc 1 1019 1
	addi	sp,sp,16
	.cfi_def_cfa_offset 0
.LBB356:
.LBB354:
	.loc 1 729 16
	tail	Clock_F32k_Mux_Output
.LVL193:
.L127:
	.cfi_restore_state
	.loc 1 731 9 is_stmt 1
.LBB341:
.LBB342:
	.loc 1 716 5
	.loc 1 718 5
	.loc 1 718 12 is_stmt 0
	li	a5,536870912
	lw	s0,272(a5)
.LVL194:
	.loc 1 720 5 is_stmt 1
.LBE342:
.LBE341:
.LBB344:
.LBB345:
	.loc 1 709 12 is_stmt 0
	lw	a5,272(a5)
.LBE345:
.LBE344:
.LBB347:
.LBB343:
	.loc 1 720 53
	andi	s0,s0,63
.LVL195:
.LBE343:
.LBE347:
	.loc 1 732 9 is_stmt 1
.LBB348:
.LBB346:
	.loc 1 707 5
	.loc 1 709 5
	.loc 1 711 5
.LBE346:
.LBE348:
.LBB349:
.LBB350:
	.loc 1 696 5
	.loc 1 696 8 is_stmt 0
	extu	a5,a5,7+1-1,7
.LVL196:
	bne	a5,zero,.L128
	.loc 1 698 9 is_stmt 1
	.loc 1 698 16 is_stmt 0
	call	Clock_Get_Audio_PLL_Output
.LVL197:
.L129:
.LBE350:
.LBE349:
	.loc 1 732 81
	addi	s0,s0,1
.LVL198:
	.loc 1 732 74
	divu	a0,a0,s0
	j	.L94
.LVL199:
.L128:
.LBB352:
.LBB351:
	.loc 1 701 9 is_stmt 1
	.loc 1 701 16 is_stmt 0
	li	a0,5
.LVL200:
	call	Clock_System_Clock_Get
.LVL201:
	j	.L129
.LVL202:
.L131:
.LBE351:
.LBE352:
.LBE354:
.LBE356:
.LBB357:
.LBB249:
	.loc 1 785 9 is_stmt 1
	.loc 1 785 16 is_stmt 0
	call	Clock_Get_Audio_PLL_Output
.LVL203:
	j	.L130
.LVL204:
.L143:
	.loc 1 779 16
	li	a0,32002048
.LVL205:
	addi	a0,a0,-2048
	j	.L130
.LVL206:
.L108:
.LBE249:
.LBE357:
	.loc 1 998 13 is_stmt 1
.LBB358:
.LBB359:
	.loc 1 854 5
	.loc 1 856 5
	.loc 1 856 12 is_stmt 0
	li	a5,536870912
	lw	a5,1056(a5)
.LVL207:
	.loc 1 858 5 is_stmt 1
	.loc 1 858 54 is_stmt 0
	extu	a5,a5,28+2-1,28
.LVL208:
.LBE359:
.LBE358:
.LBB360:
.LBB361:
	.loc 1 838 5 is_stmt 1
	.loc 1 838 8 is_stmt 0
	bne	a5,zero,.L132
	.loc 1 840 9 is_stmt 1
	.loc 1 840 16 is_stmt 0
	li	a0,5
.LVL209:
	call	Clock_System_Clock_Get
.LVL210:
.L133:
.LBE361:
.LBE360:
	.loc 1 999 13 is_stmt 1
.LBB363:
.LBB364:
	.loc 1 863 5
	.loc 1 865 5
	.loc 1 865 12 is_stmt 0
	li	a5,536870912
	lw	a5,1056(a5)
.LVL211:
	.loc 1 867 5 is_stmt 1
.LBE364:
.LBE363:
	.loc 1 1000 13
.LBB366:
.LBB365:
	.loc 1 867 54 is_stmt 0
	srli	a5,a5,30
.LVL212:
	j	.L152
.LVL213:
.L132:
.LBE365:
.LBE366:
.LBB367:
.LBB362:
	.loc 1 841 12 is_stmt 1
	.loc 1 841 15 is_stmt 0
	li	a4,1
	beq	a5,a4,.L144
	.loc 1 844 12 is_stmt 1
	.loc 1 846 9
	.loc 1 846 16 is_stmt 0
	li	a0,5
.LVL214:
	call	Clock_Get_AUPLL_Output
.LVL215:
	j	.L133
.LVL216:
.L144:
	.loc 1 843 16
	li	a0,96002048
.LVL217:
	addi	a0,a0,-2048
	j	.L133
.LVL218:
.L145:
.LBE362:
.LBE367:
.LBB368:
.LBB258:
	.loc 1 811 16
	li	a0,96002048
	addi	a0,a0,-2048
	j	.L134
.LVL219:
.L115:
.LBE258:
.LBE368:
	.loc 1 1010 13 is_stmt 1
.LBB369:
.LBB370:
	.loc 1 522 5
	.loc 1 524 5
	.loc 1 524 12 is_stmt 0
	li	a4,536870912
	lw	a5,1352(a4)
.LVL220:
	.loc 1 526 5 is_stmt 1
.LBE370:
.LBE369:
.LBB371:
.LBB240:
	.loc 1 509 5
	.loc 1 509 8 is_stmt 0
	extu	a5,a5,24+1-1,24
.LVL221:
	beq	a5,zero,.L155
	.loc 1 512 12 is_stmt 1
	.loc 1 514 9
.LBB236:
.LBB237:
	.loc 1 252 5
	.loc 1 254 5
	.loc 1 254 12 is_stmt 0
	lw	a0,596(a4)
.LVL222:
	.loc 1 256 5 is_stmt 1
.LBE237:
.LBE236:
.LBE240:
.LBE371:
	.loc 1 1019 1 is_stmt 0
	lw	s0,8(sp)
	.cfi_restore 8
	lw	ra,12(sp)
	.cfi_restore 1
.LBB372:
.LBB241:
	.loc 1 514 16
	extu	a0,a0,10+2-1,10
.LBE241:
.LBE372:
	.loc 1 1019 1
	addi	sp,sp,16
	.cfi_def_cfa_offset 0
.LBB373:
.LBB242:
	.loc 1 514 16
	tail	Clock_160M_Clk_Mux_Output
.LVL223:
.LBE242:
.LBE373:
	.cfi_endproc
.LFE308:
	.size	Clock_Peripheral_Clock_Get, .-Clock_Peripheral_Clock_Get
	.section	.sclock_rlt_code../drivers/soc/qcc743/std/src/qcc743_clock.c1029,"ax",@progbits
	.align	1
	.globl	SystemCoreClockGet
	.type	SystemCoreClockGet, @function
SystemCoreClockGet:
.LFB309:
	.loc 1 1030 1 is_stmt 1
	.cfi_startproc
	.loc 1 1031 5
.LVL224:
	.loc 1 1033 5
	.loc 1 1030 1 is_stmt 0
	addi	sp,sp,-16
	.cfi_def_cfa_offset 16
	sw	ra,12(sp)
	.cfi_offset 1, -4
	.loc 1 1033 13
	call	GLB_Get_Core_Type
.LVL225:
	.loc 1 1033 5
	beq	a0,zero,.L158
.LVL226:
.L160:
	.loc 1 1041 36
	li	a0,32002048
	addi	a0,a0,-2048
.L157:
	.loc 1 1044 1
	lw	ra,12(sp)
	.cfi_remember_state
	.cfi_restore 1
	addi	sp,sp,16
	.cfi_def_cfa_offset 0
	jr	ra
.LVL227:
.L158:
	.cfi_restore_state
	.loc 1 1035 13 is_stmt 1
	.loc 1 1035 24 is_stmt 0
	li	a0,1
	call	Clock_System_Clock_Get
.LVL228:
	.loc 1 1036 13 is_stmt 1
	.loc 1 1041 5
	.loc 1 1041 36 is_stmt 0
	bne	a0,zero,.L157
	j	.L160
	.cfi_endproc
.LFE309:
	.size	SystemCoreClockGet, .-SystemCoreClockGet
	.section	.sclock_rlt_code../drivers/soc/qcc743/std/src/qcc743_clock.c1054,"ax",@progbits
	.align	1
	.globl	CPU_Set_MTimer_RST
	.type	CPU_Set_MTimer_RST, @function
CPU_Set_MTimer_RST:
.LFB310:
	.loc 1 1055 1 is_stmt 1
	.cfi_startproc
.LVL229:
	.loc 1 1056 5
	.loc 1 1057 5
	.loc 1 1059 5
	.loc 1 1055 1 is_stmt 0
	addi	sp,sp,-16
	.cfi_def_cfa_offset 16
	sw	s0,8(sp)
	sw	ra,12(sp)
	.cfi_offset 8, -8
	.cfi_offset 1, -4
	.loc 1 1055 1
	mv	s0,a0
	.loc 1 1059 13
	call	GLB_Get_Core_Type
.LVL230:
	.loc 1 1072 5 is_stmt 1
	.loc 1 1072 12 is_stmt 0
	li	a5,536907776
	lw	a5,20(a5)
.LVL231:
	.loc 1 1073 5 is_stmt 1
	.loc 1 1073 8 is_stmt 0
	beq	s0,zero,.L166
	.loc 1 1074 9 is_stmt 1
	.loc 1 1074 16 is_stmt 0
	li	a4,1073741824
	or	a5,a5,a4
.LVL232:
.L167:
	.loc 1 1078 5 is_stmt 1
	.loc 1 1081 1 is_stmt 0
	lw	ra,12(sp)
	.cfi_remember_state
	.cfi_restore 1
	lw	s0,8(sp)
	.cfi_restore 8
	.loc 1 1078 51
	li	a4,536907776
	sw	a5,20(a4)
	.loc 1 1080 5 is_stmt 1
	.loc 1 1081 1 is_stmt 0
	li	a0,0
	addi	sp,sp,16
	.cfi_def_cfa_offset 0
	jr	ra
.L166:
	.cfi_restore_state
	.loc 1 1076 9 is_stmt 1
	.loc 1 1076 16 is_stmt 0
	li	a4,-1073741824
	addi	a4,a4,-1
	and	a5,a5,a4
.LVL233:
	j	.L167
	.cfi_endproc
.LFE310:
	.size	CPU_Set_MTimer_RST, .-CPU_Set_MTimer_RST
	.section	.sclock_rlt_code../drivers/soc/qcc743/std/src/qcc743_clock.c1091,"ax",@progbits
	.align	1
	.globl	CPU_Reset_MTimer
	.type	CPU_Reset_MTimer, @function
CPU_Reset_MTimer:
.LFB311:
	.loc 1 1092 1 is_stmt 1
	.cfi_startproc
	.loc 1 1093 5
	.loc 1 1092 1 is_stmt 0
	addi	sp,sp,-16
	.cfi_def_cfa_offset 16
	.loc 1 1093 5
	li	a0,1
	.loc 1 1092 1
	sw	ra,12(sp)
	.cfi_offset 1, -4
	.loc 1 1093 5
	call	CPU_Set_MTimer_RST
.LVL234:
	.loc 1 1094 5 is_stmt 1
	li	a0,0
	call	CPU_Set_MTimer_RST
.LVL235:
	.loc 1 1096 5
	.loc 1 1097 1 is_stmt 0
	lw	ra,12(sp)
	.cfi_restore 1
	li	a0,0
	addi	sp,sp,16
	.cfi_def_cfa_offset 0
	jr	ra
	.cfi_endproc
.LFE311:
	.size	CPU_Reset_MTimer, .-CPU_Reset_MTimer
	.section	.sclock_rlt_code../drivers/soc/qcc743/std/src/qcc743_clock.c1109,"ax",@progbits
	.align	1
	.globl	CPU_Set_MTimer_CLK
	.type	CPU_Set_MTimer_CLK, @function
CPU_Set_MTimer_CLK:
.LFB312:
	.loc 1 1110 1 is_stmt 1
	.cfi_startproc
.LVL236:
	.loc 1 1111 5
	.loc 1 1112 5
	.loc 1 1114 5
	.loc 1 1116 5
	.loc 1 1119 5
	.loc 1 1119 12 is_stmt 0
	li	a5,536907776
	lw	a4,20(a5)
.LVL237:
	.loc 1 1120 5 is_stmt 1
	.loc 1 1120 24 is_stmt 0
	li	a3,-536870912
	addi	a3,a3,-1
	and	a4,a4,a3
.LVL238:
	.loc 1 1120 96
	slli	a1,a1,29
.LVL239:
	.loc 1 1120 12
	or	a1,a1,a4
.LVL240:
	.loc 1 1121 5 is_stmt 1
	.loc 1 1121 51 is_stmt 0
	sw	a1,20(a5)
	.loc 1 1127 5 is_stmt 1
	.loc 1 1127 12 is_stmt 0
	lw	a3,20(a5)
.LVL241:
	.loc 1 1128 5 is_stmt 1
	.loc 1 1128 12 is_stmt 0
	li	a1,-2147483648
	xori	a4,a1,-1
	and	a3,a3,a4
.LVL242:
	.loc 1 1129 5 is_stmt 1
	.loc 1 1129 51 is_stmt 0
	sw	a3,20(a5)
	.loc 1 1135 5 is_stmt 1
	.loc 1 1135 12 is_stmt 0
	lw	a3,20(a5)
.LVL243:
	.loc 1 1136 5 is_stmt 1
	.loc 1 1136 24 is_stmt 0
	andi	a3,a3,-1024
.LVL244:
	.loc 1 1136 12
	or	a2,a2,a3
.LVL245:
	.loc 1 1137 5 is_stmt 1
	.loc 1 1137 51 is_stmt 0
	sw	a2,20(a5)
	.loc 1 1143 5 is_stmt 1
	.loc 1 1143 12 is_stmt 0
	lw	a5,20(a5)
.LVL246:
	.loc 1 1144 5 is_stmt 1
	.loc 1 1147 16 is_stmt 0
	and	a4,a5,a4
	.loc 1 1144 8
	beq	a0,zero,.L173
	.loc 1 1145 9 is_stmt 1
	.loc 1 1145 16 is_stmt 0
	or	a4,a5,a1
.LVL247:
.L173:
	.loc 1 1149 5 is_stmt 1
	.loc 1 1149 51 is_stmt 0
	li	a5,536907776
	sw	a4,20(a5)
	.loc 1 1151 5 is_stmt 1
	.loc 1 1152 1 is_stmt 0
	li	a0,0
.LVL248:
	ret
	.cfi_endproc
.LFE312:
	.size	CPU_Set_MTimer_CLK, .-CPU_Set_MTimer_CLK
	.section	.sclock_rlt_code../drivers/soc/qcc743/std/src/qcc743_clock.c1162,"ax",@progbits
	.align	1
	.globl	CPU_Get_MTimer_Source_Clock
	.type	CPU_Get_MTimer_Source_Clock, @function
CPU_Get_MTimer_Source_Clock:
.LFB313:
	.loc 1 1163 1 is_stmt 1
	.cfi_startproc
	.loc 1 1164 5
.LVL249:
	.loc 1 1165 5
	.loc 1 1167 5
	.loc 1 1163 1 is_stmt 0
	addi	sp,sp,-16
	.cfi_def_cfa_offset 16
	.loc 1 1167 12
	li	a5,536907776
	.loc 1 1163 1
	sw	s0,8(sp)
	sw	ra,12(sp)
	.cfi_offset 8, -8
	.cfi_offset 1, -4
	.loc 1 1167 12
	lw	s0,20(a5)
.LVL250:
	.loc 1 1168 5 is_stmt 1
	.loc 1 1171 5
	.loc 1 1171 13 is_stmt 0
	call	GLB_Get_Core_Type
.LVL251:
	.loc 1 1171 5
	beq	a0,zero,.L176
.LVL252:
.L180:
	.loc 1 1183 36
	li	a0,32002048
	addi	a0,a0,-2048
.L175:
	.loc 1 1186 1
	lw	ra,12(sp)
	.cfi_remember_state
	.cfi_restore 1
	lw	s0,8(sp)
	.cfi_restore 8
	addi	sp,sp,16
	.cfi_def_cfa_offset 0
	jr	ra
.LVL253:
.L176:
	.cfi_restore_state
	.loc 1 1173 13 is_stmt 1
	.loc 1 1168 12 is_stmt 0
	extu	s0,s0,29+1-1,29
.LVL254:
	.loc 1 1174 28
	li	a0,5
	.loc 1 1173 16
	beq	s0,zero,.L185
	.loc 1 1176 17 is_stmt 1
	.loc 1 1176 28 is_stmt 0
	li	a0,1
.L185:
	call	Clock_System_Clock_Get
.LVL255:
	.loc 1 1183 5 is_stmt 1
	.loc 1 1183 36 is_stmt 0
	bne	a0,zero,.L175
	j	.L180
	.cfi_endproc
.LFE313:
	.size	CPU_Get_MTimer_Source_Clock, .-CPU_Get_MTimer_Source_Clock
	.section	.sclock_rlt_code../drivers/soc/qcc743/std/src/qcc743_clock.c1196,"ax",@progbits
	.align	1
	.globl	CPU_Get_MTimer_Clock
	.type	CPU_Get_MTimer_Clock, @function
CPU_Get_MTimer_Clock:
.LFB314:
	.loc 1 1197 1 is_stmt 1
	.cfi_startproc
	.loc 1 1198 5
.LVL256:
	.loc 1 1199 5
	.loc 1 1200 5
	.loc 1 1201 5
	.loc 1 1203 5
	.loc 1 1205 5
	.loc 1 1197 1 is_stmt 0
	addi	sp,sp,-16
	.cfi_def_cfa_offset 16
	.loc 1 1205 12
	li	a5,536907776
	.loc 1 1197 1
	sw	s0,8(sp)
	sw	ra,12(sp)
	.cfi_offset 8, -8
	.cfi_offset 1, -4
	.loc 1 1205 12
	lw	s0,20(a5)
.LVL257:
	.loc 1 1206 5 is_stmt 1
	.loc 1 1210 5
	.loc 1 1210 13 is_stmt 0
	call	GLB_Get_Core_Type
.LVL258:
	mv	a5,a0
	.loc 1 1219 22
	li	a0,0
	.loc 1 1210 5
	bne	a5,zero,.L187
	.loc 1 1212 13 is_stmt 1
	.loc 1 1206 12 is_stmt 0
	extu	s0,s0,29+1-1,29
.LVL259:
	.loc 1 1213 28
	li	a0,5
	.loc 1 1212 16
	beq	s0,zero,.L192
	.loc 1 1215 17 is_stmt 1
	.loc 1 1215 28 is_stmt 0
	li	a0,1
.L192:
	call	Clock_System_Clock_Get
.LVL260:
.L187:
	.loc 1 1225 5 is_stmt 1
	.loc 1 1225 15 is_stmt 0
	li	a5,536907776
	lw	a5,20(a5)
	.loc 1 1225 9
	andi	a5,a5,1023
.LVL261:
	.loc 1 1226 5 is_stmt 1
	.loc 1 1226 9 is_stmt 0
	addi	a5,a5,1
.LVL262:
	.loc 1 1227 5 is_stmt 1
	.loc 1 1227 36 is_stmt 0
	bne	a0,zero,.L189
	li	a0,32002048
.LVL263:
	addi	a0,a0,-2048
.L189:
.LVL264:
	.loc 1 1228 5 is_stmt 1 discriminator 4
	.loc 1 1230 5 discriminator 4
	.loc 1 1231 1 is_stmt 0 discriminator 4
	lw	ra,12(sp)
	.cfi_restore 1
	lw	s0,8(sp)
	.cfi_restore 8
	divu	a0,a0,a5
.LVL265:
	addi	sp,sp,16
	.cfi_def_cfa_offset 0
	jr	ra
	.cfi_endproc
.LFE314:
	.size	CPU_Get_MTimer_Clock, .-CPU_Get_MTimer_Clock
	.section	.sclock_rlt_code../drivers/soc/qcc743/std/src/qcc743_clock.c1241,"ax",@progbits
	.align	1
	.globl	CPU_Get_MTimer_Counter
	.type	CPU_Get_MTimer_Counter, @function
CPU_Get_MTimer_Counter:
.LFB315:
	.loc 1 1242 1 is_stmt 1
	.cfi_startproc
	.loc 1 1243 5
	.loc 1 1244 5
.LVL266:
	.loc 1 1242 1 is_stmt 0
	addi	sp,sp,-48
	.cfi_def_cfa_offset 48
	sw	s0,44(sp)
	.cfi_offset 8, -4
	.loc 1 1242 1
	li	a5,5
.LBB382:
.LBB383:
	.file 2 "./drivers/lhal/include/arch/risc-v/t-head/Core/Include/core_rv32.h"
	.loc 2 752 43
	li	s0,-536821760
.LVL267:
.L200:
.LBE383:
.LBE382:
	.loc 1 1246 5 is_stmt 1
	.loc 1 1247 9
.LBB385:
.LBB384:
	.loc 2 752 5
	.loc 2 752 43 is_stmt 0
	lw	a2,-8(s0)
	lw	a3,-4(s0)
	.loc 2 752 51
	li	t6,0
	li	a7,0
.LBE384:
.LBE385:
	.loc 1 1247 20
	sw	a3,8(sp)
	sw	t6,12(sp)
	.loc 1 1248 9 is_stmt 1
.LBB386:
.LBB387:
	.loc 2 743 5
	.loc 2 743 42 is_stmt 0
	lw	a2,-8(s0)
	lw	a3,-4(s0)
	li	t2,0
.LBE387:
.LBE386:
	.loc 1 1248 19
	sw	a2,0(sp)
	sw	a7,4(sp)
	.loc 1 1249 9 is_stmt 1
.LBB388:
.LBB389:
	.loc 2 743 5
	.loc 2 743 42 is_stmt 0
	lw	a2,-8(s0)
	lw	a3,-4(s0)
.LBE389:
.LBE388:
.LBB390:
.LBB391:
	.loc 2 752 51
	li	t4,0
.LBE391:
.LBE390:
	.loc 1 1249 20
	sw	a2,16(sp)
	sw	t2,20(sp)
	.loc 1 1250 9 is_stmt 1
.LBB393:
.LBB392:
	.loc 2 752 5
	.loc 2 752 43 is_stmt 0
	lw	a2,-8(s0)
	lw	a3,-4(s0)
.LBE392:
.LBE393:
	.loc 1 1252 12
	addi	a5,a5,-1
.LVL268:
	andi	a5,a5,0xff
	.loc 1 1250 21
	sw	a3,24(sp)
	sw	t4,28(sp)
	.loc 1 1251 9 is_stmt 1
	.loc 1 1252 9
	.loc 1 1252 12 is_stmt 0
	beq	a5,zero,.L194
.LVL269:
	.loc 1 1255 13 is_stmt 1
	.loc 1 1255 24 is_stmt 0
	lw	a2,0(sp)
	lw	a3,4(sp)
	lw	a0,16(sp)
	lw	a1,20(sp)
	.loc 1 1255 5
	bgtu	a3,a1,.L200
	bne	a3,a1,.L197
	bltu	a0,a2,.L200
.L197:
	.loc 1 1255 51 discriminator 1
	lw	a2,8(sp)
	lw	a3,12(sp)
	lw	a0,24(sp)
	lw	a1,28(sp)
	.loc 1 1255 37 discriminator 1
	bne	a0,a2,.L200
	bne	a1,a3,.L200
.LVL270:
.L194:
	.loc 1 1257 5 is_stmt 1
	.loc 1 1257 36 is_stmt 0
	lw	a2,24(sp)
	.loc 1 1258 1
	lw	s0,44(sp)
	.cfi_restore 8
	.loc 1 1257 36
	lw	a3,28(sp)
	.loc 1 1257 12
	lw	a0,16(sp)
	lw	a1,20(sp)
	.loc 1 1257 36
	li	a4,0
	mv	a5,a2
	.loc 1 1258 1
	add64	a0,a4,a0
	addi	sp,sp,48
	.cfi_def_cfa_offset 0
	jr	ra
	.cfi_endproc
.LFE315:
	.size	CPU_Get_MTimer_Counter, .-CPU_Get_MTimer_Counter
	.section	.sclock_rlt_code../drivers/soc/qcc743/std/src/qcc743_clock.c1268,"ax",@progbits
	.align	1
	.globl	CPU_Get_CPU_Cycle
	.type	CPU_Get_CPU_Cycle, @function
CPU_Get_CPU_Cycle:
.LFB316:
	.loc 1 1269 1 is_stmt 1
	.cfi_startproc
	.loc 1 1273 5
	.loc 1 1274 5
.LVL271:
	.loc 1 1269 1 is_stmt 0
	addi	sp,sp,-32
	.cfi_def_cfa_offset 32
	.loc 1 1269 1
	li	a5,5
.LVL272:
.L210:
	.loc 1 1276 5 is_stmt 1
	.loc 1 1277 9
.LBB394:
.LBB395:
	.file 3 "./drivers/lhal/include/arch/risc-v/t-head/Core/Include/csi_rv32_gcc.h"
	.loc 3 526 5
	.loc 3 528 5
 #APP
# 528 "/home/sai/QCCSDK-QCC74x/drivers/lhal/include/arch/risc-v/t-head/Core/Include/csi_rv32_gcc.h" 1
	csrr a4, mcycleh
# 0 "" 2
.LVL273:
	.loc 3 530 5
 #NO_APP
.LBE395:
.LBE394:
	.loc 1 1277 22 is_stmt 0
	li	a7,0
	.loc 1 1277 20
	sw	a4,8(sp)
	sw	a7,12(sp)
	.loc 1 1278 9 is_stmt 1
.LBB396:
.LBB397:
	.loc 3 512 5
	.loc 3 514 5
 #APP
# 514 "/home/sai/QCCSDK-QCC74x/drivers/lhal/include/arch/risc-v/t-head/Core/Include/csi_rv32_gcc.h" 1
	csrr a4, mcycle
# 0 "" 2
.LVL274:
	.loc 3 516 5
 #NO_APP
.LBE397:
.LBE396:
	.loc 1 1278 21 is_stmt 0
	li	t2,0
	.loc 1 1278 19
	sw	a4,0(sp)
	sw	t2,4(sp)
	.loc 1 1279 9 is_stmt 1
.LBB398:
.LBB399:
	.loc 3 512 5
	.loc 3 514 5
 #APP
# 514 "/home/sai/QCCSDK-QCC74x/drivers/lhal/include/arch/risc-v/t-head/Core/Include/csi_rv32_gcc.h" 1
	csrr a4, mcycle
# 0 "" 2
.LVL275:
	.loc 3 516 5
 #NO_APP
.LBE399:
.LBE398:
	.loc 1 1279 22 is_stmt 0
	li	t4,0
	.loc 1 1279 20
	sw	a4,16(sp)
	sw	t4,20(sp)
	.loc 1 1280 9 is_stmt 1
.LBB400:
.LBB401:
	.loc 3 526 5
	.loc 3 528 5
 #APP
# 528 "/home/sai/QCCSDK-QCC74x/drivers/lhal/include/arch/risc-v/t-head/Core/Include/csi_rv32_gcc.h" 1
	csrr a4, mcycleh
# 0 "" 2
.LVL276:
	.loc 3 530 5
 #NO_APP
.LBE401:
.LBE400:
	.loc 1 1280 23 is_stmt 0
	li	t6,0
	.loc 1 1280 21
	sw	a4,24(sp)
	.loc 1 1282 12
	addi	a5,a5,-1
.LVL277:
	.loc 1 1280 21
	sw	t6,28(sp)
	.loc 1 1281 9 is_stmt 1
	.loc 1 1282 9
	.loc 1 1282 12 is_stmt 0
	andi	a5,a5,0xff
	beq	a5,zero,.L204
	.loc 1 1285 13 is_stmt 1
	.loc 1 1285 24 is_stmt 0
	lw	a2,0(sp)
	lw	a3,4(sp)
	lw	a0,16(sp)
	lw	a1,20(sp)
	.loc 1 1285 5
	bgtu	a3,a1,.L210
	bne	a3,a1,.L207
	bltu	a0,a2,.L210
.L207:
	.loc 1 1285 51 discriminator 1
	lw	a2,8(sp)
	lw	a3,12(sp)
	lw	a0,24(sp)
	lw	a1,28(sp)
	.loc 1 1285 37 discriminator 1
	bne	a0,a2,.L210
	bne	a1,a3,.L210
.L204:
	.loc 1 1287 5 is_stmt 1
	.loc 1 1287 36 is_stmt 0
	lw	a2,24(sp)
	lw	a3,28(sp)
	.loc 1 1287 12
	lw	a0,16(sp)
	lw	a1,20(sp)
	.loc 1 1287 36
	li	a4,0
	mv	a5,a2
	.loc 1 1289 1
	add64	a0,a4,a0
	addi	sp,sp,32
	.cfi_def_cfa_offset 0
	jr	ra
	.cfi_endproc
.LFE316:
	.size	CPU_Get_CPU_Cycle, .-CPU_Get_CPU_Cycle
	.globl	__udivdi3
	.section	.sclock_rlt_code../drivers/soc/qcc743/std/src/qcc743_clock.c1299,"ax",@progbits
	.align	1
	.globl	CPU_Get_MTimer_US
	.type	CPU_Get_MTimer_US, @function
CPU_Get_MTimer_US:
.LFB317:
	.loc 1 1300 1 is_stmt 1
	.cfi_startproc
	.loc 1 1301 5
	.loc 1 1300 1 is_stmt 0
	addi	sp,sp,-16
	.cfi_def_cfa_offset 16
	sw	ra,12(sp)
	sw	s2,0(sp)
	sw	s0,8(sp)
	sw	s1,4(sp)
	.cfi_offset 1, -4
	.cfi_offset 18, -16
	.cfi_offset 8, -8
	.cfi_offset 9, -12
	.loc 1 1301 20
	call	CPU_Get_MTimer_Clock
.LVL278:
	mv	s2,a0
.LVL279:
	.loc 1 1302 5 is_stmt 1
	.loc 1 1302 31 is_stmt 0
	call	CPU_Get_MTimer_Counter
.LVL280:
	.loc 1 1303 5 is_stmt 1
	.loc 1 1303 8 is_stmt 0
	or	a5,a0,a1
	bne	a5,zero,.L217
	.loc 1 1304 9 is_stmt 1
	.loc 1 1304 26 is_stmt 0
	call	CPU_Get_CPU_Cycle
.LVL281:
	mv	s0,a0
	mv	s1,a1
.LVL282:
	.loc 1 1305 9 is_stmt 1
	.loc 1 1305 15 is_stmt 0
	call	SystemCoreClockGet
.LVL283:
	mv	s2,a0
.LVL284:
.L214:
	.loc 1 1308 5 is_stmt 1
	.loc 1 1308 8 is_stmt 0
	li	a5,999424
	addi	a4,a5,575
	bgtu	s2,a4,.L215
	.loc 1 1309 9 is_stmt 1
	.loc 1 1309 31 is_stmt 0
	li	a2,1000
	mulr64	a0,a2,s0
	mula	a1,a2,s1
	.loc 1 1309 38
	li	a3,0
	divu	a2,s2,a2
.L219:
	.loc 1 1311 31
	call	__udivdi3
.LVL285:
	.loc 1 1313 1
	lw	ra,12(sp)
	.cfi_remember_state
	.cfi_restore 1
	lw	s0,8(sp)
	.cfi_restore 8
.LVL286:
	lw	s1,4(sp)
	.cfi_restore 9
	lw	s2,0(sp)
	.cfi_restore 18
.LVL287:
	addi	sp,sp,16
	.cfi_def_cfa_offset 0
	jr	ra
.LVL288:
.L217:
	.cfi_restore_state
	mv	s0,a0
	mv	s1,a1
	j	.L214
.LVL289:
.L215:
	.loc 1 1311 9 is_stmt 1
	.loc 1 1311 45 is_stmt 0
	addi	a5,a5,576
	.loc 1 1311 31
	divu	a2,s2,a5
	li	a3,0
	mv	a0,s0
	mv	a1,s1
	j	.L219
	.cfi_endproc
.LFE317:
	.size	CPU_Get_MTimer_US, .-CPU_Get_MTimer_US
	.section	.sclock_rlt_code../drivers/soc/qcc743/std/src/qcc743_clock.c1323,"ax",@progbits
	.align	1
	.globl	CPU_Get_MTimer_MS
	.type	CPU_Get_MTimer_MS, @function
CPU_Get_MTimer_MS:
.LFB318:
	.loc 1 1324 1 is_stmt 1
	.cfi_startproc
	.loc 1 1325 5
	.loc 1 1324 1 is_stmt 0
	addi	sp,sp,-32
	.cfi_def_cfa_offset 32
	sw	ra,28(sp)
	sw	s0,24(sp)
	sw	s1,20(sp)
	.cfi_offset 1, -4
	.cfi_offset 8, -8
	.cfi_offset 9, -12
	.loc 1 1325 20
	call	CPU_Get_MTimer_Clock
.LVL290:
	mv	s1,a0
.LVL291:
	.loc 1 1326 5 is_stmt 1
	.loc 1 1326 31 is_stmt 0
	call	CPU_Get_MTimer_Counter
.LVL292:
	.loc 1 1327 5 is_stmt 1
	.loc 1 1327 8 is_stmt 0
	or	a5,a0,a1
	mv	s0,a0
	bne	a5,zero,.L221
	.loc 1 1328 9 is_stmt 1
	.loc 1 1328 26 is_stmt 0
	call	CPU_Get_CPU_Cycle
.LVL293:
	sw	a1,12(sp)
	mv	s0,a0
.LVL294:
	.loc 1 1329 9 is_stmt 1
	.loc 1 1329 15 is_stmt 0
	call	SystemCoreClockGet
.LVL295:
	lw	a1,12(sp)
	mv	s1,a0
.LVL296:
.L221:
	.loc 1 1332 5 is_stmt 1
	.loc 1 1332 27 is_stmt 0
	li	a2,1000
	divu	a2,s1,a2
	mv	a0,s0
	li	a3,0
	call	__udivdi3
.LVL297:
	.loc 1 1333 1
	lw	ra,28(sp)
	.cfi_restore 1
	lw	s0,24(sp)
	.cfi_restore 8
	lw	s1,20(sp)
	.cfi_restore 9
.LVL298:
	addi	sp,sp,32
	.cfi_def_cfa_offset 0
	jr	ra
	.cfi_endproc
.LFE318:
	.size	CPU_Get_MTimer_MS, .-CPU_Get_MTimer_MS
	.section	.sclock_rlt_code../drivers/soc/qcc743/std/src/qcc743_clock.c1343,"ax",@progbits
	.align	1
	.globl	CPU_MTimer_Delay_US
	.type	CPU_MTimer_Delay_US, @function
CPU_MTimer_Delay_US:
.LFB319:
	.loc 1 1344 1 is_stmt 1
	.cfi_startproc
.LVL299:
	.loc 1 1345 5
	.loc 1 1344 1 is_stmt 0
	addi	sp,sp,-32
	.cfi_def_cfa_offset 32
	.loc 1 1345 23
	li	a4,0
	sw	a4,0(sp)
	li	a5,0
	sw	a5,4(sp)
	.loc 1 1346 5 is_stmt 1
	.loc 1 1346 23 is_stmt 0
	sw	a4,8(sp)
	.loc 1 1344 1
	sw	s0,24(sp)
	sw	ra,28(sp)
	.cfi_offset 8, -8
	.cfi_offset 1, -4
	.loc 1 1344 1
	mv	s0,a0
	.loc 1 1346 23
	sw	a5,12(sp)
	.loc 1 1348 5 is_stmt 1
	.loc 1 1348 11 is_stmt 0
	call	CPU_Get_MTimer_US
.LVL300:
	.loc 1 1348 9
	sw	a0,0(sp)
	sw	a1,4(sp)
.L225:
	.loc 1 1349 5 is_stmt 1 discriminator 1
	.loc 1 1350 9 discriminator 1
	.loc 1 1350 15 is_stmt 0 discriminator 1
	call	CPU_Get_MTimer_US
.LVL301:
	.loc 1 1350 13 discriminator 1
	sw	a0,8(sp)
	sw	a1,12(sp)
	.loc 1 1351 13 is_stmt 1 discriminator 1
	.loc 1 1351 20 is_stmt 0 discriminator 1
	lw	a4,8(sp)
	lw	a5,12(sp)
	lw	a2,0(sp)
	lw	a3,4(sp)
	sub64	a4,a4,a2
	.loc 1 1351 5 discriminator 1
	bne	a5,zero,.L227
	bgtu	s0,a4,.L225
.L227:
	.loc 1 1353 5 is_stmt 1
	.loc 1 1354 1 is_stmt 0
	lw	ra,28(sp)
	.cfi_restore 1
	lw	s0,24(sp)
	.cfi_restore 8
.LVL302:
	li	a0,0
	addi	sp,sp,32
	.cfi_def_cfa_offset 0
	jr	ra
	.cfi_endproc
.LFE319:
	.size	CPU_MTimer_Delay_US, .-CPU_MTimer_Delay_US
	.section	.sclock_rlt_code../drivers/soc/qcc743/std/src/qcc743_clock.c1364,"ax",@progbits
	.align	1
	.globl	CPU_MTimer_Delay_MS
	.type	CPU_MTimer_Delay_MS, @function
CPU_MTimer_Delay_MS:
.LFB320:
	.loc 1 1365 1 is_stmt 1
	.cfi_startproc
.LVL303:
	.loc 1 1366 5
	.loc 1 1365 1 is_stmt 0
	addi	sp,sp,-32
	.cfi_def_cfa_offset 32
	.loc 1 1366 23
	li	a4,0
	sw	a4,0(sp)
	li	a5,0
	sw	a5,4(sp)
	.loc 1 1367 5 is_stmt 1
	.loc 1 1367 23 is_stmt 0
	sw	a4,8(sp)
	.loc 1 1365 1
	sw	s0,24(sp)
	sw	ra,28(sp)
	.cfi_offset 8, -8
	.cfi_offset 1, -4
	.loc 1 1365 1
	mv	s0,a0
	.loc 1 1367 23
	sw	a5,12(sp)
	.loc 1 1369 5 is_stmt 1
	.loc 1 1369 11 is_stmt 0
	call	CPU_Get_MTimer_MS
.LVL304:
	.loc 1 1369 9
	sw	a0,0(sp)
	sw	a1,4(sp)
.L231:
	.loc 1 1370 5 is_stmt 1 discriminator 1
	.loc 1 1371 9 discriminator 1
	.loc 1 1371 15 is_stmt 0 discriminator 1
	call	CPU_Get_MTimer_MS
.LVL305:
	.loc 1 1371 13 discriminator 1
	sw	a0,8(sp)
	sw	a1,12(sp)
	.loc 1 1372 13 is_stmt 1 discriminator 1
	.loc 1 1372 20 is_stmt 0 discriminator 1
	lw	a4,8(sp)
	lw	a5,12(sp)
	lw	a2,0(sp)
	lw	a3,4(sp)
	sub64	a4,a4,a2
	.loc 1 1372 5 discriminator 1
	bne	a5,zero,.L233
	bgtu	s0,a4,.L231
.L233:
	.loc 1 1374 5 is_stmt 1
	.loc 1 1375 1 is_stmt 0
	lw	ra,28(sp)
	.cfi_restore 1
	lw	s0,24(sp)
	.cfi_restore 8
.LVL306:
	li	a0,0
	addi	sp,sp,32
	.cfi_def_cfa_offset 0
	jr	ra
	.cfi_endproc
.LFE320:
	.size	CPU_MTimer_Delay_MS, .-CPU_MTimer_Delay_MS
	.section	.rodata.CSWTCH.86,"a"
	.align	2
	.set	.LANCHOR0,. + 0
	.type	CSWTCH.86, @object
	.size	CSWTCH.86, 28
CSWTCH.86:
	.word	0
	.word	24000000
	.word	32000000
	.word	38400000
	.word	40000000
	.word	26000000
	.word	32000000
	.text
.Letext0:
	.file 4 "./toolchain/linux_x86_64/riscv64-unknown-elf/include/machine/_default_types.h"
	.file 5 "./toolchain/linux_x86_64/riscv64-unknown-elf/include/sys/_stdint.h"
	.file 6 "./drivers/soc/qcc743/std/include/qcc743_common.h"
	.file 7 "./drivers/soc/qcc743/std/include/qcc743_clock.h"
	.file 8 "./drivers/soc/qcc743/std/include/qcc743_glb.h"
	.file 9 "./drivers/soc/qcc743/std/include/qcc743_hbn.h"