	.file	"qcc743_common.c"
	.option nopic
	.attribute arch, "rv32i2p0_m2p0_a2p0_f2p0_c2p0_p0p9_zpn0p9_zpsfoperand0p9_xtheade2p0"
	.attribute unaligned_access, 0
	.attribute stack_align, 16
	.text
.Ltext0:
	.cfi_sections	.debug_frame
	.section	.tcm_code../drivers/soc/qcc743/std/src/qcc743_common.c66,"ax",@progbits
	.align	1
	.weak	ASM_Delay_Us
	.type	ASM_Delay_Us, @function
ASM_Delay_Us:
.LFB242:
	.file 1 "./drivers/soc/qcc743/std/src/qcc743_common.c"
	.loc 1 67 1
	.cfi_startproc
.LVL0:
	.loc 1 68 5
	.loc 1 67 1 is_stmt 0
	addi	sp,sp,-16
	.cfi_def_cfa_offset 16
	.loc 1 68 23
	sw	a2,4(sp)
	.loc 1 69 5 is_stmt 1
	.loc 1 69 23 is_stmt 0
	sw	zero,8(sp)
	.loc 1 70 5 is_stmt 1
	.loc 1 76 8 is_stmt 0
	li	a3,999424
	.loc 1 70 23
	sw	zero,12(sp)
	.loc 1 76 5 is_stmt 1
	.loc 1 76 8 is_stmt 0
	addi	a3,a3,575
	bleu	a0,a3,.L2
	.loc 1 78 9 is_stmt 1
	.loc 1 78 22 is_stmt 0
	li	a3,98304
	addi	a3,a3,1696
	divu	a0,a0,a3
.LVL1:
	.loc 1 80 25
	li	a4,10
	.loc 1 78 15
	sw	a0,8(sp)
	.loc 1 79 9 is_stmt 1
	.loc 1 79 24 is_stmt 0
	lw	a5,8(sp)
	mul	a5,a5,a1
	.loc 1 79 16
	sw	a5,12(sp)
	.loc 1 80 9 is_stmt 1
	.loc 1 80 25 is_stmt 0
	lw	a5,12(sp)
	divu	a5,a5,a4
.L9:
	.loc 1 87 16
	sw	a5,12(sp)
	.loc 1 88 9 is_stmt 1
	.loc 1 88 25 is_stmt 0
	lw	a5,12(sp)
	lw	a4,4(sp)
	divu	a5,a5,a4
	.loc 1 88 16
	sw	a5,12(sp)
	.loc 1 92 5 is_stmt 1
	.loc 1 92 9 is_stmt 0
	lw	a5,12(sp)
	.loc 1 92 8
	beq	a5,zero,.L1
	.loc 1 96 5 is_stmt 1
	lw	a3,12(sp)
 #APP
# 96 "/home/sai/QCCSDK-QCC74x/drivers/soc/qcc743/std/src/qcc743_common.c" 1
	mv       a4,a3
	li       a5,0x0
	nop
	nop
	nop
	.align 4
	1  :
beq      a5,a4,2f
	addi     a5,a5,0x1
	j        1b
	nop
	nop
	2   :
	nop

# 0 "" 2
 #NO_APP
.L1:
	.loc 1 115 1 is_stmt 0
	addi	sp,sp,16
	.cfi_remember_state
	.cfi_def_cfa_offset 0
	jr	ra
.LVL2:
.L2:
	.cfi_restore_state
	.loc 1 85 9 is_stmt 1
	.loc 1 85 22 is_stmt 0
	li	a3,1000
	divu	a0,a0,a3
.LVL3:
	.loc 1 85 15
	sw	a0,8(sp)
	.loc 1 86 9 is_stmt 1
	.loc 1 86 24 is_stmt 0
	lw	a4,8(sp)
	mul	a4,a4,a1
	.loc 1 86 16
	sw	a4,12(sp)
	.loc 1 87 9 is_stmt 1
	.loc 1 87 25 is_stmt 0
	lw	a5,12(sp)
	divu	a5,a5,a3
	j	.L9
	.cfi_endproc
.LFE242:
	.size	ASM_Delay_Us, .-ASM_Delay_Us
	.section	.tcm_code../drivers/soc/qcc743/std/src/qcc743_common.c127,"ax",@progbits
	.align	1
	.weak	arch_delay_us
	.type	arch_delay_us, @function
arch_delay_us:
.LFB243:
	.loc 1 128 1 is_stmt 1
	.cfi_startproc
.LVL4:
	.loc 1 129 5
	.loc 1 130 5
	.loc 1 133 5
	.loc 1 134 5
	.loc 1 138 5
.LBB6:
.LBB7:
	.file 2 "./drivers/lhal/include/arch/risc-v/t-head/Core/Include/csi_rv32_gcc.h"
	.loc 2 183 5
	.loc 2 185 5
.LBE7:
.LBE6:
	.loc 1 128 1 is_stmt 0
	addi	sp,sp,-32
	.cfi_def_cfa_offset 32
	sw	ra,28(sp)
	.cfi_offset 1, -4
	.loc 1 128 1
	mv	a1,a0
.LBB9:
.LBB8:
	.loc 2 185 5
 #APP
# 185 "/home/sai/QCCSDK-QCC74x/drivers/lhal/include/arch/risc-v/t-head/Core/Include/csi_rv32_gcc.h" 1
	csrr a5, 0x7c1
# 0 "" 2
.LVL5:
	.loc 2 187 5 is_stmt 1
 #NO_APP
.LBE8:
.LBE9:
	.loc 1 139 5
.LBB10:
.LBB11:
	.loc 2 183 5
	.loc 2 185 5
 #APP
# 185 "/home/sai/QCCSDK-QCC74x/drivers/lhal/include/arch/risc-v/t-head/Core/Include/csi_rv32_gcc.h" 1
	csrr a2, 0x7c1
# 0 "" 2
.LVL6:
	.loc 2 187 5
 #NO_APP
.LBE11:
.LBE10:
	.loc 1 138 14 is_stmt 0
	andi	a4,a5,1
.LVL7:
	.loc 1 139 47
	srli	a2,a2,1
.LVL8:
	.loc 1 141 5 is_stmt 1
	.loc 1 141 7 is_stmt 0
	beq	a4,zero,.L11
	.loc 1 139 14 discriminator 1
	andi	a2,a2,1
.LVL9:
	.loc 1 141 17 discriminator 1
	li	a5,4
	sub	a2,a5,a2
.LVL10:
.L12:
	.loc 1 159 24
	li	a0,1
.LVL11:
	sw	a1,12(sp)
	sw	a2,8(sp)
.LVL12:
	.loc 1 149 5 is_stmt 1
	.loc 1 159 13
	.loc 1 159 24 is_stmt 0
	call	Clock_System_Clock_Get
.LVL13:
	.loc 1 168 5 is_stmt 1
	.loc 1 168 36 is_stmt 0
	lw	a2,8(sp)
	lw	a1,12(sp)
	bne	a0,zero,.L13
	li	a0,32002048
.LVL14:
	addi	a0,a0,-2048
.L13:
.LVL15:
	.loc 1 170 5 is_stmt 1 discriminator 4
	.loc 1 171 1 is_stmt 0 discriminator 4
	lw	ra,28(sp)
	.cfi_remember_state
	.cfi_restore 1
	addi	sp,sp,32
	.cfi_def_cfa_offset 0
.LVL16:
	.loc 1 170 5 discriminator 4
	tail	ASM_Delay_Us
.LVL17:
.L11:
	.cfi_restore_state
	.loc 1 145 11 is_stmt 1
	.loc 1 145 24 is_stmt 0
	or	a2,a2,a5
.LVL18:
	andi	a5,a2,1
	.loc 1 130 14
	li	a2,3
	.loc 1 145 13
	bne	a5,zero,.L12
	.loc 1 146 18
	li	a2,24
	j	.L12
	.cfi_endproc
.LFE243:
	.size	arch_delay_us, .-arch_delay_us
	.section	.tcm_code../drivers/soc/qcc743/std/src/qcc743_common.c182,"ax",@progbits
	.align	1
	.weak	arch_delay_ms
	.type	arch_delay_ms, @function
arch_delay_ms:
.LFB244:
	.loc 1 183 1 is_stmt 1
	.cfi_startproc
.LVL19:
	.loc 1 184 5
	.loc 1 185 5
	.loc 1 187 5
	.loc 1 183 1 is_stmt 0
	addi	sp,sp,-16
	.cfi_def_cfa_offset 16
	sw	s0,8(sp)
	sw	ra,12(sp)
	sw	s1,4(sp)
	sw	s2,0(sp)
	.cfi_offset 8, -8
	.cfi_offset 1, -4
	.cfi_offset 9, -12
	.cfi_offset 18, -16
	.loc 1 187 8
	li	a5,1023
	.loc 1 183 1
	mv	s0,a0
	.loc 1 187 8
	bleu	a0,a5,.L17
	.loc 1 189 30
	srli	s2,a0,10
	.loc 1 189 16
	li	s1,0
.LVL20:
.L18:
	.loc 1 190 13 is_stmt 1 discriminator 3
	li	a0,1024000
	.loc 1 189 40 is_stmt 0 discriminator 3
	addi	s1,s1,1
.LVL21:
	.loc 1 190 13 discriminator 3
	call	arch_delay_us
.LVL22:
	.loc 1 189 39 is_stmt 1 discriminator 3
	.loc 1 189 21 discriminator 3
	.loc 1 189 9 is_stmt 0 discriminator 3
	bne	s2,s1,.L18
.LVL23:
.L17:
	.loc 1 194 5 is_stmt 1
	.loc 1 194 11 is_stmt 0
	andi	s0,s0,1023
.LVL24:
	.loc 1 196 5 is_stmt 1
	.loc 1 196 8 is_stmt 0
	beq	s0,zero,.L16
	.loc 1 198 9 is_stmt 1
	li	a0,1000
	mul	a0,s0,a0
	.loc 1 200 1 is_stmt 0
	lw	s0,8(sp)
	.cfi_remember_state
	.cfi_restore 8
.LVL25:
	lw	ra,12(sp)
	.cfi_restore 1
	lw	s1,4(sp)
	.cfi_restore 9
	lw	s2,0(sp)
	.cfi_restore 18
	addi	sp,sp,16
	.cfi_def_cfa_offset 0
	.loc 1 198 9
	tail	arch_delay_us
.LVL26:
.L16:
	.cfi_restore_state
	.loc 1 200 1
	lw	ra,12(sp)
	.cfi_restore 1
	lw	s0,8(sp)
	.cfi_restore 8
.LVL27:
	lw	s1,4(sp)
	.cfi_restore 9
	lw	s2,0(sp)
	.cfi_restore 18
	addi	sp,sp,16
	.cfi_def_cfa_offset 0
	jr	ra
	.cfi_endproc
.LFE244:
	.size	arch_delay_ms, .-arch_delay_ms
	.text
.Letext0:
	.file 3 "./toolchain/linux_x86_64/riscv64-unknown-elf/include/machine/_default_types.h"
	.file 4 "./toolchain/linux_x86_64/riscv64-unknown-elf/include/sys/_stdint.h"
	.file 5 "./drivers/soc/qcc743/std/include/qcc743_clock.h"