	.file	"lib_itoa.c"
	.option nopic
	.attribute arch, "rv32i2p0_m2p0_a2p0_f2p0_c2p0_p0p9_zpn0p9_zpsfoperand0p9_xtheade2p0"
	.attribute unaligned_access, 0
	.attribute stack_align, 16
	.text
.Ltext0:
	.cfi_sections	.debug_frame
	.section	.rodata.itoa.str1.4,"aMS",@progbits,1
	.align	2
.LC0:
	.string	"0123456789abcdefghijklmnopqrstuvwxyz"
	.section	.text.itoa,"ax",@progbits
	.align	1
	.globl	itoa
	.type	itoa, @function
itoa:
.LFB4:
	.file 1 "./components/libc/nuttx/libc/stdlib/lib_itoa.c"
	.loc 1 53 1
	.cfi_startproc
.LVL0:
	.loc 1 54 3
	.loc 1 55 3
	.loc 1 53 1 is_stmt 0
	addi	sp,sp,-32
	.cfi_def_cfa_offset 32
	sw	s0,24(sp)
	sw	a1,12(sp)
	sw	a2,8(sp)
	sw	ra,28(sp)
	.cfi_offset 8, -8
	.cfi_offset 1, -4
	.loc 1 53 1
	mv	s0,a0
	.loc 1 55 16
	call	abs
.LVL1:
	.loc 1 56 3 is_stmt 1
	.loc 1 57 3
	.loc 1 58 3
	.loc 1 59 3
	.loc 1 60 3
	.loc 1 62 3
	.loc 1 62 17 is_stmt 0
	lw	a2,8(sp)
	lw	a1,12(sp)
	.loc 1 62 6
	li	a4,34
	.loc 1 62 17
	addi	a3,a2,-2
	mv	a5,a1
	.loc 1 62 6
	bgtu	a3,a4,.L2
	.loc 1 68 26
	lui	a4,%hi(.LC0)
	addi	a4,a4,%lo(.LC0)
.LVL2:
.L3:
	.loc 1 64 7 is_stmt 1 discriminator 1
	.loc 1 66 11 discriminator 1
	.loc 1 66 17 is_stmt 0 discriminator 1
	rem	a6,a0,a2
.LVL3:
	.loc 1 67 11 is_stmt 1 discriminator 1
	mv	a3,a5
	.loc 1 67 18 is_stmt 0 discriminator 1
	div	a0,a0,a2
.LVL4:
	.loc 1 68 11 is_stmt 1 discriminator 1
	.loc 1 68 18 is_stmt 0 discriminator 1
	lrbu	a6,a6,a4,0
.LVL5:
	sbia	a6,(a5),1,0
.LVL6:
	.loc 1 70 13 is_stmt 1 discriminator 1
	.loc 1 70 7 is_stmt 0 discriminator 1
	bgt	a0,zero,.L3
	.loc 1 72 7 is_stmt 1
	.loc 1 72 10 is_stmt 0
	bge	s0,zero,.L4
	.loc 1 74 11 is_stmt 1
.LVL7:
	.loc 1 74 18 is_stmt 0
	li	a4,45
	sb	a4,0(a5)
	.loc 1 74 15
	addi	a5,a3,2
.LVL8:
.L4:
	.loc 1 77 7 is_stmt 1
	.loc 1 77 48 is_stmt 0
	li	a4,2
	.loc 1 77 25
	sub	a2,a5,a1
.LVL9:
	.loc 1 77 48
	div	a2,a2,a4
.LVL10:
	mv	a3,a5
	.loc 1 77 16
	li	a4,0
.LVL11:
.L5:
	.loc 1 77 38 is_stmt 1 discriminator 1
	.loc 1 77 7 is_stmt 0 discriminator 1
	addi	a3,a3,-1
	bgt	a2,a4,.L6
.LVL12:
.L2:
	.loc 1 85 3 is_stmt 1
	.loc 1 85 8 is_stmt 0
	sb	zero,0(a5)
	.loc 1 87 3 is_stmt 1
	.loc 1 88 1 is_stmt 0
	lw	ra,28(sp)
	.cfi_remember_state
	.cfi_restore 1
	lw	s0,24(sp)
	.cfi_restore 8
.LVL13:
	mv	a0,a1
	addi	sp,sp,32
	.cfi_def_cfa_offset 0
.LVL14:
	jr	ra
.LVL15:
.L6:
	.cfi_restore_state
	.loc 1 79 11 is_stmt 1 discriminator 3
	.loc 1 80 35 is_stmt 0 discriminator 3
	lrbu	a6,a1,a4,0
	.loc 1 79 16 discriminator 3
	lbu	a0,0(a3)
.LVL16:
	.loc 1 80 11 is_stmt 1 discriminator 3
	.loc 1 80 30 is_stmt 0 discriminator 3
	sb	a6,0(a3)
	.loc 1 81 11 is_stmt 1 discriminator 3
	.loc 1 81 20 is_stmt 0 discriminator 3
	srb	a0,a1,a4,0
	.loc 1 77 53 is_stmt 1 discriminator 3
	.loc 1 77 56 is_stmt 0 discriminator 3
	addi	a4,a4,1
.LVL17:
	j	.L5
	.cfi_endproc
.LFE4:
	.size	itoa, .-itoa
	.text
.Letext0:
	.file 2 "./toolchain/linux_x86_64/riscv64-unknown-elf/include/stdlib.h"