	.file	"main.c"
	.option nopic
	.attribute arch, "rv32i2p0_m2p0_a2p0_f2p0_c2p0_p0p9_zpn0p9_zpsfoperand0p9_xtheade2p0"
	.attribute unaligned_access, 0
	.attribute stack_align, 16
	.text
.Ltext0:
	.cfi_sections	.debug_frame
	.section	.rodata.main.str1.4,"aMS",@progbits,1
	.align	2
.LC0:
	.string	"Hello\r\n"
	.align	2
.LC1:
	.string	"uart0"
	.section	.text.startup.main,"ax",@progbits
	.align	1
	.globl	main
	.type	main, @function
main:
.LFB6:
	.file 1 "./examples/peripherals/uart/uart_transmit/main.c"
	.loc 1 15 1
	.cfi_startproc
	.loc 1 16 5
	.loc 1 15 1 is_stmt 0
	addi	sp,sp,-32
	.cfi_def_cfa_offset 32
	sw	ra,28(sp)
	sw	s0,24(sp)
	sw	s1,20(sp)
	sw	s2,16(sp)
	.cfi_offset 1, -4
	.cfi_offset 8, -8
	.cfi_offset 9, -12
	.cfi_offset 18, -16
	.loc 1 16 5
	call	board_init
.LVL0:
	.loc 1 17 5 is_stmt 1
	call	board_uartx_gpio_init
.LVL1:
	.loc 1 19 5
	.loc 1 19 13 is_stmt 0
	lui	a0,%hi(.LC1)
	addi	a0,a0,%lo(.LC1)
	call	qcc74x_device_get_by_name
.LVL2:
	.loc 1 19 11
	lui	a5,%hi(.LANCHOR0)
	sw	a0,%lo(.LANCHOR0)(a5)
	.loc 1 20 5 is_stmt 1
	.loc 1 20 8 is_stmt 0
	bne	a0,zero,.L2
.L3:
	.loc 1 21 9 is_stmt 1 discriminator 1
	.loc 1 21 18 discriminator 1
	.loc 1 21 15 discriminator 1
	j	.L3
.L2:
	addi	s0,a5,%lo(.LANCHOR0)
	.loc 1 24 5
	.loc 1 24 33 is_stmt 0
	li	a5,114688
	addi	a5,a5,512
	sw	a5,4(sp)
	li	a5,65536
	addi	a5,a5,768
	.loc 1 35 5
	addi	a1,sp,4
	.loc 1 24 33
	sw	a5,8(sp)
	sw	zero,12(sp)
	.loc 1 35 5 is_stmt 1
	.loc 1 15 1 is_stmt 0
	lui	s2,%hi(.LC0)
	.loc 1 35 5
	call	qcc74x_uart_init
.LVL3:
.L6:
	.loc 1 37 5 is_stmt 1 discriminator 1
	.loc 1 38 9 discriminator 1
	.loc 1 15 1 is_stmt 0 discriminator 1
	addi	s1,s2,%lo(.LC0)
.LVL4:
.L4:
.LBB4:
.LBB5:
	.loc 1 9 11 is_stmt 1
	.loc 1 9 12 is_stmt 0
	lbu	a1,0(s1)
	.loc 1 9 11
	bne	a1,zero,.L5
.LVL5:
.LBE5:
.LBE4:
	.loc 1 39 9 is_stmt 1 discriminator 1
	li	a0,1000
	call	qcc74x_mtimer_delay_ms
.LVL6:
	.loc 1 37 11 discriminator 1
	j	.L6
.LVL7:
.L5:
.LBB7:
.LBB6:
	.loc 1 10 9
	lw	a0,0(s0)
	.loc 1 10 40 is_stmt 0
	addi	s1,s1,1
.LVL8:
	.loc 1 10 9
	call	qcc74x_uart_putchar
.LVL9:
	j	.L4
.LBE6:
.LBE7:
	.cfi_endproc
.LFE6:
	.size	main, .-main
	.globl	uart0
	.section	.bss.uart0,"aw",@nobits
	.align	2
	.set	.LANCHOR0,. + 0
	.type	uart0, @object
	.size	uart0, 4
uart0:
	.zero	4
	.text
.Letext0:
	.file 2 "./toolchain/linux_x86_64/riscv64-unknown-elf/include/machine/_default_types.h"
	.file 3 "./toolchain/linux_x86_64/riscv64-unknown-elf/include/sys/_stdint.h"
	.file 4 "./drivers/lhal/include/qcc74x_core.h"
	.file 5 "./drivers/lhal/include/qcc74x_uart.h"
	.file 6 "./bsp/board/qcc74xdk/./board.h"
	.file 7 "./drivers/lhal/include/qcc74x_mtimer.h"