	.file	"ring_buffer.c"
	.option nopic
	.attribute arch, "rv32i2p0_m2p0_a2p0_f2p0_c2p0_p0p9_zpn0p9_zpsfoperand0p9_xtheade2p0"
	.attribute unaligned_access, 0
	.attribute stack_align, 16
	.text
.Ltext0:
	.cfi_sections	.debug_frame
	.section	.text.Ring_Buffer_Write_Copy,"ax",@progbits
	.align	1
	.type	Ring_Buffer_Write_Copy, @function
Ring_Buffer_Write_Copy:
.LFB8:
	.file 1 "./components/utils/ring_buffer/ring_buffer.c"
	.loc 1 177 1
	.cfi_startproc
.LVL0:
	.loc 1 178 5
	.loc 1 177 1 is_stmt 0
	addi	sp,sp,-16
	.cfi_def_cfa_offset 16
	sw	s0,8(sp)
	.cfi_offset 8, -8
	mv	s0,a0
.LVL1:
	.loc 1 180 5 is_stmt 1
	.loc 1 177 1 is_stmt 0
	mv	a0,a1
.LVL2:
	.loc 1 180 5
	lw	a1,0(s0)
.LVL3:
	.loc 1 177 1
	sw	s1,4(sp)
	sw	ra,12(sp)
	.cfi_offset 9, -12
	.cfi_offset 1, -4
	.loc 1 177 1
	mv	s1,a2
	.loc 1 180 5
	call	arch_memcpy_fast
.LVL4:
	.loc 1 181 5 is_stmt 1
	.loc 1 181 10 is_stmt 0
	lw	a5,0(s0)
	.loc 1 182 1
	lw	ra,12(sp)
	.cfi_restore 1
	.loc 1 181 10
	add	a5,a5,s1
	sw	a5,0(s0)
	.loc 1 182 1
	lw	s0,8(sp)
	.cfi_restore 8
.LVL5:
	lw	s1,4(sp)
	.cfi_restore 9
.LVL6:
	addi	sp,sp,16
	.cfi_def_cfa_offset 0
	jr	ra
	.cfi_endproc
.LFE8:
	.size	Ring_Buffer_Write_Copy, .-Ring_Buffer_Write_Copy
	.section	.text.Ring_Buffer_Read_Copy,"ax",@progbits
	.align	1
	.type	Ring_Buffer_Read_Copy, @function
Ring_Buffer_Read_Copy:
.LFB14:
	.loc 1 412 1 is_stmt 1
	.cfi_startproc
.LVL7:
	.loc 1 413 5
	.loc 1 415 5
	.loc 1 412 1 is_stmt 0
	addi	sp,sp,-16
	.cfi_def_cfa_offset 16
	sw	s0,8(sp)
	.cfi_offset 8, -8
	mv	s0,a0
	.loc 1 415 5
	lw	a0,0(a0)
.LVL8:
	.loc 1 412 1
	sw	s1,4(sp)
	sw	ra,12(sp)
	.cfi_offset 9, -12
	.cfi_offset 1, -4
	.loc 1 412 1
	mv	s1,a2
	.loc 1 415 5
	call	arch_memcpy_fast
.LVL9:
	.loc 1 416 5 is_stmt 1
	.loc 1 416 11 is_stmt 0
	lw	a5,0(s0)
	.loc 1 417 1
	lw	ra,12(sp)
	.cfi_restore 1
	.loc 1 416 11
	add	a5,a5,s1
	sw	a5,0(s0)
	.loc 1 417 1
	lw	s0,8(sp)
	.cfi_restore 8
.LVL10:
	lw	s1,4(sp)
	.cfi_restore 9
.LVL11:
	addi	sp,sp,16
	.cfi_def_cfa_offset 0
	jr	ra
	.cfi_endproc
.LFE14:
	.size	Ring_Buffer_Read_Copy, .-Ring_Buffer_Read_Copy
	.section	.text.Ring_Buffer_Init,"ax",@progbits
	.align	1
	.globl	Ring_Buffer_Init
	.type	Ring_Buffer_Init, @function
Ring_Buffer_Init:
.LFB5:
	.loc 1 64 1 is_stmt 1
	.cfi_startproc
.LVL12:
	.loc 1 66 5
	.loc 1 66 21 is_stmt 0
	sw	a1,0(a0)
	.loc 1 69 5 is_stmt 1
	.loc 1 69 24 is_stmt 0
	sb	zero,4(a0)
	.loc 1 70 5 is_stmt 1
	.loc 1 70 23 is_stmt 0
	sw	zero,8(a0)
	.loc 1 71 5 is_stmt 1
	.loc 1 71 25 is_stmt 0
	sb	zero,12(a0)
	.loc 1 72 5 is_stmt 1
	.loc 1 72 24 is_stmt 0
	sw	zero,16(a0)
	.loc 1 75 5 is_stmt 1
	.loc 1 75 18 is_stmt 0
	sw	a2,20(a0)
	.loc 1 78 5 is_stmt 1
	.loc 1 78 18 is_stmt 0
	sw	a3,24(a0)
	.loc 1 79 5 is_stmt 1
	.loc 1 79 20 is_stmt 0
	sw	a4,28(a0)
	.loc 1 80 1
	ret
	.cfi_endproc
.LFE5:
	.size	Ring_Buffer_Init, .-Ring_Buffer_Init
	.section	.text.Ring_Buffer_Reset,"ax",@progbits
	.align	1
	.globl	Ring_Buffer_Reset
	.type	Ring_Buffer_Reset, @function
Ring_Buffer_Reset:
.LFB6:
	.loc 1 91 1 is_stmt 1
	.cfi_startproc
.LVL13:
	.loc 1 92 5
	.loc 1 92 15 is_stmt 0
	lw	a5,24(a0)
	.loc 1 92 8
	beq	a5,zero,.L13
	.loc 1 91 1
	addi	sp,sp,-32
	.cfi_def_cfa_offset 32
	sw	ra,28(sp)
	.cfi_offset 1, -4
	sw	a0,12(sp)
	.loc 1 93 9 is_stmt 1
	jalr	a5
.LVL14:
	lw	a0,12(sp)
	.loc 1 97 5
	.loc 1 102 15 is_stmt 0
	lw	a5,28(a0)
	.loc 1 97 24
	sb	zero,4(a0)
	.loc 1 98 5 is_stmt 1
	.loc 1 98 23 is_stmt 0
	sw	zero,8(a0)
	.loc 1 99 5 is_stmt 1
	.loc 1 99 25 is_stmt 0
	sb	zero,12(a0)
	.loc 1 100 5 is_stmt 1
	.loc 1 100 24 is_stmt 0
	sw	zero,16(a0)
	.loc 1 102 5 is_stmt 1
	.loc 1 102 8 is_stmt 0
	beq	a5,zero,.L6
	.loc 1 103 9 is_stmt 1
	.loc 1 105 1 is_stmt 0
	lw	ra,28(sp)
	.cfi_restore 1
	addi	sp,sp,32
	.cfi_def_cfa_offset 0
.LVL15:
.L18:
	.loc 1 103 9 is_stmt 1
	jr	a5
.LVL16:
.L6:
	.cfi_def_cfa_offset 32
	.cfi_offset 1, -4
	.loc 1 105 1 is_stmt 0
	lw	ra,28(sp)
	.cfi_restore 1
	addi	sp,sp,32
	.cfi_def_cfa_offset 0
.LVL17:
	jr	ra
.LVL18:
.L13:
	.loc 1 97 5 is_stmt 1
	.loc 1 102 15 is_stmt 0
	lw	a5,28(a0)
	.loc 1 97 24
	sb	zero,4(a0)
	.loc 1 98 5 is_stmt 1
	.loc 1 98 23 is_stmt 0
	sw	zero,8(a0)
	.loc 1 99 5 is_stmt 1
	.loc 1 99 25 is_stmt 0
	sb	zero,12(a0)
	.loc 1 100 5 is_stmt 1
	.loc 1 100 24 is_stmt 0
	sw	zero,16(a0)
	.loc 1 102 5 is_stmt 1
	.loc 1 102 8 is_stmt 0
	bne	a5,zero,.L18
	ret
	.cfi_endproc
.LFE6:
	.size	Ring_Buffer_Reset, .-Ring_Buffer_Reset
	.section	.text.Ring_Buffer_Get_Length,"ax",@progbits
	.align	1
	.globl	Ring_Buffer_Get_Length
	.type	Ring_Buffer_Get_Length, @function
Ring_Buffer_Get_Length:
.LFB19:
	.loc 1 570 1 is_stmt 1
	.cfi_startproc
.LVL19:
	.loc 1 571 5
	.loc 1 572 5
	.loc 1 573 5
	.loc 1 574 5
	.loc 1 575 5
	.loc 1 577 5
	.loc 1 577 15 is_stmt 0
	lw	a5,24(a0)
	.loc 1 570 1
	addi	sp,sp,-32
	.cfi_def_cfa_offset 32
	sw	s0,24(sp)
	sw	ra,28(sp)
	sw	s1,20(sp)
	sw	s2,16(sp)
	sw	s3,12(sp)
	sw	s4,8(sp)
	sw	s5,4(sp)
	.cfi_offset 8, -8
	.cfi_offset 1, -4
	.cfi_offset 9, -12
	.cfi_offset 18, -16
	.cfi_offset 19, -20
	.cfi_offset 20, -24
	.cfi_offset 21, -28
	.loc 1 570 1
	mv	s0,a0
	.loc 1 577 8
	beq	a5,zero,.L20
	.loc 1 578 9 is_stmt 1
	jalr	a5
.LVL20:
.L20:
	.loc 1 581 5
	.loc 1 587 15 is_stmt 0
	lw	a5,28(s0)
	.loc 1 581 24
	lbu	s5,4(s0)
.LVL21:
	.loc 1 582 5 is_stmt 1
	.loc 1 582 25 is_stmt 0
	lbu	s4,12(s0)
.LVL22:
	.loc 1 583 5 is_stmt 1
	.loc 1 583 15 is_stmt 0
	lw	s1,8(s0)
.LVL23:
	.loc 1 584 5 is_stmt 1
	.loc 1 584 16 is_stmt 0
	lw	s2,16(s0)
.LVL24:
	.loc 1 585 5 is_stmt 1
	.loc 1 585 10 is_stmt 0
	lw	s3,20(s0)
.LVL25:
	.loc 1 587 5 is_stmt 1
	.loc 1 587 8 is_stmt 0
	beq	a5,zero,.L21
	.loc 1 588 9 is_stmt 1
	jalr	a5
.LVL26:
.L21:
	.loc 1 591 5
	.loc 1 592 27 is_stmt 0
	sub	a0,s2,s1
	.loc 1 591 8
	beq	s5,s4,.L19
	.loc 1 594 9 is_stmt 1
	.loc 1 594 21 is_stmt 0
	add	a0,s2,s3
	sub	a0,a0,s1
.L19:
	.loc 1 596 1
	lw	ra,28(sp)
	.cfi_restore 1
	lw	s0,24(sp)
	.cfi_restore 8
.LVL27:
	lw	s1,20(sp)
	.cfi_restore 9
.LVL28:
	lw	s2,16(sp)
	.cfi_restore 18
.LVL29:
	lw	s3,12(sp)
	.cfi_restore 19
.LVL30:
	lw	s4,8(sp)
	.cfi_restore 20
.LVL31:
	lw	s5,4(sp)
	.cfi_restore 21
.LVL32:
	addi	sp,sp,32
	.cfi_def_cfa_offset 0
	jr	ra
	.cfi_endproc
.LFE19:
	.size	Ring_Buffer_Get_Length, .-Ring_Buffer_Get_Length
	.section	.text.Ring_Buffer_Read_Callback,"ax",@progbits
	.align	1
	.globl	Ring_Buffer_Read_Callback
	.type	Ring_Buffer_Read_Callback, @function
Ring_Buffer_Read_Callback:
.LFB13:
	.loc 1 354 1 is_stmt 1
	.cfi_startproc
.LVL33:
	.loc 1 355 5
	.loc 1 354 1 is_stmt 0
	addi	sp,sp,-32
	.cfi_def_cfa_offset 32
	sw	s3,12(sp)
	.cfi_offset 19, -20
	mv	s3,a2
	sw	s0,24(sp)
	sw	s2,16(sp)
	sw	s4,8(sp)
	sw	ra,28(sp)
	sw	s1,20(sp)
	sw	s5,4(sp)
	.cfi_offset 8, -8
	.cfi_offset 18, -16
	.cfi_offset 20, -24
	.cfi_offset 1, -4
	.cfi_offset 9, -12
	.cfi_offset 21, -28
	.loc 1 354 1
	mv	s0,a0
	mv	s2,a1
	mv	s4,a3
	.loc 1 355 21
	call	Ring_Buffer_Get_Length
.LVL34:
	.loc 1 357 5 is_stmt 1
	.loc 1 357 8 is_stmt 0
	bne	s3,zero,.L32
.LVL35:
.L36:
	.loc 1 358 16
	li	s1,0
.LVL36:
.L31:
	.loc 1 399 1
	lw	ra,28(sp)
	.cfi_remember_state
	.cfi_restore 1
	lw	s0,24(sp)
	.cfi_restore 8
.LVL37:
	lw	s2,16(sp)
	.cfi_restore 18
	lw	s3,12(sp)
	.cfi_restore 19
.LVL38:
	lw	s4,8(sp)
	.cfi_restore 20
.LVL39:
	lw	s5,4(sp)
	.cfi_restore 21
	mv	a0,s1
	lw	s1,20(sp)
	.cfi_restore 9
	addi	sp,sp,32
	.cfi_def_cfa_offset 0
	jr	ra
.LVL40:
.L32:
	.cfi_restore_state
	.loc 1 361 15
	lw	a5,24(s0)
	mv	s1,a0
	.loc 1 361 5 is_stmt 1
	.loc 1 361 8 is_stmt 0
	beq	a5,zero,.L34
.LVL41:
	.loc 1 362 9 is_stmt 1
	jalr	a5
.LVL42:
.L34:
	.loc 1 366 5
	.loc 1 366 8 is_stmt 0
	bne	s1,zero,.L35
	.loc 1 367 9 is_stmt 1
	.loc 1 367 19 is_stmt 0
	lw	a5,28(s0)
	.loc 1 367 12
	beq	a5,zero,.L36
.LVL43:
.L50:
	.loc 1 395 9 is_stmt 1
	jalr	a5
.LVL44:
	j	.L31
.LVL45:
.L35:
	.loc 1 375 5
	sgtu	a5,s1,s2
	.loc 1 380 18 is_stmt 0
	lw	s5,20(s0)
	mvnez	s1, s2, a5
.LVL46:
	.loc 1 380 5 is_stmt 1
	.loc 1 380 33 is_stmt 0
	lw	s2,8(s0)
	.loc 1 384 9
	lw	a1,0(s0)
	.loc 1 380 10
	sub	a2,s5,s2
.LVL47:
	.loc 1 382 5 is_stmt 1
	.loc 1 384 9 is_stmt 0
	add	a1,a1,s2
	.loc 1 382 8
	bgeu	s1,a2,.L38
	.loc 1 384 9 is_stmt 1
	mv	a2,s1
.LVL48:
	mv	a0,s4
	jalr	s3
.LVL49:
	.loc 1 385 9
	.loc 1 385 27 is_stmt 0
	lw	a5,8(s0)
	add	a5,a5,s1
	sw	a5,8(s0)
.LVL50:
.L39:
	.loc 1 394 5 is_stmt 1
	.loc 1 394 15 is_stmt 0
	lw	a5,28(s0)
	.loc 1 394 8
	bne	a5,zero,.L50
	j	.L31
.LVL51:
.L38:
	.loc 1 388 9 is_stmt 1
	mv	a0,s4
	jalr	s3
.LVL52:
	.loc 1 389 9
	lw	a1,0(s0)
	sub	s2,s2,s5
.LVL53:
	add	s2,s2,s1
	mv	a2,s2
	mv	a0,s4
	jalr	s3
.LVL54:
	.loc 1 390 9
	.loc 1 391 28 is_stmt 0
	lbu	a5,4(s0)
	.loc 1 390 27
	sw	s2,8(s0)
	.loc 1 391 9 is_stmt 1
	.loc 1 391 28 is_stmt 0
	not	a5,a5
	sb	a5,4(s0)
	j	.L39
	.cfi_endproc
.LFE13:
	.size	Ring_Buffer_Read_Callback, .-Ring_Buffer_Read_Callback
	.section	.text.Ring_Buffer_Read,"ax",@progbits
	.align	1
	.globl	Ring_Buffer_Read
	.type	Ring_Buffer_Read, @function
Ring_Buffer_Read:
.LFB15:
	.loc 1 430 1 is_stmt 1
	.cfi_startproc
.LVL55:
	.loc 1 431 5
	.loc 1 430 1 is_stmt 0
	addi	sp,sp,-32
	.cfi_def_cfa_offset 32
	sw	a1,12(sp)
	mv	a1,a2
.LVL56:
	.loc 1 431 12
	lui	a2,%hi(Ring_Buffer_Read_Copy)
.LVL57:
	addi	a3,sp,12
.LVL58:
	addi	a2,a2,%lo(Ring_Buffer_Read_Copy)
	.loc 1 430 1
	sw	ra,28(sp)
	.cfi_offset 1, -4
	.loc 1 431 12
	call	Ring_Buffer_Read_Callback
.LVL59:
	.loc 1 432 1
	lw	ra,28(sp)
	.cfi_restore 1
	addi	sp,sp,32
	.cfi_def_cfa_offset 0
	jr	ra
	.cfi_endproc
.LFE15:
	.size	Ring_Buffer_Read, .-Ring_Buffer_Read
	.section	.text.Ring_Buffer_Read_Byte,"ax",@progbits
	.align	1
	.globl	Ring_Buffer_Read_Byte
	.type	Ring_Buffer_Read_Byte, @function
Ring_Buffer_Read_Byte:
.LFB16:
	.loc 1 444 1 is_stmt 1
	.cfi_startproc
.LVL60:
	.loc 1 445 5
	.loc 1 445 15 is_stmt 0
	lw	a5,24(a0)
	.loc 1 444 1
	addi	sp,sp,-32
	.cfi_def_cfa_offset 32
	sw	s0,24(sp)
	sw	s1,20(sp)
	sw	ra,28(sp)
	.cfi_offset 8, -8
	.cfi_offset 9, -12
	.cfi_offset 1, -4
	.loc 1 444 1
	mv	s0,a0
	mv	s1,a1
	.loc 1 445 8
	beq	a5,zero,.L54
	.loc 1 446 9 is_stmt 1
	jalr	a5
.LVL61:
.L54:
	.loc 1 450 5
	.loc 1 450 10 is_stmt 0
	mv	a0,s0
	call	Ring_Buffer_Get_Length
.LVL62:
	.loc 1 450 8
	bne	a0,zero,.L55
	.loc 1 451 9 is_stmt 1
	.loc 1 451 19 is_stmt 0
	lw	a5,28(s0)
	.loc 1 451 12
	beq	a5,zero,.L53
	sw	a0,12(sp)
	.loc 1 452 13 is_stmt 1
	jalr	a5
.LVL63:
	lw	a0,12(sp)
.L53:
	.loc 1 474 1 is_stmt 0
	lw	ra,28(sp)
	.cfi_remember_state
	.cfi_restore 1
	lw	s0,24(sp)
	.cfi_restore 8
.LVL64:
	lw	s1,20(sp)
	.cfi_restore 9
.LVL65:
	addi	sp,sp,32
	.cfi_def_cfa_offset 0
	jr	ra
.LVL66:
.L55:
	.cfi_restore_state
	.loc 1 459 5 is_stmt 1
	.loc 1 459 28 is_stmt 0
	lw	a4,0(s0)
	lw	a5,8(s0)
	lrbu	a5,a4,a5,0
	.loc 1 459 11
	sb	a5,0(s1)
	.loc 1 462 5 is_stmt 1
	.loc 1 462 43 is_stmt 0
	lw	a4,20(s0)
	.loc 1 462 15
	lw	a5,8(s0)
	.loc 1 462 43
	addi	a4,a4,-1
	.loc 1 462 8
	bne	a5,a4,.L57
	.loc 1 463 9 is_stmt 1
	.loc 1 464 28 is_stmt 0
	lbu	a5,4(s0)
	.loc 1 463 27
	sw	zero,8(s0)
	.loc 1 464 9 is_stmt 1
	.loc 1 464 28 is_stmt 0
	not	a5,a5
	sb	a5,4(s0)
.L58:
	.loc 1 469 5 is_stmt 1
	.loc 1 469 15 is_stmt 0
	lw	a5,28(s0)
	.loc 1 473 12
	li	a0,1
	.loc 1 469 8
	beq	a5,zero,.L53
	.loc 1 470 9 is_stmt 1
	jalr	a5
.LVL67:
	.loc 1 473 12 is_stmt 0
	li	a0,1
	j	.L53
.L57:
	.loc 1 466 9 is_stmt 1
	.loc 1 466 26 is_stmt 0
	addi	a5,a5,1
	sw	a5,8(s0)
	j	.L58
	.cfi_endproc
.LFE16:
	.size	Ring_Buffer_Read_Byte, .-Ring_Buffer_Read_Byte
	.section	.text.Ring_Buffer_Peek,"ax",@progbits
	.align	1
	.globl	Ring_Buffer_Peek
	.type	Ring_Buffer_Peek, @function
Ring_Buffer_Peek:
.LFB17:
	.loc 1 487 1 is_stmt 1
	.cfi_startproc
.LVL68:
	.loc 1 488 5
	.loc 1 487 1 is_stmt 0
	addi	sp,sp,-32
	.cfi_def_cfa_offset 32
	sw	s0,24(sp)
	sw	s1,20(sp)
	sw	s2,16(sp)
	sw	s4,8(sp)
	.cfi_offset 8, -8
	.cfi_offset 9, -12
	.cfi_offset 18, -16
	.cfi_offset 20, -24
	mv	s1,a0
	sw	ra,28(sp)
	sw	s3,12(sp)
	sw	s5,4(sp)
	.cfi_offset 1, -4
	.cfi_offset 19, -20
	.cfi_offset 21, -28
	.loc 1 487 1
	mv	s4,a1
	mv	s2,a2
	.loc 1 488 21
	call	Ring_Buffer_Get_Length
.LVL69:
	.loc 1 490 15
	lw	a5,24(s1)
	.loc 1 488 21
	mv	s0,a0
.LVL70:
	.loc 1 490 5 is_stmt 1
	.loc 1 490 8 is_stmt 0
	beq	a5,zero,.L68
	.loc 1 491 9 is_stmt 1
	jalr	a5
.LVL71:
.L68:
	.loc 1 495 5
	.loc 1 495 8 is_stmt 0
	bne	s0,zero,.L69
.LVL72:
.L87:
	.loc 1 520 5 is_stmt 1
	.loc 1 520 15 is_stmt 0
	lw	a5,28(s1)
	.loc 1 520 8
	beq	a5,zero,.L67
	.loc 1 521 9 is_stmt 1
	jalr	a5
.LVL73:
.L67:
	.loc 1 525 1 is_stmt 0
	lw	ra,28(sp)
	.cfi_remember_state
	.cfi_restore 1
	mv	a0,s0
	lw	s0,24(sp)
	.cfi_restore 8
	lw	s1,20(sp)
	.cfi_restore 9
.LVL74:
	lw	s2,16(sp)
	.cfi_restore 18
	lw	s3,12(sp)
	.cfi_restore 19
	lw	s4,8(sp)
	.cfi_restore 20
.LVL75:
	lw	s5,4(sp)
	.cfi_restore 21
	addi	sp,sp,32
	.cfi_def_cfa_offset 0
	jr	ra
.LVL76:
.L69:
	.cfi_restore_state
	.loc 1 504 5 is_stmt 1
	sgtu	a5,s0,s2
	.loc 1 509 18 is_stmt 0
	lw	s5,20(s1)
	mvnez	s0, s2, a5
.LVL77:
	.loc 1 509 5 is_stmt 1
	.loc 1 509 33 is_stmt 0
	lw	s2,8(s1)
	.loc 1 513 32
	lw	a1,0(s1)
	.loc 1 509 10
	sub	s3,s5,s2
.LVL78:
	.loc 1 511 5 is_stmt 1
	.loc 1 513 32 is_stmt 0
	add	a1,a1,s2
	.loc 1 511 8
	bgeu	s0,s3,.L72
	.loc 1 513 9 is_stmt 1
	mv	a2,s0
	mv	a0,s4
.L84:
	.loc 1 517 9 is_stmt 0
	call	arch_memcpy_fast
.LVL79:
	j	.L87
.L72:
	.loc 1 516 9 is_stmt 1
	mv	a2,s3
	mv	a0,s4
	call	arch_memcpy_fast
.LVL80:
	.loc 1 517 9
	sub	a2,s2,s5
	lw	a1,0(s1)
	add	a2,a2,s0
	add	a0,s4,s3
	j	.L84
	.cfi_endproc
.LFE17:
	.size	Ring_Buffer_Peek, .-Ring_Buffer_Peek
	.section	.text.Ring_Buffer_Peek_Byte,"ax",@progbits
	.align	1
	.globl	Ring_Buffer_Peek_Byte
	.type	Ring_Buffer_Peek_Byte, @function
Ring_Buffer_Peek_Byte:
.LFB18:
	.loc 1 537 1
	.cfi_startproc
.LVL81:
	.loc 1 538 5
	.loc 1 538 15 is_stmt 0
	lw	a5,24(a0)
	.loc 1 537 1
	addi	sp,sp,-32
	.cfi_def_cfa_offset 32
	sw	s0,24(sp)
	sw	s1,20(sp)
	sw	ra,28(sp)
	.cfi_offset 8, -8
	.cfi_offset 9, -12
	.cfi_offset 1, -4
	.loc 1 537 1
	mv	s0,a0
	mv	s1,a1
	.loc 1 538 8
	beq	a5,zero,.L89
	.loc 1 539 9 is_stmt 1
	jalr	a5
.LVL82:
.L89:
	.loc 1 543 5
	.loc 1 543 10 is_stmt 0
	mv	a0,s0
	call	Ring_Buffer_Get_Length
.LVL83:
	.loc 1 543 8
	bne	a0,zero,.L90
	.loc 1 544 9 is_stmt 1
	.loc 1 544 19 is_stmt 0
	lw	a5,28(s0)
	.loc 1 544 12
	beq	a5,zero,.L88
	sw	a0,12(sp)
	.loc 1 545 13 is_stmt 1
	jalr	a5
.LVL84:
	lw	a0,12(sp)
.L88:
	.loc 1 559 1 is_stmt 0
	lw	ra,28(sp)
	.cfi_remember_state
	.cfi_restore 1
	lw	s0,24(sp)
	.cfi_restore 8
.LVL85:
	lw	s1,20(sp)
	.cfi_restore 9
.LVL86:
	addi	sp,sp,32
	.cfi_def_cfa_offset 0
	jr	ra
.LVL87:
.L90:
	.cfi_restore_state
	.loc 1 552 5 is_stmt 1
	.loc 1 552 28 is_stmt 0
	lw	a4,0(s0)
	lw	a5,8(s0)
	.loc 1 558 12
	li	a0,1
	.loc 1 552 28
	lrbu	a5,a4,a5,0
	.loc 1 552 11
	sb	a5,0(s1)
	.loc 1 554 5 is_stmt 1
	.loc 1 554 15 is_stmt 0
	lw	a5,28(s0)
	.loc 1 554 8
	beq	a5,zero,.L88
	.loc 1 555 9 is_stmt 1
	jalr	a5
.LVL88:
	.loc 1 558 12 is_stmt 0
	li	a0,1
	j	.L88
	.cfi_endproc
.LFE18:
	.size	Ring_Buffer_Peek_Byte, .-Ring_Buffer_Peek_Byte
	.section	.text.Ring_Buffer_Get_Empty_Length,"ax",@progbits
	.align	1
	.globl	Ring_Buffer_Get_Empty_Length
	.type	Ring_Buffer_Get_Empty_Length, @function
Ring_Buffer_Get_Empty_Length:
.LFB20:
	.loc 1 607 1 is_stmt 1
	.cfi_startproc
.LVL89:
	.loc 1 608 5
	.loc 1 607 1 is_stmt 0
	addi	sp,sp,-16
	.cfi_def_cfa_offset 16
	sw	s0,8(sp)
	.cfi_offset 8, -8
	.loc 1 608 19
	lw	s0,20(a0)
	.loc 1 607 1
	sw	ra,12(sp)
	.cfi_offset 1, -4
	.loc 1 608 28
	call	Ring_Buffer_Get_Length
.LVL90:
	.loc 1 609 1
	lw	ra,12(sp)
	.cfi_restore 1
	sub	a0,s0,a0
	lw	s0,8(sp)
	.cfi_restore 8
	addi	sp,sp,16
	.cfi_def_cfa_offset 0
	jr	ra
	.cfi_endproc
.LFE20:
	.size	Ring_Buffer_Get_Empty_Length, .-Ring_Buffer_Get_Empty_Length
	.section	.text.Ring_Buffer_Write_Callback,"ax",@progbits
	.align	1
	.globl	Ring_Buffer_Write_Callback
	.type	Ring_Buffer_Write_Callback, @function
Ring_Buffer_Write_Callback:
.LFB7:
	.loc 1 119 1 is_stmt 1
	.cfi_startproc
.LVL91:
	.loc 1 120 5
	.loc 1 119 1 is_stmt 0
	addi	sp,sp,-32
	.cfi_def_cfa_offset 32
	sw	s3,12(sp)
	.cfi_offset 19, -20
	mv	s3,a2
	sw	s0,24(sp)
	sw	s2,16(sp)
	sw	s4,8(sp)
	sw	ra,28(sp)
	sw	s1,20(sp)
	sw	s5,4(sp)
	.cfi_offset 8, -8
	.cfi_offset 18, -16
	.cfi_offset 20, -24
	.cfi_offset 1, -4
	.cfi_offset 9, -12
	.cfi_offset 21, -28
	.loc 1 119 1
	mv	s0,a0
	mv	s2,a1
	mv	s4,a3
	.loc 1 120 29
	call	Ring_Buffer_Get_Empty_Length
.LVL92:
	.loc 1 122 5 is_stmt 1
	.loc 1 122 8 is_stmt 0
	bne	s3,zero,.L103
.LVL93:
.L107:
	.loc 1 123 16
	li	s1,0
.LVL94:
.L102:
	.loc 1 164 1
	lw	ra,28(sp)
	.cfi_remember_state
	.cfi_restore 1
	lw	s0,24(sp)
	.cfi_restore 8
.LVL95:
	lw	s2,16(sp)
	.cfi_restore 18
	lw	s3,12(sp)
	.cfi_restore 19
.LVL96:
	lw	s4,8(sp)
	.cfi_restore 20
.LVL97:
	lw	s5,4(sp)
	.cfi_restore 21
	mv	a0,s1
	lw	s1,20(sp)
	.cfi_restore 9
	addi	sp,sp,32
	.cfi_def_cfa_offset 0
	jr	ra
.LVL98:
.L103:
	.cfi_restore_state
	.loc 1 126 15
	lw	a5,24(s0)
	mv	s1,a0
	.loc 1 126 5 is_stmt 1
	.loc 1 126 8 is_stmt 0
	beq	a5,zero,.L105
.LVL99:
	.loc 1 127 9 is_stmt 1
	jalr	a5
.LVL100:
.L105:
	.loc 1 131 5
	.loc 1 131 8 is_stmt 0
	bne	s1,zero,.L106
	.loc 1 132 9 is_stmt 1
	.loc 1 132 19 is_stmt 0
	lw	a5,28(s0)
	.loc 1 132 12
	beq	a5,zero,.L107
.LVL101:
.L121:
	.loc 1 160 9 is_stmt 1
	jalr	a5
.LVL102:
	j	.L102
.LVL103:
.L106:
	.loc 1 140 5
	sgtu	a5,s1,s2
	.loc 1 145 26 is_stmt 0
	lw	s5,20(s0)
	mvnez	s1, s2, a5
.LVL104:
	.loc 1 145 5 is_stmt 1
	.loc 1 145 41 is_stmt 0
	lw	s2,16(s0)
	.loc 1 149 9
	lw	a1,0(s0)
	.loc 1 145 18
	sub	a2,s5,s2
.LVL105:
	.loc 1 147 5 is_stmt 1
	.loc 1 149 9 is_stmt 0
	add	a1,a1,s2
	.loc 1 147 8
	bgeu	s1,a2,.L109
	.loc 1 149 9 is_stmt 1
	mv	a2,s1
.LVL106:
	mv	a0,s4
	jalr	s3
.LVL107:
	.loc 1 150 9
	.loc 1 150 28 is_stmt 0
	lw	a5,16(s0)
	add	a5,a5,s1
	sw	a5,16(s0)
.LVL108:
.L110:
	.loc 1 159 5 is_stmt 1
	.loc 1 159 15 is_stmt 0
	lw	a5,28(s0)
	.loc 1 159 8
	bne	a5,zero,.L121
	j	.L102
.LVL109:
.L109:
	.loc 1 153 9 is_stmt 1
	mv	a0,s4
	jalr	s3
.LVL110:
	.loc 1 154 9
	lw	a1,0(s0)
	sub	s2,s2,s5
.LVL111:
	add	s2,s2,s1
	mv	a2,s2
	mv	a0,s4
	jalr	s3
.LVL112:
	.loc 1 155 9
	.loc 1 156 29 is_stmt 0
	lbu	a5,12(s0)
	.loc 1 155 28
	sw	s2,16(s0)
	.loc 1 156 9 is_stmt 1
	.loc 1 156 29 is_stmt 0
	not	a5,a5
	sb	a5,12(s0)
	j	.L110
	.cfi_endproc
.LFE7:
	.size	Ring_Buffer_Write_Callback, .-Ring_Buffer_Write_Callback
	.section	.text.Ring_Buffer_Write,"ax",@progbits
	.align	1
	.globl	Ring_Buffer_Write
	.type	Ring_Buffer_Write, @function
Ring_Buffer_Write:
.LFB9:
	.loc 1 195 1 is_stmt 1
	.cfi_startproc
.LVL113:
	.loc 1 196 5
	.loc 1 195 1 is_stmt 0
	addi	sp,sp,-32
	.cfi_def_cfa_offset 32
	sw	a1,12(sp)
	mv	a1,a2
.LVL114:
	.loc 1 196 12
	lui	a2,%hi(Ring_Buffer_Write_Copy)
.LVL115:
	addi	a3,sp,12
.LVL116:
	addi	a2,a2,%lo(Ring_Buffer_Write_Copy)
	.loc 1 195 1
	sw	ra,28(sp)
	.cfi_offset 1, -4
	.loc 1 196 12
	call	Ring_Buffer_Write_Callback
.LVL117:
	.loc 1 197 1
	lw	ra,28(sp)
	.cfi_restore 1
	addi	sp,sp,32
	.cfi_def_cfa_offset 0
	jr	ra
	.cfi_endproc
.LFE9:
	.size	Ring_Buffer_Write, .-Ring_Buffer_Write
	.section	.text.Ring_Buffer_Write_Byte,"ax",@progbits
	.align	1
	.globl	Ring_Buffer_Write_Byte
	.type	Ring_Buffer_Write_Byte, @function
Ring_Buffer_Write_Byte:
.LFB10:
	.loc 1 209 1 is_stmt 1
	.cfi_startproc
.LVL118:
	.loc 1 210 5
	.loc 1 210 15 is_stmt 0
	lw	a5,24(a0)
	.loc 1 209 1
	addi	sp,sp,-32
	.cfi_def_cfa_offset 32
	sw	s0,24(sp)
	sw	s1,20(sp)
	sw	ra,28(sp)
	.cfi_offset 8, -8
	.cfi_offset 9, -12
	.cfi_offset 1, -4
	.loc 1 209 1
	mv	s0,a0
	mv	s1,a1
	.loc 1 210 8
	beq	a5,zero,.L125
	.loc 1 211 9 is_stmt 1
	jalr	a5
.LVL119:
.L125:
	.loc 1 215 5
	.loc 1 215 10 is_stmt 0
	mv	a0,s0
	call	Ring_Buffer_Get_Empty_Length
.LVL120:
	.loc 1 215 8
	bne	a0,zero,.L126
	.loc 1 216 9 is_stmt 1
	.loc 1 216 19 is_stmt 0
	lw	a5,28(s0)
	.loc 1 216 12
	beq	a5,zero,.L124
	sw	a0,12(sp)
	.loc 1 217 13 is_stmt 1
	jalr	a5
.LVL121:
	lw	a0,12(sp)
.L124:
	.loc 1 238 1 is_stmt 0
	lw	ra,28(sp)
	.cfi_remember_state
	.cfi_restore 1
	lw	s0,24(sp)
	.cfi_restore 8
.LVL122:
	lw	s1,20(sp)
	.cfi_restore 9
	addi	sp,sp,32
	.cfi_def_cfa_offset 0
	jr	ra
.LVL123:
.L126:
	.cfi_restore_state
	.loc 1 223 5 is_stmt 1
	.loc 1 223 41 is_stmt 0
	lw	a4,0(s0)
	lw	a5,16(s0)
	srb	s1,a4,a5,0
	.loc 1 226 5 is_stmt 1
	.loc 1 226 45 is_stmt 0
	lw	a4,20(s0)
	.loc 1 226 15
	lw	a5,16(s0)
	.loc 1 226 45
	addi	a4,a4,-1
	.loc 1 226 8
	beq	a5,a4,.L128
	.loc 1 227 9 is_stmt 1
	.loc 1 227 27 is_stmt 0
	addi	a5,a5,1
	sw	a5,16(s0)
.L129:
	.loc 1 233 5 is_stmt 1
	.loc 1 233 15 is_stmt 0
	lw	a5,28(s0)
	.loc 1 237 12
	li	a0,1
	.loc 1 233 8
	beq	a5,zero,.L124
	.loc 1 234 9 is_stmt 1
	jalr	a5
.LVL124:
	.loc 1 237 12 is_stmt 0
	li	a0,1
	j	.L124
.L128:
	.loc 1 229 9 is_stmt 1
	.loc 1 230 29 is_stmt 0
	lbu	a5,12(s0)
	.loc 1 229 28
	sw	zero,16(s0)
	.loc 1 230 9 is_stmt 1
	.loc 1 230 29 is_stmt 0
	not	a5,a5
	sb	a5,12(s0)
	j	.L129
	.cfi_endproc
.LFE10:
	.size	Ring_Buffer_Write_Byte, .-Ring_Buffer_Write_Byte
	.section	.text.Ring_Buffer_Write_Force,"ax",@progbits
	.align	1
	.globl	Ring_Buffer_Write_Force
	.type	Ring_Buffer_Write_Force, @function
Ring_Buffer_Write_Force:
.LFB11:
	.loc 1 252 1 is_stmt 1
	.cfi_startproc
.LVL125:
	.loc 1 253 5
	.loc 1 252 1 is_stmt 0
	addi	sp,sp,-32
	.cfi_def_cfa_offset 32
	sw	s0,24(sp)
	sw	s1,20(sp)
	.cfi_offset 8, -8
	.cfi_offset 9, -12
	mv	s0,a0
	sw	s2,16(sp)
	sw	s3,12(sp)
	sw	s4,8(sp)
	sw	s5,4(sp)
	sw	s6,0(sp)
	sw	ra,28(sp)
	.cfi_offset 18, -16
	.cfi_offset 19, -20
	.cfi_offset 20, -24
	.cfi_offset 21, -28
	.cfi_offset 22, -32
	.cfi_offset 1, -4
	.loc 1 252 1
	mv	s3,a1
	mv	s1,a2
	.loc 1 253 29
	call	Ring_Buffer_Get_Empty_Length
.LVL126:
	.loc 1 256 15
	lw	a5,24(s0)
	.loc 1 254 36
	lw	s6,20(s0)
	.loc 1 254 51
	lw	s2,16(s0)
	.loc 1 253 29
	mv	s4,a0
.LVL127:
	.loc 1 254 5 is_stmt 1
	.loc 1 254 14 is_stmt 0
	sub	s5,s6,s2
.LVL128:
	.loc 1 256 5 is_stmt 1
	.loc 1 256 8 is_stmt 0
	beq	a5,zero,.L139
	.loc 1 257 9 is_stmt 1
	jalr	a5
.LVL129:
.L139:
	.loc 1 261 5
	.loc 1 261 24 is_stmt 0
	lw	a5,20(s0)
	.loc 1 261 8
	bgeu	a5,s1,.L140
	.loc 1 262 9 is_stmt 1
	.loc 1 262 29 is_stmt 0
	sub	s1,s1,a5
.LVL130:
	.loc 1 262 14
	add	s3,s3,s1
.LVL131:
	.loc 1 263 9 is_stmt 1
	.loc 1 262 14 is_stmt 0
	mv	s1,a5
.LVL132:
.L140:
	.loc 1 266 5 is_stmt 1
	.loc 1 268 26 is_stmt 0
	lw	a0,0(s0)
	lw	a5,16(s0)
	add	a0,a0,a5
	.loc 1 266 8
	bgeu	s1,s5,.L141
	.loc 1 268 9 is_stmt 1
	mv	a2,s1
	mv	a1,s3
	call	arch_memcpy_fast
.LVL133:
	.loc 1 269 9
	.loc 1 269 28 is_stmt 0
	lw	a5,16(s0)
	add	a5,s1,a5
	sw	a5,16(s0)
	.loc 1 272 9 is_stmt 1
	.loc 1 272 12 is_stmt 0
	bleu	s1,s4,.L143
	.loc 1 273 13 is_stmt 1
	.loc 1 273 31 is_stmt 0
	sw	a5,8(s0)
.L143:
	.loc 1 289 5 is_stmt 1
	.loc 1 289 15 is_stmt 0
	lw	a5,28(s0)
	.loc 1 289 8
	beq	a5,zero,.L145
	.loc 1 290 9 is_stmt 1
	jalr	a5
.LVL134:
.L145:
	.loc 1 293 5
	.loc 1 294 1 is_stmt 0
	lw	ra,28(sp)
	.cfi_remember_state
	.cfi_restore 1
	lw	s0,24(sp)
	.cfi_restore 8
.LVL135:
	lw	s2,16(sp)
	.cfi_restore 18
	lw	s3,12(sp)
	.cfi_restore 19
.LVL136:
	lw	s4,8(sp)
	.cfi_restore 20
.LVL137:
	lw	s5,4(sp)
	.cfi_restore 21
.LVL138:
	lw	s6,0(sp)
	.cfi_restore 22
	mv	a0,s1
	lw	s1,20(sp)
	.cfi_restore 9
.LVL139:
	addi	sp,sp,32
	.cfi_def_cfa_offset 0
	jr	ra
.LVL140:
.L141:
	.cfi_restore_state
	.loc 1 277 9 is_stmt 1
	mv	a2,s5
	mv	a1,s3
	call	arch_memcpy_fast
.LVL141:
	.loc 1 278 9
	lw	a0,0(s0)
	sub	s2,s2,s6
	add	s2,s2,s1
	mv	a2,s2
	add	a1,s3,s5
	call	arch_memcpy_fast
.LVL142:
	.loc 1 279 9
	.loc 1 280 29 is_stmt 0
	lbu	a5,12(s0)
	.loc 1 279 28
	sw	s2,16(s0)
	.loc 1 280 9 is_stmt 1
	.loc 1 280 29 is_stmt 0
	not	a5,a5
	sb	a5,12(s0)
	.loc 1 283 9 is_stmt 1
	.loc 1 283 12 is_stmt 0
	bleu	s1,s4,.L143
	.loc 1 284 13 is_stmt 1
	.loc 1 285 32 is_stmt 0
	lbu	a5,4(s0)
	.loc 1 284 31
	sw	s2,8(s0)
	.loc 1 285 13 is_stmt 1
	.loc 1 285 32 is_stmt 0
	not	a5,a5
	sb	a5,4(s0)
	j	.L143
	.cfi_endproc
.LFE11:
	.size	Ring_Buffer_Write_Force, .-Ring_Buffer_Write_Force
	.section	.text.Ring_Buffer_Get_Status,"ax",@progbits
	.align	1
	.globl	Ring_Buffer_Get_Status
	.type	Ring_Buffer_Get_Status, @function
Ring_Buffer_Get_Status:
.LFB21:
	.loc 1 620 1 is_stmt 1
	.cfi_startproc
.LVL143:
	.loc 1 621 5
	.loc 1 621 15 is_stmt 0
	lw	a5,24(a0)
	.loc 1 620 1
	addi	sp,sp,-32
	.cfi_def_cfa_offset 32
	sw	ra,28(sp)
	.cfi_offset 1, -4
	.loc 1 621 8
	beq	a5,zero,.L154
	sw	a0,12(sp)
	.loc 1 622 9 is_stmt 1
	jalr	a5
.LVL144:
	lw	a0,12(sp)
.LVL145:
.L154:
	.loc 1 626 5
	.loc 1 626 8 is_stmt 0
	lw	a3,8(a0)
	lw	a4,16(a0)
.LBB4:
.LBB5:
	.loc 1 628 23
	lw	a5,28(a0)
.LBE5:
.LBE4:
	.loc 1 626 8
	bne	a3,a4,.L155
.LVL146:
.LBB8:
.LBB6:
	.loc 1 627 9 is_stmt 1
	.loc 1 627 12 is_stmt 0
	lbu	a3,4(a0)
	lbu	a4,12(a0)
	bne	a3,a4,.L156
	.loc 1 628 13 is_stmt 1
	.loc 1 632 20 is_stmt 0
	li	a0,0
.LVL147:
	.loc 1 628 16
	beq	a5,zero,.L157
	.loc 1 629 17 is_stmt 1
	jalr	a5
.LVL148:
	.loc 1 632 20 is_stmt 0
	li	a0,0
.L157:
.LBE6:
.LBE8:
	.loc 1 647 1
	lw	ra,28(sp)
	.cfi_remember_state
	.cfi_restore 1
	addi	sp,sp,32
	.cfi_def_cfa_offset 0
	jr	ra
.LVL149:
.L156:
	.cfi_restore_state
.LBB9:
.LBB7:
	.loc 1 634 13 is_stmt 1
	.loc 1 638 20 is_stmt 0
	li	a0,2
.LVL150:
	.loc 1 634 16
	beq	a5,zero,.L157
	.loc 1 635 17 is_stmt 1
	jalr	a5
.LVL151:
	.loc 1 638 20 is_stmt 0
	li	a0,2
	j	.L157
.L155:
.LBE7:
.LBE9:
	.loc 1 642 5 is_stmt 1
	.loc 1 646 12 is_stmt 0
	li	a0,1
	.loc 1 642 8
	beq	a5,zero,.L157
	.loc 1 643 9 is_stmt 1
	jalr	a5
.LVL152:
	.loc 1 646 12 is_stmt 0
	li	a0,1
	j	.L157
	.cfi_endproc
.LFE21:
	.size	Ring_Buffer_Get_Status, .-Ring_Buffer_Get_Status
	.section	.text.Ring_Buffer_Write_Byte_Force,"ax",@progbits
	.align	1
	.globl	Ring_Buffer_Write_Byte_Force
	.type	Ring_Buffer_Write_Byte_Force, @function
Ring_Buffer_Write_Byte_Force:
.LFB12:
	.loc 1 307 1 is_stmt 1
	.cfi_startproc
.LVL153:
	.loc 1 308 5
	.loc 1 307 1 is_stmt 0
	addi	sp,sp,-32
	.cfi_def_cfa_offset 32
	sw	s0,24(sp)
	sw	s1,20(sp)
	.cfi_offset 8, -8
	.cfi_offset 9, -12
	mv	s0,a0
	sw	ra,28(sp)
	.cfi_offset 1, -4
	.loc 1 307 1
	mv	s1,a1
	.loc 1 308 38
	call	Ring_Buffer_Get_Status
.LVL154:
	.loc 1 310 5 is_stmt 1
	.loc 1 310 15 is_stmt 0
	lw	a5,24(s0)
	.loc 1 310 8
	beq	a5,zero,.L166
	sw	a0,12(sp)
	.loc 1 311 9 is_stmt 1
	jalr	a5
.LVL155:
	lw	a0,12(sp)
.L166:
	.loc 1 314 5
	.loc 1 314 41 is_stmt 0
	lw	a4,0(s0)
	lw	a5,16(s0)
	srb	s1,a4,a5,0
	.loc 1 317 5 is_stmt 1
	.loc 1 317 44 is_stmt 0
	lw	a4,20(s0)
	.loc 1 317 15
	lw	a5,16(s0)
	.loc 1 317 44
	addi	a4,a4,-1
	.loc 1 317 8
	bne	a5,a4,.L167
	.loc 1 318 9 is_stmt 1
	.loc 1 319 29 is_stmt 0
	lbu	a5,12(s0)
	.loc 1 318 28
	sw	zero,16(s0)
	.loc 1 319 9 is_stmt 1
	.loc 1 319 29 is_stmt 0
	not	a5,a5
	sb	a5,12(s0)
	.loc 1 322 9 is_stmt 1
	.loc 1 322 12 is_stmt 0
	li	a5,2
	bne	a0,a5,.L169
	.loc 1 323 13 is_stmt 1
	.loc 1 324 32 is_stmt 0
	lbu	a5,4(s0)
	.loc 1 323 31
	sw	zero,8(s0)
	.loc 1 324 13 is_stmt 1
	.loc 1 324 32 is_stmt 0
	not	a5,a5
	sb	a5,4(s0)
.L169:
	.loc 1 335 5 is_stmt 1
	.loc 1 335 15 is_stmt 0
	lw	a5,28(s0)
	.loc 1 335 8
	beq	a5,zero,.L171
	.loc 1 336 9 is_stmt 1
	jalr	a5
.LVL156:
.L171:
	.loc 1 339 5
	.loc 1 340 1 is_stmt 0
	lw	ra,28(sp)
	.cfi_remember_state
	.cfi_restore 1
	lw	s0,24(sp)
	.cfi_restore 8
.LVL157:
	lw	s1,20(sp)
	.cfi_restore 9
	li	a0,1
	addi	sp,sp,32
	.cfi_def_cfa_offset 0
	jr	ra
.LVL158:
.L167:
	.cfi_restore_state
	.loc 1 327 9 is_stmt 1
	.loc 1 327 27 is_stmt 0
	addi	a5,a5,1
	sw	a5,16(s0)
	.loc 1 330 9 is_stmt 1
	.loc 1 330 12 is_stmt 0
	li	a4,2
	bne	a0,a4,.L169
	.loc 1 331 13 is_stmt 1
	.loc 1 331 31 is_stmt 0
	sw	a5,8(s0)
	j	.L169
	.cfi_endproc
.LFE12:
	.size	Ring_Buffer_Write_Byte_Force, .-Ring_Buffer_Write_Byte_Force
	.text
.Letext0:
	.file 2 "./toolchain/linux_x86_64/riscv64-unknown-elf/include/machine/_default_types.h"
	.file 3 "./toolchain/linux_x86_64/riscv64-unknown-elf/include/sys/_stdint.h"
	.file 4 "./components/utils/ring_buffer/ring_buffer.h"
	.file 5 "./drivers/lhal/include/qcc74x_common.h"