	.file	"rv_hart.c"
	.option nopic
	.attribute arch, "rv32i2p0_m2p0_a2p0_f2p0_c2p0_p0p9_zpn0p9_zpsfoperand0p9_xtheade2p0"
	.attribute unaligned_access, 0
	.attribute stack_align, 16
	.text
.Ltext0:
	.cfi_sections	.debug_frame
	.section	.text.rv_hart_hang,"ax",@progbits
	.align	1
	.globl	rv_hart_hang
	.type	rv_hart_hang, @function
rv_hart_hang:
.LFB237:
	.file 1 "./drivers/lhal/include/arch/risc-v/t-head/rv_hart.c"
	.loc 1 14 1
	.cfi_startproc
.L2:
	.loc 1 15 5 discriminator 1
	.loc 1 16 9 discriminator 1
.LBB17:
.LBB18:
	.file 2 "./drivers/lhal/include/arch/risc-v/t-head/Core/Include/csi_rv32_gcc.h"
	.loc 2 1217 5 discriminator 1
 #APP
# 1217 "/home/sai/QCCSDK-QCC74x/drivers/lhal/include/arch/risc-v/t-head/Core/Include/csi_rv32_gcc.h" 1
	wfi
# 0 "" 2
 #NO_APP
	j	.L2
.LBE18:
.LBE17:
	.cfi_endproc
.LFE237:
	.size	rv_hart_hang, .-rv_hart_hang
	.section	.text.rv_hart_misa_ext_chk,"ax",@progbits
	.align	1
	.globl	rv_hart_misa_ext_chk
	.type	rv_hart_misa_ext_chk, @function
rv_hart_misa_ext_chk:
.LFB238:
	.loc 1 24 1
	.cfi_startproc
.LVL0:
	.loc 1 25 5
.LBB19:
	.loc 1 25 29
	.loc 1 25 48
 #APP
# 25 "/home/sai/QCCSDK-QCC74x/drivers/lhal/include/arch/risc-v/t-head/rv_hart.c" 1
	csrr a4, misa
# 0 "" 2
.LVL1:
	.loc 1 25 94
 #NO_APP
.LBE19:
	.loc 1 27 5
	.loc 1 27 8 is_stmt 0
	beq	a4,zero,.L6
	.loc 1 28 9 is_stmt 1
	.loc 1 28 24 is_stmt 0
	addi	a5,a0,-65
	.loc 1 28 12
	andi	a2,a5,0xff
	li	a3,25
	bgtu	a2,a3,.L5
.LVL2:
.L8:
	.loc 1 33 13 is_stmt 1
	.loc 1 33 30 is_stmt 0
	li	a0,1
	sll	a0,a0,a5
	.loc 1 33 25
	and	a0,a0,a4
	ret
.LVL3:
.L5:
	.loc 1 32 9 is_stmt 1
	.loc 1 32 24 is_stmt 0
	addi	a5,a0,-97
	.loc 1 32 12
	andi	a2,a5,0xff
	.loc 1 39 12
	li	a0,0
.LVL4:
	.loc 1 32 12
	bleu	a2,a3,.L8
.L3:
	.loc 1 40 1
	ret
.LVL5:
.L6:
	.loc 1 39 12
	li	a0,0
.LVL6:
	j	.L3
	.cfi_endproc
.LFE238:
	.size	rv_hart_misa_ext_chk, .-rv_hart_misa_ext_chk
	.section	.text.rv_enterSupervisor,"ax",@progbits
	.align	1
	.globl	rv_enterSupervisor
	.type	rv_enterSupervisor, @function
rv_enterSupervisor:
.LFB239:
	.loc 1 43 1 is_stmt 1
	.cfi_startproc
	.loc 1 44 5
 #APP
# 44 "/home/sai/QCCSDK-QCC74x/drivers/lhal/include/arch/risc-v/t-head/rv_hart.c" 1
	fence
	csrw mepc, ra
	li   t0, ~(3 << 11)
	li   t1, 1 << 11
	csrr t2, mstatus
	and  t0, t0, t2
	or   t0, t0, t1
	csrw mstatus, t0
	mret
	
# 0 "" 2
	.loc 1 57 1 is_stmt 0
 #NO_APP
	.cfi_endproc
.LFE239:
	.size	rv_enterSupervisor, .-rv_enterSupervisor
	.section	.text.rv_enterUser,"ax",@progbits
	.align	1
	.globl	rv_enterUser
	.type	rv_enterUser, @function
rv_enterUser:
.LFB240:
	.loc 1 60 1 is_stmt 1
	.cfi_startproc
	.loc 1 61 5
 #APP
# 61 "/home/sai/QCCSDK-QCC74x/drivers/lhal/include/arch/risc-v/t-head/rv_hart.c" 1
	fence
	csrw mepc, ra
	li   t0, ~(3 << 11)
	csrr t2, mstatus
	and  t0, t0, t2
	csrw mstatus, t0
	mret
	
# 0 "" 2
	.loc 1 72 1 is_stmt 0
 #NO_APP
	.cfi_endproc
.LFE240:
	.size	rv_enterUser, .-rv_enterUser
	.section	.text.rv_hart_switch_mode_from_M,"ax",@progbits
	.align	1
	.globl	rv_hart_switch_mode_from_M
	.type	rv_hart_switch_mode_from_M, @function
rv_hart_switch_mode_from_M:
.LFB241:
	.loc 1 77 1 is_stmt 1
	.cfi_startproc
.LVL7:
	.loc 1 79 5
	.loc 1 84 5
	.loc 1 77 1 is_stmt 0
	addi	sp,sp,-32
	.cfi_def_cfa_offset 32
	sw	s0,24(sp)
	sw	s1,20(sp)
	sw	s2,16(sp)
	sw	ra,28(sp)
	.cfi_offset 8, -8
	.cfi_offset 9, -12
	.cfi_offset 18, -16
	.cfi_offset 1, -4
	.loc 1 84 5
	li	a5,1
	.loc 1 77 1
	mv	s2,a0
	mv	s1,a2
	mv	s0,a3
	.loc 1 84 5
	beq	a3,a5,.L12
	li	a5,3
	beq	a3,a5,.L13
	bne	a3,zero,.L15
	.loc 1 96 18
	li	a0,85
.LVL8:
	sw	a1,12(sp)
	.loc 1 96 13 is_stmt 1
	.loc 1 96 18 is_stmt 0
	call	rv_hart_misa_ext_chk
.LVL9:
	.loc 1 96 16
	lw	a1,12(sp)
	bne	a0,zero,.L13
.L18:
	.loc 1 15 5 is_stmt 1
	.loc 1 16 9
.LBB20:
.LBB21:
.LBB22:
	.loc 2 1217 5
 #APP
# 1217 "/home/sai/QCCSDK-QCC74x/drivers/lhal/include/arch/risc-v/t-head/Core/Include/csi_rv32_gcc.h" 1
	wfi
# 0 "" 2
 #NO_APP
	j	.L18
.LVL10:
.L12:
.LBE22:
.LBE21:
.LBE20:
	.loc 1 89 18 is_stmt 0
	li	a0,83
.LVL11:
	sw	a1,12(sp)
	.loc 1 89 13 is_stmt 1
	.loc 1 89 18 is_stmt 0
	call	rv_hart_misa_ext_chk
.LVL12:
	.loc 1 89 16
	lw	a1,12(sp)
	bne	a0,zero,.L13
.L16:
	.loc 1 15 5 is_stmt 1
	.loc 1 16 9
.LBB23:
.LBB24:
.LBB25:
	.loc 2 1217 5
 #APP
# 1217 "/home/sai/QCCSDK-QCC74x/drivers/lhal/include/arch/risc-v/t-head/Core/Include/csi_rv32_gcc.h" 1
	wfi
# 0 "" 2
 #NO_APP
	j	.L16
.LVL13:
.L15:
.LBE25:
.LBE24:
.LBE23:
	.loc 1 15 5
	.loc 1 16 9
.LBB26:
.LBB27:
.LBB28:
	.loc 2 1217 5
 #APP
# 1217 "/home/sai/QCCSDK-QCC74x/drivers/lhal/include/arch/risc-v/t-head/Core/Include/csi_rv32_gcc.h" 1
	wfi
# 0 "" 2
 #NO_APP
	j	.L15
.LVL14:
.L13:
.LBE28:
.LBE27:
.LBE26:
	.loc 1 106 5
.LBB29:
	.loc 1 106 14
	.loc 1 106 33
 #APP
# 106 "/home/sai/QCCSDK-QCC74x/drivers/lhal/include/arch/risc-v/t-head/rv_hart.c" 1
	csrr a5, mstatus
# 0 "" 2
.LVL15:
	.loc 1 106 82
 #NO_APP
.LBE29:
	.loc 1 107 5
	.loc 1 107 19 is_stmt 0
	li	a4,-8192
	addi	a4,a4,2047
	and	a5,a5,a4
.LVL16:
	.loc 1 107 52
	slli	a4,s0,11
	.loc 1 107 9
	or	a5,a5,a4
.LVL17:
	.loc 1 108 5 is_stmt 1
	.loc 1 110 5
	.loc 1 108 9 is_stmt 0
	andi	a5,a5,-129
.LVL18:
	.loc 1 110 8
 #APP
# 110 "/home/sai/QCCSDK-QCC74x/drivers/lhal/include/arch/risc-v/t-head/rv_hart.c" 1
	csrw mstatus, a5
# 0 "" 2
	.loc 1 111 5 is_stmt 1
	.loc 1 111 8 is_stmt 0
# 111 "/home/sai/QCCSDK-QCC74x/drivers/lhal/include/arch/risc-v/t-head/rv_hart.c" 1
	csrw mepc, s1
# 0 "" 2
	.loc 1 113 5 is_stmt 1
	.loc 1 113 8 is_stmt 0
 #NO_APP
	li	a5,1
.LVL19:
	bne	s0,a5,.L19
	.loc 1 114 9 is_stmt 1
	.loc 1 114 12 is_stmt 0
 #APP
# 114 "/home/sai/QCCSDK-QCC74x/drivers/lhal/include/arch/risc-v/t-head/rv_hart.c" 1
	csrw stvec, s1
# 0 "" 2
	.loc 1 115 9 is_stmt 1
	.loc 1 115 12 is_stmt 0
# 115 "/home/sai/QCCSDK-QCC74x/drivers/lhal/include/arch/risc-v/t-head/rv_hart.c" 1
	csrw sscratch, 0
# 0 "" 2
	.loc 1 116 9 is_stmt 1
	.loc 1 116 12 is_stmt 0
# 116 "/home/sai/QCCSDK-QCC74x/drivers/lhal/include/arch/risc-v/t-head/rv_hart.c" 1
	csrw sie, 0
# 0 "" 2
	.loc 1 117 9 is_stmt 1
	.loc 1 117 12 is_stmt 0
# 117 "/home/sai/QCCSDK-QCC74x/drivers/lhal/include/arch/risc-v/t-head/rv_hart.c" 1
	csrw satp, 0
# 0 "" 2
 #NO_APP
.L19:
	.loc 1 124 5 is_stmt 1
	.loc 1 126 5
	.loc 1 126 28 is_stmt 0
	mv	a0,s2
	.loc 1 127 5 is_stmt 1
	.loc 1 128 5
 #APP
# 128 "/home/sai/QCCSDK-QCC74x/drivers/lhal/include/arch/risc-v/t-head/rv_hart.c" 1
	mret
# 0 "" 2
	.loc 1 131 5
 #NO_APP
	.cfi_endproc
.LFE241:
	.size	rv_hart_switch_mode_from_M, .-rv_hart_switch_mode_from_M
	.text
.Letext0:
	.file 3 "./toolchain/linux_x86_64/riscv64-unknown-elf/include/machine/_default_types.h"
	.file 4 "./toolchain/linux_x86_64/riscv64-unknown-elf/include/sys/_stdint.h"