	.file	"qcc74x_l1c.c"
	.option nopic
	.attribute arch, "rv32i2p0_m2p0_a2p0_f2p0_c2p0_p0p9_zpn0p9_zpsfoperand0p9_xtheade2p0"
	.attribute unaligned_access, 0
	.attribute stack_align, 16
	.text
.Ltext0:
	.cfi_sections	.debug_frame
	.section	.text.qcc74x_l1c_icache_enable,"ax",@progbits
	.align	1
	.globl	qcc74x_l1c_icache_enable
	.type	qcc74x_l1c_icache_enable, @function
qcc74x_l1c_icache_enable:
.LFB242:
	.file 1 "./drivers/lhal/src/qcc74x_l1c.c"
	.loc 1 7 1
	.cfi_startproc
	.loc 1 11 5
.LBB132:
.LBB133:
	.file 2 "./drivers/lhal/include/arch/risc-v/t-head/Core/Include/core_rv32.h"
	.loc 2 1066 5
	.loc 2 1067 5
.LBB134:
.LBB135:
	.file 3 "./drivers/lhal/include/arch/risc-v/t-head/Core/Include/csi_rv32_gcc.h"
	.loc 3 1269 5
 #APP
# 1269 "/home/sai/QCCSDK-QCC74x/drivers/lhal/include/arch/risc-v/t-head/Core/Include/csi_rv32_gcc.h" 1
	.word 0x0ff0000f

# 0 "" 2
 #NO_APP
.LBE135:
.LBE134:
	.loc 2 1068 5
.LBB136:
.LBB137:
	.loc 3 1256 5
 #APP
# 1256 "/home/sai/QCCSDK-QCC74x/drivers/lhal/include/arch/risc-v/t-head/Core/Include/csi_rv32_gcc.h" 1
	.word 0x0000100f

# 0 "" 2
 #NO_APP
.LBE137:
.LBE136:
	.loc 2 1069 5
.LBB138:
.LBB139:
	.loc 3 1281 5
 #APP
# 1281 "/home/sai/QCCSDK-QCC74x/drivers/lhal/include/arch/risc-v/t-head/Core/Include/csi_rv32_gcc.h" 1
	.word 0x0100000b

# 0 "" 2
 #NO_APP
.LBE139:
.LBE138:
	.loc 2 1070 5
.LBB140:
.LBB141:
	.loc 3 183 5
	.loc 3 185 5
 #APP
# 185 "/home/sai/QCCSDK-QCC74x/drivers/lhal/include/arch/risc-v/t-head/Core/Include/csi_rv32_gcc.h" 1
	csrr a5, 0x7c1
# 0 "" 2
.LVL0:
	.loc 3 187 5
 #NO_APP
.LBE141:
.LBE140:
	.loc 2 1071 5
	.loc 2 1072 5
.LBB142:
.LBB143:
	.loc 3 197 5
.LBE143:
.LBE142:
	.loc 2 1071 11 is_stmt 0
	ori	a5,a5,1
.LVL1:
.LBB145:
.LBB144:
	.loc 3 197 5
 #APP
# 197 "/home/sai/QCCSDK-QCC74x/drivers/lhal/include/arch/risc-v/t-head/Core/Include/csi_rv32_gcc.h" 1
	csrw 0x7c1, a5
# 0 "" 2
.LVL2:
 #NO_APP
.LBE144:
.LBE145:
	.loc 2 1073 5 is_stmt 1
.LBB146:
.LBB147:
	.loc 3 1269 5
 #APP
# 1269 "/home/sai/QCCSDK-QCC74x/drivers/lhal/include/arch/risc-v/t-head/Core/Include/csi_rv32_gcc.h" 1
	.word 0x0ff0000f

# 0 "" 2
 #NO_APP
.LBE147:
.LBE146:
	.loc 2 1074 5
.LBB148:
.LBB149:
	.loc 3 1256 5
 #APP
# 1256 "/home/sai/QCCSDK-QCC74x/drivers/lhal/include/arch/risc-v/t-head/Core/Include/csi_rv32_gcc.h" 1
	.word 0x0000100f

# 0 "" 2
.LVL3:
 #NO_APP
.LBE149:
.LBE148:
.LBE133:
.LBE132:
	.loc 1 13 1 is_stmt 0
	ret
	.cfi_endproc
.LFE242:
	.size	qcc74x_l1c_icache_enable, .-qcc74x_l1c_icache_enable
	.section	.text.qcc74x_l1c_icache_disable,"ax",@progbits
	.align	1
	.globl	qcc74x_l1c_icache_disable
	.type	qcc74x_l1c_icache_disable, @function
qcc74x_l1c_icache_disable:
.LFB243:
	.loc 1 16 1 is_stmt 1
	.cfi_startproc
	.loc 1 20 5
.LBB166:
.LBB167:
	.loc 2 1085 5
	.loc 2 1086 5
.LBB168:
.LBB169:
	.loc 3 1269 5
 #APP
# 1269 "/home/sai/QCCSDK-QCC74x/drivers/lhal/include/arch/risc-v/t-head/Core/Include/csi_rv32_gcc.h" 1
	.word 0x0ff0000f

# 0 "" 2
 #NO_APP
.LBE169:
.LBE168:
	.loc 2 1087 5
.LBB170:
.LBB171:
	.loc 3 1256 5
 #APP
# 1256 "/home/sai/QCCSDK-QCC74x/drivers/lhal/include/arch/risc-v/t-head/Core/Include/csi_rv32_gcc.h" 1
	.word 0x0000100f

# 0 "" 2
 #NO_APP
.LBE171:
.LBE170:
	.loc 2 1088 5
.LBB172:
.LBB173:
	.loc 3 183 5
	.loc 3 185 5
 #APP
# 185 "/home/sai/QCCSDK-QCC74x/drivers/lhal/include/arch/risc-v/t-head/Core/Include/csi_rv32_gcc.h" 1
	csrr a5, 0x7c1
# 0 "" 2
.LVL4:
	.loc 3 187 5
 #NO_APP
.LBE173:
.LBE172:
	.loc 2 1089 5
	.loc 2 1090 5
.LBB174:
.LBB175:
	.loc 3 197 5
.LBE175:
.LBE174:
	.loc 2 1089 11 is_stmt 0
	andi	a5,a5,-2
.LVL5:
.LBB177:
.LBB176:
	.loc 3 197 5
 #APP
# 197 "/home/sai/QCCSDK-QCC74x/drivers/lhal/include/arch/risc-v/t-head/Core/Include/csi_rv32_gcc.h" 1
	csrw 0x7c1, a5
# 0 "" 2
.LVL6:
 #NO_APP
.LBE176:
.LBE177:
	.loc 2 1091 5 is_stmt 1
.LBB178:
.LBB179:
	.loc 3 1281 5
 #APP
# 1281 "/home/sai/QCCSDK-QCC74x/drivers/lhal/include/arch/risc-v/t-head/Core/Include/csi_rv32_gcc.h" 1
	.word 0x0100000b

# 0 "" 2
 #NO_APP
.LBE179:
.LBE178:
	.loc 2 1092 5
.LBB180:
.LBB181:
	.loc 3 1269 5
 #APP
# 1269 "/home/sai/QCCSDK-QCC74x/drivers/lhal/include/arch/risc-v/t-head/Core/Include/csi_rv32_gcc.h" 1
	.word 0x0ff0000f

# 0 "" 2
 #NO_APP
.LBE181:
.LBE180:
	.loc 2 1093 5
.LBB182:
.LBB183:
	.loc 3 1256 5
 #APP
# 1256 "/home/sai/QCCSDK-QCC74x/drivers/lhal/include/arch/risc-v/t-head/Core/Include/csi_rv32_gcc.h" 1
	.word 0x0000100f

# 0 "" 2
.LVL7:
 #NO_APP
.LBE183:
.LBE182:
.LBE167:
.LBE166:
	.loc 1 22 1 is_stmt 0
	ret
	.cfi_endproc
.LFE243:
	.size	qcc74x_l1c_icache_disable, .-qcc74x_l1c_icache_disable
	.section	.tcm_code../drivers/lhal/src/qcc74x_l1c.c24,"ax",@progbits
	.align	1
	.globl	qcc74x_l1c_icache_invalid_all
	.type	qcc74x_l1c_icache_invalid_all, @function
qcc74x_l1c_icache_invalid_all:
.LFB244:
	.loc 1 25 1 is_stmt 1
	.cfi_startproc
	.loc 1 29 5
	.loc 2 1104 5
.LBB196:
.LBB197:
.LBB198:
	.loc 3 1269 5
 #APP
# 1269 "/home/sai/QCCSDK-QCC74x/drivers/lhal/include/arch/risc-v/t-head/Core/Include/csi_rv32_gcc.h" 1
	.word 0x0ff0000f

# 0 "" 2
 #NO_APP
.LBE198:
.LBE197:
.LBE196:
	.loc 2 1105 5
.LBB207:
.LBB199:
.LBB200:
	.loc 3 1256 5
 #APP
# 1256 "/home/sai/QCCSDK-QCC74x/drivers/lhal/include/arch/risc-v/t-head/Core/Include/csi_rv32_gcc.h" 1
	.word 0x0000100f

# 0 "" 2
 #NO_APP
.LBE200:
.LBE199:
.LBE207:
	.loc 2 1106 5
.LBB208:
.LBB201:
.LBB202:
	.loc 3 1281 5
 #APP
# 1281 "/home/sai/QCCSDK-QCC74x/drivers/lhal/include/arch/risc-v/t-head/Core/Include/csi_rv32_gcc.h" 1
	.word 0x0100000b

# 0 "" 2
 #NO_APP
.LBE202:
.LBE201:
.LBE208:
	.loc 2 1107 5
.LBB209:
.LBB203:
.LBB204:
	.loc 3 1269 5
 #APP
# 1269 "/home/sai/QCCSDK-QCC74x/drivers/lhal/include/arch/risc-v/t-head/Core/Include/csi_rv32_gcc.h" 1
	.word 0x0ff0000f

# 0 "" 2
 #NO_APP
.LBE204:
.LBE203:
.LBE209:
	.loc 2 1108 5
.LBB210:
.LBB205:
.LBB206:
	.loc 3 1256 5
 #APP
# 1256 "/home/sai/QCCSDK-QCC74x/drivers/lhal/include/arch/risc-v/t-head/Core/Include/csi_rv32_gcc.h" 1
	.word 0x0000100f

# 0 "" 2
 #NO_APP
.LBE206:
.LBE205:
.LBE210:
	.loc 1 31 1 is_stmt 0
	ret
	.cfi_endproc
.LFE244:
	.size	qcc74x_l1c_icache_invalid_all, .-qcc74x_l1c_icache_invalid_all
	.section	.text.qcc74x_l1c_dcache_enable,"ax",@progbits
	.align	1
	.globl	qcc74x_l1c_dcache_enable
	.type	qcc74x_l1c_dcache_enable, @function
qcc74x_l1c_dcache_enable:
.LFB245:
	.loc 1 34 1 is_stmt 1
	.cfi_startproc
	.loc 1 38 5
.LBB227:
.LBB228:
	.loc 2 1120 5
	.loc 2 1121 5
.LBB229:
.LBB230:
	.loc 3 1269 5
 #APP
# 1269 "/home/sai/QCCSDK-QCC74x/drivers/lhal/include/arch/risc-v/t-head/Core/Include/csi_rv32_gcc.h" 1
	.word 0x0ff0000f

# 0 "" 2
 #NO_APP
.LBE230:
.LBE229:
	.loc 2 1122 5
.LBB231:
.LBB232:
	.loc 3 1256 5
 #APP
# 1256 "/home/sai/QCCSDK-QCC74x/drivers/lhal/include/arch/risc-v/t-head/Core/Include/csi_rv32_gcc.h" 1
	.word 0x0000100f

# 0 "" 2
 #NO_APP
.LBE232:
.LBE231:
	.loc 2 1123 5
.LBB233:
.LBB234:
	.loc 3 1305 5
 #APP
# 1305 "/home/sai/QCCSDK-QCC74x/drivers/lhal/include/arch/risc-v/t-head/Core/Include/csi_rv32_gcc.h" 1
	.word 0x0020000b

# 0 "" 2
 #NO_APP
.LBE234:
.LBE233:
	.loc 2 1124 5
.LBB235:
.LBB236:
	.loc 3 183 5
	.loc 3 185 5
 #APP
# 185 "/home/sai/QCCSDK-QCC74x/drivers/lhal/include/arch/risc-v/t-head/Core/Include/csi_rv32_gcc.h" 1
	csrr a5, 0x7c1
# 0 "" 2
.LVL8:
	.loc 3 187 5
 #NO_APP
.LBE236:
.LBE235:
	.loc 2 1125 5
	.loc 2 1126 5
.LBB237:
.LBB238:
	.loc 3 197 5
.LBE238:
.LBE237:
	.loc 2 1125 11 is_stmt 0
	li	a4,4096
	addi	a4,a4,62
	or	a5,a5,a4
.LVL9:
.LBB240:
.LBB239:
	.loc 3 197 5
 #APP
# 197 "/home/sai/QCCSDK-QCC74x/drivers/lhal/include/arch/risc-v/t-head/Core/Include/csi_rv32_gcc.h" 1
	csrw 0x7c1, a5
# 0 "" 2
 #NO_APP
.LBE239:
.LBE240:
	.loc 2 1128 5 is_stmt 1
.LBB241:
.LBB242:
	.loc 3 1269 5
 #APP
# 1269 "/home/sai/QCCSDK-QCC74x/drivers/lhal/include/arch/risc-v/t-head/Core/Include/csi_rv32_gcc.h" 1
	.word 0x0ff0000f

# 0 "" 2
 #NO_APP
.LBE242:
.LBE241:
	.loc 2 1129 5
.LBB243:
.LBB244:
	.loc 3 1256 5
 #APP
# 1256 "/home/sai/QCCSDK-QCC74x/drivers/lhal/include/arch/risc-v/t-head/Core/Include/csi_rv32_gcc.h" 1
	.word 0x0000100f

# 0 "" 2
 #NO_APP
.LBE244:
.LBE243:
.LBE228:
.LBE227:
	.loc 1 40 1 is_stmt 0
	ret
	.cfi_endproc
.LFE245:
	.size	qcc74x_l1c_dcache_enable, .-qcc74x_l1c_dcache_enable
	.section	.text.qcc74x_l1c_dcache_disable,"ax",@progbits
	.align	1
	.globl	qcc74x_l1c_dcache_disable
	.type	qcc74x_l1c_dcache_disable, @function
qcc74x_l1c_dcache_disable:
.LFB246:
	.loc 1 43 1 is_stmt 1
	.cfi_startproc
	.loc 1 47 5
.LBB261:
.LBB262:
	.loc 2 1141 5
	.loc 2 1142 5
.LBB263:
.LBB264:
	.loc 3 1269 5
 #APP
# 1269 "/home/sai/QCCSDK-QCC74x/drivers/lhal/include/arch/risc-v/t-head/Core/Include/csi_rv32_gcc.h" 1
	.word 0x0ff0000f

# 0 "" 2
 #NO_APP
.LBE264:
.LBE263:
	.loc 2 1143 5
.LBB265:
.LBB266:
	.loc 3 1256 5
 #APP
# 1256 "/home/sai/QCCSDK-QCC74x/drivers/lhal/include/arch/risc-v/t-head/Core/Include/csi_rv32_gcc.h" 1
	.word 0x0000100f

# 0 "" 2
 #NO_APP
.LBE266:
.LBE265:
	.loc 2 1144 5
.LBB267:
.LBB268:
	.loc 3 183 5
	.loc 3 185 5
 #APP
# 185 "/home/sai/QCCSDK-QCC74x/drivers/lhal/include/arch/risc-v/t-head/Core/Include/csi_rv32_gcc.h" 1
	csrr a5, 0x7c1
# 0 "" 2
.LVL10:
	.loc 3 187 5
 #NO_APP
.LBE268:
.LBE267:
	.loc 2 1145 5
	.loc 2 1146 5
.LBB269:
.LBB270:
	.loc 3 197 5
.LBE270:
.LBE269:
	.loc 2 1145 11 is_stmt 0
	andi	a5,a5,-3
.LVL11:
.LBB272:
.LBB271:
	.loc 3 197 5
 #APP
# 197 "/home/sai/QCCSDK-QCC74x/drivers/lhal/include/arch/risc-v/t-head/Core/Include/csi_rv32_gcc.h" 1
	csrw 0x7c1, a5
# 0 "" 2
.LVL12:
 #NO_APP
.LBE271:
.LBE272:
	.loc 2 1147 5 is_stmt 1
.LBB273:
.LBB274:
	.loc 3 1305 5
 #APP
# 1305 "/home/sai/QCCSDK-QCC74x/drivers/lhal/include/arch/risc-v/t-head/Core/Include/csi_rv32_gcc.h" 1
	.word 0x0020000b

# 0 "" 2
 #NO_APP
.LBE274:
.LBE273:
	.loc 2 1148 5
.LBB275:
.LBB276:
	.loc 3 1269 5
 #APP
# 1269 "/home/sai/QCCSDK-QCC74x/drivers/lhal/include/arch/risc-v/t-head/Core/Include/csi_rv32_gcc.h" 1
	.word 0x0ff0000f

# 0 "" 2
 #NO_APP
.LBE276:
.LBE275:
	.loc 2 1149 5
.LBB277:
.LBB278:
	.loc 3 1256 5
 #APP
# 1256 "/home/sai/QCCSDK-QCC74x/drivers/lhal/include/arch/risc-v/t-head/Core/Include/csi_rv32_gcc.h" 1
	.word 0x0000100f

# 0 "" 2
.LVL13:
 #NO_APP
.LBE278:
.LBE277:
.LBE262:
.LBE261:
	.loc 1 49 1 is_stmt 0
	ret
	.cfi_endproc
.LFE246:
	.size	qcc74x_l1c_dcache_disable, .-qcc74x_l1c_dcache_disable
	.section	.tcm_code../drivers/lhal/src/qcc74x_l1c.c51,"ax",@progbits
	.align	1
	.globl	qcc74x_l1c_dcache_clean_all
	.type	qcc74x_l1c_dcache_clean_all, @function
qcc74x_l1c_dcache_clean_all:
.LFB247:
	.loc 1 52 1 is_stmt 1
	.cfi_startproc
	.loc 1 56 5
	.loc 2 1175 5
.LBB287:
.LBB288:
.LBB289:
	.loc 3 1269 5
 #APP
# 1269 "/home/sai/QCCSDK-QCC74x/drivers/lhal/include/arch/risc-v/t-head/Core/Include/csi_rv32_gcc.h" 1
	.word 0x0ff0000f

# 0 "" 2
 #NO_APP
.LBE289:
.LBE288:
.LBE287:
	.loc 2 1176 5
.LBB294:
.LBB290:
.LBB291:
	.loc 3 1317 5
 #APP
# 1317 "/home/sai/QCCSDK-QCC74x/drivers/lhal/include/arch/risc-v/t-head/Core/Include/csi_rv32_gcc.h" 1
	.word 0x0010000b

# 0 "" 2
 #NO_APP
.LBE291:
.LBE290:
.LBE294:
	.loc 2 1177 5
.LBB295:
.LBB292:
.LBB293:
	.loc 3 1269 5
 #APP
# 1269 "/home/sai/QCCSDK-QCC74x/drivers/lhal/include/arch/risc-v/t-head/Core/Include/csi_rv32_gcc.h" 1
	.word 0x0ff0000f

# 0 "" 2
 #NO_APP
.LBE293:
.LBE292:
.LBE295:
	.loc 1 58 1 is_stmt 0
	ret
	.cfi_endproc
.LFE247:
	.size	qcc74x_l1c_dcache_clean_all, .-qcc74x_l1c_dcache_clean_all
	.section	.tcm_code../drivers/lhal/src/qcc74x_l1c.c60,"ax",@progbits
	.align	1
	.globl	qcc74x_l1c_dcache_invalidate_all
	.type	qcc74x_l1c_dcache_invalidate_all, @function
qcc74x_l1c_dcache_invalidate_all:
.LFB248:
	.loc 1 61 1 is_stmt 1
	.cfi_startproc
	.loc 1 65 5
	.loc 2 1161 5
.LBB304:
.LBB305:
.LBB306:
	.loc 3 1269 5
 #APP
# 1269 "/home/sai/QCCSDK-QCC74x/drivers/lhal/include/arch/risc-v/t-head/Core/Include/csi_rv32_gcc.h" 1
	.word 0x0ff0000f

# 0 "" 2
 #NO_APP
.LBE306:
.LBE305:
.LBE304:
	.loc 2 1162 5
.LBB311:
.LBB307:
.LBB308:
	.loc 3 1305 5
 #APP
# 1305 "/home/sai/QCCSDK-QCC74x/drivers/lhal/include/arch/risc-v/t-head/Core/Include/csi_rv32_gcc.h" 1
	.word 0x0020000b

# 0 "" 2
 #NO_APP
.LBE308:
.LBE307:
.LBE311:
	.loc 2 1163 5
.LBB312:
.LBB309:
.LBB310:
	.loc 3 1269 5
 #APP
# 1269 "/home/sai/QCCSDK-QCC74x/drivers/lhal/include/arch/risc-v/t-head/Core/Include/csi_rv32_gcc.h" 1
	.word 0x0ff0000f

# 0 "" 2
 #NO_APP
.LBE310:
.LBE309:
.LBE312:
	.loc 1 67 1 is_stmt 0
	ret
	.cfi_endproc
.LFE248:
	.size	qcc74x_l1c_dcache_invalidate_all, .-qcc74x_l1c_dcache_invalidate_all
	.section	.tcm_code../drivers/lhal/src/qcc74x_l1c.c69,"ax",@progbits
	.align	1
	.globl	qcc74x_l1c_dcache_clean_invalidate_all
	.type	qcc74x_l1c_dcache_clean_invalidate_all, @function
qcc74x_l1c_dcache_clean_invalidate_all:
.LFB249:
	.loc 1 70 1 is_stmt 1
	.cfi_startproc
	.loc 1 74 5
	.loc 2 1189 5
.LBB321:
.LBB322:
.LBB323:
	.loc 3 1269 5
 #APP
# 1269 "/home/sai/QCCSDK-QCC74x/drivers/lhal/include/arch/risc-v/t-head/Core/Include/csi_rv32_gcc.h" 1
	.word 0x0ff0000f

# 0 "" 2
 #NO_APP
.LBE323:
.LBE322:
.LBE321:
	.loc 2 1190 5
.LBB328:
.LBB324:
.LBB325:
	.loc 3 1329 5
 #APP
# 1329 "/home/sai/QCCSDK-QCC74x/drivers/lhal/include/arch/risc-v/t-head/Core/Include/csi_rv32_gcc.h" 1
	.word 0x0030000b

# 0 "" 2
 #NO_APP
.LBE325:
.LBE324:
.LBE328:
	.loc 2 1191 5
.LBB329:
.LBB326:
.LBB327:
	.loc 3 1269 5
 #APP
# 1269 "/home/sai/QCCSDK-QCC74x/drivers/lhal/include/arch/risc-v/t-head/Core/Include/csi_rv32_gcc.h" 1
	.word 0x0ff0000f

# 0 "" 2
 #NO_APP
.LBE327:
.LBE326:
.LBE329:
	.loc 1 76 1 is_stmt 0
	ret
	.cfi_endproc
.LFE249:
	.size	qcc74x_l1c_dcache_clean_invalidate_all, .-qcc74x_l1c_dcache_clean_invalidate_all
	.section	.tcm_code../drivers/lhal/src/qcc74x_l1c.c78,"ax",@progbits
	.align	1
	.globl	qcc74x_l1c_dcache_clean_range
	.type	qcc74x_l1c_dcache_clean_range, @function
qcc74x_l1c_dcache_clean_range:
.LFB250:
	.loc 1 79 1 is_stmt 1
	.cfi_startproc
.LVL14:
	.loc 1 83 5
	.loc 1 79 1 is_stmt 0
	addi	sp,sp,-32
	.cfi_def_cfa_offset 32
	sw	s0,24(sp)
	sw	a1,12(sp)
	sw	ra,28(sp)
	.cfi_offset 8, -8
	.cfi_offset 1, -4
	.loc 1 79 1
	mv	s0,a0
	.loc 1 83 9
	call	qcc74x_check_cache_addr
.LVL15:
	.loc 1 83 8
	lw	a1,12(sp)
	beq	a0,zero,.L9
	.loc 1 84 9 is_stmt 1
.LVL16:
.LBB339:
.LBB340:
	.loc 2 1229 5
	.loc 2 1229 46 is_stmt 0
	andi	a5,s0,31
	.loc 2 1229 29
	add	a1,a5,a1
.LVL17:
	.loc 2 1230 5 is_stmt 1
	.loc 2 1230 14 is_stmt 0
	andi	s0,s0,-32
.LVL18:
	.loc 2 1231 5 is_stmt 1
	.loc 2 1233 5
.LBB341:
.LBB342:
	.loc 3 1269 5
 #APP
# 1269 "/home/sai/QCCSDK-QCC74x/drivers/lhal/include/arch/risc-v/t-head/Core/Include/csi_rv32_gcc.h" 1
	.word 0x0ff0000f

# 0 "" 2
 #NO_APP
	add	s0,a1,s0
.LVL19:
.L11:
	sub	a5,s0,a1
.LVL20:
.LBE342:
.LBE341:
	.loc 2 1235 11
	bgt	a1,zero,.L12
	.loc 2 1241 5
.LBB343:
.LBB344:
	.loc 3 1269 5
 #APP
# 1269 "/home/sai/QCCSDK-QCC74x/drivers/lhal/include/arch/risc-v/t-head/Core/Include/csi_rv32_gcc.h" 1
	.word 0x0ff0000f

# 0 "" 2
.LVL21:
 #NO_APP
.L9:
.LBE344:
.LBE343:
.LBE340:
.LBE339:
	.loc 1 87 1 is_stmt 0
	lw	ra,28(sp)
	.cfi_remember_state
	.cfi_restore 1
	lw	s0,24(sp)
	.cfi_restore 8
	addi	sp,sp,32
	.cfi_def_cfa_offset 0
.LVL22:
	jr	ra
.LVL23:
.L12:
	.cfi_restore_state
.LBB350:
.LBB348:
	.loc 2 1236 9 is_stmt 1
.LBE348:
.LBE350:
	.loc 3 1377 5
.LBB351:
.LBB349:
.LBB345:
.LBB346:
.LBB347:
	.loc 3 1359 5
 #APP
# 1359 "/home/sai/QCCSDK-QCC74x/drivers/lhal/include/arch/risc-v/t-head/Core/Include/csi_rv32_gcc.h" 1
	mv a0, a5
	.word 0x0295000b
	
# 0 "" 2
.LVL24:
 #NO_APP
.LBE347:
.LBE346:
.LBE345:
	.loc 2 1237 9
	.loc 2 1238 9
	.loc 2 1238 17 is_stmt 0
	addi	a1,a1,-32
.LVL25:
	j	.L11
.LBE349:
.LBE351:
	.cfi_endproc
.LFE250:
	.size	qcc74x_l1c_dcache_clean_range, .-qcc74x_l1c_dcache_clean_range
	.section	.tcm_code../drivers/lhal/src/qcc74x_l1c.c89,"ax",@progbits
	.align	1
	.globl	qcc74x_l1c_dcache_invalidate_range
	.type	qcc74x_l1c_dcache_invalidate_range, @function
qcc74x_l1c_dcache_invalidate_range:
.LFB251:
	.loc 1 90 1 is_stmt 1
	.cfi_startproc
.LVL26:
	.loc 1 94 5
	.loc 1 90 1 is_stmt 0
	addi	sp,sp,-32
	.cfi_def_cfa_offset 32
	sw	s0,24(sp)
	sw	a1,12(sp)
	sw	ra,28(sp)
	.cfi_offset 8, -8
	.cfi_offset 1, -4
	.loc 1 90 1
	mv	s0,a0
	.loc 1 94 9
	call	qcc74x_check_cache_addr
.LVL27:
	.loc 1 94 8
	lw	a1,12(sp)
	beq	a0,zero,.L17
	.loc 1 95 9 is_stmt 1
.LVL28:
.LBB361:
.LBB362:
	.loc 2 1204 5
	.loc 2 1204 46 is_stmt 0
	andi	a5,s0,31
	.loc 2 1204 29
	add	a1,a5,a1
.LVL29:
	.loc 2 1205 5 is_stmt 1
	.loc 2 1205 14 is_stmt 0
	andi	s0,s0,-32
.LVL30:
	.loc 2 1206 5 is_stmt 1
	.loc 2 1208 5
.LBB363:
.LBB364:
	.loc 3 1269 5
 #APP
# 1269 "/home/sai/QCCSDK-QCC74x/drivers/lhal/include/arch/risc-v/t-head/Core/Include/csi_rv32_gcc.h" 1
	.word 0x0ff0000f

# 0 "" 2
 #NO_APP
	add	s0,a1,s0
.LVL31:
.L19:
	sub	a5,s0,a1
.LVL32:
.LBE364:
.LBE363:
	.loc 2 1210 11
	bgt	a1,zero,.L20
	.loc 2 1216 5
.LBB365:
.LBB366:
	.loc 3 1269 5
 #APP
# 1269 "/home/sai/QCCSDK-QCC74x/drivers/lhal/include/arch/risc-v/t-head/Core/Include/csi_rv32_gcc.h" 1
	.word 0x0ff0000f

# 0 "" 2
.LVL33:
 #NO_APP
.L17:
.LBE366:
.LBE365:
.LBE362:
.LBE361:
	.loc 1 98 1 is_stmt 0
	lw	ra,28(sp)
	.cfi_remember_state
	.cfi_restore 1
	lw	s0,24(sp)
	.cfi_restore 8
	addi	sp,sp,32
	.cfi_def_cfa_offset 0
.LVL34:
	jr	ra
.LVL35:
.L20:
	.cfi_restore_state
.LBB372:
.LBB370:
	.loc 2 1211 9 is_stmt 1
.LBE370:
.LBE372:
	.loc 3 1354 5
.LBB373:
.LBB371:
.LBB367:
.LBB368:
.LBB369:
	.loc 3 1336 5
 #APP
# 1336 "/home/sai/QCCSDK-QCC74x/drivers/lhal/include/arch/risc-v/t-head/Core/Include/csi_rv32_gcc.h" 1
	mv a0, a5
	.word 0x02a5000b
	
# 0 "" 2
.LVL36:
 #NO_APP
.LBE369:
.LBE368:
.LBE367:
	.loc 2 1212 9
	.loc 2 1213 9
	.loc 2 1213 17 is_stmt 0
	addi	a1,a1,-32
.LVL37:
	j	.L19
.LBE371:
.LBE373:
	.cfi_endproc
.LFE251:
	.size	qcc74x_l1c_dcache_invalidate_range, .-qcc74x_l1c_dcache_invalidate_range
	.section	.tcm_code../drivers/lhal/src/qcc74x_l1c.c100,"ax",@progbits
	.align	1
	.globl	qcc74x_l1c_dcache_clean_invalidate_range
	.type	qcc74x_l1c_dcache_clean_invalidate_range, @function
qcc74x_l1c_dcache_clean_invalidate_range:
.LFB252:
	.loc 1 101 1 is_stmt 1
	.cfi_startproc
.LVL38:
	.loc 1 105 5
	.loc 1 101 1 is_stmt 0
	addi	sp,sp,-32
	.cfi_def_cfa_offset 32
	sw	s0,24(sp)
	sw	a1,12(sp)
	sw	ra,28(sp)
	.cfi_offset 8, -8
	.cfi_offset 1, -4
	.loc 1 101 1
	mv	s0,a0
	.loc 1 105 9
	call	qcc74x_check_cache_addr
.LVL39:
	.loc 1 105 8
	lw	a1,12(sp)
	beq	a0,zero,.L25
	.loc 1 106 9 is_stmt 1
.LVL40:
.LBB383:
.LBB384:
	.loc 2 1254 5
	.loc 2 1254 46 is_stmt 0
	andi	a5,s0,31
	.loc 2 1254 29
	add	a1,a5,a1
.LVL41:
	.loc 2 1255 5 is_stmt 1
	.loc 2 1255 14 is_stmt 0
	andi	s0,s0,-32
.LVL42:
	.loc 2 1256 5 is_stmt 1
	.loc 2 1258 5
.LBB385:
.LBB386:
	.loc 3 1269 5
 #APP
# 1269 "/home/sai/QCCSDK-QCC74x/drivers/lhal/include/arch/risc-v/t-head/Core/Include/csi_rv32_gcc.h" 1
	.word 0x0ff0000f

# 0 "" 2
 #NO_APP
	add	s0,a1,s0
.LVL43:
.L27:
	sub	a5,s0,a1
.LVL44:
.LBE386:
.LBE385:
	.loc 2 1260 11
	bgt	a1,zero,.L28
	.loc 2 1266 5
.LBB387:
.LBB388:
	.loc 3 1269 5
 #APP
# 1269 "/home/sai/QCCSDK-QCC74x/drivers/lhal/include/arch/risc-v/t-head/Core/Include/csi_rv32_gcc.h" 1
	.word 0x0ff0000f

# 0 "" 2
.LVL45:
 #NO_APP
.L25:
.LBE388:
.LBE387:
.LBE384:
.LBE383:
	.loc 1 109 1 is_stmt 0
	lw	ra,28(sp)
	.cfi_remember_state
	.cfi_restore 1
	lw	s0,24(sp)
	.cfi_restore 8
	addi	sp,sp,32
	.cfi_def_cfa_offset 0
.LVL46:
	jr	ra
.LVL47:
.L28:
	.cfi_restore_state
.LBB394:
.LBB392:
	.loc 2 1261 9 is_stmt 1
.LBE392:
.LBE394:
	.loc 3 1400 5
.LBB395:
.LBB393:
.LBB389:
.LBB390:
.LBB391:
	.loc 3 1382 5
 #APP
# 1382 "/home/sai/QCCSDK-QCC74x/drivers/lhal/include/arch/risc-v/t-head/Core/Include/csi_rv32_gcc.h" 1
	mv a0, a5
	.word 0x02b5000b
	
# 0 "" 2
.LVL48:
 #NO_APP
.LBE391:
.LBE390:
.LBE389:
	.loc 2 1262 9
	.loc 2 1263 9
	.loc 2 1263 17 is_stmt 0
	addi	a1,a1,-32
.LVL49:
	j	.L27
.LBE393:
.LBE395:
	.cfi_endproc
.LFE252:
	.size	qcc74x_l1c_dcache_clean_invalidate_range, .-qcc74x_l1c_dcache_clean_invalidate_range
	.text
.Letext0:
	.file 4 "./toolchain/linux_x86_64/riscv64-unknown-elf/include/machine/_default_types.h"
	.file 5 "./toolchain/linux_x86_64/riscv64-unknown-elf/include/sys/_stdint.h"
	.file 6 "./drivers/lhal/include/qcc74x_common.h"