	.file	"cJSON.c"
	.option nopic
	.attribute arch, "rv32i2p0_m2p0_a2p0_f2p0_c2p0_p0p9_zpn0p9_zpsfoperand0p9_xtheade2p0"
	.attribute unaligned_access, 0
	.attribute stack_align, 16
	.text
.Ltext0:
	.cfi_sections	.debug_frame
	.section	.text.parse_hex4,"ax",@progbits
	.align	1
	.type	parse_hex4, @function
parse_hex4:
.LFB21:
	.file 1 "./components/utils/cjson/cJSON.c"
	.loc 1 624 1
	.cfi_startproc
.LVL0:
	.loc 1 625 5
	.loc 1 626 5
	.loc 1 628 5
	.loc 1 628 17
	.loc 1 628 12 is_stmt 0
	li	a3,0
	.loc 1 625 18
	li	a5,0
	.loc 1 631 12
	li	a7,9
	.loc 1 635 17
	li	a1,5
	.loc 1 648 12
	li	t1,3
	.loc 1 628 5
	li	a6,4
.LVL1:
.L7:
	.loc 1 631 9 is_stmt 1
	.loc 1 631 19 is_stmt 0
	lrbu	a4,a0,a3,0
	.loc 1 631 31
	addi	a2,a4,-48
	.loc 1 631 12
	andi	a2,a2,0xff
	bgtu	a2,a7,.L2
	.loc 1 633 13 is_stmt 1
	addi	a5,a5,-48
.LVL2:
.L10:
	.loc 1 641 15 is_stmt 0
	add	a5,a4,a5
.LVL3:
	.loc 1 648 9 is_stmt 1
	.loc 1 648 12 is_stmt 0
	beq	a3,t1,.L6
	.loc 1 651 13 is_stmt 1
	.loc 1 651 15 is_stmt 0
	slli	a5,a5,4
.LVL4:
.L6:
	.loc 1 628 24 is_stmt 1 discriminator 2
	.loc 1 628 25 is_stmt 0 discriminator 2
	addi	a3,a3,1
.LVL5:
	.loc 1 628 17 is_stmt 1 discriminator 2
	.loc 1 628 5 is_stmt 0 discriminator 2
	bne	a3,a6,.L7
.LVL6:
.L1:
	.loc 1 656 1
	mv	a0,a5
.LVL7:
	ret
.LVL8:
.L2:
	.loc 1 635 14 is_stmt 1
	.loc 1 635 36 is_stmt 0
	addi	a2,a4,-65
	.loc 1 635 17
	andi	a2,a2,0xff
	bgtu	a2,a1,.L4
	.loc 1 637 13 is_stmt 1
	addi	a5,a5,-55
.LVL9:
	j	.L10
.LVL10:
.L4:
	.loc 1 639 14
	.loc 1 639 36 is_stmt 0
	addi	a2,a4,-97
	.loc 1 639 17
	andi	a2,a2,0xff
	bgtu	a2,a1,.L8
	.loc 1 641 13 is_stmt 1
	addi	a5,a5,-87
.LVL11:
	j	.L10
.LVL12:
.L8:
	.loc 1 645 20 is_stmt 0
	li	a5,0
.LVL13:
	j	.L1
	.cfi_endproc
.LFE21:
	.size	parse_hex4, .-parse_hex4
	.section	.text.parse_string,"ax",@progbits
	.align	1
	.type	parse_string, @function
parse_string:
.LFB23:
	.loc 1 782 1 is_stmt 1
	.cfi_startproc
.LVL14:
	.loc 1 783 5
	.loc 1 783 83 is_stmt 0
	lw	a3,8(a1)
	.loc 1 783 57
	lw	a5,0(a1)
	.loc 1 782 1
	addi	sp,sp,-80
	.cfi_def_cfa_offset 80
	sw	s2,64(sp)
	sw	s6,48(sp)
	sw	s10,32(sp)
	sw	ra,76(sp)
	sw	s0,72(sp)
	sw	s1,68(sp)
	sw	s3,60(sp)
	sw	s4,56(sp)
	sw	s5,52(sp)
	sw	s7,44(sp)
	sw	s8,40(sp)
	sw	s9,36(sp)
	sw	s11,28(sp)
	.cfi_offset 18, -16
	.cfi_offset 22, -32
	.cfi_offset 26, -48
	.cfi_offset 1, -4
	.cfi_offset 8, -8
	.cfi_offset 9, -12
	.cfi_offset 19, -20
	.cfi_offset 20, -24
	.cfi_offset 21, -28
	.cfi_offset 23, -36
	.cfi_offset 24, -40
	.cfi_offset 25, -44
	.cfi_offset 27, -52
	.loc 1 789 8
	lrbu	a2,a5,a3,0
	.loc 1 783 93
	addi	a4,a3,1
	.loc 1 782 1
	mv	s6,a0
	.loc 1 789 59
	add	a0,a5,a3
.LVL15:
	.loc 1 789 8
	li	a3,34
	.loc 1 782 1
	mv	s2,a1
	.loc 1 783 26
	add	s10,a5,a4
.LVL16:
	.loc 1 784 5 is_stmt 1
	.loc 1 785 5
	.loc 1 786 5
	.loc 1 789 5
	.loc 1 789 8 is_stmt 0
	bne	a2,a3,.L12
.LBB34:
	.loc 1 798 75
	lw	a7,4(a1)
.LBE34:
	.loc 1 783 26
	mv	s11,s10
.LBB35:
	.loc 1 797 16
	li	a3,0
	.loc 1 798 85
	li	t1,34
	.loc 1 801 16
	li	t3,92
.LVL17:
.L13:
	.loc 1 798 15 is_stmt 1
	.loc 1 798 36 is_stmt 0
	sub	a6,s11,a5
	.loc 1 798 15
	bgeu	a6,a7,.L12
	.loc 1 798 89 discriminator 1
	lbu	a6,0(s11)
	.loc 1 798 85 discriminator 1
	bne	a6,t1,.L15
	.loc 1 813 9 is_stmt 1
	.loc 1 819 9
.LVL18:
	.loc 1 820 9
	.loc 1 820 34 is_stmt 0
	lw	a5,16(s2)
	.loc 1 819 49
	sub	a0,s11,a0
.LVL19:
	.loc 1 820 34
	sub	a0,a0,a3
	addi	a0,a0,1
	jalr	a5
.LVL20:
	mv	s9,a0
.LVL21:
	.loc 1 821 9 is_stmt 1
	.loc 1 821 12 is_stmt 0
	beq	a0,zero,.L12
.LBE35:
.LBB36:
.LBB37:
.LBB38:
.LBB39:
	.loc 1 715 54
	li	a3,1048576
.LBE39:
	.loc 1 680 33
	li	s0,-57344
	.loc 1 686 32
	li	s1,-53248
.LBB40:
	.loc 1 715 54
	addi	a4,a3,-1024
.LBE40:
.LBE38:
.LBE37:
.LBE36:
.LBB50:
	mv	a5,a0
.LBE50:
	.loc 1 831 12
	li	s8,92
.LBB51:
	.loc 1 844 13
	li	s5,110
	li	s4,117
.LBB47:
.LBB44:
	.loc 1 670 8
	li	s3,5
	.loc 1 680 33
	addi	s0,s0,1024
	.loc 1 680 8
	li	s7,1023
	.loc 1 686 32
	addi	s1,s1,-2048
.LBB41:
	.loc 1 715 54
	sw	a4,4(sp)
	j	.L39
.LVL22:
.L15:
.LBE41:
.LBE44:
.LBE47:
.LBE51:
.LBB52:
	.loc 1 801 13 is_stmt 1
	.loc 1 801 16 is_stmt 0
	bne	a6,t3,.L14
	.loc 1 803 40
	addi	s11,s11,1
.LVL23:
	.loc 1 803 17 is_stmt 1
	.loc 1 803 44 is_stmt 0
	sub	a6,s11,a5
	.loc 1 803 20
	bleu	a7,a6,.L12
	.loc 1 808 17 is_stmt 1
	.loc 1 808 30 is_stmt 0
	addi	a3,a3,1
.LVL24:
	.loc 1 809 17 is_stmt 1
.L14:
	.loc 1 811 13
	.loc 1 811 22 is_stmt 0
	addi	s11,s11,1
.LVL25:
	j	.L13
.LVL26:
.L36:
.LBE52:
	.loc 1 831 9 is_stmt 1
	.loc 1 831 13 is_stmt 0
	lbu	a3,0(s10)
	.loc 1 831 12
	beq	a3,s8,.L17
	.loc 1 833 13 is_stmt 1
	.loc 1 833 47 is_stmt 0
	addi	s10,s10,1
.LVL27:
	.loc 1 833 31
	sbia	a3,(a5),1,0
.LVL28:
.L39:
	.loc 1 829 11 is_stmt 1
	bltu	s10,s11,.L36
	.loc 1 885 5
	.loc 1 885 21 is_stmt 0
	sb	zero,0(a5)
	.loc 1 887 5 is_stmt 1
	.loc 1 887 16 is_stmt 0
	li	a5,16
.LVL29:
	sw	a5,12(s6)
	.loc 1 888 5 is_stmt 1
	.loc 1 890 48 is_stmt 0
	lw	a5,0(s2)
	.loc 1 888 23
	sw	s9,16(s6)
	.loc 1 890 5 is_stmt 1
	.loc 1 891 5
	.loc 1 893 12 is_stmt 0
	li	a0,1
	.loc 1 890 48
	sub	a2,s11,a5
	.loc 1 891 25
	addi	a2,a2,1
	sw	a2,8(s2)
	.loc 1 893 5 is_stmt 1
.LVL30:
.L11:
	.loc 1 908 1 is_stmt 0
	lw	ra,76(sp)
	.cfi_remember_state
	.cfi_restore 1
	lw	s0,72(sp)
	.cfi_restore 8
	lw	s1,68(sp)
	.cfi_restore 9
	lw	s2,64(sp)
	.cfi_restore 18
.LVL31:
	lw	s3,60(sp)
	.cfi_restore 19
	lw	s4,56(sp)
	.cfi_restore 20
	lw	s5,52(sp)
	.cfi_restore 21
	lw	s6,48(sp)
	.cfi_restore 22
.LVL32:
	lw	s7,44(sp)
	.cfi_restore 23
	lw	s8,40(sp)
	.cfi_restore 24
	lw	s9,36(sp)
	.cfi_restore 25
	lw	s10,32(sp)
	.cfi_restore 26
	lw	s11,28(sp)
	.cfi_restore 27
	addi	sp,sp,80
	.cfi_def_cfa_offset 0
	jr	ra
.LVL33:
.L17:
	.cfi_restore_state
.LBB53:
	.loc 1 838 13 is_stmt 1
	.loc 1 839 13
	.loc 1 839 28 is_stmt 0
	sub	a0,s11,s10
	.loc 1 839 16
	ble	a0,zero,.L19
	.loc 1 844 13 is_stmt 1
	.loc 1 844 34 is_stmt 0
	lbu	a3,1(s10)
	.loc 1 844 13
	beq	a3,s5,.L20
	bgtu	a3,s5,.L21
	li	a0,98
	beq	a3,a0,.L22
	bgtu	a3,a0,.L23
	li	a0,47
	beq	a3,a0,.L49
	beq	a3,s8,.L49
	li	a0,34
	beq	a3,a0,.L49
.LVL34:
.L19:
.LBE53:
	.loc 1 898 9 is_stmt 1
	lw	a5,20(s2)
	mv	a0,s9
	jalr	a5
.LVL35:
	.loc 1 899 9
	.loc 1 902 5
.L38:
	.loc 1 904 9
	.loc 1 904 55 is_stmt 0
	lw	a5,0(s2)
	.loc 1 907 12
	li	a0,0
	.loc 1 904 55
	sub	a4,s10,a5
	.loc 1 904 30
	sw	a4,8(s2)
	j	.L11
.LVL36:
.L23:
.LBB54:
	.loc 1 844 13
	li	a0,102
	bne	a3,a0,.L19
	.loc 1 850 21 is_stmt 1
.LVL37:
	.loc 1 850 39 is_stmt 0
	li	a3,12
	j	.L49
.LVL38:
.L21:
	.loc 1 844 13
	li	a4,116
	beq	a3,a4,.L26
	beq	a3,s4,.L27
	li	a0,114
	bne	a3,a0,.L19
	.loc 1 856 21 is_stmt 1
.LVL39:
	.loc 1 856 39 is_stmt 0
	li	a3,13
	j	.L49
.LVL40:
.L22:
	.loc 1 847 21 is_stmt 1
	.loc 1 847 39 is_stmt 0
	li	a3,8
.LVL41:
.L49:
	.loc 1 850 39
	sbia	a3,(a5),1,0
.L50:
	.loc 1 851 21 is_stmt 1
	.loc 1 838 27 is_stmt 0
	li	a0,2
.LVL42:
.L29:
	.loc 1 880 13 is_stmt 1
	.loc 1 880 27 is_stmt 0
	add	s10,s10,a0
.LVL43:
	j	.L39
.LVL44:
.L20:
	.loc 1 853 21 is_stmt 1
	.loc 1 853 39 is_stmt 0
	li	a4,10
.LVL45:
.L51:
	.loc 1 859 39
	sbia	a4,(a5),1,0
	.loc 1 860 21 is_stmt 1
	j	.L50
.LVL46:
.L26:
	.loc 1 859 21
	.loc 1 859 39 is_stmt 0
	li	a4,9
	j	.L51
.LVL47:
.L27:
	sw	a5,8(sp)
	.loc 1 869 21 is_stmt 1
.LVL48:
.LBB48:
.LBB45:
	.loc 1 662 5
	.loc 1 663 5
	.loc 1 664 5
	.loc 1 665 5
	.loc 1 666 5
	.loc 1 667 5
	.loc 1 668 5
	.loc 1 670 5
	.loc 1 670 8 is_stmt 0
	ble	a0,s3,.L19
	.loc 1 677 5 is_stmt 1
	.loc 1 677 18 is_stmt 0
	addi	a0,s10,2
	call	parse_hex4
.LVL49:
	mv	a3,a0
.LVL50:
	.loc 1 680 5 is_stmt 1
	.loc 1 680 33 is_stmt 0
	add	a0,a0,s0
.LVL51:
	.loc 1 680 8
	bleu	a0,s7,.L19
	.loc 1 686 5 is_stmt 1
	.loc 1 686 32 is_stmt 0
	add	a0,a3,s1
	.loc 1 686 8
	lw	a5,8(sp)
	bgtu	a0,s7,.L30
.LVL52:
.LBB42:
	.loc 1 688 30
	addi	a0,s10,6
	sw	a5,12(sp)
	sw	a3,8(sp)
	.loc 1 688 9 is_stmt 1
.LVL53:
	.loc 1 689 9
	.loc 1 690 9
	.loc 1 692 9
	.loc 1 692 24 is_stmt 0
	sub	a0,s11,a0
.LVL54:
	.loc 1 692 12
	ble	a0,s3,.L19
	.loc 1 698 9 is_stmt 1
	.loc 1 698 12 is_stmt 0
	lbu	a0,6(s10)
	bne	a0,s8,.L19
	.loc 1 698 42
	lbu	a0,7(s10)
	bne	a0,s4,.L19
	.loc 1 705 9 is_stmt 1
	.loc 1 705 23 is_stmt 0
	addi	a0,s10,8
	call	parse_hex4
.LVL55:
	.loc 1 707 9 is_stmt 1
	.loc 1 707 36 is_stmt 0
	add	a6,a0,s0
	.loc 1 707 12
	bgtu	a6,s7,.L19
	.loc 1 715 9 is_stmt 1
	.loc 1 715 54 is_stmt 0
	lw	a3,8(sp)
	lw	a5,4(sp)
	.loc 1 715 76
	andi	a0,a0,1023
.LVL56:
	.loc 1 715 54
	slli	a3,a3,10
	and	a3,a3,a5
	.loc 1 715 61
	or	a3,a3,a0
	.loc 1 715 19
	li	a5,65536
	add	a3,a3,a5
.LVL57:
.LBE42:
	.loc 1 726 5 is_stmt 1
	.loc 1 731 10
	lw	a5,12(sp)
.LBB43:
	.loc 1 690 25 is_stmt 0
	li	a0,12
.LBE43:
	.loc 1 747 25
	li	t6,240
	.loc 1 746 21
	li	a6,4
.LVL58:
.L31:
	.loc 1 756 5 is_stmt 1
	.loc 1 756 24 is_stmt 0
	addi	a7,a6,-1
	andi	a7,a7,0xff
	add	a7,a5,a7
.LVL59:
.L32:
	.loc 1 756 60 is_stmt 1
	.loc 1 759 79 is_stmt 0
	andi	t5,a3,0xff
	.loc 1 756 5
	bne	a5,a7,.L33
	.loc 1 763 5 is_stmt 1
	.loc 1 763 8 is_stmt 0
	li	a4,1
	.loc 1 769 32
	andi	a3,t5,127
.LVL60:
	.loc 1 763 8
	beq	a6,a4,.L35
	.loc 1 765 9 is_stmt 1
	.loc 1 765 32 is_stmt 0
	or	a3,t5,t6
.L35:
	sb	a3,0(a5)
	.loc 1 772 5 is_stmt 1
	.loc 1 772 21 is_stmt 0
	add	a5,a5,a6
.LVL61:
	.loc 1 774 5 is_stmt 1
.LBE45:
.LBE48:
	.loc 1 870 21
	j	.L29
.LVL62:
.L30:
.LBB49:
.LBB46:
	.loc 1 726 5
	.loc 1 726 8 is_stmt 0
	li	a4,127
	bleu	a3,a4,.L40
	.loc 1 731 10 is_stmt 1
	.loc 1 731 13 is_stmt 0
	li	a4,2047
	bleu	a3,a4,.L41
	.loc 1 737 10 is_stmt 1
	.loc 1 737 13 is_stmt 0
	li	a4,65536
	bltu	a3,a4,.L42
	.loc 1 743 10 is_stmt 1
	.loc 1 743 13 is_stmt 0
	li	a0,1114112
	bgeu	a3,a0,.L19
	.loc 1 719 25
	li	a0,6
	.loc 1 747 25
	li	t6,240
	.loc 1 746 21
	li	a6,4
	j	.L31
.L40:
	.loc 1 719 25
	li	a0,6
	.loc 1 668 19
	li	t6,0
	.loc 1 729 21
	li	a6,1
	j	.L31
.L41:
	.loc 1 719 25
	li	a0,6
	.loc 1 735 25
	li	t6,192
	.loc 1 734 21
	li	a6,2
	j	.L31
.L42:
	.loc 1 719 25
	li	a0,6
	.loc 1 741 25
	li	t6,224
	.loc 1 740 21
	li	a6,3
	j	.L31
.LVL63:
.L33:
	.loc 1 759 9 is_stmt 1
	.loc 1 759 79 is_stmt 0
	andi	t5,t5,63
	.loc 1 759 44
	ori	t5,t5,-128
	.loc 1 759 42
	sbia	t5,(a7),-1,0
.LVL64:
	.loc 1 760 9 is_stmt 1
	.loc 1 760 19 is_stmt 0
	srli	a3,a3,6
.LVL65:
	.loc 1 756 79 is_stmt 1
	j	.L32
.LVL66:
.L12:
.LBE46:
.LBE49:
.LBE54:
	.loc 1 902 5
	.loc 1 907 12 is_stmt 0
	li	a0,0
	.loc 1 902 8
	bne	s10,zero,.L38
	j	.L11
	.cfi_endproc
.LFE23:
	.size	parse_string, .-parse_string
	.section	.text.buffer_skip_whitespace,"ax",@progbits
	.align	1
	.type	buffer_skip_whitespace, @function
buffer_skip_whitespace:
.LFB26:
	.loc 1 1048 1 is_stmt 1
	.cfi_startproc
.LVL67:
	.loc 1 1049 5
	.loc 1 1049 8 is_stmt 0
	beq	a0,zero,.L53
	.loc 1 1049 35 discriminator 1
	lw	a3,0(a0)
	.loc 1 1049 25 discriminator 1
	beq	a3,zero,.L58
	.loc 1 1054 5 is_stmt 1 discriminator 1
	.loc 1 1054 47 is_stmt 0 discriminator 1
	lw	a5,4(a0)
	.loc 1 1054 10 discriminator 1
	lw	a4,8(a0)
	.loc 1 1059 61 discriminator 1
	li	a2,32
	.loc 1 1054 10 discriminator 1
	bltu	a4,a5,.L54
	ret
.L56:
	.loc 1 1061 8 is_stmt 1
	.loc 1 1061 22 is_stmt 0
	addi	a4,a4,1
	sw	a4,8(a0)
.L54:
	.loc 1 1059 11 is_stmt 1
	.loc 1 1059 35 is_stmt 0
	lw	a4,8(a0)
	.loc 1 1059 13
	bleu	a5,a4,.L55
	.loc 1 1059 61 discriminator 2
	lrbu	a1,a3,a4,0
	bleu	a1,a2,.L56
	ret
.L55:
	.loc 1 1064 5 is_stmt 1
	.loc 1 1064 8 is_stmt 0
	bne	a5,a4,.L53
	.loc 1 1066 9 is_stmt 1
	.loc 1 1066 23 is_stmt 0
	addi	a5,a5,-1
	sw	a5,8(a0)
	ret
.L58:
	.loc 1 1051 15
	li	a0,0
.LVL68:
.L53:
	.loc 1 1070 1
	ret
	.cfi_endproc
.LFE26:
	.size	buffer_skip_whitespace, .-buffer_skip_whitespace
	.section	.text.get_array_item,"ax",@progbits
	.align	1
	.type	get_array_item, @function
get_array_item:
.LFB44:
	.loc 1 1870 1 is_stmt 1
	.cfi_startproc
.LVL69:
	.loc 1 1871 5
	.loc 1 1873 5
	.loc 1 1873 8 is_stmt 0
	beq	a0,zero,.L64
	.loc 1 1878 5 is_stmt 1
	.loc 1 1878 19 is_stmt 0
	lw	a0,8(a0)
.LVL70:
	.loc 1 1879 5 is_stmt 1
.L65:
	.loc 1 1879 11
	beq	a0,zero,.L64
	.loc 1 1879 35 is_stmt 0 discriminator 1
	bne	a1,zero,.L66
.LVL71:
.L64:
	.loc 1 1886 1
	ret
.LVL72:
.L66:
	.loc 1 1881 9 is_stmt 1
	.loc 1 1882 23 is_stmt 0
	lw	a0,0(a0)
.LVL73:
	.loc 1 1881 14
	addi	a1,a1,-1
.LVL74:
	.loc 1 1882 9 is_stmt 1
	j	.L65
	.cfi_endproc
.LFE44:
	.size	get_array_item, .-get_array_item
	.section	.text.update_offset,"ax",@progbits
	.align	1
	.type	update_offset, @function
update_offset:
.LFB18:
	.loc 1 534 1
	.cfi_startproc
.LVL75:
	.loc 1 535 5
	.loc 1 536 5
	.loc 1 536 8 is_stmt 0
	beq	a0,zero,.L82
	.loc 1 536 35 discriminator 1
	lw	a5,0(a0)
	.loc 1 536 25 discriminator 1
	beq	a5,zero,.L82
	.loc 1 534 1
	addi	sp,sp,-16
	.cfi_def_cfa_offset 16
	sw	s0,8(sp)
	.cfi_offset 8, -8
	mv	s0,a0
	.loc 1 540 5 is_stmt 1
.LVL76:
	.loc 1 542 5
	.loc 1 540 20 is_stmt 0
	lw	a0,8(a0)
.LVL77:
	.loc 1 534 1
	sw	ra,12(sp)
	.cfi_offset 1, -4
	.loc 1 542 23
	add	a0,a5,a0
.LVL78:
	call	strlen
.LVL79:
	.loc 1 542 20
	lw	a5,8(s0)
	.loc 1 543 1
	lw	ra,12(sp)
	.cfi_restore 1
	.loc 1 542 20
	add	a5,a5,a0
	sw	a5,8(s0)
	.loc 1 543 1
	lw	s0,8(sp)
	.cfi_restore 8
.LVL80:
	addi	sp,sp,16
	.cfi_def_cfa_offset 0
	jr	ra
.LVL81:
.L82:
	ret
	.cfi_endproc
.LFE18:
	.size	update_offset, .-update_offset
	.section	.text.ensure,"ax",@progbits
	.align	1
	.type	ensure, @function
ensure:
.LFB17:
	.loc 1 448 1 is_stmt 1
	.cfi_startproc
.LVL82:
	.loc 1 449 5
	.loc 1 450 5
	.loc 1 452 5
	.loc 1 448 1 is_stmt 0
	addi	sp,sp,-16
	.cfi_def_cfa_offset 16
	sw	ra,12(sp)
	sw	s0,8(sp)
	sw	s1,4(sp)
	sw	s2,0(sp)
	.cfi_offset 1, -4
	.cfi_offset 8, -8
	.cfi_offset 9, -12
	.cfi_offset 18, -16
	.loc 1 452 8
	beq	a0,zero,.L97
	.loc 1 452 25 discriminator 1
	lw	s1,0(a0)
	.loc 1 452 20 discriminator 1
	beq	s1,zero,.L85
	.loc 1 457 5 is_stmt 1
	.loc 1 457 11 is_stmt 0
	lw	a5,4(a0)
	.loc 1 457 8
	beq	a5,zero,.L87
	.loc 1 457 25 discriminator 1
	lw	a4,8(a0)
	bleu	a5,a4,.L97
.L87:
	.loc 1 463 5 is_stmt 1
	.loc 1 463 8 is_stmt 0
	blt	a1,zero,.L97
	.loc 1 469 5 is_stmt 1
	.loc 1 469 16 is_stmt 0
	lw	a4,8(a0)
	addi	s2,a1,1
	.loc 1 469 12
	add	s2,a4,s2
.LVL83:
	.loc 1 470 5 is_stmt 1
	.loc 1 470 8 is_stmt 0
	bltu	a5,s2,.L88
	.loc 1 472 9 is_stmt 1
	.loc 1 472 26 is_stmt 0
	add	s1,s1,a4
.LVL84:
.L85:
	.loc 1 530 1
	lw	ra,12(sp)
	.cfi_remember_state
	.cfi_restore 1
	lw	s0,8(sp)
	.cfi_restore 8
	lw	s2,0(sp)
	.cfi_restore 18
	mv	a0,s1
	lw	s1,4(sp)
	.cfi_restore 9
	addi	sp,sp,16
	.cfi_def_cfa_offset 0
	jr	ra
.LVL85:
.L88:
	.cfi_restore_state
	.loc 1 475 5 is_stmt 1
	.loc 1 475 8 is_stmt 0
	lw	a5,16(a0)
	bne	a5,zero,.L97
	.loc 1 480 5 is_stmt 1
	.loc 1 480 8 is_stmt 0
	li	a5,1073741824
	bltu	s2,a5,.L89
	.loc 1 483 9 is_stmt 1
	.loc 1 483 12 is_stmt 0
	bge	s2,zero,.L98
.LVL86:
.L97:
	.loc 1 454 15
	li	s1,0
	j	.L85
.LVL87:
.L89:
	.loc 1 494 9 is_stmt 1
	.loc 1 494 17 is_stmt 0
	slli	s2,s2,1
.LVL88:
.L90:
	.loc 1 497 17
	lw	a5,32(a0)
	mv	s0,a0
.LVL89:
	.loc 1 497 5 is_stmt 1
	.loc 1 497 8 is_stmt 0
	beq	a5,zero,.L91
.LVL90:
	.loc 1 500 9 is_stmt 1
	.loc 1 500 37 is_stmt 0
	mv	a0,s1
	mv	a1,s2
.LVL91:
	jalr	a5
.LVL92:
	mv	s1,a0
.LVL93:
	.loc 1 501 9 is_stmt 1
	.loc 1 501 12 is_stmt 0
	bne	a0,zero,.L92
	.loc 1 503 13 is_stmt 1
	lw	a5,28(s0)
	lw	a0,0(s0)
.L106:
	.loc 1 516 13 is_stmt 0
	jalr	a5
.LVL94:
	.loc 1 517 13 is_stmt 1
	.loc 1 517 23 is_stmt 0
	sw	zero,4(s0)
	.loc 1 518 13 is_stmt 1
	.loc 1 518 23 is_stmt 0
	sw	zero,0(s0)
	.loc 1 520 13 is_stmt 1
	.loc 1 520 19 is_stmt 0
	j	.L85
.LVL95:
.L98:
	.loc 1 485 21
	li	s2,-2147483648
.LVL96:
	xori	s2,s2,-1
	j	.L90
.LVL97:
.L91:
	.loc 1 513 9 is_stmt 1
	.loc 1 513 37 is_stmt 0
	lw	a5,24(a0)
	mv	a0,s2
	jalr	a5
.LVL98:
	lw	a1,0(s0)
	mv	s1,a0
.LVL99:
	.loc 1 514 9 is_stmt 1
	.loc 1 514 12 is_stmt 0
	bne	a0,zero,.L93
	.loc 1 516 13 is_stmt 1
	lw	a5,28(s0)
	mv	a0,a1
	j	.L106
.L93:
	.loc 1 523 9
	lw	a2,8(s0)
	addi	a2,a2,1
	call	memcpy
.LVL100:
	.loc 1 524 9
	lw	a5,28(s0)
	lw	a0,0(s0)
	jalr	a5
.LVL101:
.L92:
	.loc 1 526 5
	.loc 1 529 22 is_stmt 0
	lw	a5,8(s0)
	.loc 1 527 15
	sw	s1,0(s0)
	.loc 1 526 15
	sw	s2,4(s0)
	.loc 1 527 5 is_stmt 1
	.loc 1 529 5
	.loc 1 529 22 is_stmt 0
	add	s1,s1,a5
.LVL102:
	j	.L85
	.cfi_endproc
.LFE17:
	.size	ensure, .-ensure
	.globl	__gtdf2
	.globl	__subdf3
	.globl	__muldf3
	.globl	__ledf2
	.section	.text.compare_double,"ax",@progbits
	.align	1
	.type	compare_double, @function
compare_double:
.LFB19:
	.loc 1 547 1 is_stmt 1
	.cfi_startproc
.LVL103:
	.loc 1 548 5
	.loc 1 547 1 is_stmt 0
	addi	sp,sp,-32
	.cfi_def_cfa_offset 32
	sw	ra,28(sp)
	sw	s0,24(sp)
	sw	s1,20(sp)
	.cfi_offset 1, -4
	.cfi_offset 8, -8
	.cfi_offset 9, -12
	mv	s0,a2
	mv	s1,a3
	sw	s2,16(sp)
	sw	s3,12(sp)
	sw	s4,8(sp)
	sw	s5,4(sp)
	.cfi_offset 18, -16
	.cfi_offset 19, -20
	.cfi_offset 20, -24
	.cfi_offset 21, -28
	.loc 1 547 1
	mv	s4,a0
	mv	s5,a1
	.loc 1 548 21
	call	fabs
.LVL104:
	mv	s2,a0
	mv	s3,a1
	.loc 1 548 31
	mv	a0,s0
	mv	a1,s1
	call	fabs
.LVL105:
	mv	a2,a0
	mv	a3,a1
	.loc 1 548 49
	mv	a0,s2
	mv	a1,s3
	call	__gtdf2
.LVL106:
	ble	a0,zero,.L113
	.loc 1 548 41 discriminator 1
	mv	a0,s4
	mv	a1,s5
.L115:
	.loc 1 548 51 discriminator 2
	call	fabs
.LVL107:
	.loc 1 549 13 discriminator 2
	mv	a2,s0
	mv	a3,s1
	.loc 1 548 51 discriminator 2
	mv	s2,a0
	mv	s3,a1
.LVL108:
	.loc 1 549 5 is_stmt 1 discriminator 2
	.loc 1 549 13 is_stmt 0 discriminator 2
	mv	a0,s4
	mv	a1,s5
	call	__subdf3
.LVL109:
	call	fabs
.LVL110:
	.loc 1 549 35 discriminator 2
	lui	a5,%hi(.LC0)
	lw	a2,%lo(.LC0)(a5)
	lw	a3,%lo(.LC0+4)(a5)
	.loc 1 549 13 discriminator 2
	mv	s0,a0
	mv	s1,a1
	.loc 1 549 35 discriminator 2
	mv	a0,s2
	mv	a1,s3
	call	__muldf3
.LVL111:
	mv	a2,a0
	mv	a3,a1
	.loc 1 549 25 discriminator 2
	mv	a0,s0
	mv	a1,s1
	call	__ledf2
.LVL112:
	.loc 1 550 1 discriminator 2
	lw	ra,28(sp)
	.cfi_remember_state
	.cfi_restore 1
	lw	s0,24(sp)
	.cfi_restore 8
	lw	s1,20(sp)
	.cfi_restore 9
	lw	s2,16(sp)
	.cfi_restore 18
.LVL113:
	lw	s3,12(sp)
	.cfi_restore 19
	lw	s4,8(sp)
	.cfi_restore 20
	lw	s5,4(sp)
	.cfi_restore 21
	slti	a0,a0,1
	addi	sp,sp,32
	.cfi_def_cfa_offset 0
	jr	ra
.L113:
	.cfi_restore_state
	.loc 1 548 51 discriminator 2
	mv	a0,s0
	mv	a1,s1
	j	.L115
	.cfi_endproc
.LFE19:
	.size	compare_double, .-compare_double
	.section	.text.get_object_item,"ax",@progbits
	.align	1
	.type	get_object_item, @function
get_object_item:
.LFB46:
	.loc 1 1899 1 is_stmt 1
	.cfi_startproc
.LVL114:
	.loc 1 1900 5
	.loc 1 1902 5
	.loc 1 1899 1 is_stmt 0
	addi	sp,sp,-16
	.cfi_def_cfa_offset 16
	sw	ra,12(sp)
	sw	s0,8(sp)
	sw	s1,4(sp)
	.cfi_offset 1, -4
	.cfi_offset 8, -8
	.cfi_offset 9, -12
	.loc 1 1902 8
	beq	a0,zero,.L117
	.loc 1 1902 25 discriminator 1
	beq	a1,zero,.L117
	.loc 1 1907 21
	lw	s0,8(a0)
	mv	s1,a1
	.loc 1 1907 5 is_stmt 1
.LVL115:
	.loc 1 1908 5
	.loc 1 1908 8 is_stmt 0
	bne	a2,zero,.L118
.LBB59:
.LBB60:
.LBB61:
	.loc 1 145 43
	lui	a5,%hi(_ctype_+1)
	addi	a5,a5,%lo(_ctype_+1)
	.loc 1 145 95
	li	a6,1
.LVL116:
.L119:
.LBE61:
.LBE60:
.LBE59:
	.loc 1 1917 15 is_stmt 1
	beq	s0,zero,.L117
	.loc 1 1917 135 is_stmt 0 discriminator 1
	lw	a1,32(s0)
.LVL117:
.LBB66:
.LBB64:
	.loc 1 135 5 is_stmt 1 discriminator 1
	.loc 1 135 26 is_stmt 0 discriminator 1
	beq	a1,zero,.L122
	.loc 1 140 5 is_stmt 1
	.loc 1 140 8 is_stmt 0
	beq	a1,s1,.L120
	li	a2,0
.LVL118:
.L123:
	.loc 1 145 10 is_stmt 1
.LBB62:
	.loc 1 145 27
	.loc 1 145 12 is_stmt 0
	lrbu	a3,s1,a2,0
.LVL119:
	.loc 1 145 13 is_stmt 1
	.loc 1 145 95 is_stmt 0
	lrbu	a4,a3,a5,0
	.loc 1 145 73
	mv	a7,a3
	.loc 1 145 95
	andi	a4,a4,3
	bne	a4,a6,.L124
	addi	a7,a3,32
.L124:
.LBE62:
.LBB63:
	.loc 1 145 48 is_stmt 1
	.loc 1 145 33 is_stmt 0
	lrbu	a4,a1,a2,0
	.loc 1 145 34 is_stmt 1
	.loc 1 145 116 is_stmt 0
	lrbu	a0,a5,a4,0
	andi	a0,a0,3
	bne	a0,a6,.L125
	addi	a4,a4,32
.L125:
.LBE63:
	.loc 1 145 5
	beq	a7,a4,.L126
.LVL120:
.L122:
.LBE64:
.LBE66:
	.loc 1 1919 13 is_stmt 1
	.loc 1 1919 29 is_stmt 0
	lw	s0,0(s0)
.LVL121:
	j	.L119
.L121:
	.loc 1 1912 13 is_stmt 1
	.loc 1 1912 29 is_stmt 0
	lw	s0,0(s0)
.LVL122:
.L118:
	.loc 1 1910 15 is_stmt 1
	beq	s0,zero,.L117
	.loc 1 1910 60 is_stmt 0 discriminator 1
	lw	a1,32(s0)
	.loc 1 1910 41 discriminator 1
	beq	a1,zero,.L120
	.loc 1 1910 82 discriminator 2
	mv	a0,s1
	call	strcmp
.LVL123:
	.loc 1 1910 78 discriminator 2
	bne	a0,zero,.L121
.L120:
	.loc 1 1923 5 is_stmt 1
	.loc 1 1923 34 is_stmt 0
	lw	a5,32(s0)
	bne	a5,zero,.L116
.LVL124:
.L117:
	.loc 1 1904 15
	li	s0,0
.L116:
	.loc 1 1928 1
	lw	ra,12(sp)
	.cfi_remember_state
	.cfi_restore 1
	mv	a0,s0
	lw	s0,8(sp)
	.cfi_restore 8
	lw	s1,4(sp)
	.cfi_restore 9
	addi	sp,sp,16
	.cfi_def_cfa_offset 0
	jr	ra
.LVL125:
.L126:
	.cfi_restore_state
.LBB67:
.LBB65:
	.loc 1 147 9 is_stmt 1
	.loc 1 147 12 is_stmt 0
	addi	a2,a2,1
.LVL126:
	bne	a3,zero,.L123
	j	.L120
.LBE65:
.LBE67:
	.cfi_endproc
.LFE46:
	.size	get_object_item, .-get_object_item
	.section	.text.add_item_to_array,"ax",@progbits
	.align	1
	.type	add_item_to_array, @function
add_item_to_array:
.LFB52:
	.loc 1 1975 1 is_stmt 1
	.cfi_startproc
.LVL127:
	.loc 1 1976 5
	.loc 1 1978 5
	.loc 1 1980 16 is_stmt 0
	li	a5,0
	.loc 1 1978 8
	beq	a1,zero,.L154
	.loc 1 1978 23 discriminator 1
	beq	a0,zero,.L154
	.loc 1 1978 42 discriminator 2
	beq	a1,a0,.L154
.LVL128:
.LBB72:
.LBB73:
	.loc 1 1983 5 is_stmt 1
	.loc 1 1983 11 is_stmt 0
	lw	a4,8(a0)
.LVL129:
	.loc 1 1987 5 is_stmt 1
	.loc 1 1987 8 is_stmt 0
	bne	a4,zero,.L156
	.loc 1 1990 9 is_stmt 1
	.loc 1 1990 22 is_stmt 0
	sw	a1,8(a0)
	.loc 1 1991 9 is_stmt 1
	.loc 1 1991 20 is_stmt 0
	sw	a1,4(a1)
	.loc 1 1992 9 is_stmt 1
	.loc 1 1992 20 is_stmt 0
	sw	zero,0(a1)
	li	a5,1
.LVL130:
.L154:
.LBE73:
.LBE72:
	.loc 1 2005 1
	mv	a0,a5
.LVL131:
	ret
.LVL132:
.L156:
.LBB77:
.LBB76:
	.loc 1 1997 9 is_stmt 1
	.loc 1 1997 18 is_stmt 0
	lw	a3,4(a4)
	li	a5,1
	.loc 1 1997 12
	beq	a3,zero,.L154
	.loc 1 1999 13 is_stmt 1
.LVL133:
.LBB74:
.LBB75:
	.loc 1 1948 5
	.loc 1 1948 16 is_stmt 0
	sw	a1,0(a3)
	.loc 1 1949 5 is_stmt 1
	.loc 1 1949 16 is_stmt 0
	sw	a3,4(a1)
.LVL134:
.LBE75:
.LBE74:
	.loc 1 2000 13 is_stmt 1
	.loc 1 2000 32 is_stmt 0
	sw	a1,4(a4)
	j	.L154
.LBE76:
.LBE77:
	.cfi_endproc
.LFE52:
	.size	add_item_to_array, .-add_item_to_array
	.section	.rodata.print_string_ptr.str1.4,"aMS",@progbits,1
	.align	2
.LC1:
	.string	"\"\""
	.align	2
.LC2:
	.string	"u%04x"
	.section	.text.print_string_ptr,"ax",@progbits
	.align	1
	.type	print_string_ptr, @function
print_string_ptr:
.LFB24:
	.loc 1 912 1 is_stmt 1
	.cfi_startproc
.LVL135:
	.loc 1 913 5
	.loc 1 914 5
	.loc 1 915 5
	.loc 1 916 5
	.loc 1 918 5
	.loc 1 920 5
	.loc 1 920 8 is_stmt 0
	bne	a1,zero,.L162
	.loc 1 922 16
	li	a0,0
.LVL136:
	.loc 1 1030 1
	ret
.LVL137:
.L165:
	.cfi_def_cfa_offset 80
	.cfi_offset 1, -4
	.cfi_offset 8, -8
	.cfi_offset 9, -12
	.cfi_offset 18, -16
	.cfi_offset 19, -20
	.cfi_offset 20, -24
	.cfi_offset 21, -28
	.cfi_offset 22, -32
	.cfi_offset 23, -36
	.cfi_offset 24, -40
	.cfi_offset 25, -44
	.cfi_offset 26, -48
	.cfi_offset 27, -52
	.loc 1 922 16
	li	a0,0
.LVL138:
.L161:
	.loc 1 1030 1
	lw	ra,76(sp)
	.cfi_restore 1
	lw	s0,72(sp)
	.cfi_restore 8
	lw	s1,68(sp)
	.cfi_restore 9
	lw	s2,64(sp)
	.cfi_restore 18
	lw	s3,60(sp)
	.cfi_restore 19
	lw	s4,56(sp)
	.cfi_restore 20
	lw	s5,52(sp)
	.cfi_restore 21
	lw	s6,48(sp)
	.cfi_restore 22
	lw	s7,44(sp)
	.cfi_restore 23
	lw	s8,40(sp)
	.cfi_restore 24
	lw	s9,36(sp)
	.cfi_restore 25
	lw	s10,32(sp)
	.cfi_restore 26
	lw	s11,28(sp)
	.cfi_restore 27
	addi	sp,sp,80
	.cfi_def_cfa_offset 0
	jr	ra
.LVL139:
.L162:
	.loc 1 912 1
	addi	sp,sp,-80
	.cfi_def_cfa_offset 80
	sw	s2,64(sp)
	sw	ra,76(sp)
	.cfi_offset 18, -16
	.cfi_offset 1, -4
	mv	s2,a0
	sw	s0,72(sp)
	sw	s1,68(sp)
	sw	s3,60(sp)
	sw	s4,56(sp)
	sw	s5,52(sp)
	sw	s6,48(sp)
	sw	s7,44(sp)
	sw	s8,40(sp)
	sw	s9,36(sp)
	sw	s10,32(sp)
	sw	s11,28(sp)
	.cfi_offset 8, -8
	.cfi_offset 9, -12
	.cfi_offset 19, -20
	.cfi_offset 20, -24
	.cfi_offset 21, -28
	.cfi_offset 22, -32
	.cfi_offset 23, -36
	.cfi_offset 24, -40
	.cfi_offset 25, -44
	.cfi_offset 26, -48
	.cfi_offset 27, -52
	mv	a0,a1
.LVL140:
	.loc 1 926 5 is_stmt 1
	.loc 1 926 8 is_stmt 0
	bne	s2,zero,.L185
.LVL141:
	.loc 1 928 9 is_stmt 1
	.loc 1 928 18 is_stmt 0
	li	a1,3
	call	ensure
.LVL142:
	.loc 1 929 9 is_stmt 1
	.loc 1 929 12 is_stmt 0
	beq	a0,zero,.L165
	.loc 1 933 9 is_stmt 1
	lui	a1,%hi(.LC1)
	addi	a1,a1,%lo(.LC1)
	call	strcpy
.LVL143:
	.loc 1 935 9
.L196:
.LBB80:
.LBB81:
	.loc 1 1029 5
	.loc 1 1029 12 is_stmt 0
	li	a0,1
	j	.L161
.LVL144:
.L170:
	.loc 1 941 9 is_stmt 1
	bgtu	a5,a1,.L166
	bleu	a5,a7,.L167
	addi	a4,a5,-8
	sll	a4,t3,a4
	and	a4,a4,a3
	beq	a4,zero,.L167
.L168:
	.loc 1 951 17
	.loc 1 951 34 is_stmt 0
	addi	s3,s3,1
.LVL145:
	.loc 1 952 17 is_stmt 1
	j	.L169
.L166:
	.loc 1 941 9 is_stmt 0
	beq	a5,a6,.L168
.L169:
	.loc 1 939 49 is_stmt 1
	.loc 1 939 62 is_stmt 0
	addi	a2,a2,1
.LVL146:
.L164:
	.loc 1 939 33 is_stmt 1
	lbu	a5,0(a2)
	.loc 1 939 5 is_stmt 0
	bne	a5,zero,.L170
	.loc 1 962 5 is_stmt 1
	.loc 1 962 44 is_stmt 0
	sub	a2,a2,s2
.LVL147:
	.loc 1 962 19
	add	a2,a2,s3
.LVL148:
	.loc 1 964 5 is_stmt 1
	.loc 1 964 14 is_stmt 0
	addi	a1,a2,3
	sw	a2,12(sp)
	call	ensure
.LVL149:
	mv	s1,a0
.LVL150:
	.loc 1 965 5 is_stmt 1
	.loc 1 965 8 is_stmt 0
	beq	a0,zero,.L165
	.loc 1 971 5 is_stmt 1
	.loc 1 975 15 is_stmt 0
	lw	a2,12(sp)
	.loc 1 974 23
	addi	s0,a0,1
	.loc 1 975 15
	addi	s6,a2,1
	.loc 1 976 15
	addi	s5,a2,2
	.loc 1 971 8
	bne	s3,zero,.L171
	.loc 1 973 9 is_stmt 1
	.loc 1 973 19 is_stmt 0
	li	s3,34
.LVL151:
	sb	s3,0(a0)
	.loc 1 974 9 is_stmt 1
	mv	a1,s2
	mv	a0,s0
	call	memcpy
.LVL152:
	.loc 1 975 9
	.loc 1 975 35 is_stmt 0
	srb	s3,s1,s6,0
	.loc 1 976 9 is_stmt 1
.LVL153:
.L197:
	.loc 1 1027 5
	.loc 1 1027 31 is_stmt 0
	srb	zero,s1,s5,0
	j	.L196
.LVL154:
.L167:
	.loc 1 954 17 is_stmt 1
	.loc 1 954 20 is_stmt 0
	bgtu	a5,t1,.L169
	.loc 1 957 21 is_stmt 1
	.loc 1 957 39 is_stmt 0
	addi	s3,s3,5
.LVL155:
	j	.L169
.LVL156:
.L185:
	.loc 1 941 9
	li	a3,67108864
.LBE81:
.LBE80:
	mv	a2,s2
.LBB83:
.LBB82:
	.loc 1 918 12
	li	s3,0
	.loc 1 941 9
	li	a1,34
	li	a6,92
	li	a7,7
	.loc 1 954 20
	li	t1,31
	.loc 1 941 9
	li	t3,1
	addi	a3,a3,55
	j	.L164
.LVL157:
.L171:
	.loc 1 981 5 is_stmt 1
	.loc 1 981 15 is_stmt 0
	li	a5,34
	sb	a5,0(a0)
	.loc 1 982 5 is_stmt 1
.LVL158:
	.loc 1 984 5
	.loc 1 986 12 is_stmt 0
	li	s8,31
	.loc 1 994 31
	li	s3,92
.LVL159:
	.loc 1 995 13
	li	s7,12
	.loc 1 1007 37
	li	s9,102
	.loc 1 1020 21
	lui	s10,%hi(.LC2)
	.loc 1 995 13
	li	s4,34
	li	s11,13
	.loc 1 1013 37
	li	a4,114
.LVL160:
.L172:
	.loc 1 984 33 is_stmt 1
	lbu	a5,0(s2)
	.loc 1 984 5 is_stmt 0
	bne	a5,zero,.L184
	.loc 1 1026 5 is_stmt 1
	.loc 1 1026 31 is_stmt 0
	li	a5,34
	srb	a5,s1,s6,0
	j	.L197
.L184:
	.loc 1 986 9 is_stmt 1
	.loc 1 986 12 is_stmt 0
	bleu	a5,s8,.L173
	.loc 1 986 35
	beq	a5,s4,.L173
	.loc 1 986 63
	beq	a5,s3,.L173
	.loc 1 989 13 is_stmt 1
	.loc 1 989 29 is_stmt 0
	sb	a5,0(s0)
	mv	a0,s0
.LVL161:
.L174:
	.loc 1 984 57 is_stmt 1
	addi	s2,s2,1
.LVL162:
	.loc 1 984 94 is_stmt 0
	addi	s0,a0,1
.LVL163:
	j	.L172
.L173:
	.loc 1 994 13 is_stmt 1
	.loc 1 994 28 is_stmt 0
	mv	a0,s0
.LVL164:
	.loc 1 994 31
	sbia	s3,(a0),1,0
.LVL165:
	.loc 1 995 13 is_stmt 1
	.loc 1 995 21 is_stmt 0
	lbu	a2,0(s2)
	.loc 1 995 13
	beq	a2,s7,.L175
	bgtu	a2,s7,.L176
	li	a5,9
	beq	a2,a5,.L177
	li	a5,10
	beq	a2,a5,.L178
	li	a5,8
	beq	a2,a5,.L179
.L180:
	.loc 1 1020 21 is_stmt 1
	addi	a1,s10,%lo(.LC2)
	call	sprintf
.LVL166:
	.loc 1 1021 21
	.loc 1 1021 36 is_stmt 0
	addi	a0,s0,5
	li	a4,114
.LVL167:
	.loc 1 1022 21 is_stmt 1
	j	.L174
.L176:
	.loc 1 995 13 is_stmt 0
	beq	a2,s4,.L181
	beq	a2,s3,.L182
	bne	a2,s11,.L180
	.loc 1 1013 21 is_stmt 1
	.loc 1 1013 37 is_stmt 0
	sb	a4,1(s0)
	.loc 1 1014 21 is_stmt 1
	j	.L174
.L182:
	.loc 1 998 21
	.loc 1 998 37 is_stmt 0
	sb	s3,1(s0)
	.loc 1 999 21 is_stmt 1
	j	.L174
.L181:
	.loc 1 1001 21
	.loc 1 1001 37 is_stmt 0
	sb	s4,1(s0)
	.loc 1 1002 21 is_stmt 1
	j	.L174
.L179:
	.loc 1 1004 21
	.loc 1 1004 37 is_stmt 0
	li	a5,98
.L195:
	.loc 1 1010 37
	sb	a5,1(s0)
	.loc 1 1011 21 is_stmt 1
	j	.L174
.L175:
	.loc 1 1007 21
	.loc 1 1007 37 is_stmt 0
	sb	s9,1(s0)
	.loc 1 1008 21 is_stmt 1
	j	.L174
.L178:
	.loc 1 1010 21
	.loc 1 1010 37 is_stmt 0
	li	a5,110
	j	.L195
.L177:
	.loc 1 1016 21 is_stmt 1
	.loc 1 1016 37 is_stmt 0
	li	a5,116
	j	.L195
.LBE82:
.LBE83:
	.cfi_endproc
.LFE24:
	.size	print_string_ptr, .-print_string_ptr
	.section	.text.cJSON_strdup.constprop.0,"ax",@progbits
	.align	1
	.type	cJSON_strdup.constprop.0, @function
cJSON_strdup.constprop.0:
.LFB125:
	.loc 1 188 23 is_stmt 1
	.cfi_startproc
.LVL168:
	.loc 1 190 5
	.loc 1 191 5
	.loc 1 193 5
	.loc 1 188 23 is_stmt 0
	addi	sp,sp,-32
	.cfi_def_cfa_offset 32
	sw	s0,24(sp)
	sw	ra,28(sp)
	.cfi_offset 8, -8
	.cfi_offset 1, -4
	.loc 1 195 15
	li	s0,0
	.loc 1 193 8
	beq	a0,zero,.L198
	sw	a0,12(sp)
	.loc 1 198 5 is_stmt 1
	.loc 1 198 14 is_stmt 0
	call	strlen
.LVL169:
	.loc 1 199 28
	lui	a5,%hi(.LANCHOR0)
	lw	a5,%lo(.LANCHOR0)(a5)
	.loc 1 198 12
	addi	a2,a0,1
.LVL170:
	.loc 1 199 5 is_stmt 1
	.loc 1 199 28 is_stmt 0
	mv	a0,a2
	sw	a2,8(sp)
	jalr	a5
.LVL171:
	mv	s0,a0
.LVL172:
	.loc 1 200 5 is_stmt 1
	.loc 1 200 8 is_stmt 0
	beq	a0,zero,.L198
	.loc 1 204 5 is_stmt 1
	lw	a2,8(sp)
	lw	a1,12(sp)
	call	memcpy
.LVL173:
	.loc 1 206 5
.L198:
	.loc 1 207 1 is_stmt 0
	lw	ra,28(sp)
	.cfi_restore 1
	mv	a0,s0
	lw	s0,24(sp)
	.cfi_restore 8
	addi	sp,sp,32
	.cfi_def_cfa_offset 0
	jr	ra
	.cfi_endproc
.LFE125:
	.size	cJSON_strdup.constprop.0, .-cJSON_strdup.constprop.0
	.section	.text.add_item_to_object.constprop.0,"ax",@progbits
	.align	1
	.type	add_item_to_object.constprop.0, @function
add_item_to_object.constprop.0:
.LFB129:
	.loc 1 2029 19 is_stmt 1
	.cfi_startproc
.LVL174:
	.loc 1 2031 5
	.loc 1 2032 5
	.loc 1 2034 5
	.loc 1 2034 8 is_stmt 0
	beq	a0,zero,.L225
	.loc 1 2034 25
	beq	a1,zero,.L225
	.loc 1 2029 19
	addi	sp,sp,-32
	.cfi_def_cfa_offset 32
	sw	s0,24(sp)
	sw	ra,28(sp)
	sw	s1,20(sp)
	sw	s2,16(sp)
	.cfi_offset 8, -8
	.cfi_offset 1, -4
	.cfi_offset 9, -12
	.cfi_offset 18, -16
	mv	s0,a2
	.loc 1 2034 45
	beq	a2,zero,.L207
	mv	s2,a0
	.loc 1 2034 63
	beq	a0,a2,.L207
.LVL175:
.LBB86:
.LBB87:
	.loc 1 2039 5 is_stmt 1
	.loc 1 2039 8 is_stmt 0
	beq	a3,zero,.L209
	.loc 1 2041 9 is_stmt 1
.LVL176:
.LBE87:
.LBE86:
	.loc 1 2022 5
.LBB91:
.LBB88:
	.loc 1 2042 9
	.loc 1 2042 18 is_stmt 0
	lw	s1,12(a2)
	ori	s1,s1,512
.LVL177:
.L210:
	.loc 1 2055 5 is_stmt 1
	.loc 1 2055 22 is_stmt 0
	lw	a5,12(s0)
	andi	a5,a5,512
	.loc 1 2055 8
	bne	a5,zero,.L211
	.loc 1 2055 37
	lw	a0,32(s0)
	.loc 1 2055 29
	beq	a0,zero,.L211
	.loc 1 2057 14
	lui	a5,%hi(.LANCHOR0+4)
	.loc 1 2057 9
	lw	a5,%lo(.LANCHOR0+4)(a5)
	sw	a1,12(sp)
	.loc 1 2057 9 is_stmt 1
	jalr	a5
.LVL178:
	lw	a1,12(sp)
.LVL179:
.L211:
	.loc 1 2060 5
	.loc 1 2060 18 is_stmt 0
	sw	a1,32(s0)
	.loc 1 2061 5 is_stmt 1
	.loc 1 2061 16 is_stmt 0
	sw	s1,12(s0)
	.loc 1 2063 5 is_stmt 1
	.loc 1 2063 12 is_stmt 0
	mv	a1,s0
.LBE88:
.LBE91:
	.loc 1 2064 1
	lw	s0,24(sp)
	.cfi_remember_state
	.cfi_restore 8
.LVL180:
	lw	ra,28(sp)
	.cfi_restore 1
	lw	s1,20(sp)
	.cfi_restore 9
.LVL181:
.LBB92:
.LBB89:
	.loc 1 2063 12
	mv	a0,s2
.LBE89:
.LBE92:
	.loc 1 2064 1
	lw	s2,16(sp)
	.cfi_restore 18
.LVL182:
	addi	sp,sp,32
	.cfi_def_cfa_offset 0
.LBB93:
.LBB90:
	.loc 1 2063 12
	tail	add_item_to_array
.LVL183:
.L209:
	.cfi_restore_state
	.loc 1 2046 9 is_stmt 1
	.loc 1 2046 26 is_stmt 0
	mv	a0,a1
.LVL184:
	call	cJSON_strdup.constprop.0
.LVL185:
	mv	a1,a0
.LVL186:
	.loc 1 2047 9 is_stmt 1
	.loc 1 2047 12 is_stmt 0
	beq	a0,zero,.L207
	.loc 1 2052 9 is_stmt 1
	.loc 1 2052 18 is_stmt 0
	lw	s1,12(s0)
	andi	s1,s1,-513
.LVL187:
	j	.L210
.LVL188:
.L207:
.LBE90:
.LBE93:
	.loc 1 2064 1
	lw	ra,28(sp)
	.cfi_restore 1
	lw	s0,24(sp)
	.cfi_restore 8
.LVL189:
	lw	s1,20(sp)
	.cfi_restore 9
	lw	s2,16(sp)
	.cfi_restore 18
	li	a0,0
	addi	sp,sp,32
	.cfi_def_cfa_offset 0
	jr	ra
.LVL190:
.L225:
	li	a0,0
.LVL191:
	ret
	.cfi_endproc
.LFE129:
	.size	add_item_to_object.constprop.0, .-add_item_to_object.constprop.0
	.section	.rodata.print_value.str1.4,"aMS",@progbits,1
	.align	2
.LC3:
	.string	"null"
	.align	2
.LC4:
	.string	"false"
	.align	2
.LC5:
	.string	"true"
	.globl	__unorddf2
	.globl	__floatsidf
	.globl	__eqdf2
	.align	2
.LC7:
	.string	"%d"
	.align	2
.LC8:
	.string	"%1.15g"
	.align	2
.LC9:
	.string	"%lg"
	.align	2
.LC10:
	.string	"%1.17g"
	.section	.text.print_value,"ax",@progbits
	.align	1
	.type	print_value, @function
print_value:
.LFB38:
	.loc 1 1381 1 is_stmt 1
	.cfi_startproc
.LVL192:
	.loc 1 1382 5
	.loc 1 1384 5
	.loc 1 1381 1 is_stmt 0
	addi	sp,sp,-112
	.cfi_def_cfa_offset 112
	sw	ra,108(sp)
	sw	s0,104(sp)
	sw	s1,100(sp)
	sw	s2,96(sp)
	sw	s3,92(sp)
	sw	s4,88(sp)
	sw	s5,84(sp)
	sw	s6,80(sp)
	sw	s7,76(sp)
	.cfi_offset 1, -4
	.cfi_offset 8, -8
	.cfi_offset 9, -12
	.cfi_offset 18, -16
	.cfi_offset 19, -20
	.cfi_offset 20, -24
	.cfi_offset 21, -28
	.cfi_offset 22, -32
	.cfi_offset 23, -36
	.loc 1 1384 8
	bne	a0,zero,.L229
.LVL193:
.L251:
.LBB107:
.LBB108:
.LBB109:
.LBB110:
	.loc 1 593 16
	li	s1,0
	j	.L228
.LVL194:
.L229:
	mv	s0,a1
.LBE110:
.LBE109:
.LBE108:
.LBE107:
	.loc 1 1384 23 discriminator 1
	beq	a1,zero,.L251
.LVL195:
.LBB143:
.LBB138:
	.loc 1 1389 5 is_stmt 1
	.loc 1 1389 26 is_stmt 0
	lbu	s1,12(a0)
	.loc 1 1389 5
	li	a5,16
	beq	s1,a5,.L232
	mv	s2,a0
	bgt	s1,a5,.L233
	li	a5,4
	beq	s1,a5,.L234
	bgt	s1,a5,.L235
	li	a5,1
	beq	s1,a5,.L236
	li	a5,2
	bne	s1,a5,.L251
	.loc 1 1410 13 is_stmt 1
	.loc 1 1410 22 is_stmt 0
	li	a1,5
	mv	a0,s0
.LVL196:
	call	ensure
.LVL197:
	.loc 1 1411 13 is_stmt 1
	.loc 1 1411 16 is_stmt 0
	beq	a0,zero,.L251
	.loc 1 1415 13 is_stmt 1
	lui	a1,%hi(.LC5)
	addi	a1,a1,%lo(.LC5)
	j	.L364
.LVL198:
.L235:
	.loc 1 1389 5 is_stmt 0
	li	a5,8
	bne	s1,a5,.L251
	.loc 1 1419 13 is_stmt 1
.LVL199:
.LBB114:
.LBB111:
	.loc 1 555 5
	.loc 1 556 5
	.loc 1 556 12 is_stmt 0
	lw	s3,24(a0)
	lw	s4,28(a0)
.LVL200:
	.loc 1 557 5 is_stmt 1
	.loc 1 558 5
	.loc 1 559 5
	.loc 1 559 19 is_stmt 0
	li	a2,22
	li	a1,0
	addi	a0,sp,40
.LVL201:
	sw	zero,36(sp)
	call	memset
.LVL202:
	.loc 1 560 5 is_stmt 1
.LBE111:
.LBE114:
.LBE138:
.LBE143:
	.loc 1 285 5
.LBB144:
.LBB139:
.LBB115:
.LBB112:
	.loc 1 561 5
	.loc 1 569 8 is_stmt 0
	mv	a2,s3
	mv	a3,s4
	mv	a0,s3
	mv	a1,s4
	.loc 1 561 12
	sw	zero,24(sp)
	sw	zero,28(sp)
	.loc 1 563 5 is_stmt 1
	.loc 1 569 5
	.loc 1 569 8 is_stmt 0
	call	__unorddf2
.LVL203:
	addi	s5,sp,36
	bne	a0,zero,.L242
	.loc 1 569 17
	lui	a5,%hi(.LC6)
	lw	s6,%lo(.LC6)(a5)
	lw	s7,%lo(.LC6+4)(a5)
	.loc 1 569 21
	li	s1,-2147483648
	xori	s1,s1,-1
	and	s1,s4,s1
	.loc 1 569 17
	mv	a2,s6
	mv	a3,s7
	mv	a0,s3
	mv	a1,s1
	call	__unorddf2
.LVL204:
	bne	a0,zero,.L243
	mv	a2,s6
	mv	a3,s7
	mv	a0,s3
	mv	a1,s1
	call	__ledf2
.LVL205:
	ble	a0,zero,.L243
.L242:
	.loc 1 571 9 is_stmt 1
	.loc 1 571 18 is_stmt 0
	lui	a1,%hi(.LC3)
	addi	a1,a1,%lo(.LC3)
	mv	a0,s5
	call	sprintf
.LVL206:
.L361:
	.loc 1 575 18
	mv	s1,a0
.LVL207:
.L244:
	.loc 1 591 5 is_stmt 1
	.loc 1 591 8 is_stmt 0
	li	a5,25
	bgtu	s1,a5,.L251
	.loc 1 597 5 is_stmt 1
	.loc 1 597 22 is_stmt 0
	addi	a1,s1,1
	mv	a0,s0
	call	ensure
.LVL208:
	.loc 1 598 5 is_stmt 1
	.loc 1 605 12 is_stmt 0
	li	a5,0
	.loc 1 598 8
	beq	a0,zero,.L251
.LVL209:
.L252:
	.loc 1 605 17 is_stmt 1
	.loc 1 605 5 is_stmt 0
	bne	s1,a5,.L255
	.loc 1 615 5 is_stmt 1
	.loc 1 615 23 is_stmt 0
	srb	zero,a0,s1,0
	.loc 1 617 5 is_stmt 1
	.loc 1 617 27 is_stmt 0
	lw	a5,8(s0)
.LVL210:
	add	s1,a5,s1
.LVL211:
	sw	s1,8(s0)
	.loc 1 619 5 is_stmt 1
	j	.L362
.LVL212:
.L233:
.LBE112:
.LBE115:
	.loc 1 1389 5 is_stmt 0
	li	a5,64
	beq	s1,a5,.L239
	li	a5,128
	beq	s1,a5,.L240
	li	a5,32
	bne	s1,a5,.L251
	.loc 1 1443 13 is_stmt 1
	lw	s2,8(a0)
.LVL213:
.LBB116:
.LBB117:
	.loc 1 1554 5
	.loc 1 1555 5
	.loc 1 1556 5
	.loc 1 1558 5
	.loc 1 1565 5
	.loc 1 1565 22 is_stmt 0
	li	a1,1
	mv	a0,s0
.LVL214:
	call	ensure
.LVL215:
	.loc 1 1566 5 is_stmt 1
	.loc 1 1566 8 is_stmt 0
	beq	a0,zero,.L251
	.loc 1 1571 5 is_stmt 1
	.loc 1 1571 21 is_stmt 0
	li	a5,91
	sb	a5,0(a0)
	.loc 1 1572 5 is_stmt 1
	.loc 1 1572 26 is_stmt 0
	lw	a5,8(s0)
	.loc 1 1590 31
	li	s3,44
	.loc 1 1593 35
	li	s4,32
	.loc 1 1572 26
	addi	a5,a5,1
	sw	a5,8(s0)
	.loc 1 1573 5 is_stmt 1
	.loc 1 1573 25 is_stmt 0
	lw	a5,12(s0)
	addi	a5,a5,1
	sw	a5,12(s0)
	.loc 1 1575 5 is_stmt 1
.LVL216:
.L256:
	.loc 1 1575 11
	bne	s2,zero,.L261
	.loc 1 1601 5
	.loc 1 1601 22 is_stmt 0
	li	a1,2
	mv	a0,s0
	call	ensure
.LVL217:
	.loc 1 1602 5 is_stmt 1
	.loc 1 1606 23 is_stmt 0
	li	a5,93
	.loc 1 1602 8
	beq	a0,zero,.L251
.LVL218:
.L363:
.LBE117:
.LBE116:
.LBB119:
.LBB120:
	.loc 1 1838 23
	sb	a5,0(a0)
	.loc 1 1839 5 is_stmt 1
	.loc 1 1839 21 is_stmt 0
	sb	zero,1(a0)
	.loc 1 1840 5 is_stmt 1
	.loc 1 1840 25 is_stmt 0
	lw	a5,12(s0)
	addi	a5,a5,-1
	sw	a5,12(s0)
	j	.L362
.LVL219:
.L234:
.LBE120:
.LBE119:
	.loc 1 1392 13 is_stmt 1
	.loc 1 1392 22 is_stmt 0
	li	a1,5
	mv	a0,s0
.LVL220:
	call	ensure
.LVL221:
	.loc 1 1393 13 is_stmt 1
	.loc 1 1393 16 is_stmt 0
	beq	a0,zero,.L251
	.loc 1 1397 13 is_stmt 1
	lui	a1,%hi(.LC3)
	addi	a1,a1,%lo(.LC3)
.L364:
	.loc 1 1415 13 is_stmt 0
	call	strcpy
.LVL222:
	.loc 1 1416 13 is_stmt 1
.L362:
.LBB127:
.LBB125:
	.loc 1 1842 5
	.loc 1 1842 12 is_stmt 0
	li	s1,1
.LVL223:
	j	.L228
.LVL224:
.L236:
.LBE125:
.LBE127:
	.loc 1 1401 13 is_stmt 1
	.loc 1 1401 22 is_stmt 0
	li	a1,6
	mv	a0,s0
.LVL225:
	call	ensure
.LVL226:
	.loc 1 1402 13 is_stmt 1
	.loc 1 1402 16 is_stmt 0
	beq	a0,zero,.L251
	.loc 1 1406 13 is_stmt 1
	lui	a1,%hi(.LC4)
	addi	a1,a1,%lo(.LC4)
	call	strcpy
.LVL227:
	.loc 1 1407 13
.L228:
.LBE139:
.LBE144:
	.loc 1 1451 1 is_stmt 0
	lw	ra,108(sp)
	.cfi_remember_state
	.cfi_restore 1
	lw	s0,104(sp)
	.cfi_restore 8
	lw	s2,96(sp)
	.cfi_restore 18
	lw	s3,92(sp)
	.cfi_restore 19
	lw	s4,88(sp)
	.cfi_restore 20
	lw	s5,84(sp)
	.cfi_restore 21
	lw	s6,80(sp)
	.cfi_restore 22
	lw	s7,76(sp)
	.cfi_restore 23
	mv	a0,s1
	lw	s1,100(sp)
	.cfi_restore 9
	addi	sp,sp,112
	.cfi_def_cfa_offset 0
	jr	ra
.LVL228:
.L243:
	.cfi_restore_state
.LBB145:
.LBB140:
.LBB128:
.LBB113:
	.loc 1 573 10 is_stmt 1
	.loc 1 573 30 is_stmt 0
	lw	s1,20(s2)
	.loc 1 573 18
	mv	a0,s1
	call	__floatsidf
.LVL229:
	mv	a2,a0
	mv	a3,a1
	.loc 1 573 12
	mv	a0,s3
	mv	a1,s4
	call	__eqdf2
.LVL230:
	bne	a0,zero,.L359
	.loc 1 575 9 is_stmt 1
	.loc 1 575 18 is_stmt 0
	lui	a1,%hi(.LC7)
	mv	a2,s1
	addi	a1,a1,%lo(.LC7)
	mv	a0,s5
	call	sprintf
.LVL231:
	j	.L361
.L359:
	.loc 1 580 9 is_stmt 1
	.loc 1 580 18 is_stmt 0
	lui	a1,%hi(.LC8)
	mv	a2,s3
	mv	a3,s4
	addi	a1,a1,%lo(.LC8)
	mv	a0,s5
	call	sprintf
.LVL232:
	.loc 1 583 14
	lui	a1,%hi(.LC9)
	.loc 1 580 18
	mv	s1,a0
.LVL233:
	.loc 1 583 9 is_stmt 1
	.loc 1 583 14 is_stmt 0
	addi	a2,sp,24
	addi	a1,a1,%lo(.LC9)
	mv	a0,s5
	call	sscanf
.LVL234:
	.loc 1 583 12
	li	a5,1
	beq	a0,a5,.L247
.L248:
	.loc 1 586 13 is_stmt 1
	.loc 1 586 22 is_stmt 0
	lui	a1,%hi(.LC10)
	mv	a2,s3
	mv	a3,s4
	addi	a1,a1,%lo(.LC10)
	mv	a0,s5
	call	sprintf
.LVL235:
	j	.L361
.L247:
	.loc 1 583 67
	lw	a0,24(sp)
	lw	a1,28(sp)
	mv	a2,s3
	mv	a3,s4
	call	compare_double
.LVL236:
	.loc 1 583 63
	beq	a0,zero,.L248
	j	.L244
.LVL237:
.L255:
	.loc 1 607 9 is_stmt 1
	.loc 1 607 26 is_stmt 0
	lrbu	a4,s5,a5,0
	.loc 1 613 27
	srb	a4,a0,a5,0
	.loc 1 605 39 is_stmt 1
	.loc 1 605 40 is_stmt 0
	addi	a5,a5,1
.LVL238:
	j	.L252
.LVL239:
.L240:
.LBE113:
.LBE128:
.LBB129:
	.loc 1 1423 13 is_stmt 1
	.loc 1 1424 13
	.loc 1 1424 21 is_stmt 0
	lw	a0,16(a0)
.LVL240:
	.loc 1 1424 16
	beq	a0,zero,.L251
	.loc 1 1429 13 is_stmt 1
	.loc 1 1429 26 is_stmt 0
	call	strlen
.LVL241:
	.loc 1 1429 24
	addi	a2,a0,1
.LVL242:
	.loc 1 1430 13 is_stmt 1
	.loc 1 1430 22 is_stmt 0
	mv	a1,a2
	mv	a0,s0
	sw	a2,12(sp)
	call	ensure
.LVL243:
	.loc 1 1431 13 is_stmt 1
	.loc 1 1431 16 is_stmt 0
	beq	a0,zero,.L251
	.loc 1 1435 13 is_stmt 1
	lw	a2,12(sp)
	lw	a1,16(s2)
	call	memcpy
.LVL244:
	.loc 1 1436 13
	j	.L362
.LVL245:
.L232:
.LBE129:
	.loc 1 1440 13
.LBB130:
.LBB131:
	.loc 1 1035 5
.LBE131:
.LBE130:
.LBE140:
.LBE145:
	.loc 1 1451 1 is_stmt 0
	lw	s0,104(sp)
	.cfi_remember_state
	.cfi_restore 8
.LVL246:
	lw	ra,108(sp)
	.cfi_restore 1
	lw	s1,100(sp)
	.cfi_restore 9
	lw	s2,96(sp)
	.cfi_restore 18
	lw	s3,92(sp)
	.cfi_restore 19
	lw	s4,88(sp)
	.cfi_restore 20
	lw	s5,84(sp)
	.cfi_restore 21
	lw	s6,80(sp)
	.cfi_restore 22
	lw	s7,76(sp)
	.cfi_restore 23
.LBB146:
.LBB141:
.LBB134:
.LBB132:
	.loc 1 1035 12
	lw	a0,16(a0)
.LVL247:
.LBE132:
.LBE134:
.LBE141:
.LBE146:
	.loc 1 1451 1
	addi	sp,sp,112
	.cfi_def_cfa_offset 0
.LBB147:
.LBB142:
.LBB135:
.LBB133:
	.loc 1 1035 12
	tail	print_string_ptr
.LVL248:
.L261:
	.cfi_restore_state
.LBE133:
.LBE135:
.LBB136:
.LBB118:
	.loc 1 1577 9 is_stmt 1
	.loc 1 1577 14 is_stmt 0
	mv	a1,s0
	mv	a0,s2
	call	print_value
.LVL249:
	.loc 1 1577 12
	beq	a0,zero,.L251
	.loc 1 1581 9 is_stmt 1
	mv	a0,s0
	call	update_offset
.LVL250:
	.loc 1 1582 9
	.loc 1 1582 12 is_stmt 0
	lw	a5,0(s2)
	beq	a5,zero,.L257
	.loc 1 1584 13 is_stmt 1
	.loc 1 1584 22 is_stmt 0
	lw	s1,20(s0)
	.loc 1 1585 30
	mv	a0,s0
	.loc 1 1584 22
	snez	s1,s1
	addi	s1,s1,1
.LVL251:
	.loc 1 1585 13 is_stmt 1
	.loc 1 1585 30 is_stmt 0
	addi	a1,s1,1
	call	ensure
.LVL252:
	.loc 1 1586 13 is_stmt 1
	.loc 1 1586 16 is_stmt 0
	beq	a0,zero,.L251
	.loc 1 1590 13 is_stmt 1
.LVL253:
	.loc 1 1590 31 is_stmt 0
	sb	s3,0(a0)
	.loc 1 1591 13 is_stmt 1
	.loc 1 1591 15 is_stmt 0
	lw	a5,20(s0)
	bne	a5,zero,.L259
	.loc 1 1590 28
	addi	a5,a0,1
.LVL254:
.L260:
	.loc 1 1595 13 is_stmt 1
	.loc 1 1595 29 is_stmt 0
	sb	zero,0(a5)
	.loc 1 1596 13 is_stmt 1
	.loc 1 1596 35 is_stmt 0
	lw	a5,8(s0)
.LVL255:
	add	s1,a5,s1
.LVL256:
	sw	s1,8(s0)
.L257:
	.loc 1 1598 9 is_stmt 1
	.loc 1 1598 25 is_stmt 0
	lw	s2,0(s2)
.LVL257:
	j	.L256
.LVL258:
.L259:
	.loc 1 1593 17 is_stmt 1
	.loc 1 1593 32 is_stmt 0
	addi	a5,a0,2
.LVL259:
	.loc 1 1593 35
	sb	s4,1(a0)
	j	.L260
.LVL260:
.L239:
.LBE118:
.LBE136:
	.loc 1 1446 13 is_stmt 1
.LBB137:
.LBB126:
	.loc 1 1734 5
	.loc 1 1735 5
	.loc 1 1736 5
	.loc 1 1738 5
	.loc 1 1744 5
	.loc 1 1744 14 is_stmt 0
	lw	s3,20(a1)
	lw	s1,8(a0)
	.loc 1 1745 22
	mv	a0,s0
.LVL261:
	.loc 1 1744 14
	snez	s3,s3
	addi	s3,s3,1
.LVL262:
	.loc 1 1745 5 is_stmt 1
	.loc 1 1745 22 is_stmt 0
	addi	a1,s3,1
	call	ensure
.LVL263:
	.loc 1 1746 5 is_stmt 1
	.loc 1 1746 8 is_stmt 0
	beq	a0,zero,.L251
	.loc 1 1751 5 is_stmt 1
.LVL264:
	.loc 1 1751 23 is_stmt 0
	li	a5,123
	sb	a5,0(a0)
	.loc 1 1752 5 is_stmt 1
	.loc 1 1752 25 is_stmt 0
	lw	a5,12(s0)
	addi	a5,a5,1
	sw	a5,12(s0)
	.loc 1 1753 5 is_stmt 1
	.loc 1 1753 8 is_stmt 0
	lw	a5,20(s0)
	beq	a5,zero,.L263
	.loc 1 1755 9 is_stmt 1
.LVL265:
	.loc 1 1755 27 is_stmt 0
	li	a5,10
	sb	a5,1(a0)
.LVL266:
.L263:
	.loc 1 1757 5 is_stmt 1
	.loc 1 1757 27 is_stmt 0
	lw	a5,8(s0)
	.loc 1 1789 27
	li	s4,58
	.loc 1 1812 31
	li	s5,44
	.loc 1 1757 27
	add	s3,a5,s3
.LVL267:
	sw	s3,8(s0)
	.loc 1 1759 5 is_stmt 1
	.loc 1 1817 31 is_stmt 0
	li	s6,10
.LBB121:
	.loc 1 1771 35
	li	s3,9
.LVL268:
.L264:
.LBE121:
	.loc 1 1759 11 is_stmt 1
	.loc 1 1761 26 is_stmt 0
	lw	a5,20(s0)
	.loc 1 1759 11
	bne	s1,zero,.L272
	.loc 1 1825 5 is_stmt 1
	.loc 1 1825 22 is_stmt 0
	li	a1,2
	beq	a5,zero,.L273
	lw	a1,12(s0)
	addi	a1,a1,1
.L273:
	mv	a0,s0
	call	ensure
.LVL269:
	.loc 1 1826 5 is_stmt 1
	.loc 1 1826 8 is_stmt 0
	beq	a0,zero,.L251
	.loc 1 1830 5 is_stmt 1
	.loc 1 1830 8 is_stmt 0
	lw	a5,20(s0)
	bne	a5,zero,.L281
.L275:
	.loc 1 1838 5 is_stmt 1
.LVL270:
	.loc 1 1838 23 is_stmt 0
	li	a5,125
	j	.L363
.LVL271:
.L272:
	.loc 1 1761 9 is_stmt 1
	.loc 1 1761 12 is_stmt 0
	beq	a5,zero,.L265
.LBB122:
	.loc 1 1763 13 is_stmt 1
	.loc 1 1764 13
	.loc 1 1764 30 is_stmt 0
	lw	a1,12(s0)
	mv	a0,s0
	call	ensure
.LVL272:
	.loc 1 1765 13 is_stmt 1
	.loc 1 1765 16 is_stmt 0
	beq	a0,zero,.L251
	.loc 1 1769 20
	li	a5,0
.LVL273:
.L266:
	.loc 1 1769 25 is_stmt 1
	.loc 1 1769 42 is_stmt 0
	lw	a4,12(s0)
	.loc 1 1769 13
	bltu	a5,a4,.L267
	.loc 1 1773 13 is_stmt 1
	.loc 1 1773 35 is_stmt 0
	lw	a5,8(s0)
.LVL274:
	add	a5,a5,a4
	sw	a5,8(s0)
.L265:
.LBE122:
	.loc 1 1777 9 is_stmt 1
	.loc 1 1777 14 is_stmt 0
	lw	a0,32(s1)
	mv	a1,s0
	call	print_string_ptr
.LVL275:
	.loc 1 1777 12
	beq	a0,zero,.L251
	.loc 1 1781 9 is_stmt 1
	mv	a0,s0
	call	update_offset
.LVL276:
	.loc 1 1783 9
	.loc 1 1783 18 is_stmt 0
	lw	s2,20(s0)
	.loc 1 1784 26
	mv	a0,s0
	.loc 1 1783 18
	snez	s2,s2
	addi	s2,s2,1
.LVL277:
	.loc 1 1784 9 is_stmt 1
	.loc 1 1784 26 is_stmt 0
	mv	a1,s2
	call	ensure
.LVL278:
	.loc 1 1785 9 is_stmt 1
	.loc 1 1785 12 is_stmt 0
	beq	a0,zero,.L251
	.loc 1 1789 9 is_stmt 1
.LVL279:
	.loc 1 1789 27 is_stmt 0
	sb	s4,0(a0)
	.loc 1 1790 9 is_stmt 1
	.loc 1 1790 12 is_stmt 0
	lw	a5,20(s0)
	beq	a5,zero,.L269
	.loc 1 1792 13 is_stmt 1
.LVL280:
	.loc 1 1792 31 is_stmt 0
	sb	s3,1(a0)
.LVL281:
.L269:
	.loc 1 1794 9 is_stmt 1
	.loc 1 1794 31 is_stmt 0
	lw	a5,8(s0)
	.loc 1 1797 14
	mv	a1,s0
	mv	a0,s1
	.loc 1 1794 31
	add	a5,a5,s2
	sw	a5,8(s0)
	.loc 1 1797 9 is_stmt 1
	.loc 1 1797 14 is_stmt 0
	call	print_value
.LVL282:
	.loc 1 1797 12
	beq	a0,zero,.L251
	.loc 1 1801 9 is_stmt 1
	mv	a0,s0
	call	update_offset
.LVL283:
	.loc 1 1804 9
	.loc 1 1804 19 is_stmt 0
	lw	a5,20(s0)
	.loc 1 1804 61
	lw	s2,0(s1)
.LVL284:
	.loc 1 1805 26
	mv	a0,s0
	.loc 1 1804 19
	snez	a5,a5
	.loc 1 1804 61
	snez	s2,s2
	.loc 1 1804 16
	add	s2,s2,a5
.LVL285:
	.loc 1 1805 9 is_stmt 1
	.loc 1 1805 26 is_stmt 0
	addi	a1,s2,1
	call	ensure
.LVL286:
	.loc 1 1806 9 is_stmt 1
	.loc 1 1806 12 is_stmt 0
	beq	a0,zero,.L251
	.loc 1 1810 9 is_stmt 1
	.loc 1 1810 12 is_stmt 0
	lw	a5,0(s1)
	beq	a5,zero,.L270
	.loc 1 1812 13 is_stmt 1
.LVL287:
	.loc 1 1812 31 is_stmt 0
	sbia	s5,(a0),1,0
.LVL288:
.L270:
	.loc 1 1815 9 is_stmt 1
	.loc 1 1815 12 is_stmt 0
	lw	a5,20(s0)
	beq	a5,zero,.L271
	.loc 1 1817 13 is_stmt 1
.LVL289:
	.loc 1 1817 31 is_stmt 0
	sbia	s6,(a0),1,0
.LVL290:
.L271:
	.loc 1 1819 9 is_stmt 1
	.loc 1 1819 25 is_stmt 0
	sb	zero,0(a0)
	.loc 1 1820 9 is_stmt 1
	.loc 1 1820 31 is_stmt 0
	lw	a5,8(s0)
	.loc 1 1822 22
	lw	s1,0(s1)
.LVL291:
	.loc 1 1820 31
	add	s2,a5,s2
.LVL292:
	sw	s2,8(s0)
	.loc 1 1822 9 is_stmt 1
.LVL293:
	j	.L264
.LVL294:
.L267:
.LBB123:
	.loc 1 1771 17
	.loc 1 1771 35 is_stmt 0
	srb	s3,a0,a5,0
	.loc 1 1769 51 is_stmt 1
	.loc 1 1769 52 is_stmt 0
	addi	a5,a5,1
.LVL295:
	j	.L266
.LVL296:
.L276:
.LBE123:
.LBB124:
	.loc 1 1835 13 is_stmt 1
	.loc 1 1835 31 is_stmt 0
	srb	a2,a0,a5,0
	.loc 1 1833 53 is_stmt 1
	.loc 1 1833 54 is_stmt 0
	addi	a5,a5,1
.LVL297:
.L274:
	.loc 1 1833 47
	lw	a4,12(s0)
	add	a3,a0,a5
.LVL298:
	.loc 1 1833 21 is_stmt 1
	.loc 1 1833 47 is_stmt 0
	addi	a4,a4,-1
	.loc 1 1833 9
	bltu	a5,a4,.L276
	mv	a0,a3
	j	.L275
.LVL299:
.L281:
	.loc 1 1833 16
	li	a5,0
	.loc 1 1835 31
	li	a2,9
	j	.L274
.LBE124:
.LBE126:
.LBE137:
.LBE142:
.LBE147:
	.cfi_endproc
.LFE38:
	.size	print_value, .-print_value
	.section	.text.print.constprop.0,"ax",@progbits
	.align	1
	.type	print.constprop.0, @function
print.constprop.0:
.LFB126:
	.loc 1 1196 23 is_stmt 1
	.cfi_startproc
.LVL300:
	.loc 1 1198 5
	.loc 1 1199 5
	.loc 1 1200 5
	.loc 1 1202 5
	.loc 1 1196 23 is_stmt 0
	addi	sp,sp,-80
	.cfi_def_cfa_offset 80
	.loc 1 1202 5
	li	a2,36
	.loc 1 1196 23
	sw	s0,72(sp)
	sw	s1,68(sp)
	.cfi_offset 8, -8
	.cfi_offset 9, -12
	.loc 1 1205 44
	lui	s0,%hi(.LANCHOR0)
	.loc 1 1196 23
	mv	s1,a1
	sw	s4,56(sp)
	.loc 1 1202 5
	li	a1,0
.LVL301:
	.cfi_offset 20, -24
	.loc 1 1196 23
	mv	s4,a0
	.loc 1 1202 5
	addi	a0,sp,12
.LVL302:
	.loc 1 1196 23
	sw	ra,76(sp)
	sw	s2,64(sp)
	sw	s3,60(sp)
	.cfi_offset 1, -4
	.cfi_offset 18, -16
	.cfi_offset 19, -20
	.loc 1 1205 44
	addi	s2,s0,%lo(.LANCHOR0)
	.loc 1 1202 5
	call	memset
.LVL303:
	.loc 1 1205 5 is_stmt 1
	.loc 1 1205 39 is_stmt 0
	lw	a5,0(s2)
	li	a0,256
	jalr	a5
.LVL304:
	.loc 1 1205 20
	sw	a0,12(sp)
	.loc 1 1206 5 is_stmt 1
	.loc 1 1206 20 is_stmt 0
	li	a5,256
	.loc 1 1205 39
	mv	s3,a0
	.loc 1 1208 19
	li	a2,12
	addi	a1,s0,%lo(.LANCHOR0)
	addi	a0,sp,36
	.loc 1 1207 20
	sw	s1,32(sp)
	.loc 1 1206 20
	sw	a5,16(sp)
	.loc 1 1207 5 is_stmt 1
	.loc 1 1208 5
	addi	s1,s0,%lo(.LANCHOR0)
.LVL305:
	.loc 1 1208 19 is_stmt 0
	call	memcpy
.LVL306:
	.loc 1 1209 5 is_stmt 1
	.loc 1 1209 8 is_stmt 0
	beq	s3,zero,.L366
	.loc 1 1215 5 is_stmt 1
	.loc 1 1215 10 is_stmt 0
	addi	a1,sp,12
	mv	a0,s4
	call	print_value
.LVL307:
	.loc 1 1215 8
	beq	a0,zero,.L366
	.loc 1 1219 5 is_stmt 1
	addi	a0,sp,12
	call	update_offset
.LVL308:
	.loc 1 1222 5
	.loc 1 1222 14 is_stmt 0
	lw	a5,8(s1)
	lw	a1,20(sp)
	.loc 1 1222 8
	beq	a5,zero,.L367
	.loc 1 1224 9 is_stmt 1
	.loc 1 1224 36 is_stmt 0
	lw	a0,12(sp)
	addi	a1,a1,1
	jalr	a5
.LVL309:
	mv	s0,a0
.LVL310:
	.loc 1 1225 9 is_stmt 1
	.loc 1 1225 12 is_stmt 0
	bne	a0,zero,.L365
.LVL311:
.L366:
.LDL1:
	.loc 1 1248 5 is_stmt 1
	.loc 1 1248 15 is_stmt 0
	lw	s0,12(sp)
	.loc 1 1248 8
	beq	s0,zero,.L365
	.loc 1 1250 9 is_stmt 1
	lw	a5,4(s1)
	mv	a0,s0
	.loc 1 1260 11 is_stmt 0
	li	s0,0
	.loc 1 1250 9
	jalr	a5
.LVL312:
	.loc 1 1251 9 is_stmt 1
	j	.L365
.LVL313:
.L367:
	.loc 1 1232 9
	.loc 1 1232 36 is_stmt 0
	lw	a5,0(s2)
	addi	a0,a1,1
	jalr	a5
.LVL314:
	mv	s0,a0
.LVL315:
	.loc 1 1233 9 is_stmt 1
	.loc 1 1233 12 is_stmt 0
	beq	a0,zero,.L366
	.loc 1 1237 9 is_stmt 1
	.loc 1 1237 78 is_stmt 0
	lw	a2,20(sp)
	.loc 1 1237 9
	lw	a5,16(sp)
	lw	a1,12(sp)
	.loc 1 1237 78
	addi	a2,a2,1
	.loc 1 1237 9
	sgtu	a4,a2,a5
	mvnez	a2, a5, a4
	call	memcpy
.LVL316:
	.loc 1 1238 9 is_stmt 1
	.loc 1 1238 33 is_stmt 0
	lw	a5,20(sp)
	srb	zero,s0,a5,0
	.loc 1 1241 9 is_stmt 1
	lw	a5,4(s2)
	lw	a0,12(sp)
	jalr	a5
.LVL317:
	.loc 1 1242 9
.L365:
	.loc 1 1261 1 is_stmt 0
	lw	ra,76(sp)
	.cfi_restore 1
	mv	a0,s0
	lw	s0,72(sp)
	.cfi_restore 8
	lw	s1,68(sp)
	.cfi_restore 9
	lw	s2,64(sp)
	.cfi_restore 18
	lw	s3,60(sp)
	.cfi_restore 19
	lw	s4,56(sp)
	.cfi_restore 20
.LVL318:
	addi	sp,sp,80
	.cfi_def_cfa_offset 0
	jr	ra
	.cfi_endproc
.LFE126:
	.size	print.constprop.0, .-print.constprop.0
	.section	.text.cJSON_New_Item.isra.0,"ax",@progbits
	.align	1
	.type	cJSON_New_Item.isra.0, @function
cJSON_New_Item.isra.0:
.LFB121:
	.loc 1 241 15 is_stmt 1
	.cfi_startproc
.LVL319:
	.loc 1 243 5
	.loc 1 241 15 is_stmt 0
	addi	sp,sp,-16
	.cfi_def_cfa_offset 16
	mv	a5,a0
	.loc 1 243 27
	li	a0,40
	.loc 1 241 15
	sw	s0,8(sp)
	sw	ra,12(sp)
	.cfi_offset 8, -8
	.cfi_offset 1, -4
	.loc 1 243 27
	jalr	a5
.LVL320:
	mv	s0,a0
.LVL321:
	.loc 1 244 5 is_stmt 1
	.loc 1 244 8 is_stmt 0
	beq	a0,zero,.L386
	.loc 1 246 9 is_stmt 1
	li	a2,40
	li	a1,0
	call	memset
.LVL322:
	.loc 1 249 5
.L386:
	.loc 1 250 1 is_stmt 0
	lw	ra,12(sp)
	.cfi_restore 1
	mv	a0,s0
	lw	s0,8(sp)
	.cfi_restore 8
.LVL323:
	addi	sp,sp,16
	.cfi_def_cfa_offset 0
	jr	ra
	.cfi_endproc
.LFE121:
	.size	cJSON_New_Item.isra.0, .-cJSON_New_Item.isra.0
	.section	.text.create_reference.constprop.0,"ax",@progbits
	.align	1
	.type	create_reference.constprop.0, @function
create_reference.constprop.0:
.LFB127:
	.loc 1 1953 15 is_stmt 1
	.cfi_startproc
.LVL324:
	.loc 1 1955 5
	.loc 1 1956 5
	.loc 1 1953 15 is_stmt 0
	addi	sp,sp,-32
	.cfi_def_cfa_offset 32
	sw	s0,24(sp)
	sw	ra,28(sp)
	.cfi_offset 8, -8
	.cfi_offset 1, -4
	.loc 1 1958 15
	li	s0,0
	.loc 1 1956 8
	beq	a0,zero,.L392
	.loc 1 1961 17
	lui	a5,%hi(.LANCHOR0)
	sw	a0,12(sp)
	.loc 1 1961 5 is_stmt 1
	.loc 1 1961 17 is_stmt 0
	lw	a0,%lo(.LANCHOR0)(a5)
.LVL325:
	call	cJSON_New_Item.isra.0
.LVL326:
	mv	s0,a0
.LVL327:
	.loc 1 1962 5 is_stmt 1
	.loc 1 1962 8 is_stmt 0
	beq	a0,zero,.L392
	.loc 1 1967 5 is_stmt 1
	lw	a1,12(sp)
	li	a2,40
	call	memcpy
.LVL328:
	.loc 1 1968 5
	.loc 1 1969 21 is_stmt 0
	lw	a5,12(s0)
	.loc 1 1968 23
	sw	zero,32(s0)
	.loc 1 1969 5 is_stmt 1
	.loc 1 1970 39 is_stmt 0
	sw	zero,4(s0)
	.loc 1 1969 21
	ori	a5,a5,256
	sw	a5,12(s0)
	.loc 1 1970 5 is_stmt 1
	.loc 1 1970 21 is_stmt 0
	sw	zero,0(s0)
	.loc 1 1971 5 is_stmt 1
.LVL329:
.L392:
	.loc 1 1972 1 is_stmt 0
	lw	ra,28(sp)
	.cfi_restore 1
	mv	a0,s0
	lw	s0,24(sp)
	.cfi_restore 8
	addi	sp,sp,32
	.cfi_def_cfa_offset 0
	jr	ra
	.cfi_endproc
.LFE127:
	.size	create_reference.constprop.0, .-create_reference.constprop.0
	.section	.text.cJSON_GetErrorPtr,"ax",@progbits
	.align	1
	.globl	cJSON_GetErrorPtr
	.type	cJSON_GetErrorPtr, @function
cJSON_GetErrorPtr:
.LFB4:
	.loc 1 95 1 is_stmt 1
	.cfi_startproc
	.loc 1 96 5
	.loc 1 96 39 is_stmt 0
	lui	a5,%hi(.LANCHOR1)
	addi	a5,a5,%lo(.LANCHOR1)
	.loc 1 96 12
	lw	a0,0(a5)
	lw	a5,4(a5)
	.loc 1 97 1
	add	a0,a0,a5
	ret
	.cfi_endproc
.LFE4:
	.size	cJSON_GetErrorPtr, .-cJSON_GetErrorPtr
	.section	.rodata.cJSON_Version.str1.4,"aMS",@progbits,1
	.align	2
.LC11:
	.string	"%i.%i.%i"
	.section	.text.cJSON_Version,"ax",@progbits
	.align	1
	.globl	cJSON_Version
	.type	cJSON_Version, @function
cJSON_Version:
.LFB7:
	.loc 1 125 1 is_stmt 1
	.cfi_startproc
	.loc 1 126 5
	.loc 1 127 5
	.loc 1 125 1 is_stmt 0
	addi	sp,sp,-16
	.cfi_def_cfa_offset 16
	sw	s0,8(sp)
	.loc 1 127 5
	lui	a1,%hi(.LC11)
	.cfi_offset 8, -8
	lui	s0,%hi(.LANCHOR2)
	addi	a0,s0,%lo(.LANCHOR2)
	li	a4,18
	li	a3,7
	li	a2,1
	addi	a1,a1,%lo(.LC11)
	.loc 1 125 1
	sw	ra,12(sp)
	.cfi_offset 1, -4
	.loc 1 127 5
	call	sprintf
.LVL330:
	.loc 1 129 5 is_stmt 1
	.loc 1 130 1 is_stmt 0
	lw	ra,12(sp)
	.cfi_restore 1
	addi	a0,s0,%lo(.LANCHOR2)
	lw	s0,8(sp)
	.cfi_restore 8
	addi	sp,sp,16
	.cfi_def_cfa_offset 0
	jr	ra
	.cfi_endproc
.LFE7:
	.size	cJSON_Version, .-cJSON_Version
	.section	.text.cJSON_InitHooks,"ax",@progbits
	.align	1
	.globl	cJSON_InitHooks
	.type	cJSON_InitHooks, @function
cJSON_InitHooks:
.LFB10:
	.loc 1 210 1 is_stmt 1
	.cfi_startproc
.LVL331:
	.loc 1 211 5
	lui	a5,%hi(.LANCHOR0)
	lui	a3,%hi(malloc)
	lui	a4,%hi(free)
	addi	a5,a5,%lo(.LANCHOR0)
	addi	a3,a3,%lo(malloc)
	addi	a4,a4,%lo(free)
	.loc 1 211 8 is_stmt 0
	bne	a0,zero,.L403
	.loc 1 214 9 is_stmt 1
	.loc 1 214 31 is_stmt 0
	sw	a3,0(a5)
	.loc 1 215 9 is_stmt 1
	.loc 1 215 33 is_stmt 0
	sw	a4,4(a5)
	.loc 1 216 9 is_stmt 1
.LVL332:
.L411:
	.loc 1 236 9
	.loc 1 236 33 is_stmt 0
	lui	a4,%hi(realloc)
	addi	a4,a4,%lo(realloc)
	sw	a4,8(a5)
	j	.L402
.LVL333:
.L403:
	.loc 1 220 5 is_stmt 1
	.loc 1 221 5
	.loc 1 221 14 is_stmt 0
	lw	a2,0(a0)
	.loc 1 227 14
	lw	a0,4(a0)
.LVL334:
	.loc 1 233 29
	sw	zero,8(a5)
	.loc 1 223 31
	mveqz	a2, a3, a2
	mv	a1,a2
	sw	a2,0(a5)
	.loc 1 226 5 is_stmt 1
	.loc 1 227 5
	.loc 1 229 33 is_stmt 0
	mv	a2,a0
	mveqz	a2, a4, a0
	sw	a2,4(a5)
	.loc 1 233 5 is_stmt 1
	.loc 1 234 5
	.loc 1 234 8 is_stmt 0
	bne	a1,a3,.L402
	.loc 1 234 43 discriminator 1
	beq	a2,a4,.L411
.L402:
	.loc 1 238 1
	ret
	.cfi_endproc
.LFE10:
	.size	cJSON_InitHooks, .-cJSON_InitHooks
	.section	.text.cJSON_Delete,"ax",@progbits
	.align	1
	.globl	cJSON_Delete
	.type	cJSON_Delete, @function
cJSON_Delete:
.LFB12:
	.loc 1 254 1 is_stmt 1
	.cfi_startproc
.LVL335:
	.loc 1 255 5
	.loc 1 256 5
	.loc 1 254 1 is_stmt 0
	addi	sp,sp,-16
	.cfi_def_cfa_offset 16
	sw	s1,4(sp)
	.cfi_offset 9, -12
	lui	s1,%hi(.LANCHOR0)
	sw	s0,8(sp)
	sw	ra,12(sp)
	sw	s2,0(sp)
	.cfi_offset 8, -8
	.cfi_offset 1, -4
	.cfi_offset 18, -16
	.loc 1 254 1
	mv	s0,a0
	addi	s1,s1,%lo(.LANCHOR0)
.LVL336:
.L413:
	.loc 1 256 11 is_stmt 1
	bne	s0,zero,.L421
	.loc 1 276 1 is_stmt 0
	lw	ra,12(sp)
	.cfi_remember_state
	.cfi_restore 1
	lw	s0,8(sp)
	.cfi_restore 8
.LVL337:
	lw	s1,4(sp)
	.cfi_restore 9
	lw	s2,0(sp)
	.cfi_restore 18
	addi	sp,sp,16
	.cfi_def_cfa_offset 0
	jr	ra
.LVL338:
.L421:
	.cfi_restore_state
	.loc 1 258 9 is_stmt 1
	.loc 1 259 26 is_stmt 0
	lw	a5,12(s0)
	.loc 1 258 14
	lw	s2,0(s0)
.LVL339:
	.loc 1 259 9 is_stmt 1
	.loc 1 259 26 is_stmt 0
	andi	a5,a5,256
	.loc 1 259 12
	bne	a5,zero,.L415
	.loc 1 259 41 discriminator 1
	lw	a0,8(s0)
	.loc 1 259 33 discriminator 1
	bne	a0,zero,.L416
.L419:
	.loc 1 263 41
	lw	a0,16(s0)
	.loc 1 263 33
	bne	a0,zero,.L417
.L415:
	.loc 1 268 9 is_stmt 1
	.loc 1 268 26 is_stmt 0
	lw	a5,12(s0)
	andi	a5,a5,512
	.loc 1 268 12
	bne	a5,zero,.L420
	.loc 1 268 41 discriminator 1
	lw	a0,32(s0)
	.loc 1 268 33 discriminator 1
	beq	a0,zero,.L420
	.loc 1 270 13 is_stmt 1
	lw	a5,4(s1)
	jalr	a5
.LVL340:
	.loc 1 271 13
	.loc 1 271 26 is_stmt 0
	sw	zero,32(s0)
.L420:
	.loc 1 273 9 is_stmt 1
	lw	a5,4(s1)
	mv	a0,s0
	.loc 1 274 14 is_stmt 0
	mv	s0,s2
.LVL341:
	.loc 1 273 9
	jalr	a5
.LVL342:
	.loc 1 274 9 is_stmt 1
	j	.L413
.L416:
	.loc 1 261 13
	call	cJSON_Delete
.LVL343:
	.loc 1 263 9
	.loc 1 263 26 is_stmt 0
	lw	a5,12(s0)
	andi	a5,a5,256
	.loc 1 263 12
	beq	a5,zero,.L419
	j	.L415
.L417:
	.loc 1 265 13 is_stmt 1
	lw	a5,4(s1)
	jalr	a5
.LVL344:
	.loc 1 266 13
	.loc 1 266 31 is_stmt 0
	sw	zero,16(s0)
	j	.L415
	.cfi_endproc
.LFE12:
	.size	cJSON_Delete, .-cJSON_Delete
	.globl	__gedf2
	.globl	__fixdfsi
	.section	.text.parse_value,"ax",@progbits
	.align	1
	.type	parse_value, @function
parse_value:
.LFB37:
	.loc 1 1326 1 is_stmt 1
	.cfi_startproc
.LVL345:
	.loc 1 1327 5
	.loc 1 1327 8 is_stmt 0
	bne	a1,zero,.L430
.L514:
	.loc 1 1329 16
	li	a0,0
.LVL346:
	.loc 1 1377 1
	ret
.LVL347:
.L430:
	.loc 1 1327 47 discriminator 1
	lw	a4,0(a1)
	.loc 1 1327 31 discriminator 1
	beq	a4,zero,.L514
	.loc 1 1326 1 discriminator 1
	addi	sp,sp,-112
	.cfi_def_cfa_offset 112
	sw	s1,100(sp)
	.cfi_offset 9, -12
	mv	s1,a0
	.loc 1 1334 5 is_stmt 1 discriminator 1
	.loc 1 1334 29 is_stmt 0 discriminator 1
	lw	a0,8(a1)
.LVL348:
	.loc 1 1334 10 discriminator 1
	lw	a3,4(a1)
	.loc 1 1326 1 discriminator 1
	sw	s0,104(sp)
	sw	ra,108(sp)
	sw	s2,96(sp)
	sw	s3,92(sp)
	sw	s4,88(sp)
	sw	s5,84(sp)
	sw	s6,80(sp)
	.cfi_offset 8, -8
	.cfi_offset 1, -4
	.cfi_offset 18, -16
	.cfi_offset 19, -20
	.cfi_offset 20, -24
	.cfi_offset 21, -28
	.cfi_offset 22, -32
	.loc 1 1334 38 discriminator 1
	addi	a2,a0,4
	mv	s0,a1
	.loc 1 1334 10 discriminator 1
	bgtu	a2,a3,.L433
.LVL349:
	.loc 1 1334 75 discriminator 2
	lui	a1,%hi(.LC3)
	li	a2,4
	addi	a1,a1,%lo(.LC3)
	add	a0,a4,a0
	call	strncmp
.LVL350:
	.loc 1 1334 71 discriminator 2
	bne	a0,zero,.L433
	.loc 1 1336 9 is_stmt 1
	.loc 1 1336 20 is_stmt 0
	li	a5,4
	sw	a5,12(s1)
	.loc 1 1337 9 is_stmt 1
.L522:
	.loc 1 1352 9
	.loc 1 1352 30 is_stmt 0
	lw	a5,8(s0)
	addi	a5,a5,4
	j	.L521
.L433:
	.loc 1 1341 5 is_stmt 1
	.loc 1 1341 29 is_stmt 0
	lw	a5,8(s0)
	.loc 1 1341 10
	lw	a4,4(s0)
	.loc 1 1341 38
	addi	a3,a5,5
	.loc 1 1341 10
	bgtu	a3,a4,.L434
	.loc 1 1341 121 discriminator 2
	lw	a0,0(s0)
	.loc 1 1341 75 discriminator 2
	lui	a1,%hi(.LC4)
	li	a2,5
	addi	a1,a1,%lo(.LC4)
	add	a0,a0,a5
	call	strncmp
.LVL351:
	.loc 1 1341 71 discriminator 2
	bne	a0,zero,.L434
	.loc 1 1343 9 is_stmt 1
	.loc 1 1343 20 is_stmt 0
	li	a5,1
	sw	a5,12(s1)
	.loc 1 1344 9 is_stmt 1
	.loc 1 1344 30 is_stmt 0
	lw	a5,8(s0)
	addi	a5,a5,5
.L521:
.LBB156:
.LBB157:
	.loc 1 1719 25
	sw	a5,8(s0)
	j	.L520
.L434:
.LBE157:
.LBE156:
	.loc 1 1348 5 is_stmt 1
	.loc 1 1348 29 is_stmt 0
	lw	a5,8(s0)
	.loc 1 1348 10
	lw	a4,4(s0)
	.loc 1 1348 38
	addi	a3,a5,4
	.loc 1 1348 10
	bgtu	a3,a4,.L435
	.loc 1 1348 121 discriminator 2
	lw	a0,0(s0)
	.loc 1 1348 75 discriminator 2
	lui	a1,%hi(.LC5)
	li	a2,4
	addi	a1,a1,%lo(.LC5)
	add	a0,a0,a5
	call	strncmp
.LVL352:
	.loc 1 1348 71 discriminator 2
	bne	a0,zero,.L435
	.loc 1 1350 9 is_stmt 1
	.loc 1 1350 20 is_stmt 0
	li	a5,2
	sw	a5,12(s1)
	.loc 1 1351 9 is_stmt 1
	.loc 1 1351 24 is_stmt 0
	li	a5,1
	sw	a5,20(s1)
	j	.L522
.L435:
	.loc 1 1356 5 is_stmt 1
	.loc 1 1356 38 is_stmt 0
	lw	a5,8(s0)
	.loc 1 1356 59
	lw	a2,4(s0)
	.loc 1 1356 10
	bgeu	a5,a2,.L518
	.loc 1 1356 89 discriminator 2
	lw	a3,0(s0)
	.loc 1 1356 70 discriminator 2
	li	a1,34
	.loc 1 1356 124 discriminator 2
	lrbu	a4,a3,a5,0
	add	a0,a3,a5
	.loc 1 1356 70 discriminator 2
	bne	a4,a1,.L436
	.loc 1 1358 9 is_stmt 1
	.loc 1 1358 16 is_stmt 0
	mv	a1,s0
	.loc 1 1377 1
	lw	s0,104(sp)
	.cfi_remember_state
	.cfi_restore 8
.LVL353:
	lw	ra,108(sp)
	.cfi_restore 1
	lw	s2,96(sp)
	.cfi_restore 18
	lw	s3,92(sp)
	.cfi_restore 19
	lw	s4,88(sp)
	.cfi_restore 20
	lw	s5,84(sp)
	.cfi_restore 21
	lw	s6,80(sp)
	.cfi_restore 22
	.loc 1 1358 16
	mv	a0,s1
	.loc 1 1377 1
	lw	s1,100(sp)
	.cfi_restore 9
.LVL354:
	addi	sp,sp,112
	.cfi_def_cfa_offset 0
	.loc 1 1358 16
	tail	parse_string
.LVL355:
.L436:
	.cfi_restore_state
	.loc 1 1361 5 is_stmt 1 discriminator 2
	.loc 1 1361 70 is_stmt 0 discriminator 2
	li	a1,45
	beq	a4,a1,.L437
	.loc 1 1361 204 discriminator 3
	addi	a1,a4,-48
	.loc 1 1361 137 discriminator 3
	andi	a1,a1,0xff
	li	a6,9
	bgtu	a1,a6,.L438
.L437:
	.loc 1 1363 9 is_stmt 1
.LVL356:
.LBB164:
.LBB165:
	.loc 1 309 5
	.loc 1 310 5
	.loc 1 310 20 is_stmt 0
	sw	zero,12(sp)
	.loc 1 311 5 is_stmt 1
	.loc 1 312 5
.LBE165:
.LBE164:
	.loc 1 285 5
.LVL357:
.LBB168:
.LBB166:
	.loc 1 313 5
	.loc 1 315 5
	.loc 1 315 31 is_stmt 0
	beq	a3,zero,.L518
	.loc 1 325 9
	li	a1,67141632
	sub	a5,a2,a5
	.loc 1 323 12
	li	a4,0
	.loc 1 325 9
	li	a6,69
	addi	s2,sp,16
	li	a7,101
	li	t1,42
	li	t3,1
	addi	a1,a1,-27
	.loc 1 345 36
	li	t4,46
	.loc 1 323 5
	li	t5,63
.LVL358:
.L440:
	.loc 1 325 9 is_stmt 1
	.loc 1 325 67 is_stmt 0
	lrbu	a2,a0,a4,0
	.loc 1 325 9
	bgtu	a2,a6,.L442
	bleu	a2,t1,.L443
	addi	a3,a2,-43
	sll	a3,t3,a3
	and	t6,a3,a1
	bne	t6,zero,.L444
	andi	a3,a3,8
	beq	a3,zero,.L443
	.loc 1 345 17 is_stmt 1
	.loc 1 345 36 is_stmt 0
	srb	t4,s2,a4,0
	.loc 1 346 17 is_stmt 1
	j	.L446
.L442:
	.loc 1 325 9 is_stmt 0
	bne	a2,a7,.L443
.L444:
	.loc 1 341 17 is_stmt 1
	.loc 1 341 36 is_stmt 0
	srb	a2,s2,a4,0
	.loc 1 342 17 is_stmt 1
.L446:
	.loc 1 323 118
	.loc 1 323 119 is_stmt 0
	addi	a4,a4,1
.LVL359:
	.loc 1 323 17 is_stmt 1
	.loc 1 323 5 is_stmt 0
	beq	a4,t5,.L443
	.loc 1 323 57
	bne	a4,a5,.L440
.L443:
	.loc 1 353 5 is_stmt 1
	.loc 1 353 24 is_stmt 0
	srb	zero,s2,a4,0
	.loc 1 355 5 is_stmt 1
	.loc 1 355 14 is_stmt 0
	addi	a1,sp,12
	mv	a0,s2
	call	strtod
.LVL360:
	.loc 1 356 25
	lw	s3,12(sp)
	.loc 1 355 14
	mv	s4,a0
	mv	s5,a1
.LVL361:
	.loc 1 356 5 is_stmt 1
	.loc 1 356 8 is_stmt 0
	beq	s3,s2,.L518
	.loc 1 361 5 is_stmt 1
	.loc 1 364 8 is_stmt 0
	lui	a5,%hi(.LC12)
	lw	a2,%lo(.LC12)(a5)
	lw	a3,%lo(.LC12+4)(a5)
	.loc 1 361 23
	sw	a0,24(s1)
	sw	a1,28(s1)
	.loc 1 364 5 is_stmt 1
	.loc 1 364 8 is_stmt 0
	call	__gedf2
.LVL362:
	blt	a0,zero,.L507
	.loc 1 366 9 is_stmt 1
	.loc 1 366 24 is_stmt 0
	li	a5,-2147483648
	xori	a5,a5,-1
.L517:
	.loc 1 370 24
	sw	a5,20(s1)
.L449:
	.loc 1 377 5 is_stmt 1
	.loc 1 379 48 is_stmt 0
	sub	s2,s3,s2
	.loc 1 379 26
	lw	s3,8(s0)
	.loc 1 377 16
	li	a5,8
	sw	a5,12(s1)
	.loc 1 379 5 is_stmt 1
	.loc 1 379 26 is_stmt 0
	add	s2,s3,s2
	sw	s2,8(s0)
	.loc 1 380 5 is_stmt 1
.LVL363:
.L520:
.LBE166:
.LBE168:
.LBB169:
.LBB161:
	.loc 1 1720 5
	.loc 1 1720 12 is_stmt 0
	li	a0,1
.L429:
.LBE161:
.LBE169:
	.loc 1 1377 1
	lw	ra,108(sp)
	.cfi_remember_state
	.cfi_restore 1
	lw	s0,104(sp)
	.cfi_restore 8
.LVL364:
	lw	s1,100(sp)
	.cfi_restore 9
.LVL365:
	lw	s2,96(sp)
	.cfi_restore 18
	lw	s3,92(sp)
	.cfi_restore 19
	lw	s4,88(sp)
	.cfi_restore 20
	lw	s5,84(sp)
	.cfi_restore 21
	lw	s6,80(sp)
	.cfi_restore 22
	addi	sp,sp,112
	.cfi_def_cfa_offset 0
	jr	ra
.LVL366:
.L507:
	.cfi_restore_state
.LBB170:
.LBB167:
	.loc 1 368 10 is_stmt 1
	.loc 1 368 13 is_stmt 0
	lui	a5,%hi(.LC13)
	lw	a2,%lo(.LC13)(a5)
	lw	a3,%lo(.LC13+4)(a5)
	mv	a0,s4
	mv	a1,s5
	call	__ledf2
.LVL367:
	bgt	a0,zero,.L508
	.loc 1 370 9 is_stmt 1
	.loc 1 370 24 is_stmt 0
	li	a5,-2147483648
	j	.L517
.L508:
	.loc 1 374 9 is_stmt 1
	.loc 1 374 26 is_stmt 0
	mv	a0,s4
	mv	a1,s5
	call	__fixdfsi
.LVL368:
	sw	a0,20(s1)
	j	.L449
.LVL369:
.L438:
.LBE167:
.LBE170:
	.loc 1 1366 5 is_stmt 1 discriminator 2
	.loc 1 1366 70 is_stmt 0 discriminator 2
	li	a2,91
	bne	a4,a2,.L452
	.loc 1 1368 9 is_stmt 1
.LVL370:
.LBB171:
.LBB172:
	.loc 1 1456 5
	.loc 1 1457 5
	.loc 1 1459 5
	.loc 1 1459 21 is_stmt 0
	lw	a2,12(s0)
	.loc 1 1459 8
	li	a1,999
	bgtu	a2,a1,.L518
	.loc 1 1463 5 is_stmt 1
	.loc 1 1463 24 is_stmt 0
	addi	a2,a2,1
	sw	a2,12(s0)
	.loc 1 1465 5 is_stmt 1
	.loc 1 1465 8 is_stmt 0
	lrbu	a3,a3,a5,0
	bne	a3,a4,.L518
	.loc 1 1471 5 is_stmt 1
	.loc 1 1471 25 is_stmt 0
	addi	a5,a5,1
	sw	a5,8(s0)
	.loc 1 1472 5 is_stmt 1
	mv	a0,s0
	call	buffer_skip_whitespace
.LVL371:
	.loc 1 1473 5
	.loc 1 1473 38 is_stmt 0
	lw	a5,8(s0)
	.loc 1 1473 10
	lw	a4,4(s0)
	bgeu	a5,a4,.L462
	.loc 1 1473 124
	lw	a4,0(s0)
	.loc 1 1473 70
	lrbu	a3,a4,a5,0
	li	a4,93
	bne	a3,a4,.L509
	.loc 1 1457 12
	li	s2,0
	.loc 1 1456 12
	li	s3,0
.LVL372:
.L454:
	.loc 1 1529 5 is_stmt 1
	.loc 1 1529 24 is_stmt 0
	lw	a5,12(s0)
	addi	a5,a5,-1
	sw	a5,12(s0)
	.loc 1 1531 5 is_stmt 1
	.loc 1 1531 8 is_stmt 0
	beq	s3,zero,.L461
	.loc 1 1532 9 is_stmt 1
	.loc 1 1532 20 is_stmt 0
	sw	s2,4(s3)
.L461:
.LVL373:
	.loc 1 1535 5 is_stmt 1
	.loc 1 1535 16 is_stmt 0
	li	a5,32
.LVL374:
.L519:
.LBE172:
.LBE171:
.LBB176:
.LBB162:
	.loc 1 1716 16
	sw	a5,12(s1)
	.loc 1 1717 5 is_stmt 1
	.loc 1 1719 25 is_stmt 0
	lw	a5,8(s0)
	.loc 1 1717 17
	sw	s3,8(s1)
	.loc 1 1719 5 is_stmt 1
	.loc 1 1719 25 is_stmt 0
	addi	a5,a5,1
	j	.L521
.LVL375:
.L509:
.LBE162:
.LBE176:
.LBB177:
.LBB175:
	.loc 1 1480 5 is_stmt 1
	.loc 1 1487 5
	.loc 1 1487 25 is_stmt 0
	addi	a5,a5,-1
	sw	a5,8(s0)
	.loc 1 1457 12
	li	s2,0
	.loc 1 1456 12
	li	s3,0
	.loc 1 1521 73
	li	s5,44
.LVL376:
.L459:
	.loc 1 1489 5 is_stmt 1
.LBB173:
	.loc 1 1492 9
	.loc 1 1492 27 is_stmt 0
	lw	a0,16(s0)
	mv	s4,s2
	call	cJSON_New_Item.isra.0
.LVL377:
	mv	s2,a0
.LVL378:
	.loc 1 1493 9 is_stmt 1
	.loc 1 1493 12 is_stmt 0
	beq	a0,zero,.L465
	.loc 1 1499 9 is_stmt 1
	.loc 1 1499 12 is_stmt 0
	beq	s3,zero,.L472
	.loc 1 1507 13 is_stmt 1
	.loc 1 1507 32 is_stmt 0
	sw	a0,0(s4)
	.loc 1 1508 13 is_stmt 1
	.loc 1 1508 28 is_stmt 0
	sw	s4,4(a0)
	.loc 1 1509 13 is_stmt 1
.LVL379:
.L457:
	.loc 1 1513 9
	.loc 1 1513 29 is_stmt 0
	lw	a5,8(s0)
	.loc 1 1514 9
	mv	a0,s0
.LVL380:
	.loc 1 1513 29
	addi	a5,a5,1
	sw	a5,8(s0)
	.loc 1 1514 9 is_stmt 1
	call	buffer_skip_whitespace
.LVL381:
	.loc 1 1515 9
	.loc 1 1515 14 is_stmt 0
	mv	a1,s0
	mv	a0,s2
	call	parse_value
.LVL382:
	.loc 1 1515 12
	beq	a0,zero,.L467
	.loc 1 1519 9 is_stmt 1
	mv	a0,s0
	call	buffer_skip_whitespace
.LVL383:
.LBE173:
	.loc 1 1521 11
	.loc 1 1521 41 is_stmt 0
	lw	a5,8(s0)
	.loc 1 1521 13
	lw	a4,4(s0)
	bgeu	a5,a4,.L467
	.loc 1 1521 127
	lw	a4,0(s0)
	lrbu	a5,a4,a5,0
	.loc 1 1521 73
	beq	a5,s5,.L459
	.loc 1 1523 5 is_stmt 1
	.loc 1 1523 71 is_stmt 0
	li	a4,93
	bne	a5,a4,.L467
	j	.L454
.LVL384:
.L472:
.LBB174:
	mv	s3,a0
.LVL385:
	j	.L457
.L456:
.LVL386:
.L452:
.LBE174:
.LBE175:
.LBE177:
	.loc 1 1371 5 is_stmt 1 discriminator 2
	.loc 1 1371 70 is_stmt 0 discriminator 2
	li	a2,123
	bne	a4,a2,.L518
	.loc 1 1373 9 is_stmt 1
.LVL387:
.LBB178:
.LBB163:
	.loc 1 1616 5
	.loc 1 1617 5
	.loc 1 1619 5
	.loc 1 1619 21 is_stmt 0
	lw	a2,12(s0)
	.loc 1 1619 8
	li	a1,999
	bgtu	a2,a1,.L518
	.loc 1 1623 5 is_stmt 1
	.loc 1 1623 24 is_stmt 0
	addi	a2,a2,1
	sw	a2,12(s0)
	.loc 1 1625 5 is_stmt 1
	.loc 1 1625 71 is_stmt 0
	lrbu	a3,a3,a5,0
	bne	a3,a4,.L518
	.loc 1 1630 5 is_stmt 1
	.loc 1 1630 25 is_stmt 0
	addi	a5,a5,1
	sw	a5,8(s0)
	.loc 1 1631 5 is_stmt 1
	mv	a0,s0
	call	buffer_skip_whitespace
.LVL388:
	.loc 1 1632 5
	.loc 1 1632 38 is_stmt 0
	lw	a5,8(s0)
	.loc 1 1632 10
	lw	a4,4(s0)
	bgeu	a5,a4,.L462
	.loc 1 1632 124
	lw	a4,0(s0)
	.loc 1 1632 70
	lrbu	a3,a4,a5,0
	li	a4,125
	bne	a3,a4,.L511
	.loc 1 1617 12
	li	s2,0
	.loc 1 1616 12
	li	s3,0
.LVL389:
.L463:
	.loc 1 1710 5 is_stmt 1
	.loc 1 1710 24 is_stmt 0
	lw	a5,12(s0)
	addi	a5,a5,-1
	sw	a5,12(s0)
	.loc 1 1712 5 is_stmt 1
	.loc 1 1712 8 is_stmt 0
	beq	s3,zero,.L470
	.loc 1 1713 9 is_stmt 1
	.loc 1 1713 20 is_stmt 0
	sw	s2,4(s3)
.L470:
.LVL390:
	.loc 1 1716 5 is_stmt 1
	.loc 1 1716 16 is_stmt 0
	li	a5,64
	j	.L519
.LVL391:
.L462:
	.loc 1 1638 5 is_stmt 1
	.loc 1 1640 9
	.loc 1 1640 29 is_stmt 0
	addi	a5,a5,-1
	sw	a5,8(s0)
	.loc 1 1641 9 is_stmt 1
.LVL392:
	.loc 1 1723 5
.L518:
	.loc 1 1728 12 is_stmt 0
	li	a0,0
	j	.L429
.LVL393:
.L511:
	.loc 1 1638 5 is_stmt 1
	.loc 1 1645 5
	.loc 1 1645 25 is_stmt 0
	addi	a5,a5,-1
	sw	a5,8(s0)
	.loc 1 1617 12
	li	s2,0
	.loc 1 1616 12
	li	s3,0
.LBB158:
	.loc 1 1688 75
	li	s5,58
.LBE158:
	.loc 1 1702 73
	li	s4,44
.LVL394:
.L468:
	.loc 1 1647 5 is_stmt 1
.LBB159:
	.loc 1 1650 9
	.loc 1 1650 27 is_stmt 0
	lw	a0,16(s0)
	mv	s6,s2
	call	cJSON_New_Item.isra.0
.LVL395:
	mv	s2,a0
.LVL396:
	.loc 1 1651 9 is_stmt 1
	.loc 1 1651 12 is_stmt 0
	beq	a0,zero,.L465
	.loc 1 1657 9 is_stmt 1
	.loc 1 1657 12 is_stmt 0
	beq	s3,zero,.L474
	.loc 1 1665 13 is_stmt 1
	.loc 1 1665 32 is_stmt 0
	sw	a0,0(s6)
	.loc 1 1666 13 is_stmt 1
	.loc 1 1666 28 is_stmt 0
	sw	s6,4(a0)
	.loc 1 1667 13 is_stmt 1
.LVL397:
.L466:
	.loc 1 1670 9
	.loc 1 1670 42 is_stmt 0
	lw	a5,8(s0)
	.loc 1 1670 14
	lw	a4,4(s0)
	.loc 1 1670 42
	addi	a5,a5,1
	.loc 1 1670 14
	bgeu	a5,a4,.L467
	.loc 1 1676 9 is_stmt 1
	.loc 1 1676 29 is_stmt 0
	sw	a5,8(s0)
	.loc 1 1677 9 is_stmt 1
	mv	a0,s0
.LVL398:
	call	buffer_skip_whitespace
.LVL399:
	.loc 1 1678 9
	.loc 1 1678 14 is_stmt 0
	mv	a1,s0
	mv	a0,s2
	call	parse_string
.LVL400:
	.loc 1 1678 12
	beq	a0,zero,.L467
	.loc 1 1682 9 is_stmt 1
	mv	a0,s0
	call	buffer_skip_whitespace
.LVL401:
	.loc 1 1685 9
	.loc 1 1685 30 is_stmt 0
	lw	a5,16(s2)
	.loc 1 1688 14
	lw	a4,4(s0)
	.loc 1 1686 35
	sw	zero,16(s2)
	.loc 1 1685 30
	sw	a5,32(s2)
	.loc 1 1686 9 is_stmt 1
	.loc 1 1688 9
	.loc 1 1688 42 is_stmt 0
	lw	a5,8(s0)
	.loc 1 1688 14
	bgeu	a5,a4,.L467
	.loc 1 1688 129
	lw	a4,0(s0)
	.loc 1 1688 75
	lrbu	a4,a4,a5,0
	bne	a4,s5,.L467
	.loc 1 1694 9 is_stmt 1
	.loc 1 1694 29 is_stmt 0
	addi	a5,a5,1
	sw	a5,8(s0)
	.loc 1 1695 9 is_stmt 1
	mv	a0,s0
	call	buffer_skip_whitespace
.LVL402:
	.loc 1 1696 9
	.loc 1 1696 14 is_stmt 0
	mv	a1,s0
	mv	a0,s2
	call	parse_value
.LVL403:
	.loc 1 1696 12
	beq	a0,zero,.L467
	.loc 1 1700 9 is_stmt 1
	mv	a0,s0
	call	buffer_skip_whitespace
.LVL404:
.LBE159:
	.loc 1 1702 11
	.loc 1 1702 41 is_stmt 0
	lw	a5,8(s0)
	.loc 1 1702 13
	lw	a4,4(s0)
	bgeu	a5,a4,.L467
	.loc 1 1702 127
	lw	a4,0(s0)
	lrbu	a5,a4,a5,0
	.loc 1 1702 73
	beq	a5,s4,.L468
	.loc 1 1704 5 is_stmt 1
	.loc 1 1704 71 is_stmt 0
	li	a4,125
	bne	a5,a4,.L467
	j	.L463
.LVL405:
.L474:
.LBB160:
	mv	s3,a0
.LVL406:
	j	.L466
.LVL407:
.L465:
.LBE160:
	.loc 1 1723 5 is_stmt 1
	.loc 1 1723 8 is_stmt 0
	beq	s3,zero,.L518
.LVL408:
.L467:
	.loc 1 1725 9 is_stmt 1
	mv	a0,s3
	call	cJSON_Delete
.LVL409:
	j	.L518
.LBE163:
.LBE178:
	.cfi_endproc
.LFE37:
	.size	parse_value, .-parse_value
	.section	.text.cJSON_SetNumberHelper,"ax",@progbits
	.align	1
	.globl	cJSON_SetNumberHelper
	.type	cJSON_SetNumberHelper, @function
cJSON_SetNumberHelper:
.LFB15:
	.loc 1 385 1
	.cfi_startproc
.LVL410:
	.loc 1 386 5
	.loc 1 385 1 is_stmt 0
	addi	sp,sp,-16
	.cfi_def_cfa_offset 16
	.loc 1 386 8
	lui	a5,%hi(.LC12)
	.loc 1 385 1
	sw	s1,4(sp)
	.loc 1 386 8
	lw	a3,%lo(.LC12+4)(a5)
	.cfi_offset 9, -12
	.loc 1 385 1
	mv	s1,a2
	.loc 1 386 8
	lw	a2,%lo(.LC12)(a5)
	.loc 1 385 1
	sw	s0,8(sp)
	sw	s2,0(sp)
	.cfi_offset 8, -8
	.cfi_offset 18, -16
	mv	s0,a1
	mv	s2,a0
	.loc 1 386 8
	mv	a0,a1
.LVL411:
	mv	a1,s1
.LVL412:
	.loc 1 385 1
	sw	ra,12(sp)
	.cfi_offset 1, -4
	.loc 1 386 8
	call	__gedf2
.LVL413:
	blt	a0,zero,.L532
	.loc 1 388 9 is_stmt 1
	.loc 1 388 26 is_stmt 0
	li	a5,-2147483648
	xori	a5,a5,-1
.L535:
	.loc 1 392 26
	sw	a5,20(s2)
.L527:
	.loc 1 399 5 is_stmt 1
	.loc 1 399 32 is_stmt 0
	sw	s0,24(s2)
	.loc 1 400 1
	lw	ra,12(sp)
	.cfi_remember_state
	.cfi_restore 1
	mv	a0,s0
	lw	s0,8(sp)
	.cfi_restore 8
	.loc 1 399 32
	sw	s1,28(s2)
	.loc 1 400 1
	mv	a1,s1
	lw	s2,0(sp)
	.cfi_restore 18
.LVL414:
	lw	s1,4(sp)
	.cfi_restore 9
	addi	sp,sp,16
	.cfi_def_cfa_offset 0
	jr	ra
.LVL415:
.L532:
	.cfi_restore_state
	.loc 1 390 10 is_stmt 1
	.loc 1 390 13 is_stmt 0
	lui	a5,%hi(.LC13)
	lw	a2,%lo(.LC13)(a5)
	lw	a3,%lo(.LC13+4)(a5)
	mv	a0,s0
	mv	a1,s1
	call	__ledf2
.LVL416:
	bgt	a0,zero,.L533
	.loc 1 392 9 is_stmt 1
	.loc 1 392 26 is_stmt 0
	li	a5,-2147483648
	j	.L535
.L533:
	.loc 1 396 9 is_stmt 1
	.loc 1 396 28 is_stmt 0
	mv	a0,s0
	mv	a1,s1
	call	__fixdfsi
.LVL417:
	sw	a0,20(s2)
	j	.L527
	.cfi_endproc
.LFE15:
	.size	cJSON_SetNumberHelper, .-cJSON_SetNumberHelper
	.section	.rodata.cJSON_ParseWithLengthOpts.str1.4,"aMS",@progbits,1
	.align	2
.LC14:
	.string	"\357\273\277"
	.section	.text.cJSON_ParseWithLengthOpts,"ax",@progbits
	.align	1
	.globl	cJSON_ParseWithLengthOpts
	.type	cJSON_ParseWithLengthOpts, @function
cJSON_ParseWithLengthOpts:
.LFB29:
	.loc 1 1105 1 is_stmt 1
	.cfi_startproc
.LVL418:
	.loc 1 1106 5
	.loc 1 1105 1 is_stmt 0
	addi	sp,sp,-64
	.cfi_def_cfa_offset 64
	sw	s0,56(sp)
	sw	s2,48(sp)
	sw	s3,44(sp)
	.cfi_offset 8, -8
	.cfi_offset 18, -16
	.cfi_offset 19, -20
	mv	s2,a0
	mv	s0,a1
	mv	s3,a2
	.loc 1 1106 18
	li	a1,0
.LVL419:
	li	a2,28
.LVL420:
	addi	a0,sp,4
.LVL421:
	.loc 1 1105 1
	sw	s1,52(sp)
	sw	s4,40(sp)
	sw	ra,60(sp)
	.cfi_offset 9, -12
	.cfi_offset 20, -24
	.cfi_offset 1, -4
	.loc 1 1105 1
	mv	s4,a3
	.loc 1 1110 23
	lui	s1,%hi(.LANCHOR1)
	.loc 1 1106 18
	call	memset
.LVL422:
	.loc 1 1107 5 is_stmt 1
	.loc 1 1110 5
	.loc 1 1110 23 is_stmt 0
	addi	a5,s1,%lo(.LANCHOR1)
	sw	zero,0(a5)
	.loc 1 1111 5 is_stmt 1
	.loc 1 1111 27 is_stmt 0
	sw	zero,4(a5)
	.loc 1 1113 5 is_stmt 1
	.loc 1 1113 8 is_stmt 0
	beq	s2,zero,.L550
	addi	s1,s1,%lo(.LANCHOR1)
	.loc 1 1113 22 discriminator 1
	beq	s0,zero,.L549
	.loc 1 1118 5 is_stmt 1
	.loc 1 1121 18 is_stmt 0
	lui	a1,%hi(.LANCHOR0)
	.loc 1 1119 19
	sw	s0,8(sp)
	.loc 1 1121 18
	li	a2,12
	addi	s0,a1,%lo(.LANCHOR0)
.LVL423:
	addi	a0,sp,20
	addi	a1,a1,%lo(.LANCHOR0)
	.loc 1 1118 20
	sw	s2,4(sp)
	.loc 1 1119 5 is_stmt 1
	.loc 1 1120 5
	.loc 1 1121 5
	.loc 1 1121 18 is_stmt 0
	call	memcpy
.LVL424:
	.loc 1 1123 5 is_stmt 1
	.loc 1 1123 12 is_stmt 0
	lw	a0,0(s0)
	call	cJSON_New_Item.isra.0
.LVL425:
	mv	s0,a0
.LVL426:
	.loc 1 1124 5 is_stmt 1
	.loc 1 1124 8 is_stmt 0
	beq	a0,zero,.L549
	.loc 1 1129 5 is_stmt 1
.LVL427:
.LBB182:
.LBB183:
	.loc 1 1075 5
	.loc 1 1075 35 is_stmt 0
	lw	a0,4(sp)
	.loc 1 1075 25
	beq	a0,zero,.L539
	.loc 1 1075 54
	lw	a5,12(sp)
	bne	a5,zero,.L551
	.loc 1 1080 5 is_stmt 1
	.loc 1 1080 10 is_stmt 0
	lw	a4,8(sp)
	li	a5,4
	bgtu	a4,a5,.L540
.L573:
	.loc 1 1085 12
	addi	a0,sp,4
.LVL428:
.L539:
.LBE183:
.LBE182:
	.loc 1 1129 10
	call	buffer_skip_whitespace
.LVL429:
	mv	a1,a0
	mv	a0,s0
	call	parse_value
.LVL430:
	.loc 1 1129 8
	beq	a0,zero,.L542
	.loc 1 1136 5 is_stmt 1
	.loc 1 1136 8 is_stmt 0
	bne	s4,zero,.L543
.L545:
	.loc 1 1144 5 is_stmt 1
	.loc 1 1144 8 is_stmt 0
	bne	s3,zero,.L544
.LVL431:
.L536:
	.loc 1 1181 1
	lw	ra,60(sp)
	.cfi_remember_state
	.cfi_restore 1
	mv	a0,s0
	lw	s0,56(sp)
	.cfi_restore 8
	lw	s1,52(sp)
	.cfi_restore 9
	lw	s2,48(sp)
	.cfi_restore 18
.LVL432:
	lw	s3,44(sp)
	.cfi_restore 19
.LVL433:
	lw	s4,40(sp)
	.cfi_restore 20
.LVL434:
	addi	sp,sp,64
	.cfi_def_cfa_offset 0
	jr	ra
.LVL435:
.L540:
	.cfi_restore_state
.LBB185:
.LBB184:
	.loc 1 1080 62
	lui	a1,%hi(.LC14)
	li	a2,3
	addi	a1,a1,%lo(.LC14)
	call	strncmp
.LVL436:
	.loc 1 1080 58
	bne	a0,zero,.L573
	.loc 1 1082 9 is_stmt 1
	.loc 1 1082 24 is_stmt 0
	lw	a5,12(sp)
	addi	a5,a5,3
	sw	a5,12(sp)
	j	.L573
.L551:
	.loc 1 1077 15
	li	a0,0
	j	.L539
.LVL437:
.L543:
.LBE184:
.LBE185:
	.loc 1 1138 9 is_stmt 1
	addi	a0,sp,4
	call	buffer_skip_whitespace
.LVL438:
	.loc 1 1139 9
	.loc 1 1139 20 is_stmt 0
	lw	a5,12(sp)
	.loc 1 1139 12
	lw	a4,8(sp)
	bgeu	a5,a4,.L542
	.loc 1 1139 89 discriminator 1
	lw	a4,4(sp)
	.loc 1 1139 46 discriminator 1
	lrbu	a5,a4,a5,0
	beq	a5,zero,.L545
.L542:
	.loc 1 1152 5 is_stmt 1
	.loc 1 1154 9
	mv	a0,s0
	call	cJSON_Delete
.LVL439:
.L549:
	.loc 1 1157 5
.LBB186:
	.loc 1 1159 9
	.loc 1 1160 9
	.loc 1 1161 9
	.loc 1 1163 9
	.loc 1 1163 19 is_stmt 0
	lw	a4,12(sp)
	.loc 1 1163 35
	lw	a5,8(sp)
	.loc 1 1163 12
	bltu	a4,a5,.L552
	.loc 1 1167 14 is_stmt 1
	.loc 1 1167 17 is_stmt 0
	beq	a5,zero,.L546
	.loc 1 1169 13 is_stmt 1
	.loc 1 1169 50 is_stmt 0
	addi	a5,a5,-1
.LVL440:
.L546:
	.loc 1 1172 9 is_stmt 1
	.loc 1 1172 12 is_stmt 0
	beq	s3,zero,.L547
	.loc 1 1174 13 is_stmt 1
	.loc 1 1174 63 is_stmt 0
	add	a4,s2,a5
	.loc 1 1174 31
	sw	a4,0(s3)
.L547:
	.loc 1 1177 9 is_stmt 1
	.loc 1 1177 22 is_stmt 0
	sw	s2,0(s1)
	sw	a5,4(s1)
.LVL441:
.L550:
.LBE186:
	.loc 1 1180 11
	li	s0,0
	j	.L536
.LVL442:
.L544:
	.loc 1 1146 9 is_stmt 1
	.loc 1 1146 62 is_stmt 0
	lw	a5,4(sp)
	lw	a4,12(sp)
	add	a5,a5,a4
	.loc 1 1146 27
	sw	a5,0(s3)
	j	.L536
.LVL443:
.L552:
.LBB187:
	mv	a5,a4
	j	.L546
.LBE187:
	.cfi_endproc
.LFE29:
	.size	cJSON_ParseWithLengthOpts, .-cJSON_ParseWithLengthOpts
	.section	.text.cJSON_ParseWithOpts,"ax",@progbits
	.align	1
	.globl	cJSON_ParseWithOpts
	.type	cJSON_ParseWithOpts, @function
cJSON_ParseWithOpts:
.LFB28:
	.loc 1 1089 1 is_stmt 1
	.cfi_startproc
.LVL444:
	.loc 1 1090 5
	.loc 1 1092 5
	.loc 1 1092 8 is_stmt 0
	beq	a0,zero,.L575
	.loc 1 1089 1
	addi	sp,sp,-32
	.cfi_def_cfa_offset 32
	sw	s0,24(sp)
	sw	s1,20(sp)
	sw	ra,28(sp)
	.cfi_offset 8, -8
	.cfi_offset 9, -12
	.cfi_offset 1, -4
	mv	s1,a1
	.loc 1 1098 5 is_stmt 1
	mv	s0,a0
	sw	a2,12(sp)
	.loc 1 1098 21 is_stmt 0
	call	strlen
.LVL445:
	.loc 1 1100 5 is_stmt 1
	.loc 1 1100 12 is_stmt 0
	addi	a1,a0,1
.LVL446:
	mv	a0,s0
	.loc 1 1101 1
	lw	s0,24(sp)
	.cfi_restore 8
.LVL447:
	.loc 1 1100 12
	lw	a3,12(sp)
	.loc 1 1101 1
	lw	ra,28(sp)
	.cfi_restore 1
	.loc 1 1100 12
	mv	a2,s1
	.loc 1 1101 1
	lw	s1,20(sp)
	.cfi_restore 9
.LVL448:
	addi	sp,sp,32
	.cfi_def_cfa_offset 0
.LVL449:
	.loc 1 1100 12
	tail	cJSON_ParseWithLengthOpts
.LVL450:
.L575:
	.loc 1 1101 1
	ret
	.cfi_endproc
.LFE28:
	.size	cJSON_ParseWithOpts, .-cJSON_ParseWithOpts
	.section	.text.cJSON_Parse,"ax",@progbits
	.align	1
	.globl	cJSON_Parse
	.type	cJSON_Parse, @function
cJSON_Parse:
.LFB30:
	.loc 1 1185 1 is_stmt 1
	.cfi_startproc
.LVL451:
	.loc 1 1186 5
	.loc 1 1186 12 is_stmt 0
	li	a2,0
	li	a1,0
	tail	cJSON_ParseWithOpts
.LVL452:
	.cfi_endproc
.LFE30:
	.size	cJSON_Parse, .-cJSON_Parse
	.section	.text.cJSON_ParseWithLength,"ax",@progbits
	.align	1
	.globl	cJSON_ParseWithLength
	.type	cJSON_ParseWithLength, @function
cJSON_ParseWithLength:
.LFB31:
	.loc 1 1190 1 is_stmt 1
	.cfi_startproc
.LVL453:
	.loc 1 1191 5
	.loc 1 1191 12 is_stmt 0
	li	a3,0
	li	a2,0
	tail	cJSON_ParseWithLengthOpts
.LVL454:
	.cfi_endproc
.LFE31:
	.size	cJSON_ParseWithLength, .-cJSON_ParseWithLength
	.section	.text.cJSON_Print,"ax",@progbits
	.align	1
	.globl	cJSON_Print
	.type	cJSON_Print, @function
cJSON_Print:
.LFB33:
	.loc 1 1265 1 is_stmt 1
	.cfi_startproc
.LVL455:
	.loc 1 1266 5
	.loc 1 1266 19 is_stmt 0
	li	a1,1
	tail	print.constprop.0
.LVL456:
	.cfi_endproc
.LFE33:
	.size	cJSON_Print, .-cJSON_Print
	.section	.text.cJSON_PrintUnformatted,"ax",@progbits
	.align	1
	.globl	cJSON_PrintUnformatted
	.type	cJSON_PrintUnformatted, @function
cJSON_PrintUnformatted:
.LFB34:
	.loc 1 1270 1 is_stmt 1
	.cfi_startproc
.LVL457:
	.loc 1 1271 5
	.loc 1 1271 19 is_stmt 0
	li	a1,0
	tail	print.constprop.0
.LVL458:
	.cfi_endproc
.LFE34:
	.size	cJSON_PrintUnformatted, .-cJSON_PrintUnformatted
	.section	.text.cJSON_PrintBuffered,"ax",@progbits
	.align	1
	.globl	cJSON_PrintBuffered
	.type	cJSON_PrintBuffered, @function
cJSON_PrintBuffered:
.LFB35:
	.loc 1 1275 1 is_stmt 1
	.cfi_startproc
.LVL459:
	.loc 1 1276 5
	.loc 1 1275 1 is_stmt 0
	addi	sp,sp,-80
	.cfi_def_cfa_offset 80
	sw	s0,72(sp)
	sw	s3,60(sp)
	sw	s4,56(sp)
	.cfi_offset 8, -8
	.cfi_offset 19, -20
	.cfi_offset 20, -24
	mv	s0,a1
	mv	s3,a0
	mv	s4,a2
	.loc 1 1276 17
	li	a1,0
.LVL460:
	li	a2,36
.LVL461:
	addi	a0,sp,12
.LVL462:
	.loc 1 1275 1
	sw	ra,76(sp)
	sw	s1,68(sp)
	sw	s2,64(sp)
	.cfi_offset 1, -4
	.cfi_offset 9, -12
	.cfi_offset 18, -16
	.loc 1 1276 17
	call	memset
.LVL463:
	.loc 1 1278 5 is_stmt 1
	.loc 1 1278 8 is_stmt 0
	bge	s0,zero,.L584
.L592:
	.loc 1 1298 9 is_stmt 1
	.loc 1 1299 9
	.loc 1 1299 15 is_stmt 0
	li	a0,0
.L583:
	.loc 1 1303 1
	lw	ra,76(sp)
	.cfi_remember_state
	.cfi_restore 1
	lw	s0,72(sp)
	.cfi_restore 8
.LVL464:
	lw	s1,68(sp)
	.cfi_restore 9
	lw	s2,64(sp)
	.cfi_restore 18
	lw	s3,60(sp)
	.cfi_restore 19
.LVL465:
	lw	s4,56(sp)
	.cfi_restore 20
.LVL466:
	addi	sp,sp,80
	.cfi_def_cfa_offset 0
	jr	ra
.LVL467:
.L584:
	.cfi_restore_state
	.loc 1 1283 5 is_stmt 1
	.loc 1 1283 44 is_stmt 0
	lui	s2,%hi(.LANCHOR0)
	addi	s1,s2,%lo(.LANCHOR0)
	.loc 1 1283 32
	lw	a5,0(s1)
	mv	a0,s0
	jalr	a5
.LVL468:
	.loc 1 1283 14
	sw	a0,12(sp)
	.loc 1 1284 5 is_stmt 1
	.loc 1 1284 8 is_stmt 0
	beq	a0,zero,.L592
	.loc 1 1289 5 is_stmt 1
	.loc 1 1293 13 is_stmt 0
	li	a2,12
	addi	a1,s2,%lo(.LANCHOR0)
	addi	a0,sp,36
	.loc 1 1289 14
	sw	s0,16(sp)
	.loc 1 1290 5 is_stmt 1
	.loc 1 1290 14 is_stmt 0
	sw	zero,20(sp)
	.loc 1 1291 5 is_stmt 1
	.loc 1 1291 15 is_stmt 0
	sw	zero,28(sp)
	.loc 1 1292 5 is_stmt 1
	.loc 1 1292 14 is_stmt 0
	sw	s4,32(sp)
	.loc 1 1293 5 is_stmt 1
	.loc 1 1293 13 is_stmt 0
	call	memcpy
.LVL469:
	.loc 1 1295 5 is_stmt 1
	.loc 1 1295 10 is_stmt 0
	addi	a1,sp,12
	mv	a0,s3
	call	print_value
.LVL470:
	mv	a5,a0
	lw	a0,12(sp)
	.loc 1 1295 8
	bne	a5,zero,.L583
	.loc 1 1297 9 is_stmt 1
	lw	a5,4(s1)
	jalr	a5
.LVL471:
	j	.L592
	.cfi_endproc
.LFE35:
	.size	cJSON_PrintBuffered, .-cJSON_PrintBuffered
	.section	.text.cJSON_PrintPreallocated,"ax",@progbits
	.align	1
	.globl	cJSON_PrintPreallocated
	.type	cJSON_PrintPreallocated, @function
cJSON_PrintPreallocated:
.LFB36:
	.loc 1 1306 1
	.cfi_startproc
.LVL472:
	.loc 1 1307 5
	.loc 1 1306 1 is_stmt 0
	addi	sp,sp,-80
	.cfi_def_cfa_offset 80
	sw	s0,72(sp)
	sw	s1,68(sp)
	sw	s2,64(sp)
	.cfi_offset 8, -8
	.cfi_offset 9, -12
	.cfi_offset 18, -16
	mv	s1,a1
	mv	s2,a0
	mv	s0,a2
	.loc 1 1307 17
	li	a1,0
.LVL473:
	li	a2,36
.LVL474:
	addi	a0,sp,28
.LVL475:
	.loc 1 1306 1
	sw	ra,76(sp)
	.cfi_offset 1, -4
	.loc 1 1306 1
	sw	a3,12(sp)
	.loc 1 1307 17
	call	memset
.LVL476:
	.loc 1 1309 5 is_stmt 1
	.loc 1 1311 16 is_stmt 0
	li	a0,0
	.loc 1 1309 8
	blt	s0,zero,.L593
	.loc 1 1309 22 discriminator 1
	beq	s1,zero,.L593
	.loc 1 1314 5 is_stmt 1
	.loc 1 1318 14 is_stmt 0
	lw	a3,12(sp)
	.loc 1 1319 13
	lui	a1,%hi(.LANCHOR0)
	.loc 1 1317 15
	li	a5,1
	.loc 1 1319 13
	addi	a1,a1,%lo(.LANCHOR0)
	li	a2,12
	addi	a0,sp,52
	.loc 1 1314 14
	sw	s1,28(sp)
	.loc 1 1315 5 is_stmt 1
	.loc 1 1315 14 is_stmt 0
	sw	s0,32(sp)
	.loc 1 1316 5 is_stmt 1
	.loc 1 1317 5
	.loc 1 1317 15 is_stmt 0
	sw	a5,44(sp)
	.loc 1 1318 5 is_stmt 1
	.loc 1 1318 14 is_stmt 0
	sw	a3,48(sp)
	.loc 1 1319 5 is_stmt 1
	.loc 1 1319 13 is_stmt 0
	call	memcpy
.LVL477:
	.loc 1 1321 5 is_stmt 1
	.loc 1 1321 12 is_stmt 0
	addi	a1,sp,28
	mv	a0,s2
	call	print_value
.LVL478:
.L593:
	.loc 1 1322 1
	lw	ra,76(sp)
	.cfi_restore 1
	lw	s0,72(sp)
	.cfi_restore 8
.LVL479:
	lw	s1,68(sp)
	.cfi_restore 9
.LVL480:
	lw	s2,64(sp)
	.cfi_restore 18
.LVL481:
	addi	sp,sp,80
	.cfi_def_cfa_offset 0
.LVL482:
	jr	ra
	.cfi_endproc
.LFE36:
	.size	cJSON_PrintPreallocated, .-cJSON_PrintPreallocated
	.section	.text.cJSON_GetArraySize,"ax",@progbits
	.align	1
	.globl	cJSON_GetArraySize
	.type	cJSON_GetArraySize, @function
cJSON_GetArraySize:
.LFB43:
	.loc 1 1847 1 is_stmt 1
	.cfi_startproc
.LVL483:
	.loc 1 1848 5
	.loc 1 1849 5
	.loc 1 1851 5
	.loc 1 1851 8 is_stmt 0
	beq	a0,zero,.L602
	.loc 1 1856 5 is_stmt 1
	.loc 1 1856 11 is_stmt 0
	lw	a5,8(a0)
.LVL484:
	.loc 1 1858 5 is_stmt 1
	.loc 1 1849 12 is_stmt 0
	li	a0,0
.LVL485:
.L600:
	.loc 1 1858 10 is_stmt 1
	bne	a5,zero,.L601
	.loc 1 1866 5
	.loc 1 1866 12 is_stmt 0
	ret
.L601:
	.loc 1 1860 9 is_stmt 1
	.loc 1 1861 15 is_stmt 0
	lw	a5,0(a5)
.LVL486:
	.loc 1 1860 13
	addi	a0,a0,1
.LVL487:
	.loc 1 1861 9 is_stmt 1
	j	.L600
.LVL488:
.L602:
	.loc 1 1853 16 is_stmt 0
	li	a0,0
.LVL489:
	.loc 1 1867 1
	ret
	.cfi_endproc
.LFE43:
	.size	cJSON_GetArraySize, .-cJSON_GetArraySize
	.section	.text.cJSON_GetArrayItem,"ax",@progbits
	.align	1
	.globl	cJSON_GetArrayItem
	.type	cJSON_GetArrayItem, @function
cJSON_GetArrayItem:
.LFB45:
	.loc 1 1889 1 is_stmt 1
	.cfi_startproc
.LVL490:
	.loc 1 1890 5
	.loc 1 1890 8 is_stmt 0
	blt	a1,zero,.L604
	.loc 1 1895 5 is_stmt 1
	.loc 1 1895 12 is_stmt 0
	tail	get_array_item
.LVL491:
.L604:
	.loc 1 1896 1
	li	a0,0
.LVL492:
	ret
	.cfi_endproc
.LFE45:
	.size	cJSON_GetArrayItem, .-cJSON_GetArrayItem
	.section	.text.cJSON_GetObjectItem,"ax",@progbits
	.align	1
	.globl	cJSON_GetObjectItem
	.type	cJSON_GetObjectItem, @function
cJSON_GetObjectItem:
.LFB47:
	.loc 1 1931 1 is_stmt 1
	.cfi_startproc
.LVL493:
	.loc 1 1932 5
	.loc 1 1932 12 is_stmt 0
	li	a2,0
	tail	get_object_item
.LVL494:
	.cfi_endproc
.LFE47:
	.size	cJSON_GetObjectItem, .-cJSON_GetObjectItem
	.section	.text.cJSON_GetObjectItemCaseSensitive,"ax",@progbits
	.align	1
	.globl	cJSON_GetObjectItemCaseSensitive
	.type	cJSON_GetObjectItemCaseSensitive, @function
cJSON_GetObjectItemCaseSensitive:
.LFB48:
	.loc 1 1936 1 is_stmt 1
	.cfi_startproc
.LVL495:
	.loc 1 1937 5
	.loc 1 1937 12 is_stmt 0
	li	a2,1
	tail	get_object_item
.LVL496:
	.cfi_endproc
.LFE48:
	.size	cJSON_GetObjectItemCaseSensitive, .-cJSON_GetObjectItemCaseSensitive
	.section	.text.cJSON_HasObjectItem,"ax",@progbits
	.align	1
	.globl	cJSON_HasObjectItem
	.type	cJSON_HasObjectItem, @function
cJSON_HasObjectItem:
.LFB49:
	.loc 1 1941 1 is_stmt 1
	.cfi_startproc
.LVL497:
	.loc 1 1942 5
	.loc 1 1941 1 is_stmt 0
	addi	sp,sp,-16
	.cfi_def_cfa_offset 16
	sw	ra,12(sp)
	.cfi_offset 1, -4
	.loc 1 1942 12
	call	cJSON_GetObjectItem
.LVL498:
	.loc 1 1943 1
	lw	ra,12(sp)
	.cfi_restore 1
	snez	a0,a0
	addi	sp,sp,16
	.cfi_def_cfa_offset 0
	jr	ra
	.cfi_endproc
.LFE49:
	.size	cJSON_HasObjectItem, .-cJSON_HasObjectItem
	.section	.text.cJSON_AddItemToArray,"ax",@progbits
	.align	1
	.globl	cJSON_AddItemToArray
	.type	cJSON_AddItemToArray, @function
cJSON_AddItemToArray:
.LFB53:
	.loc 1 2009 1 is_stmt 1
	.cfi_startproc
.LVL499:
	.loc 1 2010 5
	.loc 1 2010 12 is_stmt 0
	tail	add_item_to_array
.LVL500:
	.cfi_endproc
.LFE53:
	.size	cJSON_AddItemToArray, .-cJSON_AddItemToArray
	.section	.text.cJSON_AddItemToObject,"ax",@progbits
	.align	1
	.globl	cJSON_AddItemToObject
	.type	cJSON_AddItemToObject, @function
cJSON_AddItemToObject:
.LFB56:
	.loc 1 2067 1 is_stmt 1
	.cfi_startproc
.LVL501:
	.loc 1 2068 5
	.loc 1 2068 12 is_stmt 0
	li	a3,0
	tail	add_item_to_object.constprop.0
.LVL502:
	.cfi_endproc
.LFE56:
	.size	cJSON_AddItemToObject, .-cJSON_AddItemToObject
	.section	.text.cJSON_AddItemToObjectCS,"ax",@progbits
	.align	1
	.globl	cJSON_AddItemToObjectCS
	.type	cJSON_AddItemToObjectCS, @function
cJSON_AddItemToObjectCS:
.LFB57:
	.loc 1 2073 1 is_stmt 1
	.cfi_startproc
.LVL503:
	.loc 1 2074 5
	.loc 1 2074 12 is_stmt 0
	li	a3,1
	tail	add_item_to_object.constprop.0
.LVL504:
	.cfi_endproc
.LFE57:
	.size	cJSON_AddItemToObjectCS, .-cJSON_AddItemToObjectCS
	.section	.text.cJSON_AddItemReferenceToArray,"ax",@progbits
	.align	1
	.globl	cJSON_AddItemReferenceToArray
	.type	cJSON_AddItemReferenceToArray, @function
cJSON_AddItemReferenceToArray:
.LFB58:
	.loc 1 2078 1 is_stmt 1
	.cfi_startproc
.LVL505:
	.loc 1 2079 5
	.loc 1 2079 8 is_stmt 0
	beq	a0,zero,.L613
	.loc 1 2078 1
	addi	sp,sp,-16
	.cfi_def_cfa_offset 16
	sw	s0,8(sp)
	.cfi_offset 8, -8
	mv	s0,a0
	mv	a0,a1
.LVL506:
	.loc 1 2084 5 is_stmt 1
	.loc 1 2078 1 is_stmt 0
	sw	ra,12(sp)
	.cfi_offset 1, -4
	.loc 1 2084 12
	call	create_reference.constprop.0
.LVL507:
	mv	a1,a0
	mv	a0,s0
	.loc 1 2085 1
	lw	s0,8(sp)
	.cfi_restore 8
.LVL508:
	lw	ra,12(sp)
	.cfi_restore 1
	addi	sp,sp,16
	.cfi_def_cfa_offset 0
	.loc 1 2084 12
	tail	add_item_to_array
.LVL509:
.L613:
	.loc 1 2085 1
	ret
	.cfi_endproc
.LFE58:
	.size	cJSON_AddItemReferenceToArray, .-cJSON_AddItemReferenceToArray
	.section	.text.cJSON_AddItemReferenceToObject,"ax",@progbits
	.align	1
	.globl	cJSON_AddItemReferenceToObject
	.type	cJSON_AddItemReferenceToObject, @function
cJSON_AddItemReferenceToObject:
.LFB59:
	.loc 1 2088 1 is_stmt 1
	.cfi_startproc
.LVL510:
	.loc 1 2089 5
	.loc 1 2089 8 is_stmt 0
	beq	a0,zero,.L617
	.loc 1 2089 25 discriminator 1
	beq	a1,zero,.L617
	.loc 1 2088 1
	addi	sp,sp,-32
	.cfi_def_cfa_offset 32
	sw	s0,24(sp)
	.cfi_offset 8, -8
	mv	s0,a0
	.loc 1 2094 5 is_stmt 1
	.loc 1 2094 12 is_stmt 0
	mv	a0,a2
.LVL511:
	.loc 1 2088 1
	sw	ra,28(sp)
	.cfi_offset 1, -4
	sw	a1,12(sp)
	.loc 1 2094 12
	call	create_reference.constprop.0
.LVL512:
	mv	a2,a0
	mv	a0,s0
	.loc 1 2095 1
	lw	s0,24(sp)
	.cfi_restore 8
.LVL513:
	.loc 1 2094 12
	lw	a1,12(sp)
	.loc 1 2095 1
	lw	ra,28(sp)
	.cfi_restore 1
	.loc 1 2094 12
	li	a3,0
	.loc 1 2095 1
	addi	sp,sp,32
	.cfi_def_cfa_offset 0
.LVL514:
	.loc 1 2094 12
	tail	add_item_to_object.constprop.0
.LVL515:
.L617:
	.loc 1 2095 1
	li	a0,0
.LVL516:
	ret
	.cfi_endproc
.LFE59:
	.size	cJSON_AddItemReferenceToObject, .-cJSON_AddItemReferenceToObject
	.section	.text.cJSON_DetachItemViaPointer,"ax",@progbits
	.align	1
	.globl	cJSON_DetachItemViaPointer
	.type	cJSON_DetachItemViaPointer, @function
cJSON_DetachItemViaPointer:
.LFB69:
	.loc 1 2206 1 is_stmt 1
	.cfi_startproc
.LVL517:
	.loc 1 2207 5
	.loc 1 2207 8 is_stmt 0
	beq	a0,zero,.L633
	.loc 1 2207 25 discriminator 1
	beq	a1,zero,.L635
	.loc 1 2212 5 is_stmt 1
	.loc 1 2212 23 is_stmt 0
	lw	a5,8(a0)
	.loc 1 2212 8
	beq	a5,a1,.L628
	.loc 1 2215 32
	lw	a3,0(a1)
	.loc 1 2215 9 is_stmt 1
	.loc 1 2215 26 is_stmt 0
	lw	a4,4(a1)
	sw	a3,0(a4)
.L628:
	.loc 1 2217 5 is_stmt 1
	.loc 1 2217 13 is_stmt 0
	lw	a4,0(a1)
	.loc 1 2217 8
	beq	a4,zero,.L629
	.loc 1 2220 9 is_stmt 1
	.loc 1 2220 32 is_stmt 0
	lw	a3,4(a1)
	.loc 1 2220 26
	sw	a3,4(a4)
	.loc 1 2223 5 is_stmt 1
	.loc 1 2223 8 is_stmt 0
	bne	a5,a1,.L630
.L631:
	.loc 1 2226 9 is_stmt 1
	.loc 1 2226 23 is_stmt 0
	sw	a4,8(a0)
.L630:
	.loc 1 2235 5 is_stmt 1
	.loc 1 2235 16 is_stmt 0
	sw	zero,4(a1)
	.loc 1 2236 5 is_stmt 1
	.loc 1 2236 16 is_stmt 0
	sw	zero,0(a1)
	.loc 1 2238 5 is_stmt 1
.LVL518:
.L635:
	.loc 1 2239 1 is_stmt 0
	mv	a0,a1
.LVL519:
	ret
.LVL520:
.L633:
	.loc 1 2209 15
	li	a1,0
.LVL521:
	j	.L635
.LVL522:
.L629:
	.loc 1 2223 5 is_stmt 1
	.loc 1 2223 8 is_stmt 0
	beq	a5,a1,.L631
	.loc 1 2228 10 is_stmt 1
	.loc 1 2231 9
	.loc 1 2231 35 is_stmt 0
	lw	a4,4(a1)
	.loc 1 2231 29
	sw	a4,4(a5)
	j	.L630
	.cfi_endproc
.LFE69:
	.size	cJSON_DetachItemViaPointer, .-cJSON_DetachItemViaPointer
	.section	.text.cJSON_DetachItemFromArray,"ax",@progbits
	.align	1
	.globl	cJSON_DetachItemFromArray
	.type	cJSON_DetachItemFromArray, @function
cJSON_DetachItemFromArray:
.LFB70:
	.loc 1 2242 1 is_stmt 1
	.cfi_startproc
.LVL523:
	.loc 1 2243 5
	.loc 1 2243 8 is_stmt 0
	blt	a1,zero,.L640
	.loc 1 2242 1
	addi	sp,sp,-16
	.cfi_def_cfa_offset 16
	sw	s0,8(sp)
	sw	ra,12(sp)
	.cfi_offset 8, -8
	.cfi_offset 1, -4
	mv	s0,a0
	.loc 1 2248 5 is_stmt 1
	.loc 1 2248 12 is_stmt 0
	call	get_array_item
.LVL524:
	mv	a1,a0
	mv	a0,s0
	.loc 1 2249 1
	lw	s0,8(sp)
	.cfi_restore 8
.LVL525:
	lw	ra,12(sp)
	.cfi_restore 1
	addi	sp,sp,16
	.cfi_def_cfa_offset 0
	.loc 1 2248 12
	tail	cJSON_DetachItemViaPointer
.LVL526:
.L640:
	.loc 1 2249 1
	li	a0,0
.LVL527:
	ret
	.cfi_endproc
.LFE70:
	.size	cJSON_DetachItemFromArray, .-cJSON_DetachItemFromArray
	.section	.text.cJSON_DeleteItemFromArray,"ax",@progbits
	.align	1
	.globl	cJSON_DeleteItemFromArray
	.type	cJSON_DeleteItemFromArray, @function
cJSON_DeleteItemFromArray:
.LFB71:
	.loc 1 2252 1 is_stmt 1
	.cfi_startproc
.LVL528:
	.loc 1 2253 5
	.loc 1 2252 1 is_stmt 0
	addi	sp,sp,-16
	.cfi_def_cfa_offset 16
	sw	ra,12(sp)
	.cfi_offset 1, -4
	.loc 1 2253 5
	call	cJSON_DetachItemFromArray
.LVL529:
	.loc 1 2254 1
	lw	ra,12(sp)
	.cfi_restore 1
	addi	sp,sp,16
	.cfi_def_cfa_offset 0
	.loc 1 2253 5
	tail	cJSON_Delete
.LVL530:
	.cfi_endproc
.LFE71:
	.size	cJSON_DeleteItemFromArray, .-cJSON_DeleteItemFromArray
	.section	.text.cJSON_DetachItemFromObject,"ax",@progbits
	.align	1
	.globl	cJSON_DetachItemFromObject
	.type	cJSON_DetachItemFromObject, @function
cJSON_DetachItemFromObject:
.LFB72:
	.loc 1 2257 1 is_stmt 1
	.cfi_startproc
.LVL531:
	.loc 1 2258 5
	.loc 1 2257 1 is_stmt 0
	addi	sp,sp,-16
	.cfi_def_cfa_offset 16
	sw	s0,8(sp)
	sw	ra,12(sp)
	.cfi_offset 8, -8
	.cfi_offset 1, -4
	.loc 1 2257 1
	mv	s0,a0
	.loc 1 2258 24
	call	cJSON_GetObjectItem
.LVL532:
	mv	a1,a0
.LVL533:
	.loc 1 2260 5 is_stmt 1
	.loc 1 2260 12 is_stmt 0
	mv	a0,s0
.LVL534:
	.loc 1 2261 1
	lw	s0,8(sp)
	.cfi_restore 8
.LVL535:
	lw	ra,12(sp)
	.cfi_restore 1
	addi	sp,sp,16
	.cfi_def_cfa_offset 0
	.loc 1 2260 12
	tail	cJSON_DetachItemViaPointer
.LVL536:
	.cfi_endproc
.LFE72:
	.size	cJSON_DetachItemFromObject, .-cJSON_DetachItemFromObject
	.section	.text.cJSON_DetachItemFromObjectCaseSensitive,"ax",@progbits
	.align	1
	.globl	cJSON_DetachItemFromObjectCaseSensitive
	.type	cJSON_DetachItemFromObjectCaseSensitive, @function
cJSON_DetachItemFromObjectCaseSensitive:
.LFB73:
	.loc 1 2264 1 is_stmt 1
	.cfi_startproc
.LVL537:
	.loc 1 2265 5
	.loc 1 2264 1 is_stmt 0
	addi	sp,sp,-16
	.cfi_def_cfa_offset 16
	sw	s0,8(sp)
	sw	ra,12(sp)
	.cfi_offset 8, -8
	.cfi_offset 1, -4
	.loc 1 2264 1
	mv	s0,a0
	.loc 1 2265 24
	call	cJSON_GetObjectItemCaseSensitive
.LVL538:
	mv	a1,a0
.LVL539:
	.loc 1 2267 5 is_stmt 1
	.loc 1 2267 12 is_stmt 0
	mv	a0,s0
.LVL540:
	.loc 1 2268 1
	lw	s0,8(sp)
	.cfi_restore 8
.LVL541:
	lw	ra,12(sp)
	.cfi_restore 1
	addi	sp,sp,16
	.cfi_def_cfa_offset 0
	.loc 1 2267 12
	tail	cJSON_DetachItemViaPointer
.LVL542:
	.cfi_endproc
.LFE73:
	.size	cJSON_DetachItemFromObjectCaseSensitive, .-cJSON_DetachItemFromObjectCaseSensitive
	.section	.text.cJSON_DeleteItemFromObject,"ax",@progbits
	.align	1
	.globl	cJSON_DeleteItemFromObject
	.type	cJSON_DeleteItemFromObject, @function
cJSON_DeleteItemFromObject:
.LFB74:
	.loc 1 2271 1 is_stmt 1
	.cfi_startproc
.LVL543:
	.loc 1 2272 5
	.loc 1 2271 1 is_stmt 0
	addi	sp,sp,-16
	.cfi_def_cfa_offset 16
	sw	ra,12(sp)
	.cfi_offset 1, -4
	.loc 1 2272 5
	call	cJSON_DetachItemFromObject
.LVL544:
	.loc 1 2273 1
	lw	ra,12(sp)
	.cfi_restore 1
	addi	sp,sp,16
	.cfi_def_cfa_offset 0
	.loc 1 2272 5
	tail	cJSON_Delete
.LVL545:
	.cfi_endproc
.LFE74:
	.size	cJSON_DeleteItemFromObject, .-cJSON_DeleteItemFromObject
	.section	.text.cJSON_DeleteItemFromObjectCaseSensitive,"ax",@progbits
	.align	1
	.globl	cJSON_DeleteItemFromObjectCaseSensitive
	.type	cJSON_DeleteItemFromObjectCaseSensitive, @function
cJSON_DeleteItemFromObjectCaseSensitive:
.LFB75:
	.loc 1 2276 1 is_stmt 1
	.cfi_startproc
.LVL546:
	.loc 1 2277 5
	.loc 1 2276 1 is_stmt 0
	addi	sp,sp,-16
	.cfi_def_cfa_offset 16
	sw	ra,12(sp)
	.cfi_offset 1, -4
	.loc 1 2277 5
	call	cJSON_DetachItemFromObjectCaseSensitive
.LVL547:
	.loc 1 2278 1
	lw	ra,12(sp)
	.cfi_restore 1
	addi	sp,sp,16
	.cfi_def_cfa_offset 0
	.loc 1 2277 5
	tail	cJSON_Delete
.LVL548:
	.cfi_endproc
.LFE75:
	.size	cJSON_DeleteItemFromObjectCaseSensitive, .-cJSON_DeleteItemFromObjectCaseSensitive
	.section	.text.cJSON_InsertItemInArray,"ax",@progbits
	.align	1
	.globl	cJSON_InsertItemInArray
	.type	cJSON_InsertItemInArray, @function
cJSON_InsertItemInArray:
.LFB76:
	.loc 1 2282 1 is_stmt 1
	.cfi_startproc
.LVL549:
	.loc 1 2283 5
	.loc 1 2285 5
	.loc 1 2285 8 is_stmt 0
	blt	a1,zero,.L660
	.loc 1 2285 19 discriminator 1
	beq	a2,zero,.L660
	.loc 1 2282 1
	addi	sp,sp,-16
	.cfi_def_cfa_offset 16
	sw	s0,8(sp)
	sw	s1,4(sp)
	sw	ra,12(sp)
	.cfi_offset 8, -8
	.cfi_offset 9, -12
	.cfi_offset 1, -4
	mv	s1,a0
	mv	s0,a2
	.loc 1 2290 5 is_stmt 1
	.loc 1 2290 22 is_stmt 0
	call	get_array_item
.LVL550:
	mv	a5,a0
.LVL551:
	.loc 1 2291 5 is_stmt 1
	.loc 1 2291 8 is_stmt 0
	bne	a0,zero,.L656
	.loc 1 2293 9 is_stmt 1
	.loc 1 2293 16 is_stmt 0
	mv	a1,s0
	.loc 1 2313 1
	lw	s0,8(sp)
	.cfi_remember_state
	.cfi_restore 8
.LVL552:
	lw	ra,12(sp)
	.cfi_restore 1
	.loc 1 2293 16
	mv	a0,s1
.LVL553:
	.loc 1 2313 1
	lw	s1,4(sp)
	.cfi_restore 9
.LVL554:
	addi	sp,sp,16
	.cfi_def_cfa_offset 0
	.loc 1 2293 16
	tail	add_item_to_array
.LVL555:
.L656:
	.cfi_restore_state
	.loc 1 2296 5 is_stmt 1
	.loc 1 2296 32 is_stmt 0
	lw	a4,8(s1)
	.loc 1 2296 57
	lw	a3,4(a0)
	.loc 1 2296 8
	beq	a4,a0,.L657
	.loc 1 2287 16 discriminator 1
	li	a0,0
.LVL556:
	.loc 1 2296 40 discriminator 1
	beq	a3,zero,.L654
.L657:
	.loc 1 2301 5 is_stmt 1
	.loc 1 2301 19 is_stmt 0
	sw	a5,0(s0)
	.loc 1 2302 5 is_stmt 1
	.loc 1 2302 19 is_stmt 0
	sw	a3,4(s0)
	.loc 1 2303 5 is_stmt 1
	.loc 1 2303 26 is_stmt 0
	sw	s0,4(a5)
	.loc 1 2304 5 is_stmt 1
	.loc 1 2304 8 is_stmt 0
	bne	a4,a5,.L658
	.loc 1 2306 9 is_stmt 1
	.loc 1 2306 22 is_stmt 0
	sw	s0,8(s1)
.LVL557:
.L666:
	.loc 1 2312 12
	li	a0,1
.L654:
	.loc 1 2313 1
	lw	ra,12(sp)
	.cfi_remember_state
	.cfi_restore 1
	lw	s0,8(sp)
	.cfi_restore 8
.LVL558:
	lw	s1,4(sp)
	.cfi_restore 9
.LVL559:
	addi	sp,sp,16
	.cfi_def_cfa_offset 0
	jr	ra
.LVL560:
.L658:
	.cfi_restore_state
	.loc 1 2310 9 is_stmt 1
	.loc 1 2310 29 is_stmt 0
	lw	a5,4(s0)
.LVL561:
	sw	s0,0(a5)
.LVL562:
	j	.L666
.LVL563:
.L660:
	.cfi_def_cfa_offset 0
	.cfi_restore 1
	.cfi_restore 8
	.cfi_restore 9
	.loc 1 2287 16
	li	a0,0
.LVL564:
	.loc 1 2313 1
	ret
	.cfi_endproc
.LFE76:
	.size	cJSON_InsertItemInArray, .-cJSON_InsertItemInArray
	.section	.text.cJSON_ReplaceItemViaPointer,"ax",@progbits
	.align	1
	.globl	cJSON_ReplaceItemViaPointer
	.type	cJSON_ReplaceItemViaPointer, @function
cJSON_ReplaceItemViaPointer:
.LFB77:
	.loc 1 2316 1 is_stmt 1
	.cfi_startproc
.LVL565:
	.loc 1 2317 5
	.loc 1 2317 8 is_stmt 0
	beq	a0,zero,.L674
	.loc 1 2317 35 discriminator 1
	lw	a4,8(a0)
	.loc 1 2319 16 discriminator 1
	li	a5,0
	.loc 1 2317 25 discriminator 1
	beq	a4,zero,.L686
	.loc 1 2317 52 discriminator 2
	beq	a2,zero,.L686
	.loc 1 2317 77 discriminator 3
	beq	a1,zero,.L686
	.loc 1 2322 5 is_stmt 1
	.loc 1 2324 16 is_stmt 0
	li	a5,1
	.loc 1 2322 8
	beq	a2,a1,.L686
	.loc 1 2327 5 is_stmt 1
	.loc 1 2327 29 is_stmt 0
	lw	a5,0(a1)
	.loc 1 2328 29
	lw	a3,4(a1)
	.loc 1 2316 1
	addi	sp,sp,-16
	.cfi_def_cfa_offset 16
	sw	ra,12(sp)
	.cfi_offset 1, -4
	.loc 1 2327 23
	sw	a5,0(a2)
	.loc 1 2328 5 is_stmt 1
	.loc 1 2328 23 is_stmt 0
	sw	a3,4(a2)
	.loc 1 2330 5 is_stmt 1
	.loc 1 2330 8 is_stmt 0
	beq	a5,zero,.L669
	.loc 1 2332 9 is_stmt 1
	.loc 1 2332 33 is_stmt 0
	sw	a2,4(a5)
.L669:
	.loc 1 2334 5 is_stmt 1
	.loc 1 2334 8 is_stmt 0
	bne	a4,a1,.L670
	.loc 1 2336 9 is_stmt 1
	.loc 1 2336 12 is_stmt 0
	lw	a5,4(a1)
	bne	a5,a1,.L671
	.loc 1 2338 13 is_stmt 1
	.loc 1 2338 31 is_stmt 0
	sw	a2,4(a2)
.L671:
	.loc 1 2340 9 is_stmt 1
	.loc 1 2340 23 is_stmt 0
	sw	a2,8(a0)
.L672:
	mv	a0,a1
.LVL566:
	.loc 1 2357 5 is_stmt 1
	.loc 1 2357 16 is_stmt 0
	sw	zero,0(a1)
	.loc 1 2358 5 is_stmt 1
	.loc 1 2358 16 is_stmt 0
	sw	zero,4(a1)
	.loc 1 2359 5 is_stmt 1
	call	cJSON_Delete
.LVL567:
	.loc 1 2361 5
	.loc 1 2362 1 is_stmt 0
	lw	ra,12(sp)
	.cfi_remember_state
	.cfi_restore 1
	.loc 1 2361 12
	li	a5,1
	.loc 1 2362 1
	mv	a0,a5
	addi	sp,sp,16
	.cfi_def_cfa_offset 0
	jr	ra
.LVL568:
.L670:
	.cfi_restore_state
	.loc 1 2347 9 is_stmt 1
	.loc 1 2347 24 is_stmt 0
	lw	a5,4(a2)
	.loc 1 2347 12
	beq	a5,zero,.L673
	.loc 1 2349 13 is_stmt 1
	.loc 1 2349 37 is_stmt 0
	sw	a2,0(a5)
.L673:
	.loc 1 2351 9 is_stmt 1
	.loc 1 2351 12 is_stmt 0
	lw	a5,0(a2)
	bne	a5,zero,.L672
	.loc 1 2353 13 is_stmt 1
	.loc 1 2353 33 is_stmt 0
	sw	a2,4(a4)
	j	.L672
.L674:
	.cfi_def_cfa_offset 0
	.cfi_restore 1
	.loc 1 2319 16
	li	a5,0
.L686:
	.loc 1 2362 1
	mv	a0,a5
.LVL569:
	ret
	.cfi_endproc
.LFE77:
	.size	cJSON_ReplaceItemViaPointer, .-cJSON_ReplaceItemViaPointer
	.section	.text.cJSON_ReplaceItemInArray,"ax",@progbits
	.align	1
	.globl	cJSON_ReplaceItemInArray
	.type	cJSON_ReplaceItemInArray, @function
cJSON_ReplaceItemInArray:
.LFB78:
	.loc 1 2365 1 is_stmt 1
	.cfi_startproc
.LVL570:
	.loc 1 2366 5
	.loc 1 2366 8 is_stmt 0
	blt	a1,zero,.L690
	.loc 1 2365 1
	addi	sp,sp,-32
	.cfi_def_cfa_offset 32
	sw	s0,24(sp)
	sw	ra,28(sp)
	.cfi_offset 8, -8
	.cfi_offset 1, -4
	mv	s0,a0
	sw	a2,12(sp)
	.loc 1 2371 5 is_stmt 1
	.loc 1 2371 12 is_stmt 0
	call	get_array_item
.LVL571:
	mv	a1,a0
	mv	a0,s0
	.loc 1 2372 1
	lw	s0,24(sp)
	.cfi_restore 8
.LVL572:
	.loc 1 2371 12
	lw	a2,12(sp)
	.loc 1 2372 1
	lw	ra,28(sp)
	.cfi_restore 1
	addi	sp,sp,32
	.cfi_def_cfa_offset 0
.LVL573:
	.loc 1 2371 12
	tail	cJSON_ReplaceItemViaPointer
.LVL574:
.L690:
	.loc 1 2372 1
	li	a0,0
.LVL575:
	ret
	.cfi_endproc
.LFE78:
	.size	cJSON_ReplaceItemInArray, .-cJSON_ReplaceItemInArray
	.section	.text.cJSON_CreateNull,"ax",@progbits
	.align	1
	.globl	cJSON_CreateNull
	.type	cJSON_CreateNull, @function
cJSON_CreateNull:
.LFB82:
	.loc 1 2409 1 is_stmt 1
	.cfi_startproc
	.loc 1 2410 5
	.loc 1 2410 19 is_stmt 0
	lui	a5,%hi(.LANCHOR0)
	lw	a0,%lo(.LANCHOR0)(a5)
	.loc 1 2409 1
	addi	sp,sp,-16
	.cfi_def_cfa_offset 16
	sw	ra,12(sp)
	.cfi_offset 1, -4
	.loc 1 2410 19
	call	cJSON_New_Item.isra.0
.LVL576:
	.loc 1 2411 5 is_stmt 1
	.loc 1 2411 7 is_stmt 0
	beq	a0,zero,.L694
	.loc 1 2413 9 is_stmt 1
	.loc 1 2413 20 is_stmt 0
	li	a5,4
	sw	a5,12(a0)
	.loc 1 2416 5 is_stmt 1
.L694:
	.loc 1 2417 1 is_stmt 0
	lw	ra,12(sp)
	.cfi_restore 1
	addi	sp,sp,16
	.cfi_def_cfa_offset 0
	jr	ra
	.cfi_endproc
.LFE82:
	.size	cJSON_CreateNull, .-cJSON_CreateNull
	.section	.text.cJSON_AddNullToObject,"ax",@progbits
	.align	1
	.globl	cJSON_AddNullToObject
	.type	cJSON_AddNullToObject, @function
cJSON_AddNullToObject:
.LFB60:
	.loc 1 2098 1 is_stmt 1
	.cfi_startproc
.LVL577:
	.loc 1 2099 5
	.loc 1 2098 1 is_stmt 0
	addi	sp,sp,-32
	.cfi_def_cfa_offset 32
	sw	s0,24(sp)
	sw	s1,20(sp)
	sw	ra,28(sp)
	.cfi_offset 8, -8
	.cfi_offset 9, -12
	.cfi_offset 1, -4
	.loc 1 2098 1
	mv	s1,a0
	sw	a1,12(sp)
	.loc 1 2099 19
	call	cJSON_CreateNull
.LVL578:
	.loc 1 2100 9
	lw	a1,12(sp)
	.loc 1 2099 19
	mv	s0,a0
.LVL579:
	.loc 1 2100 5 is_stmt 1
	.loc 1 2100 9 is_stmt 0
	mv	a2,a0
	li	a3,0
	mv	a0,s1
	call	add_item_to_object.constprop.0
.LVL580:
	.loc 1 2100 8
	bne	a0,zero,.L700
	.loc 1 2105 5 is_stmt 1
	mv	a0,s0
	call	cJSON_Delete
.LVL581:
	.loc 1 2106 5
	.loc 1 2106 11 is_stmt 0
	li	s0,0
.LVL582:
.L700:
	.loc 1 2107 1
	lw	ra,28(sp)
	.cfi_restore 1
	mv	a0,s0
	lw	s0,24(sp)
	.cfi_restore 8
	lw	s1,20(sp)
	.cfi_restore 9
.LVL583:
	addi	sp,sp,32
	.cfi_def_cfa_offset 0
.LVL584:
	jr	ra
	.cfi_endproc
.LFE60:
	.size	cJSON_AddNullToObject, .-cJSON_AddNullToObject
	.section	.text.cJSON_CreateTrue,"ax",@progbits
	.align	1
	.globl	cJSON_CreateTrue
	.type	cJSON_CreateTrue, @function
cJSON_CreateTrue:
.LFB83:
	.loc 1 2420 1 is_stmt 1
	.cfi_startproc
	.loc 1 2421 5
	.loc 1 2421 19 is_stmt 0
	lui	a5,%hi(.LANCHOR0)
	lw	a0,%lo(.LANCHOR0)(a5)
	.loc 1 2420 1
	addi	sp,sp,-16
	.cfi_def_cfa_offset 16
	sw	ra,12(sp)
	.cfi_offset 1, -4
	.loc 1 2421 19
	call	cJSON_New_Item.isra.0
.LVL585:
	.loc 1 2422 5 is_stmt 1
	.loc 1 2422 7 is_stmt 0
	beq	a0,zero,.L703
	.loc 1 2424 9 is_stmt 1
	.loc 1 2424 20 is_stmt 0
	li	a5,2
	sw	a5,12(a0)
	.loc 1 2427 5 is_stmt 1
.L703:
	.loc 1 2428 1 is_stmt 0
	lw	ra,12(sp)
	.cfi_restore 1
	addi	sp,sp,16
	.cfi_def_cfa_offset 0
	jr	ra
	.cfi_endproc
.LFE83:
	.size	cJSON_CreateTrue, .-cJSON_CreateTrue
	.section	.text.cJSON_AddTrueToObject,"ax",@progbits
	.align	1
	.globl	cJSON_AddTrueToObject
	.type	cJSON_AddTrueToObject, @function
cJSON_AddTrueToObject:
.LFB61:
	.loc 1 2110 1 is_stmt 1
	.cfi_startproc
.LVL586:
	.loc 1 2111 5
	.loc 1 2110 1 is_stmt 0
	addi	sp,sp,-32
	.cfi_def_cfa_offset 32
	sw	s0,24(sp)
	sw	s1,20(sp)
	sw	ra,28(sp)
	.cfi_offset 8, -8
	.cfi_offset 9, -12
	.cfi_offset 1, -4
	.loc 1 2110 1
	mv	s1,a0
	sw	a1,12(sp)
	.loc 1 2111 24
	call	cJSON_CreateTrue
.LVL587:
	.loc 1 2112 9
	lw	a1,12(sp)
	.loc 1 2111 24
	mv	s0,a0
.LVL588:
	.loc 1 2112 5 is_stmt 1
	.loc 1 2112 9 is_stmt 0
	mv	a2,a0
	li	a3,0
	mv	a0,s1
	call	add_item_to_object.constprop.0
.LVL589:
	.loc 1 2112 8
	bne	a0,zero,.L709
	.loc 1 2117 5 is_stmt 1
	mv	a0,s0
	call	cJSON_Delete
.LVL590:
	.loc 1 2118 5
	.loc 1 2118 11 is_stmt 0
	li	s0,0
.LVL591:
.L709:
	.loc 1 2119 1
	lw	ra,28(sp)
	.cfi_restore 1
	mv	a0,s0
	lw	s0,24(sp)
	.cfi_restore 8
	lw	s1,20(sp)
	.cfi_restore 9
.LVL592:
	addi	sp,sp,32
	.cfi_def_cfa_offset 0
.LVL593:
	jr	ra
	.cfi_endproc
.LFE61:
	.size	cJSON_AddTrueToObject, .-cJSON_AddTrueToObject
	.section	.text.cJSON_CreateFalse,"ax",@progbits
	.align	1
	.globl	cJSON_CreateFalse
	.type	cJSON_CreateFalse, @function
cJSON_CreateFalse:
.LFB84:
	.loc 1 2431 1 is_stmt 1
	.cfi_startproc
	.loc 1 2432 5
	.loc 1 2432 19 is_stmt 0
	lui	a5,%hi(.LANCHOR0)
	lw	a0,%lo(.LANCHOR0)(a5)
	.loc 1 2431 1
	addi	sp,sp,-16
	.cfi_def_cfa_offset 16
	sw	ra,12(sp)
	.cfi_offset 1, -4
	.loc 1 2432 19
	call	cJSON_New_Item.isra.0
.LVL594:
	.loc 1 2433 5 is_stmt 1
	.loc 1 2433 7 is_stmt 0
	beq	a0,zero,.L712
	.loc 1 2435 9 is_stmt 1
	.loc 1 2435 20 is_stmt 0
	li	a5,1
	sw	a5,12(a0)
	.loc 1 2438 5 is_stmt 1
.L712:
	.loc 1 2439 1 is_stmt 0
	lw	ra,12(sp)
	.cfi_restore 1
	addi	sp,sp,16
	.cfi_def_cfa_offset 0
	jr	ra
	.cfi_endproc
.LFE84:
	.size	cJSON_CreateFalse, .-cJSON_CreateFalse
	.section	.text.cJSON_AddFalseToObject,"ax",@progbits
	.align	1
	.globl	cJSON_AddFalseToObject
	.type	cJSON_AddFalseToObject, @function
cJSON_AddFalseToObject:
.LFB62:
	.loc 1 2122 1 is_stmt 1
	.cfi_startproc
.LVL595:
	.loc 1 2123 5
	.loc 1 2122 1 is_stmt 0
	addi	sp,sp,-32
	.cfi_def_cfa_offset 32
	sw	s0,24(sp)
	sw	s1,20(sp)
	sw	ra,28(sp)
	.cfi_offset 8, -8
	.cfi_offset 9, -12
	.cfi_offset 1, -4
	.loc 1 2122 1
	mv	s1,a0
	sw	a1,12(sp)
	.loc 1 2123 25
	call	cJSON_CreateFalse
.LVL596:
	.loc 1 2124 9
	lw	a1,12(sp)
	.loc 1 2123 25
	mv	s0,a0
.LVL597:
	.loc 1 2124 5 is_stmt 1
	.loc 1 2124 9 is_stmt 0
	mv	a2,a0
	li	a3,0
	mv	a0,s1
	call	add_item_to_object.constprop.0
.LVL598:
	.loc 1 2124 8
	bne	a0,zero,.L718
	.loc 1 2129 5 is_stmt 1
	mv	a0,s0
	call	cJSON_Delete
.LVL599:
	.loc 1 2130 5
	.loc 1 2130 11 is_stmt 0
	li	s0,0
.LVL600:
.L718:
	.loc 1 2131 1
	lw	ra,28(sp)
	.cfi_restore 1
	mv	a0,s0
	lw	s0,24(sp)
	.cfi_restore 8
	lw	s1,20(sp)
	.cfi_restore 9
.LVL601:
	addi	sp,sp,32
	.cfi_def_cfa_offset 0
.LVL602:
	jr	ra
	.cfi_endproc
.LFE62:
	.size	cJSON_AddFalseToObject, .-cJSON_AddFalseToObject
	.section	.text.cJSON_CreateBool,"ax",@progbits
	.align	1
	.globl	cJSON_CreateBool
	.type	cJSON_CreateBool, @function
cJSON_CreateBool:
.LFB85:
	.loc 1 2442 1 is_stmt 1
	.cfi_startproc
.LVL603:
	.loc 1 2443 5
	.loc 1 2442 1 is_stmt 0
	addi	sp,sp,-16
	.cfi_def_cfa_offset 16
	.loc 1 2443 19
	lui	a5,%hi(.LANCHOR0)
	.loc 1 2442 1
	sw	s0,8(sp)
	.cfi_offset 8, -8
	mv	s0,a0
	.loc 1 2443 19
	lw	a0,%lo(.LANCHOR0)(a5)
.LVL604:
	.loc 1 2442 1
	sw	ra,12(sp)
	.cfi_offset 1, -4
	.loc 1 2443 19
	call	cJSON_New_Item.isra.0
.LVL605:
	.loc 1 2444 5 is_stmt 1
	.loc 1 2444 7 is_stmt 0
	beq	a0,zero,.L721
	.loc 1 2446 9 is_stmt 1
	.loc 1 2446 41 is_stmt 0
	snez	a5,s0
	addi	a5,a5,1
	.loc 1 2446 20
	sw	a5,12(a0)
	.loc 1 2449 5 is_stmt 1
.L721:
	.loc 1 2450 1 is_stmt 0
	lw	ra,12(sp)
	.cfi_restore 1
	lw	s0,8(sp)
	.cfi_restore 8
.LVL606:
	addi	sp,sp,16
	.cfi_def_cfa_offset 0
	jr	ra
	.cfi_endproc
.LFE85:
	.size	cJSON_CreateBool, .-cJSON_CreateBool
	.section	.text.cJSON_AddBoolToObject,"ax",@progbits
	.align	1
	.globl	cJSON_AddBoolToObject
	.type	cJSON_AddBoolToObject, @function
cJSON_AddBoolToObject:
.LFB63:
	.loc 1 2134 1 is_stmt 1
	.cfi_startproc
.LVL607:
	.loc 1 2135 5
	.loc 1 2134 1 is_stmt 0
	addi	sp,sp,-32
	.cfi_def_cfa_offset 32
	sw	s1,20(sp)
	.cfi_offset 9, -12
	mv	s1,a0
	.loc 1 2135 24
	mv	a0,a2
.LVL608:
	.loc 1 2134 1
	sw	s0,24(sp)
	sw	ra,28(sp)
	.cfi_offset 8, -8
	.cfi_offset 1, -4
	.loc 1 2134 1
	sw	a1,12(sp)
	.loc 1 2135 24
	call	cJSON_CreateBool
.LVL609:
	.loc 1 2136 9
	lw	a1,12(sp)
	.loc 1 2135 24
	mv	s0,a0
.LVL610:
	.loc 1 2136 5 is_stmt 1
	.loc 1 2136 9 is_stmt 0
	mv	a2,a0
	li	a3,0
	mv	a0,s1
	call	add_item_to_object.constprop.0
.LVL611:
	.loc 1 2136 8
	bne	a0,zero,.L729
	.loc 1 2141 5 is_stmt 1
	mv	a0,s0
	call	cJSON_Delete
.LVL612:
	.loc 1 2142 5
	.loc 1 2142 11 is_stmt 0
	li	s0,0
.LVL613:
.L729:
	.loc 1 2143 1
	lw	ra,28(sp)
	.cfi_restore 1
	mv	a0,s0
	lw	s0,24(sp)
	.cfi_restore 8
	lw	s1,20(sp)
	.cfi_restore 9
.LVL614:
	addi	sp,sp,32
	.cfi_def_cfa_offset 0
.LVL615:
	jr	ra
	.cfi_endproc
.LFE63:
	.size	cJSON_AddBoolToObject, .-cJSON_AddBoolToObject
	.section	.text.cJSON_CreateNumber,"ax",@progbits
	.align	1
	.globl	cJSON_CreateNumber
	.type	cJSON_CreateNumber, @function
cJSON_CreateNumber:
.LFB86:
	.loc 1 2453 1 is_stmt 1
	.cfi_startproc
.LVL616:
	.loc 1 2454 5
	.loc 1 2453 1 is_stmt 0
	addi	sp,sp,-16
	.cfi_def_cfa_offset 16
	.loc 1 2454 19
	lui	a5,%hi(.LANCHOR0)
	.loc 1 2453 1
	sw	s2,4(sp)
	.cfi_offset 18, -12
	mv	s2,a0
	.loc 1 2454 19
	lw	a0,%lo(.LANCHOR0)(a5)
.LVL617:
	.loc 1 2453 1
	sw	s0,8(sp)
	sw	s3,0(sp)
	sw	ra,12(sp)
	.cfi_offset 8, -8
	.cfi_offset 19, -16
	.cfi_offset 1, -4
	.loc 1 2453 1
	mv	s3,a1
	.loc 1 2454 19
	call	cJSON_New_Item.isra.0
.LVL618:
	mv	s0,a0
.LVL619:
	.loc 1 2455 5 is_stmt 1
	.loc 1 2455 7 is_stmt 0
	beq	a0,zero,.L732
	.loc 1 2457 9 is_stmt 1
	.loc 1 2457 20 is_stmt 0
	li	a5,8
	sw	a5,12(a0)
	.loc 1 2458 9 is_stmt 1
	.loc 1 2461 12 is_stmt 0
	lui	a5,%hi(.LC12)
	lw	a2,%lo(.LC12)(a5)
	lw	a3,%lo(.LC12+4)(a5)
	.loc 1 2458 27
	sw	s2,24(a0)
	sw	s3,28(a0)
	.loc 1 2461 9 is_stmt 1
	.loc 1 2461 12 is_stmt 0
	mv	a1,s3
	mv	a0,s2
	call	__gedf2
.LVL620:
	blt	a0,zero,.L743
	.loc 1 2463 13 is_stmt 1
	.loc 1 2463 28 is_stmt 0
	li	a5,-2147483648
	xori	a5,a5,-1
.L746:
	.loc 1 2467 28
	sw	a5,20(s0)
.L732:
	.loc 1 2476 1
	lw	ra,12(sp)
	.cfi_remember_state
	.cfi_restore 1
	mv	a0,s0
	lw	s0,8(sp)
	.cfi_restore 8
.LVL621:
	lw	s2,4(sp)
	.cfi_restore 18
	lw	s3,0(sp)
	.cfi_restore 19
	addi	sp,sp,16
	.cfi_def_cfa_offset 0
	jr	ra
.LVL622:
.L743:
	.cfi_restore_state
	.loc 1 2465 14 is_stmt 1
	.loc 1 2465 17 is_stmt 0
	lui	a5,%hi(.LC13)
	lw	a2,%lo(.LC13)(a5)
	lw	a3,%lo(.LC13+4)(a5)
	mv	a0,s2
	mv	a1,s3
	call	__ledf2
.LVL623:
	bgt	a0,zero,.L744
	.loc 1 2467 13 is_stmt 1
	.loc 1 2467 28 is_stmt 0
	li	a5,-2147483648
	j	.L746
.L744:
	.loc 1 2471 13 is_stmt 1
	.loc 1 2471 30 is_stmt 0
	mv	a0,s2
	mv	a1,s3
	call	__fixdfsi
.LVL624:
	sw	a0,20(s0)
	.loc 1 2475 5 is_stmt 1
	.loc 1 2475 12 is_stmt 0
	j	.L732
	.cfi_endproc
.LFE86:
	.size	cJSON_CreateNumber, .-cJSON_CreateNumber
	.section	.text.cJSON_AddNumberToObject,"ax",@progbits
	.align	1
	.globl	cJSON_AddNumberToObject
	.type	cJSON_AddNumberToObject, @function
cJSON_AddNumberToObject:
.LFB64:
	.loc 1 2146 1 is_stmt 1
	.cfi_startproc
.LVL625:
	.loc 1 2147 5
	.loc 1 2146 1 is_stmt 0
	addi	sp,sp,-16
	.cfi_def_cfa_offset 16
	sw	s1,4(sp)
	sw	s2,0(sp)
	.cfi_offset 9, -12
	.cfi_offset 18, -16
	mv	s1,a0
	mv	s2,a1
	.loc 1 2147 26
	mv	a0,a2
.LVL626:
	mv	a1,a3
.LVL627:
	.loc 1 2146 1
	sw	s0,8(sp)
	sw	ra,12(sp)
	.cfi_offset 8, -8
	.cfi_offset 1, -4
	.loc 1 2147 26
	call	cJSON_CreateNumber
.LVL628:
	mv	s0,a0
.LVL629:
	.loc 1 2148 5 is_stmt 1
	.loc 1 2148 9 is_stmt 0
	mv	a2,a0
	li	a3,0
	mv	a1,s2
	mv	a0,s1
	call	add_item_to_object.constprop.0
.LVL630:
	.loc 1 2148 8
	bne	a0,zero,.L747
	.loc 1 2153 5 is_stmt 1
	mv	a0,s0
	call	cJSON_Delete
.LVL631:
	.loc 1 2154 5
	.loc 1 2154 11 is_stmt 0
	li	s0,0
.LVL632:
.L747:
	.loc 1 2155 1
	lw	ra,12(sp)
	.cfi_restore 1
	mv	a0,s0
	lw	s0,8(sp)
	.cfi_restore 8
	lw	s1,4(sp)
	.cfi_restore 9
.LVL633:
	lw	s2,0(sp)
	.cfi_restore 18
.LVL634:
	addi	sp,sp,16
	.cfi_def_cfa_offset 0
	jr	ra
	.cfi_endproc
.LFE64:
	.size	cJSON_AddNumberToObject, .-cJSON_AddNumberToObject
	.section	.text.cJSON_CreateString,"ax",@progbits
	.align	1
	.globl	cJSON_CreateString
	.type	cJSON_CreateString, @function
cJSON_CreateString:
.LFB87:
	.loc 1 2479 1 is_stmt 1
	.cfi_startproc
.LVL635:
	.loc 1 2480 5
	.loc 1 2479 1 is_stmt 0
	addi	sp,sp,-16
	.cfi_def_cfa_offset 16
	.loc 1 2480 19
	lui	a5,%hi(.LANCHOR0)
	.loc 1 2479 1
	sw	s1,4(sp)
	.cfi_offset 9, -12
	mv	s1,a0
	.loc 1 2480 19
	lw	a0,%lo(.LANCHOR0)(a5)
.LVL636:
	.loc 1 2479 1
	sw	s0,8(sp)
	sw	ra,12(sp)
	.cfi_offset 8, -8
	.cfi_offset 1, -4
	.loc 1 2480 19
	call	cJSON_New_Item.isra.0
.LVL637:
	mv	s0,a0
.LVL638:
	.loc 1 2481 5 is_stmt 1
	.loc 1 2481 7 is_stmt 0
	beq	a0,zero,.L750
	.loc 1 2483 9 is_stmt 1
	.loc 1 2483 20 is_stmt 0
	li	a5,16
	sw	a5,12(a0)
	.loc 1 2484 9 is_stmt 1
	.loc 1 2484 36 is_stmt 0
	mv	a0,s1
	call	cJSON_strdup.constprop.0
.LVL639:
	.loc 1 2484 27
	sw	a0,16(s0)
	.loc 1 2485 9 is_stmt 1
	.loc 1 2485 11 is_stmt 0
	bne	a0,zero,.L750
	.loc 1 2487 13 is_stmt 1
	mv	a0,s0
	call	cJSON_Delete
.LVL640:
	.loc 1 2488 13
	.loc 1 2488 19 is_stmt 0
	li	s0,0
.LVL641:
.L750:
	.loc 1 2493 1
	lw	ra,12(sp)
	.cfi_restore 1
	mv	a0,s0
	lw	s0,8(sp)
	.cfi_restore 8
	lw	s1,4(sp)
	.cfi_restore 9
.LVL642:
	addi	sp,sp,16
	.cfi_def_cfa_offset 0
	jr	ra
	.cfi_endproc
.LFE87:
	.size	cJSON_CreateString, .-cJSON_CreateString
	.section	.text.cJSON_AddStringToObject,"ax",@progbits
	.align	1
	.globl	cJSON_AddStringToObject
	.type	cJSON_AddStringToObject, @function
cJSON_AddStringToObject:
.LFB65:
	.loc 1 2158 1 is_stmt 1
	.cfi_startproc
.LVL643:
	.loc 1 2159 5
	.loc 1 2158 1 is_stmt 0
	addi	sp,sp,-32
	.cfi_def_cfa_offset 32
	sw	s1,20(sp)
	.cfi_offset 9, -12
	mv	s1,a0
	.loc 1 2159 26
	mv	a0,a2
.LVL644:
	.loc 1 2158 1
	sw	s0,24(sp)
	sw	ra,28(sp)
	.cfi_offset 8, -8
	.cfi_offset 1, -4
	.loc 1 2158 1
	sw	a1,12(sp)
	.loc 1 2159 26
	call	cJSON_CreateString
.LVL645:
	.loc 1 2160 9
	lw	a1,12(sp)
	.loc 1 2159 26
	mv	s0,a0
.LVL646:
	.loc 1 2160 5 is_stmt 1
	.loc 1 2160 9 is_stmt 0
	mv	a2,a0
	li	a3,0
	mv	a0,s1
	call	add_item_to_object.constprop.0
.LVL647:
	.loc 1 2160 8
	bne	a0,zero,.L756
	.loc 1 2165 5 is_stmt 1
	mv	a0,s0
	call	cJSON_Delete
.LVL648:
	.loc 1 2166 5
	.loc 1 2166 11 is_stmt 0
	li	s0,0
.LVL649:
.L756:
	.loc 1 2167 1
	lw	ra,28(sp)
	.cfi_restore 1
	mv	a0,s0
	lw	s0,24(sp)
	.cfi_restore 8
	lw	s1,20(sp)
	.cfi_restore 9
.LVL650:
	addi	sp,sp,32
	.cfi_def_cfa_offset 0
.LVL651:
	jr	ra
	.cfi_endproc
.LFE65:
	.size	cJSON_AddStringToObject, .-cJSON_AddStringToObject
	.section	.text.cJSON_CreateStringReference,"ax",@progbits
	.align	1
	.globl	cJSON_CreateStringReference
	.type	cJSON_CreateStringReference, @function
cJSON_CreateStringReference:
.LFB88:
	.loc 1 2496 1 is_stmt 1
	.cfi_startproc
.LVL652:
	.loc 1 2497 5
	.loc 1 2496 1 is_stmt 0
	addi	sp,sp,-16
	.cfi_def_cfa_offset 16
	.loc 1 2497 19
	lui	a5,%hi(.LANCHOR0)
	.loc 1 2496 1
	sw	s0,8(sp)
	.cfi_offset 8, -8
	mv	s0,a0
	.loc 1 2497 19
	lw	a0,%lo(.LANCHOR0)(a5)
.LVL653:
	.loc 1 2496 1
	sw	ra,12(sp)
	.cfi_offset 1, -4
	.loc 1 2497 19
	call	cJSON_New_Item.isra.0
.LVL654:
	.loc 1 2498 5 is_stmt 1
	.loc 1 2498 8 is_stmt 0
	beq	a0,zero,.L759
	.loc 1 2500 9 is_stmt 1
	.loc 1 2500 20 is_stmt 0
	li	a5,272
	sw	a5,12(a0)
	.loc 1 2501 9 is_stmt 1
.LVL655:
	.loc 1 2022 5
	.loc 1 2501 27 is_stmt 0
	sw	s0,16(a0)
	.loc 1 2504 5 is_stmt 1
.L759:
	.loc 1 2505 1 is_stmt 0
	lw	ra,12(sp)
	.cfi_restore 1
	lw	s0,8(sp)
	.cfi_restore 8
.LVL656:
	addi	sp,sp,16
	.cfi_def_cfa_offset 0
	jr	ra
	.cfi_endproc
.LFE88:
	.size	cJSON_CreateStringReference, .-cJSON_CreateStringReference
	.section	.text.cJSON_CreateObjectReference,"ax",@progbits
	.align	1
	.globl	cJSON_CreateObjectReference
	.type	cJSON_CreateObjectReference, @function
cJSON_CreateObjectReference:
.LFB89:
	.loc 1 2508 1 is_stmt 1
	.cfi_startproc
.LVL657:
	.loc 1 2509 5
	.loc 1 2508 1 is_stmt 0
	addi	sp,sp,-16
	.cfi_def_cfa_offset 16
	.loc 1 2509 19
	lui	a5,%hi(.LANCHOR0)
	.loc 1 2508 1
	sw	s0,8(sp)
	.cfi_offset 8, -8
	mv	s0,a0
	.loc 1 2509 19
	lw	a0,%lo(.LANCHOR0)(a5)
.LVL658:
	.loc 1 2508 1
	sw	ra,12(sp)
	.cfi_offset 1, -4
	.loc 1 2509 19
	call	cJSON_New_Item.isra.0
.LVL659:
	.loc 1 2510 5 is_stmt 1
	.loc 1 2510 8 is_stmt 0
	beq	a0,zero,.L765
	.loc 1 2511 9 is_stmt 1
	.loc 1 2511 20 is_stmt 0
	li	a5,320
	sw	a5,12(a0)
	.loc 1 2512 9 is_stmt 1
.LVL660:
	.loc 1 2022 5
	.loc 1 2512 21 is_stmt 0
	sw	s0,8(a0)
	.loc 1 2515 5 is_stmt 1
.L765:
	.loc 1 2516 1 is_stmt 0
	lw	ra,12(sp)
	.cfi_restore 1
	lw	s0,8(sp)
	.cfi_restore 8
.LVL661:
	addi	sp,sp,16
	.cfi_def_cfa_offset 0
	jr	ra
	.cfi_endproc
.LFE89:
	.size	cJSON_CreateObjectReference, .-cJSON_CreateObjectReference
	.section	.text.cJSON_CreateArrayReference,"ax",@progbits
	.align	1
	.globl	cJSON_CreateArrayReference
	.type	cJSON_CreateArrayReference, @function
cJSON_CreateArrayReference:
.LFB90:
	.loc 1 2518 56 is_stmt 1
	.cfi_startproc
.LVL662:
	.loc 1 2519 5
	.loc 1 2518 56 is_stmt 0
	addi	sp,sp,-16
	.cfi_def_cfa_offset 16
	.loc 1 2519 19
	lui	a5,%hi(.LANCHOR0)
	.loc 1 2518 56
	sw	s0,8(sp)
	.cfi_offset 8, -8
	mv	s0,a0
	.loc 1 2519 19
	lw	a0,%lo(.LANCHOR0)(a5)
.LVL663:
	.loc 1 2518 56
	sw	ra,12(sp)
	.cfi_offset 1, -4
	.loc 1 2519 19
	call	cJSON_New_Item.isra.0
.LVL664:
	.loc 1 2520 5 is_stmt 1
	.loc 1 2520 8 is_stmt 0
	beq	a0,zero,.L771
	.loc 1 2521 9 is_stmt 1
	.loc 1 2521 20 is_stmt 0
	li	a5,288
	sw	a5,12(a0)
	.loc 1 2522 9 is_stmt 1
.LVL665:
	.loc 1 2022 5
	.loc 1 2522 21 is_stmt 0
	sw	s0,8(a0)
	.loc 1 2525 5 is_stmt 1
.L771:
	.loc 1 2526 1 is_stmt 0
	lw	ra,12(sp)
	.cfi_restore 1
	lw	s0,8(sp)
	.cfi_restore 8
.LVL666:
	addi	sp,sp,16
	.cfi_def_cfa_offset 0
	jr	ra
	.cfi_endproc
.LFE90:
	.size	cJSON_CreateArrayReference, .-cJSON_CreateArrayReference
	.section	.text.cJSON_CreateRaw,"ax",@progbits
	.align	1
	.globl	cJSON_CreateRaw
	.type	cJSON_CreateRaw, @function
cJSON_CreateRaw:
.LFB91:
	.loc 1 2529 1 is_stmt 1
	.cfi_startproc
.LVL667:
	.loc 1 2530 5
	.loc 1 2529 1 is_stmt 0
	addi	sp,sp,-16
	.cfi_def_cfa_offset 16
	.loc 1 2530 19
	lui	a5,%hi(.LANCHOR0)
	.loc 1 2529 1
	sw	s1,4(sp)
	.cfi_offset 9, -12
	mv	s1,a0
	.loc 1 2530 19
	lw	a0,%lo(.LANCHOR0)(a5)
.LVL668:
	.loc 1 2529 1
	sw	s0,8(sp)
	sw	ra,12(sp)
	.cfi_offset 8, -8
	.cfi_offset 1, -4
	.loc 1 2530 19
	call	cJSON_New_Item.isra.0
.LVL669:
	mv	s0,a0
.LVL670:
	.loc 1 2531 5 is_stmt 1
	.loc 1 2531 7 is_stmt 0
	beq	a0,zero,.L777
	.loc 1 2533 9 is_stmt 1
	.loc 1 2533 20 is_stmt 0
	li	a5,128
	sw	a5,12(a0)
	.loc 1 2534 9 is_stmt 1
	.loc 1 2534 36 is_stmt 0
	mv	a0,s1
	call	cJSON_strdup.constprop.0
.LVL671:
	.loc 1 2534 27
	sw	a0,16(s0)
	.loc 1 2535 9 is_stmt 1
	.loc 1 2535 11 is_stmt 0
	bne	a0,zero,.L777
	.loc 1 2537 13 is_stmt 1
	mv	a0,s0
	call	cJSON_Delete
.LVL672:
	.loc 1 2538 13
	.loc 1 2538 19 is_stmt 0
	li	s0,0
.LVL673:
.L777:
	.loc 1 2543 1
	lw	ra,12(sp)
	.cfi_restore 1
	mv	a0,s0
	lw	s0,8(sp)
	.cfi_restore 8
	lw	s1,4(sp)
	.cfi_restore 9
.LVL674:
	addi	sp,sp,16
	.cfi_def_cfa_offset 0
	jr	ra
	.cfi_endproc
.LFE91:
	.size	cJSON_CreateRaw, .-cJSON_CreateRaw
	.section	.text.cJSON_AddRawToObject,"ax",@progbits
	.align	1
	.globl	cJSON_AddRawToObject
	.type	cJSON_AddRawToObject, @function
cJSON_AddRawToObject:
.LFB66:
	.loc 1 2170 1 is_stmt 1
	.cfi_startproc
.LVL675:
	.loc 1 2171 5
	.loc 1 2170 1 is_stmt 0
	addi	sp,sp,-32
	.cfi_def_cfa_offset 32
	sw	s1,20(sp)
	.cfi_offset 9, -12
	mv	s1,a0
	.loc 1 2171 23
	mv	a0,a2
.LVL676:
	.loc 1 2170 1
	sw	s0,24(sp)
	sw	ra,28(sp)
	.cfi_offset 8, -8
	.cfi_offset 1, -4
	.loc 1 2170 1
	sw	a1,12(sp)
	.loc 1 2171 23
	call	cJSON_CreateRaw
.LVL677:
	.loc 1 2172 9
	lw	a1,12(sp)
	.loc 1 2171 23
	mv	s0,a0
.LVL678:
	.loc 1 2172 5 is_stmt 1
	.loc 1 2172 9 is_stmt 0
	mv	a2,a0
	li	a3,0
	mv	a0,s1
	call	add_item_to_object.constprop.0
.LVL679:
	.loc 1 2172 8
	bne	a0,zero,.L783
	.loc 1 2177 5 is_stmt 1
	mv	a0,s0
	call	cJSON_Delete
.LVL680:
	.loc 1 2178 5
	.loc 1 2178 11 is_stmt 0
	li	s0,0
.LVL681:
.L783:
	.loc 1 2179 1
	lw	ra,28(sp)
	.cfi_restore 1
	mv	a0,s0
	lw	s0,24(sp)
	.cfi_restore 8
	lw	s1,20(sp)
	.cfi_restore 9
.LVL682:
	addi	sp,sp,32
	.cfi_def_cfa_offset 0
.LVL683:
	jr	ra
	.cfi_endproc
.LFE66:
	.size	cJSON_AddRawToObject, .-cJSON_AddRawToObject
	.section	.text.cJSON_CreateArray,"ax",@progbits
	.align	1
	.globl	cJSON_CreateArray
	.type	cJSON_CreateArray, @function
cJSON_CreateArray:
.LFB92:
	.loc 1 2546 1 is_stmt 1
	.cfi_startproc
	.loc 1 2547 5
	.loc 1 2547 19 is_stmt 0
	lui	a5,%hi(.LANCHOR0)
	lw	a0,%lo(.LANCHOR0)(a5)
	.loc 1 2546 1
	addi	sp,sp,-16
	.cfi_def_cfa_offset 16
	sw	ra,12(sp)
	.cfi_offset 1, -4
	.loc 1 2547 19
	call	cJSON_New_Item.isra.0
.LVL684:
	.loc 1 2548 5 is_stmt 1
	.loc 1 2548 7 is_stmt 0
	beq	a0,zero,.L786
	.loc 1 2550 9 is_stmt 1
	.loc 1 2550 19 is_stmt 0
	li	a5,32
	sw	a5,12(a0)
	.loc 1 2553 5 is_stmt 1
.L786:
	.loc 1 2554 1 is_stmt 0
	lw	ra,12(sp)
	.cfi_restore 1
	addi	sp,sp,16
	.cfi_def_cfa_offset 0
	jr	ra
	.cfi_endproc
.LFE92:
	.size	cJSON_CreateArray, .-cJSON_CreateArray
	.section	.text.cJSON_AddArrayToObject,"ax",@progbits
	.align	1
	.globl	cJSON_AddArrayToObject
	.type	cJSON_AddArrayToObject, @function
cJSON_AddArrayToObject:
.LFB68:
	.loc 1 2194 1 is_stmt 1
	.cfi_startproc
.LVL685:
	.loc 1 2195 5
	.loc 1 2194 1 is_stmt 0
	addi	sp,sp,-32
	.cfi_def_cfa_offset 32
	sw	s0,24(sp)
	sw	s1,20(sp)
	sw	ra,28(sp)
	.cfi_offset 8, -8
	.cfi_offset 9, -12
	.cfi_offset 1, -4
	.loc 1 2194 1
	mv	s1,a0
	sw	a1,12(sp)
	.loc 1 2195 20
	call	cJSON_CreateArray
.LVL686:
	.loc 1 2196 9
	lw	a1,12(sp)
	.loc 1 2195 20
	mv	s0,a0
.LVL687:
	.loc 1 2196 5 is_stmt 1
	.loc 1 2196 9 is_stmt 0
	mv	a2,a0
	li	a3,0
	mv	a0,s1
	call	add_item_to_object.constprop.0
.LVL688:
	.loc 1 2196 8
	bne	a0,zero,.L792
	.loc 1 2201 5 is_stmt 1
	mv	a0,s0
	call	cJSON_Delete
.LVL689:
	.loc 1 2202 5
	.loc 1 2202 11 is_stmt 0
	li	s0,0
.LVL690:
.L792:
	.loc 1 2203 1
	lw	ra,28(sp)
	.cfi_restore 1
	mv	a0,s0
	lw	s0,24(sp)
	.cfi_restore 8
	lw	s1,20(sp)
	.cfi_restore 9
.LVL691:
	addi	sp,sp,32
	.cfi_def_cfa_offset 0
.LVL692:
	jr	ra
	.cfi_endproc
.LFE68:
	.size	cJSON_AddArrayToObject, .-cJSON_AddArrayToObject
	.section	.text.cJSON_CreateObject,"ax",@progbits
	.align	1
	.globl	cJSON_CreateObject
	.type	cJSON_CreateObject, @function
cJSON_CreateObject:
.LFB93:
	.loc 1 2557 1 is_stmt 1
	.cfi_startproc
	.loc 1 2558 5
	.loc 1 2558 19 is_stmt 0
	lui	a5,%hi(.LANCHOR0)
	lw	a0,%lo(.LANCHOR0)(a5)
	.loc 1 2557 1
	addi	sp,sp,-16
	.cfi_def_cfa_offset 16
	sw	ra,12(sp)
	.cfi_offset 1, -4
	.loc 1 2558 19
	call	cJSON_New_Item.isra.0
.LVL693:
	.loc 1 2559 5 is_stmt 1
	.loc 1 2559 8 is_stmt 0
	beq	a0,zero,.L795
	.loc 1 2561 9 is_stmt 1
	.loc 1 2561 20 is_stmt 0
	li	a5,64
	sw	a5,12(a0)
	.loc 1 2564 5 is_stmt 1
.L795:
	.loc 1 2565 1 is_stmt 0
	lw	ra,12(sp)
	.cfi_restore 1
	addi	sp,sp,16
	.cfi_def_cfa_offset 0
	jr	ra
	.cfi_endproc
.LFE93:
	.size	cJSON_CreateObject, .-cJSON_CreateObject
	.section	.text.cJSON_AddObjectToObject,"ax",@progbits
	.align	1
	.globl	cJSON_AddObjectToObject
	.type	cJSON_AddObjectToObject, @function
cJSON_AddObjectToObject:
.LFB67:
	.loc 1 2182 1 is_stmt 1
	.cfi_startproc
.LVL694:
	.loc 1 2183 5
	.loc 1 2182 1 is_stmt 0
	addi	sp,sp,-32
	.cfi_def_cfa_offset 32
	sw	s0,24(sp)
	sw	s1,20(sp)
	sw	ra,28(sp)
	.cfi_offset 8, -8
	.cfi_offset 9, -12
	.cfi_offset 1, -4
	.loc 1 2182 1
	mv	s1,a0
	sw	a1,12(sp)
	.loc 1 2183 26
	call	cJSON_CreateObject
.LVL695:
	.loc 1 2184 9
	lw	a1,12(sp)
	.loc 1 2183 26
	mv	s0,a0
.LVL696:
	.loc 1 2184 5 is_stmt 1
	.loc 1 2184 9 is_stmt 0
	mv	a2,a0
	li	a3,0
	mv	a0,s1
	call	add_item_to_object.constprop.0
.LVL697:
	.loc 1 2184 8
	bne	a0,zero,.L801
	.loc 1 2189 5 is_stmt 1
	mv	a0,s0
	call	cJSON_Delete
.LVL698:
	.loc 1 2190 5
	.loc 1 2190 11 is_stmt 0
	li	s0,0
.LVL699:
.L801:
	.loc 1 2191 1
	lw	ra,28(sp)
	.cfi_restore 1
	mv	a0,s0
	lw	s0,24(sp)
	.cfi_restore 8
	lw	s1,20(sp)
	.cfi_restore 9
.LVL700:
	addi	sp,sp,32
	.cfi_def_cfa_offset 0
.LVL701:
	jr	ra
	.cfi_endproc
.LFE67:
	.size	cJSON_AddObjectToObject, .-cJSON_AddObjectToObject
	.section	.text.cJSON_CreateIntArray,"ax",@progbits
	.align	1
	.globl	cJSON_CreateIntArray
	.type	cJSON_CreateIntArray, @function
cJSON_CreateIntArray:
.LFB94:
	.loc 1 2569 1 is_stmt 1
	.cfi_startproc
.LVL702:
	.loc 1 2570 5
	.loc 1 2571 5
	.loc 1 2572 5
	.loc 1 2573 5
	.loc 1 2575 5
	.loc 1 2569 1 is_stmt 0
	addi	sp,sp,-32
	.cfi_def_cfa_offset 32
	sw	ra,28(sp)
	sw	s0,24(sp)
	sw	s1,20(sp)
	sw	s2,16(sp)
	sw	s3,12(sp)
	sw	s4,8(sp)
	.cfi_offset 1, -4
	.cfi_offset 8, -8
	.cfi_offset 9, -12
	.cfi_offset 18, -16
	.cfi_offset 19, -20
	.cfi_offset 20, -24
	.loc 1 2575 8
	bge	a1,zero,.L805
.LVL703:
.L823:
	.loc 1 2588 13 is_stmt 1
	.loc 1 2588 19 is_stmt 0
	li	s0,0
.L804:
	.loc 1 2606 1
	lw	ra,28(sp)
	.cfi_remember_state
	.cfi_restore 1
	mv	a0,s0
	lw	s0,24(sp)
	.cfi_restore 8
	lw	s1,20(sp)
	.cfi_restore 9
	lw	s2,16(sp)
	.cfi_restore 18
	lw	s3,12(sp)
	.cfi_restore 19
	lw	s4,8(sp)
	.cfi_restore 20
	addi	sp,sp,32
	.cfi_def_cfa_offset 0
	jr	ra
.LVL704:
.L805:
	.cfi_restore_state
	.loc 1 2575 21 discriminator 1
	beq	a0,zero,.L823
	mv	s3,a1
	mv	s4,a0
	.loc 1 2580 5 is_stmt 1
	.loc 1 2580 9 is_stmt 0
	call	cJSON_CreateArray
.LVL705:
	mv	s0,a0
.LVL706:
	.loc 1 2582 5 is_stmt 1
	.loc 1 2571 12 is_stmt 0
	li	s2,0
	.loc 1 2582 11
	li	s1,0
.LVL707:
.L808:
	.loc 1 2582 16 is_stmt 1 discriminator 1
	.loc 1 2582 5 is_stmt 0 discriminator 1
	beq	s0,zero,.L823
	.loc 1 2582 18 discriminator 3
	bgtu	s3,s1,.L812
	.loc 1 2601 5 is_stmt 1
	.loc 1 2601 15 is_stmt 0
	lw	a5,8(s0)
	.loc 1 2601 11
	beq	a5,zero,.L804
	.loc 1 2602 9 is_stmt 1
	.loc 1 2602 24 is_stmt 0
	sw	s2,4(a5)
	j	.L804
.L812:
	.loc 1 2584 9 is_stmt 1
	.loc 1 2584 13 is_stmt 0
	lrw	a0,s4,s1,2
	call	__floatsidf
.LVL708:
	call	cJSON_CreateNumber
.LVL709:
	.loc 1 2585 9 is_stmt 1
	.loc 1 2585 12 is_stmt 0
	bne	a0,zero,.L809
	.loc 1 2587 13 is_stmt 1
	mv	a0,s0
.LVL710:
	call	cJSON_Delete
.LVL711:
	j	.L823
.LVL712:
.L809:
	.loc 1 2590 9
	.loc 1 2590 11 is_stmt 0
	bne	s1,zero,.L810
	.loc 1 2592 13 is_stmt 1
	.loc 1 2592 22 is_stmt 0
	sw	a0,8(s0)
.L811:
	.loc 1 2598 9 is_stmt 1 discriminator 2
.LVL713:
	.loc 1 2582 42 discriminator 2
	.loc 1 2582 43 is_stmt 0 discriminator 2
	addi	s1,s1,1
.LVL714:
	mv	s2,a0
	j	.L808
.LVL715:
.L810:
	.loc 1 2596 13 is_stmt 1
.LBB188:
.LBB189:
	.loc 1 1948 5
	.loc 1 1948 16 is_stmt 0
	sw	a0,0(s2)
	.loc 1 1949 5 is_stmt 1
	.loc 1 1949 16 is_stmt 0
	sw	s2,4(a0)
	.loc 1 1950 1
	j	.L811
.LBE189:
.LBE188:
	.cfi_endproc
.LFE94:
	.size	cJSON_CreateIntArray, .-cJSON_CreateIntArray
	.globl	__extendsfdf2
	.section	.text.cJSON_CreateFloatArray,"ax",@progbits
	.align	1
	.globl	cJSON_CreateFloatArray
	.type	cJSON_CreateFloatArray, @function
cJSON_CreateFloatArray:
.LFB95:
	.loc 1 2609 1 is_stmt 1
	.cfi_startproc
.LVL716:
	.loc 1 2610 5
	.loc 1 2611 5
	.loc 1 2612 5
	.loc 1 2613 5
	.loc 1 2615 5
	.loc 1 2609 1 is_stmt 0
	addi	sp,sp,-32
	.cfi_def_cfa_offset 32
	sw	ra,28(sp)
	sw	s0,24(sp)
	sw	s1,20(sp)
	sw	s2,16(sp)
	sw	s3,12(sp)
	sw	s4,8(sp)
	.cfi_offset 1, -4
	.cfi_offset 8, -8
	.cfi_offset 9, -12
	.cfi_offset 18, -16
	.cfi_offset 19, -20
	.cfi_offset 20, -24
	.loc 1 2615 8
	bge	a1,zero,.L825
.LVL717:
.L843:
	.loc 1 2628 13 is_stmt 1
	.loc 1 2628 19 is_stmt 0
	li	s0,0
.L824:
	.loc 1 2646 1
	lw	ra,28(sp)
	.cfi_remember_state
	.cfi_restore 1
	mv	a0,s0
	lw	s0,24(sp)
	.cfi_restore 8
	lw	s1,20(sp)
	.cfi_restore 9
	lw	s2,16(sp)
	.cfi_restore 18
	lw	s3,12(sp)
	.cfi_restore 19
	lw	s4,8(sp)
	.cfi_restore 20
	addi	sp,sp,32
	.cfi_def_cfa_offset 0
	jr	ra
.LVL718:
.L825:
	.cfi_restore_state
	.loc 1 2615 21 discriminator 1
	beq	a0,zero,.L843
	mv	s3,a1
	mv	s4,a0
	.loc 1 2620 5 is_stmt 1
	.loc 1 2620 9 is_stmt 0
	call	cJSON_CreateArray
.LVL719:
	mv	s0,a0
.LVL720:
	.loc 1 2622 5 is_stmt 1
	.loc 1 2611 12 is_stmt 0
	li	s2,0
	.loc 1 2622 11
	li	s1,0
.LVL721:
.L828:
	.loc 1 2622 16 is_stmt 1 discriminator 1
	.loc 1 2622 5 is_stmt 0 discriminator 1
	beq	s0,zero,.L843
	.loc 1 2622 18 discriminator 3
	bgtu	s3,s1,.L832
	.loc 1 2641 5 is_stmt 1
	.loc 1 2641 15 is_stmt 0
	lw	a5,8(s0)
	.loc 1 2641 11
	beq	a5,zero,.L824
	.loc 1 2642 9 is_stmt 1
	.loc 1 2642 24 is_stmt 0
	sw	s2,4(a5)
	j	.L824
.L832:
	.loc 1 2624 9 is_stmt 1
	.loc 1 2624 47 is_stmt 0
	addsl	a5, s4, s1, 2
	.loc 1 2624 13
	flw	fa0,0(a5)
	call	__extendsfdf2
.LVL722:
	call	cJSON_CreateNumber
.LVL723:
	.loc 1 2625 9 is_stmt 1
	.loc 1 2625 11 is_stmt 0
	bne	a0,zero,.L829
	.loc 1 2627 13 is_stmt 1
	mv	a0,s0
.LVL724:
	call	cJSON_Delete
.LVL725:
	j	.L843
.LVL726:
.L829:
	.loc 1 2630 9
	.loc 1 2630 11 is_stmt 0
	bne	s1,zero,.L830
	.loc 1 2632 13 is_stmt 1
	.loc 1 2632 22 is_stmt 0
	sw	a0,8(s0)
.L831:
	.loc 1 2638 9 is_stmt 1 discriminator 2
.LVL727:
	.loc 1 2622 42 discriminator 2
	.loc 1 2622 43 is_stmt 0 discriminator 2
	addi	s1,s1,1
.LVL728:
	mv	s2,a0
	j	.L828
.LVL729:
.L830:
	.loc 1 2636 13 is_stmt 1
.LBB190:
.LBB191:
	.loc 1 1948 5
	.loc 1 1948 16 is_stmt 0
	sw	a0,0(s2)
	.loc 1 1949 5 is_stmt 1
	.loc 1 1949 16 is_stmt 0
	sw	s2,4(a0)
	.loc 1 1950 1
	j	.L831
.LBE191:
.LBE190:
	.cfi_endproc
.LFE95:
	.size	cJSON_CreateFloatArray, .-cJSON_CreateFloatArray
	.section	.text.cJSON_CreateDoubleArray,"ax",@progbits
	.align	1
	.globl	cJSON_CreateDoubleArray
	.type	cJSON_CreateDoubleArray, @function
cJSON_CreateDoubleArray:
.LFB96:
	.loc 1 2649 1 is_stmt 1
	.cfi_startproc
.LVL730:
	.loc 1 2650 5
	.loc 1 2651 5
	.loc 1 2652 5
	.loc 1 2653 5
	.loc 1 2655 5
	.loc 1 2649 1 is_stmt 0
	addi	sp,sp,-32
	.cfi_def_cfa_offset 32
	sw	ra,28(sp)
	sw	s0,24(sp)
	sw	s1,20(sp)
	sw	s2,16(sp)
	sw	s3,12(sp)
	sw	s4,8(sp)
	.cfi_offset 1, -4
	.cfi_offset 8, -8
	.cfi_offset 9, -12
	.cfi_offset 18, -16
	.cfi_offset 19, -20
	.cfi_offset 20, -24
	.loc 1 2655 8
	bge	a1,zero,.L845
.LVL731:
.L863:
	.loc 1 2668 13 is_stmt 1
	.loc 1 2668 19 is_stmt 0
	li	s0,0
.L844:
	.loc 1 2686 1
	lw	ra,28(sp)
	.cfi_remember_state
	.cfi_restore 1
	mv	a0,s0
	lw	s0,24(sp)
	.cfi_restore 8
	lw	s1,20(sp)
	.cfi_restore 9
	lw	s2,16(sp)
	.cfi_restore 18
	lw	s3,12(sp)
	.cfi_restore 19
	lw	s4,8(sp)
	.cfi_restore 20
	addi	sp,sp,32
	.cfi_def_cfa_offset 0
	jr	ra
.LVL732:
.L845:
	.cfi_restore_state
	.loc 1 2655 21 discriminator 1
	beq	a0,zero,.L863
	mv	s3,a1
	mv	s4,a0
	.loc 1 2660 5 is_stmt 1
	.loc 1 2660 9 is_stmt 0
	call	cJSON_CreateArray
.LVL733:
	mv	s0,a0
.LVL734:
	.loc 1 2662 5 is_stmt 1
	.loc 1 2651 12 is_stmt 0
	li	s2,0
	.loc 1 2662 11
	li	s1,0
.LVL735:
.L848:
	.loc 1 2662 16 is_stmt 1 discriminator 1
	.loc 1 2662 5 is_stmt 0 discriminator 1
	beq	s0,zero,.L863
	.loc 1 2662 18 discriminator 3
	bgtu	s3,s1,.L852
	.loc 1 2681 5 is_stmt 1
	.loc 1 2681 15 is_stmt 0
	lw	a5,8(s0)
	.loc 1 2681 11
	beq	a5,zero,.L844
	.loc 1 2682 9 is_stmt 1
	.loc 1 2682 24 is_stmt 0
	sw	s2,4(a5)
	j	.L844
.L852:
	.loc 1 2664 9 is_stmt 1
	.loc 1 2664 13 is_stmt 0
	addsl	a5, s4, s1, 3
	lw	a0,0(a5)
	lw	a1,4(a5)
	call	cJSON_CreateNumber
.LVL736:
	.loc 1 2665 9 is_stmt 1
	.loc 1 2665 11 is_stmt 0
	bne	a0,zero,.L849
	.loc 1 2667 13 is_stmt 1
	mv	a0,s0
.LVL737:
	call	cJSON_Delete
.LVL738:
	j	.L863
.LVL739:
.L849:
	.loc 1 2670 9
	.loc 1 2670 11 is_stmt 0
	bne	s1,zero,.L850
	.loc 1 2672 13 is_stmt 1
	.loc 1 2672 22 is_stmt 0
	sw	a0,8(s0)
.L851:
	.loc 1 2678 9 is_stmt 1 discriminator 2
.LVL740:
	.loc 1 2662 42 discriminator 2
	.loc 1 2662 43 is_stmt 0 discriminator 2
	addi	s1,s1,1
.LVL741:
	mv	s2,a0
	j	.L848
.LVL742:
.L850:
	.loc 1 2676 13 is_stmt 1
.LBB192:
.LBB193:
	.loc 1 1948 5
	.loc 1 1948 16 is_stmt 0
	sw	a0,0(s2)
	.loc 1 1949 5 is_stmt 1
	.loc 1 1949 16 is_stmt 0
	sw	s2,4(a0)
	.loc 1 1950 1
	j	.L851
.LBE193:
.LBE192:
	.cfi_endproc
.LFE96:
	.size	cJSON_CreateDoubleArray, .-cJSON_CreateDoubleArray
	.section	.text.cJSON_CreateStringArray,"ax",@progbits
	.align	1
	.globl	cJSON_CreateStringArray
	.type	cJSON_CreateStringArray, @function
cJSON_CreateStringArray:
.LFB97:
	.loc 1 2689 1 is_stmt 1
	.cfi_startproc
.LVL743:
	.loc 1 2690 5
	.loc 1 2691 5
	.loc 1 2692 5
	.loc 1 2693 5
	.loc 1 2695 5
	.loc 1 2689 1 is_stmt 0
	addi	sp,sp,-32
	.cfi_def_cfa_offset 32
	sw	ra,28(sp)
	sw	s0,24(sp)
	sw	s1,20(sp)
	sw	s2,16(sp)
	sw	s3,12(sp)
	sw	s4,8(sp)
	.cfi_offset 1, -4
	.cfi_offset 8, -8
	.cfi_offset 9, -12
	.cfi_offset 18, -16
	.cfi_offset 19, -20
	.cfi_offset 20, -24
	.loc 1 2695 8
	bge	a1,zero,.L865
.LVL744:
.L883:
	.loc 1 2708 13 is_stmt 1
	.loc 1 2708 19 is_stmt 0
	li	s0,0
.L864:
	.loc 1 2726 1
	lw	ra,28(sp)
	.cfi_remember_state
	.cfi_restore 1
	mv	a0,s0
	lw	s0,24(sp)
	.cfi_restore 8
	lw	s1,20(sp)
	.cfi_restore 9
	lw	s2,16(sp)
	.cfi_restore 18
	lw	s3,12(sp)
	.cfi_restore 19
	lw	s4,8(sp)
	.cfi_restore 20
	addi	sp,sp,32
	.cfi_def_cfa_offset 0
	jr	ra
.LVL745:
.L865:
	.cfi_restore_state
	.loc 1 2695 21 discriminator 1
	beq	a0,zero,.L883
	mv	s3,a1
	mv	s4,a0
	.loc 1 2700 5 is_stmt 1
	.loc 1 2700 9 is_stmt 0
	call	cJSON_CreateArray
.LVL746:
	mv	s0,a0
.LVL747:
	.loc 1 2702 5 is_stmt 1
	.loc 1 2691 12 is_stmt 0
	li	s2,0
	.loc 1 2702 12
	li	s1,0
.LVL748:
.L868:
	.loc 1 2702 17 is_stmt 1 discriminator 1
	.loc 1 2702 5 is_stmt 0 discriminator 1
	beq	s0,zero,.L883
	.loc 1 2702 19 discriminator 3
	bgtu	s3,s1,.L872
	.loc 1 2721 5 is_stmt 1
	.loc 1 2721 15 is_stmt 0
	lw	a5,8(s0)
	.loc 1 2721 11
	beq	a5,zero,.L864
	.loc 1 2722 9 is_stmt 1
	.loc 1 2722 24 is_stmt 0
	sw	s2,4(a5)
	j	.L864
.L872:
	.loc 1 2704 9 is_stmt 1
	.loc 1 2704 13 is_stmt 0
	lrw	a0,s4,s1,2
	call	cJSON_CreateString
.LVL749:
	.loc 1 2705 9 is_stmt 1
	.loc 1 2705 11 is_stmt 0
	bne	a0,zero,.L869
	.loc 1 2707 13 is_stmt 1
	mv	a0,s0
.LVL750:
	call	cJSON_Delete
.LVL751:
	j	.L883
.LVL752:
.L869:
	.loc 1 2710 9
	.loc 1 2710 11 is_stmt 0
	bne	s1,zero,.L870
	.loc 1 2712 13 is_stmt 1
	.loc 1 2712 22 is_stmt 0
	sw	a0,8(s0)
.L871:
	.loc 1 2718 9 is_stmt 1 discriminator 2
.LVL753:
	.loc 1 2702 43 discriminator 2
	.loc 1 2702 44 is_stmt 0 discriminator 2
	addi	s1,s1,1
.LVL754:
	mv	s2,a0
	j	.L868
.LVL755:
.L870:
	.loc 1 2716 13 is_stmt 1
.LBB194:
.LBB195:
	.loc 1 1948 5
	.loc 1 1948 16 is_stmt 0
	sw	a0,0(s2)
	.loc 1 1949 5 is_stmt 1
	.loc 1 1949 16 is_stmt 0
	sw	s2,4(a0)
	.loc 1 1950 1
	j	.L871
.LBE195:
.LBE194:
	.cfi_endproc
.LFE97:
	.size	cJSON_CreateStringArray, .-cJSON_CreateStringArray
	.section	.text.cJSON_Duplicate,"ax",@progbits
	.align	1
	.globl	cJSON_Duplicate
	.type	cJSON_Duplicate, @function
cJSON_Duplicate:
.LFB98:
	.loc 1 2730 1 is_stmt 1
	.cfi_startproc
.LVL756:
	.loc 1 2731 5
	.loc 1 2732 5
	.loc 1 2733 5
	.loc 1 2734 5
	.loc 1 2737 5
	.loc 1 2730 1 is_stmt 0
	addi	sp,sp,-16
	.cfi_def_cfa_offset 16
	sw	ra,12(sp)
	sw	s0,8(sp)
	sw	s1,4(sp)
	sw	s2,0(sp)
	.cfi_offset 1, -4
	.cfi_offset 8, -8
	.cfi_offset 9, -12
	.cfi_offset 18, -16
	.loc 1 2737 8
	bne	a0,zero,.L885
.LVL757:
.L919:
	.loc 1 2809 11
	li	s0,0
	j	.L884
.LVL758:
.L885:
	.loc 1 2742 15
	lui	a5,%hi(.LANCHOR0)
	mv	s1,a0
	.loc 1 2742 5 is_stmt 1
	.loc 1 2742 15 is_stmt 0
	lw	a0,%lo(.LANCHOR0)(a5)
.LVL759:
	mv	s2,a1
	call	cJSON_New_Item.isra.0
.LVL760:
	mv	s0,a0
.LVL761:
	.loc 1 2743 5 is_stmt 1
	.loc 1 2743 8 is_stmt 0
	beq	a0,zero,.L919
	.loc 1 2748 5 is_stmt 1
	.loc 1 2748 32 is_stmt 0
	lw	a5,12(s1)
	.loc 1 2750 32
	lw	a4,24(s1)
	.loc 1 2748 32
	andi	a5,a5,-257
	.loc 1 2748 19
	sw	a5,12(a0)
	.loc 1 2749 5 is_stmt 1
	.loc 1 2749 29 is_stmt 0
	lw	a5,20(s1)
	.loc 1 2749 23
	sw	a5,20(a0)
	.loc 1 2750 5 is_stmt 1
	.loc 1 2750 32 is_stmt 0
	lw	a5,28(s1)
	.loc 1 2750 26
	sw	a4,24(a0)
	sw	a5,28(a0)
	.loc 1 2751 5 is_stmt 1
	.loc 1 2751 13 is_stmt 0
	lw	a0,16(s1)
	.loc 1 2751 8
	bne	a0,zero,.L888
.L892:
	.loc 1 2759 5 is_stmt 1
	.loc 1 2759 13 is_stmt 0
	lw	a0,32(s1)
	.loc 1 2759 8
	bne	a0,zero,.L889
.L890:
	.loc 1 2768 5 is_stmt 1
	.loc 1 2768 8 is_stmt 0
	bne	s2,zero,.L917
.LVL762:
.L884:
	.loc 1 2810 1
	lw	ra,12(sp)
	.cfi_remember_state
	.cfi_restore 1
	mv	a0,s0
	lw	s0,8(sp)
	.cfi_restore 8
	lw	s1,4(sp)
	.cfi_restore 9
	lw	s2,0(sp)
	.cfi_restore 18
	addi	sp,sp,16
	.cfi_def_cfa_offset 0
	jr	ra
.LVL763:
.L888:
	.cfi_restore_state
	.loc 1 2753 9 is_stmt 1
	.loc 1 2753 39 is_stmt 0
	call	cJSON_strdup.constprop.0
.LVL764:
	.loc 1 2753 30
	sw	a0,16(s0)
	.loc 1 2754 9 is_stmt 1
	.loc 1 2754 12 is_stmt 0
	bne	a0,zero,.L892
.LVL765:
.L891:
	.loc 1 2804 5 is_stmt 1
	.loc 1 2806 9
	mv	a0,s0
	call	cJSON_Delete
.LVL766:
	j	.L919
.LVL767:
.L889:
	.loc 1 2761 9
	.loc 1 2761 38 is_stmt 0
	lw	a5,12(s1)
	andi	a5,a5,512
	.loc 1 2761 59
	bne	a5,zero,.L894
	.loc 1 2761 68 discriminator 2
	call	cJSON_strdup.constprop.0
.LVL768:
.L894:
	.loc 1 2761 25 discriminator 4
	sw	a0,32(s0)
	.loc 1 2762 9 is_stmt 1 discriminator 4
	.loc 1 2762 12 is_stmt 0 discriminator 4
	bne	a0,zero,.L890
	j	.L891
.L917:
	.loc 1 2773 5 is_stmt 1
	.loc 1 2773 11 is_stmt 0
	lw	s2,8(s1)
.LVL769:
	.loc 1 2774 5 is_stmt 1
	.loc 1 2733 12 is_stmt 0
	li	s1,0
.LVL770:
.L895:
	.loc 1 2774 11 is_stmt 1
	bne	s2,zero,.L898
	.loc 1 2796 5 discriminator 1
	.loc 1 2796 27 is_stmt 0 discriminator 1
	lw	a5,8(s0)
	.loc 1 2796 17 discriminator 1
	beq	a5,zero,.L884
	.loc 1 2798 9 is_stmt 1
	.loc 1 2798 30 is_stmt 0
	sw	s1,4(a5)
.LVL771:
	j	.L884
.LVL772:
.L898:
	.loc 1 2776 9 is_stmt 1
	.loc 1 2776 20 is_stmt 0
	li	a1,1
	mv	a0,s2
	call	cJSON_Duplicate
.LVL773:
	.loc 1 2777 9 is_stmt 1
	.loc 1 2777 12 is_stmt 0
	beq	a0,zero,.L891
	.loc 1 2781 9 is_stmt 1
	.loc 1 2781 12 is_stmt 0
	beq	s1,zero,.L896
	.loc 1 2784 13 is_stmt 1
	.loc 1 2784 24 is_stmt 0
	sw	a0,0(s1)
	.loc 1 2785 13 is_stmt 1
	.loc 1 2785 28 is_stmt 0
	sw	s1,4(a0)
	.loc 1 2786 13 is_stmt 1
.LVL774:
.L897:
	.loc 1 2794 9
	.loc 1 2794 15 is_stmt 0
	lw	s2,0(s2)
.LVL775:
	mv	s1,a0
	j	.L895
.LVL776:
.L896:
	.loc 1 2791 13 is_stmt 1
	.loc 1 2791 28 is_stmt 0
	sw	a0,8(s0)
	.loc 1 2792 13 is_stmt 1
.LVL777:
	j	.L897
	.cfi_endproc
.LFE98:
	.size	cJSON_Duplicate, .-cJSON_Duplicate
	.section	.text.cJSON_Minify,"ax",@progbits
	.align	1
	.globl	cJSON_Minify
	.type	cJSON_Minify, @function
cJSON_Minify:
.LFB102:
	.loc 1 2862 1
	.cfi_startproc
.LVL778:
	.loc 1 2863 5
	.loc 1 2865 5
	.loc 1 2865 8 is_stmt 0
	beq	a0,zero,.L920
	mv	a5,a0
	.loc 1 2872 9
	li	a2,34
.LBB202:
.LBB203:
	.loc 1 2853 19
	li	t3,92
.LBE203:
.LBE202:
	.loc 1 2872 9
	li	a6,47
	.loc 1 2886 25
	li	a7,42
.LBB205:
.LBB206:
	.loc 1 2818 12
	li	t4,10
.LBE206:
.LBE205:
	.loc 1 2872 9
	li	t1,13
	li	t5,32
	li	t6,1
.LVL779:
.L922:
	.loc 1 2870 11 is_stmt 1
	.loc 1 2870 16 is_stmt 0
	lbu	a4,0(a0)
	.loc 1 2870 11
	bne	a4,zero,.L940
	.loc 1 2906 5 is_stmt 1
	.loc 1 2906 11 is_stmt 0
	sb	zero,0(a5)
.LVL780:
.L920:
	.loc 1 2907 1
	ret
.LVL781:
.L940:
	.loc 1 2872 9 is_stmt 1
	beq	a4,a2,.L923
	bgtu	a4,a2,.L924
	beq	a4,t1,.L944
	bgtu	a4,t1,.L926
	addi	a3,a4,-9
	andi	a3,a3,0xff
	bleu	a3,t6,.L944
.L927:
	.loc 1 2899 17
	.loc 1 2899 25 is_stmt 0
	sbia	a4,(a5),1,0
.LVL782:
	j	.L944
.LVL783:
.L926:
	.loc 1 2872 9
	bne	a4,t5,.L927
.LVL784:
.L944:
	.loc 1 2900 17 is_stmt 1
	.loc 1 2900 21 is_stmt 0
	addi	a0,a0,1
.LVL785:
	.loc 1 2901 17 is_stmt 1
	j	.L922
.LVL786:
.L924:
	.loc 1 2872 9 is_stmt 0
	bne	a4,a6,.L927
	.loc 1 2882 17 is_stmt 1
	.loc 1 2882 25 is_stmt 0
	lbu	a4,1(a0)
	.loc 1 2882 20
	bne	a4,a6,.L930
	.loc 1 2884 21 is_stmt 1
.LVL787:
.LBB208:
.LBB207:
	.loc 1 2814 5
	.loc 1 2814 12 is_stmt 0
	addi	a0,a0,2
.LVL788:
	.loc 1 2816 5 is_stmt 1
.L931:
	.loc 1 2816 12
	.loc 1 2816 20 is_stmt 0
	lbu	a4,0(a0)
	.loc 1 2816 5
	beq	a4,zero,.L922
	.loc 1 2818 9 is_stmt 1
	.loc 1 2819 20 is_stmt 0
	addi	a0,a0,1
.LVL789:
	.loc 1 2818 12
	bne	a4,t4,.L931
	j	.L922
.LVL790:
.L930:
.LBE207:
.LBE208:
	.loc 1 2886 22 is_stmt 1
	.loc 1 2886 25 is_stmt 0
	bne	a4,a7,.L944
	.loc 1 2888 21 is_stmt 1
.LVL791:
.LBB209:
.LBB210:
	.loc 1 2827 5
	.loc 1 2827 12 is_stmt 0
	addi	a0,a0,2
.LVL792:
	.loc 1 2829 5 is_stmt 1
.L934:
	.loc 1 2829 12
	.loc 1 2829 20 is_stmt 0
	lbu	a4,0(a0)
	.loc 1 2829 5
	beq	a4,zero,.L922
	.loc 1 2831 9 is_stmt 1
	.loc 1 2831 12 is_stmt 0
	bne	a4,a7,.L935
	.loc 1 2831 34
	lbu	a4,1(a0)
	bne	a4,a6,.L935
	.loc 1 2833 13 is_stmt 1
	.loc 1 2833 20 is_stmt 0
	addi	a0,a0,2
.LVL793:
	.loc 1 2834 13 is_stmt 1
	j	.L922
.L935:
	.loc 1 2829 33
	addi	a0,a0,1
.LVL794:
	j	.L934
.LVL795:
.L923:
.LBE210:
.LBE209:
	.loc 1 2895 17
.LBB211:
.LBB204:
	.loc 1 2840 5
	.loc 1 2840 18 is_stmt 0
	mv	a4,a5
	sbia	a2,(a4),1,0
	.loc 1 2841 5 is_stmt 1
	.loc 1 2841 12 is_stmt 0
	addi	a3,a0,1
.LVL796:
	.loc 1 2842 5 is_stmt 1
	.loc 1 2845 5
.L937:
	.loc 1 2845 12
	.loc 1 2845 20 is_stmt 0
	lbu	a1,0(a3)
	.loc 1 2846 22
	mv	a5,a4
	.loc 1 2845 5
	bne	a1,zero,.L939
	mv	a0,a3
	j	.L922
.L939:
	.loc 1 2846 9 is_stmt 1
	.loc 1 2846 22 is_stmt 0
	sbia	a1,(a5),1,0
	.loc 1 2848 9 is_stmt 1
	.loc 1 2850 20 is_stmt 0
	addi	a0,a3,1
	.loc 1 2848 12
	beq	a1,a2,.L922
	.loc 1 2853 16 is_stmt 1
	.loc 1 2853 19 is_stmt 0
	bne	a1,t3,.L938
	.loc 1 2853 42
	lbu	a1,1(a3)
	bne	a1,a2,.L938
	.loc 1 2854 13 is_stmt 1
	.loc 1 2854 26 is_stmt 0
	sb	a2,1(a4)
	.loc 1 2855 13 is_stmt 1
.LVL797:
	.loc 1 2856 13
	.loc 1 2850 20 is_stmt 0
	mv	a3,a0
.LVL798:
	.loc 1 2851 21
	mv	a4,a5
.LVL799:
.L938:
	.loc 1 2845 33 is_stmt 1
	addi	a3,a3,1
.LVL800:
	.loc 1 2845 51 is_stmt 0
	addi	a4,a4,1
.LVL801:
	j	.L937
.LBE204:
.LBE211:
	.cfi_endproc
.LFE102:
	.size	cJSON_Minify, .-cJSON_Minify
	.section	.text.cJSON_IsInvalid,"ax",@progbits
	.align	1
	.globl	cJSON_IsInvalid
	.type	cJSON_IsInvalid, @function
cJSON_IsInvalid:
.LFB103:
	.loc 1 2910 1 is_stmt 1
	.cfi_startproc
.LVL802:
	.loc 1 2911 5
	.loc 1 2911 8 is_stmt 0
	beq	a0,zero,.L947
	.loc 1 2916 5 is_stmt 1
	.loc 1 2916 24 is_stmt 0
	lbu	a0,12(a0)
.LVL803:
	.loc 1 2916 32
	seqz	a0,a0
	ret
.LVL804:
.L947:
	.loc 1 2913 16
	li	a0,0
.LVL805:
	.loc 1 2917 1
	ret
	.cfi_endproc
.LFE103:
	.size	cJSON_IsInvalid, .-cJSON_IsInvalid
	.section	.text.cJSON_IsFalse,"ax",@progbits
	.align	1
	.globl	cJSON_IsFalse
	.type	cJSON_IsFalse, @function
cJSON_IsFalse:
.LFB104:
	.loc 1 2920 1 is_stmt 1
	.cfi_startproc
.LVL806:
	.loc 1 2921 5
	.loc 1 2921 8 is_stmt 0
	beq	a0,zero,.L950
	.loc 1 2926 5 is_stmt 1
	.loc 1 2926 24 is_stmt 0
	lbu	a0,12(a0)
.LVL807:
	.loc 1 2926 32
	addi	a0,a0,-1
	seqz	a0,a0
	ret
.LVL808:
.L950:
	.loc 1 2923 16
	li	a0,0
.LVL809:
	.loc 1 2927 1
	ret
	.cfi_endproc
.LFE104:
	.size	cJSON_IsFalse, .-cJSON_IsFalse
	.section	.text.cJSON_IsTrue,"ax",@progbits
	.align	1
	.globl	cJSON_IsTrue
	.type	cJSON_IsTrue, @function
cJSON_IsTrue:
.LFB105:
	.loc 1 2930 1 is_stmt 1
	.cfi_startproc
.LVL810:
	.loc 1 2931 5
	.loc 1 2931 8 is_stmt 0
	beq	a0,zero,.L953
	.loc 1 2936 5 is_stmt 1
	.loc 1 2936 24 is_stmt 0
	lbu	a0,12(a0)
.LVL811:
	.loc 1 2936 32
	addi	a0,a0,-2
	seqz	a0,a0
	ret
.LVL812:
.L953:
	.loc 1 2933 16
	li	a0,0
.LVL813:
	.loc 1 2937 1
	ret
	.cfi_endproc
.LFE105:
	.size	cJSON_IsTrue, .-cJSON_IsTrue
	.section	.text.cJSON_IsBool,"ax",@progbits
	.align	1
	.globl	cJSON_IsBool
	.type	cJSON_IsBool, @function
cJSON_IsBool:
.LFB106:
	.loc 1 2941 1 is_stmt 1
	.cfi_startproc
.LVL814:
	.loc 1 2942 5
	.loc 1 2942 8 is_stmt 0
	beq	a0,zero,.L956
	.loc 1 2947 5 is_stmt 1
	.loc 1 2947 24 is_stmt 0
	lw	a0,12(a0)
.LVL815:
	andi	a0,a0,3
	.loc 1 2947 49
	snez	a0,a0
	ret
.LVL816:
.L956:
	.loc 1 2944 16
	li	a0,0
.LVL817:
	.loc 1 2948 1
	ret
	.cfi_endproc
.LFE106:
	.size	cJSON_IsBool, .-cJSON_IsBool
	.section	.text.cJSON_IsNull,"ax",@progbits
	.align	1
	.globl	cJSON_IsNull
	.type	cJSON_IsNull, @function
cJSON_IsNull:
.LFB107:
	.loc 1 2950 1 is_stmt 1
	.cfi_startproc
.LVL818:
	.loc 1 2951 5
	.loc 1 2951 8 is_stmt 0
	beq	a0,zero,.L959
	.loc 1 2956 5 is_stmt 1
	.loc 1 2956 24 is_stmt 0
	lbu	a0,12(a0)
.LVL819:
	.loc 1 2956 32
	addi	a0,a0,-4
	seqz	a0,a0
	ret
.LVL820:
.L959:
	.loc 1 2953 16
	li	a0,0
.LVL821:
	.loc 1 2957 1
	ret
	.cfi_endproc
.LFE107:
	.size	cJSON_IsNull, .-cJSON_IsNull
	.section	.text.cJSON_IsNumber,"ax",@progbits
	.align	1
	.globl	cJSON_IsNumber
	.type	cJSON_IsNumber, @function
cJSON_IsNumber:
.LFB108:
	.loc 1 2960 1 is_stmt 1
	.cfi_startproc
.LVL822:
	.loc 1 2961 5
	.loc 1 2961 8 is_stmt 0
	beq	a0,zero,.L962
	.loc 1 2966 5 is_stmt 1
	.loc 1 2966 24 is_stmt 0
	lbu	a0,12(a0)
.LVL823:
	.loc 1 2966 32
	addi	a0,a0,-8
	seqz	a0,a0
	ret
.LVL824:
.L962:
	.loc 1 2963 16
	li	a0,0
.LVL825:
	.loc 1 2967 1
	ret
	.cfi_endproc
.LFE108:
	.size	cJSON_IsNumber, .-cJSON_IsNumber
	.section	.text.cJSON_GetNumberValue,"ax",@progbits
	.align	1
	.globl	cJSON_GetNumberValue
	.type	cJSON_GetNumberValue, @function
cJSON_GetNumberValue:
.LFB6:
	.loc 1 110 1 is_stmt 1
	.cfi_startproc
.LVL826:
	.loc 1 111 5
	.loc 1 110 1 is_stmt 0
	addi	sp,sp,-16
	.cfi_def_cfa_offset 16
	sw	s0,8(sp)
	sw	ra,12(sp)
	.cfi_offset 8, -8
	.cfi_offset 1, -4
	.loc 1 110 1
	mv	s0,a0
	.loc 1 111 10
	call	cJSON_IsNumber
.LVL827:
	.loc 1 111 8
	beq	a0,zero,.L965
	.loc 1 116 5 is_stmt 1
	.loc 1 116 16 is_stmt 0
	lw	a0,24(s0)
	lw	a1,28(s0)
.L963:
	.loc 1 117 1
	lw	ra,12(sp)
	.cfi_remember_state
	.cfi_restore 1
	lw	s0,8(sp)
	.cfi_restore 8
.LVL828:
	addi	sp,sp,16
	.cfi_def_cfa_offset 0
	jr	ra
.LVL829:
.L965:
	.cfi_restore_state
	.loc 1 113 16
	lui	a5,%hi(.LC15)
	lw	a0,%lo(.LC15)(a5)
	lw	a1,%lo(.LC15+4)(a5)
	j	.L963
	.cfi_endproc
.LFE6:
	.size	cJSON_GetNumberValue, .-cJSON_GetNumberValue
	.section	.text.cJSON_IsString,"ax",@progbits
	.align	1
	.globl	cJSON_IsString
	.type	cJSON_IsString, @function
cJSON_IsString:
.LFB109:
	.loc 1 2970 1 is_stmt 1
	.cfi_startproc
.LVL830:
	.loc 1 2971 5
	.loc 1 2971 8 is_stmt 0
	beq	a0,zero,.L969
	.loc 1 2976 5 is_stmt 1
	.loc 1 2976 24 is_stmt 0
	lbu	a0,12(a0)
.LVL831:
	.loc 1 2976 32
	addi	a0,a0,-16
	seqz	a0,a0
	ret
.LVL832:
.L969:
	.loc 1 2973 16
	li	a0,0
.LVL833:
	.loc 1 2977 1
	ret
	.cfi_endproc
.LFE109:
	.size	cJSON_IsString, .-cJSON_IsString
	.section	.text.cJSON_GetStringValue,"ax",@progbits
	.align	1
	.globl	cJSON_GetStringValue
	.type	cJSON_GetStringValue, @function
cJSON_GetStringValue:
.LFB5:
	.loc 1 100 1 is_stmt 1
	.cfi_startproc
.LVL834:
	.loc 1 101 5
	.loc 1 100 1 is_stmt 0
	addi	sp,sp,-16
	.cfi_def_cfa_offset 16
	sw	s0,8(sp)
	sw	ra,12(sp)
	.cfi_offset 8, -8
	.cfi_offset 1, -4
	.loc 1 100 1
	mv	s0,a0
	.loc 1 101 10
	call	cJSON_IsString
.LVL835:
	.loc 1 101 8
	beq	a0,zero,.L972
	.loc 1 106 5 is_stmt 1
	.loc 1 106 16 is_stmt 0
	lw	a0,16(s0)
.L970:
	.loc 1 107 1
	lw	ra,12(sp)
	.cfi_remember_state
	.cfi_restore 1
	lw	s0,8(sp)
	.cfi_restore 8
.LVL836:
	addi	sp,sp,16
	.cfi_def_cfa_offset 0
	jr	ra
.LVL837:
.L972:
	.cfi_restore_state
	.loc 1 103 15
	li	a0,0
	j	.L970
	.cfi_endproc
.LFE5:
	.size	cJSON_GetStringValue, .-cJSON_GetStringValue
	.section	.text.cJSON_IsArray,"ax",@progbits
	.align	1
	.globl	cJSON_IsArray
	.type	cJSON_IsArray, @function
cJSON_IsArray:
.LFB110:
	.loc 1 2980 1 is_stmt 1
	.cfi_startproc
.LVL838:
	.loc 1 2981 5
	.loc 1 2981 8 is_stmt 0
	beq	a0,zero,.L976
	.loc 1 2986 5 is_stmt 1
	.loc 1 2986 24 is_stmt 0
	lbu	a0,12(a0)
.LVL839:
	.loc 1 2986 32
	addi	a0,a0,-32
	seqz	a0,a0
	ret
.LVL840:
.L976:
	.loc 1 2983 16
	li	a0,0
.LVL841:
	.loc 1 2987 1
	ret
	.cfi_endproc
.LFE110:
	.size	cJSON_IsArray, .-cJSON_IsArray
	.section	.text.cJSON_IsObject,"ax",@progbits
	.align	1
	.globl	cJSON_IsObject
	.type	cJSON_IsObject, @function
cJSON_IsObject:
.LFB111:
	.loc 1 2990 1 is_stmt 1
	.cfi_startproc
.LVL842:
	.loc 1 2991 5
	.loc 1 2991 8 is_stmt 0
	beq	a0,zero,.L979
	.loc 1 2996 5 is_stmt 1
	.loc 1 2996 24 is_stmt 0
	lbu	a0,12(a0)
.LVL843:
	.loc 1 2996 32
	addi	a0,a0,-64
	seqz	a0,a0
	ret
.LVL844:
.L979:
	.loc 1 2993 16
	li	a0,0
.LVL845:
	.loc 1 2997 1
	ret
	.cfi_endproc
.LFE111:
	.size	cJSON_IsObject, .-cJSON_IsObject
	.section	.text.cJSON_IsRaw,"ax",@progbits
	.align	1
	.globl	cJSON_IsRaw
	.type	cJSON_IsRaw, @function
cJSON_IsRaw:
.LFB112:
	.loc 1 3000 1 is_stmt 1
	.cfi_startproc
.LVL846:
	.loc 1 3001 5
	.loc 1 3001 8 is_stmt 0
	beq	a0,zero,.L982
	.loc 1 3006 5 is_stmt 1
	.loc 1 3006 24 is_stmt 0
	lbu	a0,12(a0)
.LVL847:
	.loc 1 3006 32
	addi	a0,a0,-128
	seqz	a0,a0
	ret
.LVL848:
.L982:
	.loc 1 3003 16
	li	a0,0
.LVL849:
	.loc 1 3007 1
	ret
	.cfi_endproc
.LFE112:
	.size	cJSON_IsRaw, .-cJSON_IsRaw
	.section	.text.cJSON_Compare,"ax",@progbits
	.align	1
	.globl	cJSON_Compare
	.type	cJSON_Compare, @function
cJSON_Compare:
.LFB113:
	.loc 1 3010 1 is_stmt 1
	.cfi_startproc
.LVL850:
	.loc 1 3011 5
	.loc 1 3011 8 is_stmt 0
	bne	a0,zero,.L984
.L1040:
	.loc 1 3013 16
	li	a5,0
	.loc 1 3132 1
	mv	a0,a5
.LVL851:
	ret
.LVL852:
.L984:
	.loc 1 3011 20 discriminator 1
	beq	a1,zero,.L1040
	.loc 1 3011 41 discriminator 2
	lw	a3,12(a0)
	.loc 1 3011 56 discriminator 2
	lw	a5,12(a1)
	xor	a5,a3,a5
	andi	a5,a5,255
	.loc 1 3011 35 discriminator 2
	bne	a5,zero,.L1040
	.loc 1 3010 1
	addi	sp,sp,-32
	.cfi_def_cfa_offset 32
	sw	s0,24(sp)
	sw	s1,20(sp)
	sw	s3,12(sp)
	.cfi_offset 8, -8
	.cfi_offset 9, -12
	.cfi_offset 19, -20
	mv	s1,a2
	sw	ra,28(sp)
	sw	s2,16(sp)
	.cfi_offset 1, -4
	.cfi_offset 18, -16
	.loc 1 3017 21
	andi	a4,a3,255
	.loc 1 3017 5
	li	a2,32
.LVL853:
	mv	s0,a1
	mv	s3,a0
	.loc 1 3017 5 is_stmt 1
	bgt	a4,a2,.L987
.LVL854:
	andi	a3,a3,252
	bne	a3,zero,.L988
	addi	a4,a4,-1
	li	a3,1
	bgtu	a4,a3,.L983
	.loc 1 3027 13
	.loc 1 3034 5
	.loc 1 3034 8 is_stmt 0
	beq	a0,a1,.L1010
	.loc 1 3039 5
	sltiu	a5,a4,2
	j	.L983
.L988:
	.loc 1 3017 5
	addi	a2,a4,-4
	li	a3,1
	sll	a3,a3,a2
	li	a2,268439552
	addi	a2,a2,17
	and	a3,a3,a2
	beq	a3,zero,.L983
	.loc 1 3027 13 is_stmt 1
	.loc 1 3034 5
	.loc 1 3034 8 is_stmt 0
	bne	a0,a1,.L992
.LVL855:
.L1010:
	.loc 1 3039 5
	li	a5,1
	j	.L983
.LVL856:
.L987:
	.loc 1 3017 5
	addi	a3,a4,-64
	andi	a3,a3,-65
	bne	a3,zero,.L983
	.loc 1 3027 13 is_stmt 1
	.loc 1 3034 5
	.loc 1 3034 8 is_stmt 0
	beq	a0,a1,.L1010
	.loc 1 3039 5
	li	a3,64
	beq	a4,a3,.L997
.L994:
	li	a3,128
	beq	a4,a3,.L993
	li	a3,32
	bne	a4,a3,.L983
.LBB212:
	.loc 1 3069 13 is_stmt 1
	.loc 1 3069 20 is_stmt 0
	lw	s2,8(s3)
.LVL857:
	.loc 1 3070 13 is_stmt 1
	.loc 1 3070 20 is_stmt 0
	lw	s0,8(s0)
.LVL858:
	.loc 1 3072 13 is_stmt 1
.L999:
	.loc 1 3072 20
	.loc 1 3072 13 is_stmt 0
	beq	s2,zero,.L1000
	.loc 1 3072 39 discriminator 1
	bne	s0,zero,.L1001
.LVL859:
.L986:
.LBE212:
	.loc 1 3013 16
	li	a5,0
.L983:
	.loc 1 3132 1
	lw	ra,28(sp)
	.cfi_remember_state
	.cfi_restore 1
	lw	s0,24(sp)
	.cfi_restore 8
	lw	s1,20(sp)
	.cfi_restore 9
.LVL860:
	lw	s2,16(sp)
	.cfi_restore 18
	lw	s3,12(sp)
	.cfi_restore 19
.LVL861:
	mv	a0,a5
	addi	sp,sp,32
	.cfi_def_cfa_offset 0
	jr	ra
.LVL862:
.L992:
	.cfi_restore_state
	.loc 1 3039 5 is_stmt 1
	li	a3,16
	beq	a4,a3,.L993
	bgt	a4,a3,.L994
	li	a3,4
	beq	a4,a3,.L1010
	li	a3,8
	bne	a4,a3,.L983
	.loc 1 3048 13
	.loc 1 3048 17 is_stmt 0
	lw	a2,24(a1)
	lw	a3,28(a1)
	lw	a0,24(a0)
.LVL863:
	lw	a1,28(s3)
	call	compare_double
.LVL864:
	.loc 1 3048 16
	snez	a5,a0
	j	.L983
.LVL865:
.L993:
	.loc 1 3056 13 is_stmt 1
	.loc 1 3056 19 is_stmt 0
	lw	a0,16(s3)
.LVL866:
	.loc 1 3056 16
	beq	a0,zero,.L986
	.loc 1 3056 46 discriminator 1
	lw	a1,16(s0)
	.loc 1 3056 41 discriminator 1
	beq	a1,zero,.L986
	.loc 1 3060 13 is_stmt 1
	.loc 1 3060 17 is_stmt 0
	call	strcmp
.LVL867:
	.loc 1 3060 16
	seqz	a5,a0
	j	.L983
.LVL868:
.L1001:
.LBB213:
	.loc 1 3074 17 is_stmt 1
	.loc 1 3074 22 is_stmt 0
	mv	a2,s1
	mv	a1,s0
	mv	a0,s2
	call	cJSON_Compare
.LVL869:
	.loc 1 3074 20
	beq	a0,zero,.L986
	.loc 1 3079 17 is_stmt 1
	.loc 1 3079 27 is_stmt 0
	lw	s2,0(s2)
.LVL870:
	.loc 1 3080 17 is_stmt 1
	.loc 1 3080 27 is_stmt 0
	lw	s0,0(s0)
.LVL871:
	j	.L999
.L1000:
	.loc 1 3084 13 is_stmt 1
	.loc 1 3084 16 is_stmt 0
	seqz	a5,s0
	j	.L983
.LVL872:
.L997:
.LBE213:
.LBB214:
	.loc 1 3093 13 is_stmt 1 discriminator 1
	.loc 1 3094 13 discriminator 1
	.loc 1 3095 13 discriminator 1
	.loc 1 3095 27 is_stmt 0 discriminator 1
	lw	s2,8(s3)
.LVL873:
.L1002:
	.loc 1 3095 14 is_stmt 1 discriminator 5
	.loc 1 3095 13 is_stmt 0 discriminator 5
	bne	s2,zero,.L1003
	.loc 1 3112 13 is_stmt 1 discriminator 1
	.loc 1 3112 27 is_stmt 0 discriminator 1
	lw	s0,8(s0)
.LVL874:
.L1004:
	.loc 1 3112 14 is_stmt 1 discriminator 5
	.loc 1 3112 13 is_stmt 0 discriminator 5
	beq	s0,zero,.L1010
	.loc 1 3114 17 is_stmt 1
	.loc 1 3114 29 is_stmt 0
	lw	a1,32(s0)
	mv	a2,s1
	mv	a0,s3
	call	get_object_item
.LVL875:
	mv	a1,a0
.LVL876:
	.loc 1 3115 17 is_stmt 1
	.loc 1 3115 20 is_stmt 0
	beq	a0,zero,.L986
	.loc 1 3120 17 is_stmt 1
	.loc 1 3120 22 is_stmt 0
	mv	a2,s1
	mv	a0,s0
.LVL877:
	call	cJSON_Compare
.LVL878:
	.loc 1 3120 20
	beq	a0,zero,.L986
	.loc 1 3112 14 is_stmt 1 discriminator 6
	.loc 1 3112 24 is_stmt 0 discriminator 6
	lw	s0,0(s0)
.LVL879:
	j	.L1004
.LVL880:
.L1003:
	.loc 1 3098 17 is_stmt 1
	.loc 1 3098 29 is_stmt 0
	lw	a1,32(s2)
	mv	a2,s1
	mv	a0,s0
	call	get_object_item
.LVL881:
	mv	a1,a0
.LVL882:
	.loc 1 3099 17 is_stmt 1
	.loc 1 3099 20 is_stmt 0
	beq	a0,zero,.L986
	.loc 1 3104 17 is_stmt 1
	.loc 1 3104 22 is_stmt 0
	mv	a2,s1
	mv	a0,s2
.LVL883:
	call	cJSON_Compare
.LVL884:
	.loc 1 3104 20
	beq	a0,zero,.L986
	.loc 1 3095 14 is_stmt 1 discriminator 6
	.loc 1 3095 24 is_stmt 0 discriminator 6
	lw	s2,0(s2)
.LVL885:
	j	.L1002
.LBE214:
	.cfi_endproc
.LFE113:
	.size	cJSON_Compare, .-cJSON_Compare
	.section	.text.cJSON_malloc,"ax",@progbits
	.align	1
	.globl	cJSON_malloc
	.type	cJSON_malloc, @function
cJSON_malloc:
.LFB114:
	.loc 1 3135 1 is_stmt 1
	.cfi_startproc
.LVL886:
	.loc 1 3136 5
	.loc 1 3136 12 is_stmt 0
	lui	a5,%hi(.LANCHOR0)
	lw	a5,%lo(.LANCHOR0)(a5)
	jr	a5
.LVL887:
	.cfi_endproc
.LFE114:
	.size	cJSON_malloc, .-cJSON_malloc
	.section	.text.cJSON_free,"ax",@progbits
	.align	1
	.globl	cJSON_free
	.type	cJSON_free, @function
cJSON_free:
.LFB115:
	.loc 1 3140 1 is_stmt 1
	.cfi_startproc
.LVL888:
	.loc 1 3141 5
	.loc 1 3141 17 is_stmt 0
	lui	a5,%hi(.LANCHOR0+4)
	.loc 1 3141 5
	lw	a5,%lo(.LANCHOR0+4)(a5)
	jr	a5
.LVL889:
	.cfi_endproc
.LFE115:
	.size	cJSON_free, .-cJSON_free
	.section	.text.cJSON_SetValuestring,"ax",@progbits
	.align	1
	.globl	cJSON_SetValuestring
	.type	cJSON_SetValuestring, @function
cJSON_SetValuestring:
.LFB16:
	.loc 1 404 1 is_stmt 1
	.cfi_startproc
.LVL890:
	.loc 1 405 5
	.loc 1 407 5
	.loc 1 404 1 is_stmt 0
	addi	sp,sp,-32
	.cfi_def_cfa_offset 32
	sw	ra,28(sp)
	sw	s0,24(sp)
	sw	s1,20(sp)
	.cfi_offset 1, -4
	.cfi_offset 8, -8
	.cfi_offset 9, -12
	.loc 1 407 8
	bne	a0,zero,.L1046
.LVL891:
.L1048:
	.loc 1 409 15
	li	s1,0
.L1045:
	.loc 1 433 1
	lw	ra,28(sp)
	.cfi_remember_state
	.cfi_restore 1
	lw	s0,24(sp)
	.cfi_restore 8
	mv	a0,s1
	lw	s1,20(sp)
	.cfi_restore 9
	addi	sp,sp,32
	.cfi_def_cfa_offset 0
	jr	ra
.LVL892:
.L1046:
	.cfi_restore_state
	.loc 1 407 55 discriminator 1
	lw	a5,12(a0)
	li	a4,16
	andi	a5,a5,272
	bne	a5,a4,.L1048
	.loc 1 412 5 is_stmt 1
	.loc 1 412 8 is_stmt 0
	lw	a5,16(a0)
	beq	a5,zero,.L1048
	.loc 1 412 36 discriminator 1
	beq	a1,zero,.L1048
	mv	s0,a0
	.loc 1 416 5 is_stmt 1
	.loc 1 416 9 is_stmt 0
	mv	a0,a1
.LVL893:
	sw	a1,12(sp)
	call	strlen
.LVL894:
	mv	s1,a0
	.loc 1 416 32
	lw	a0,16(s0)
	call	strlen
.LVL895:
	.loc 1 416 8
	lw	a1,12(sp)
	bgtu	s1,a0,.L1049
	.loc 1 418 9 is_stmt 1
	lw	a0,16(s0)
	call	strcpy
.LVL896:
	.loc 1 419 9
	.loc 1 419 22 is_stmt 0
	lw	s1,16(s0)
	j	.L1045
.L1049:
	.loc 1 421 5 is_stmt 1
	.loc 1 421 20 is_stmt 0
	mv	a0,a1
	call	cJSON_strdup.constprop.0
.LVL897:
	mv	s1,a0
.LVL898:
	.loc 1 422 5 is_stmt 1
	.loc 1 422 8 is_stmt 0
	beq	a0,zero,.L1048
	.loc 1 426 5 is_stmt 1
	.loc 1 426 15 is_stmt 0
	lw	a0,16(s0)
	.loc 1 426 8
	beq	a0,zero,.L1050
	.loc 1 428 9 is_stmt 1
	call	cJSON_free
.LVL899:
.L1050:
	.loc 1 430 5
	.loc 1 430 25 is_stmt 0
	sw	s1,16(s0)
	.loc 1 432 5 is_stmt 1
	.loc 1 432 12 is_stmt 0
	j	.L1045
	.cfi_endproc
.LFE16:
	.size	cJSON_SetValuestring, .-cJSON_SetValuestring
	.section	.text.replace_item_in_object,"ax",@progbits
	.align	1
	.type	replace_item_in_object, @function
replace_item_in_object:
.LFB79:
	.loc 1 2375 1 is_stmt 1
	.cfi_startproc
.LVL900:
	.loc 1 2376 5
	.loc 1 2376 8 is_stmt 0
	beq	a2,zero,.L1079
	.loc 1 2376 30 discriminator 1
	beq	a1,zero,.L1079
.LBB217:
.LBB218:
	.loc 1 2382 29
	lw	a5,12(a2)
.LBE218:
.LBE217:
	.loc 1 2375 1
	addi	sp,sp,-32
	.cfi_def_cfa_offset 32
	sw	s0,24(sp)
	sw	s1,20(sp)
	sw	s2,16(sp)
	sw	s3,12(sp)
	sw	ra,28(sp)
	.cfi_offset 8, -8
	.cfi_offset 9, -12
	.cfi_offset 18, -16
	.cfi_offset 19, -20
	.cfi_offset 1, -4
.LBB222:
.LBB219:
	.loc 1 2382 29
	andi	a5,a5,512
	mv	s3,a3
	mv	s0,a2
	mv	s1,a1
	mv	s2,a0
.LVL901:
	.loc 1 2382 5 is_stmt 1
	.loc 1 2382 8 is_stmt 0
	bne	a5,zero,.L1068
	.loc 1 2382 51
	lw	a0,32(a2)
.LVL902:
	.loc 1 2382 36
	beq	a0,zero,.L1068
	.loc 1 2384 9 is_stmt 1
	call	cJSON_free
.LVL903:
.L1068:
	.loc 1 2386 5
	.loc 1 2386 34 is_stmt 0
	mv	a0,s1
	call	cJSON_strdup.constprop.0
.LVL904:
	.loc 1 2386 25
	sw	a0,32(s0)
	.loc 1 2387 5 is_stmt 1
	.loc 1 2387 8 is_stmt 0
	beq	a0,zero,.L1066
	.loc 1 2392 5 is_stmt 1
	.loc 1 2392 23 is_stmt 0
	lw	a5,12(s0)
	.loc 1 2394 12
	mv	a2,s3
	mv	a1,s1
	.loc 1 2392 23
	andi	a5,a5,-513
	sw	a5,12(s0)
	.loc 1 2394 5 is_stmt 1
	.loc 1 2394 12 is_stmt 0
	mv	a0,s2
	call	get_object_item
.LVL905:
	mv	a2,s0
.LBE219:
.LBE222:
	.loc 1 2395 1
	lw	s0,24(sp)
	.cfi_remember_state
	.cfi_restore 8
.LVL906:
	lw	ra,28(sp)
	.cfi_restore 1
	lw	s1,20(sp)
	.cfi_restore 9
.LVL907:
	lw	s3,12(sp)
	.cfi_restore 19
.LVL908:
.LBB223:
.LBB220:
	.loc 1 2394 12
	mv	a1,a0
	mv	a0,s2
.LBE220:
.LBE223:
	.loc 1 2395 1
	lw	s2,16(sp)
	.cfi_restore 18
.LVL909:
	addi	sp,sp,32
	.cfi_def_cfa_offset 0
.LBB224:
.LBB221:
	.loc 1 2394 12
	tail	cJSON_ReplaceItemViaPointer
.LVL910:
.L1066:
	.cfi_restore_state
.LBE221:
.LBE224:
	.loc 1 2395 1
	lw	ra,28(sp)
	.cfi_restore 1
	lw	s0,24(sp)
	.cfi_restore 8
.LVL911:
	lw	s1,20(sp)
	.cfi_restore 9
.LVL912:
	lw	s2,16(sp)
	.cfi_restore 18
.LVL913:
	lw	s3,12(sp)
	.cfi_restore 19
.LVL914:
	li	a0,0
	addi	sp,sp,32
	.cfi_def_cfa_offset 0
	jr	ra
.LVL915:
.L1079:
	li	a0,0
.LVL916:
	ret
	.cfi_endproc
.LFE79:
	.size	replace_item_in_object, .-replace_item_in_object
	.section	.text.cJSON_ReplaceItemInObject,"ax",@progbits
	.align	1
	.globl	cJSON_ReplaceItemInObject
	.type	cJSON_ReplaceItemInObject, @function
cJSON_ReplaceItemInObject:
.LFB80:
	.loc 1 2398 1 is_stmt 1
	.cfi_startproc
.LVL917:
	.loc 1 2399 5
	.loc 1 2399 12 is_stmt 0
	li	a3,0
	tail	replace_item_in_object
.LVL918:
	.cfi_endproc
.LFE80:
	.size	cJSON_ReplaceItemInObject, .-cJSON_ReplaceItemInObject
	.section	.text.cJSON_ReplaceItemInObjectCaseSensitive,"ax",@progbits
	.align	1
	.globl	cJSON_ReplaceItemInObjectCaseSensitive
	.type	cJSON_ReplaceItemInObjectCaseSensitive, @function
cJSON_ReplaceItemInObjectCaseSensitive:
.LFB81:
	.loc 1 2403 1 is_stmt 1
	.cfi_startproc
.LVL919:
	.loc 1 2404 5
	.loc 1 2404 12 is_stmt 0
	li	a3,1
	tail	replace_item_in_object
.LVL920:
	.cfi_endproc
.LFE81:
	.size	cJSON_ReplaceItemInObjectCaseSensitive, .-cJSON_ReplaceItemInObjectCaseSensitive
	.section	.rodata.cst8,"aM",@progbits,8
	.align	3
.LC0:
	.word	0
	.word	1018167296
	.align	3
.LC6:
	.word	-1
	.word	2146435071
	.align	3
.LC12:
	.word	-4194304
	.word	1105199103
	.align	3
.LC13:
	.word	0
	.word	-1042284544
	.align	3
.LC15:
	.word	0
	.word	2146959360
	.section	.bss.global_error,"aw",@nobits
	.align	2
	.set	.LANCHOR1,. + 0
	.type	global_error, @object
	.size	global_error, 8
global_error:
	.zero	8
	.section	.bss.version.0,"aw",@nobits
	.align	2
	.set	.LANCHOR2,. + 0
	.type	version.0, @object
	.size	version.0, 15
version.0:
	.zero	15
	.section	.data.global_hooks,"aw"
	.align	2
	.set	.LANCHOR0,. + 0
	.type	global_hooks, @object
	.size	global_hooks, 12
global_hooks:
	.word	malloc
	.word	free
	.word	realloc
	.text
.Letext0:
	.file 2 "./components/utils/cjson/cJSON.h"
	.file 3 "./toolchain/linux_x86_64/lib/gcc/riscv64-unknown-elf/10.4.0/include/stddef.h"
	.file 4 "./toolchain/linux_x86_64/riscv64-unknown-elf/include/string.h"
	.file 5 "./toolchain/linux_x86_64/riscv64-unknown-elf/include/stdlib.h"
	.file 6 "<built-in>"
	.file 7 "./toolchain/linux_x86_64/riscv64-unknown-elf/include/math.h"
	.file 8 "./toolchain/linux_x86_64/riscv64-unknown-elf/include/stdio.h"
	.file 9 "./toolchain/linux_x86_64/riscv64-unknown-elf/include/ctype.h"