	.file	"qcc74x_timer.c"
	.option nopic
	.attribute arch, "rv32i2p0_m2p0_a2p0_f2p0_c2p0_p0p9_zpn0p9_zpsfoperand0p9_xtheade2p0"
	.attribute unaligned_access, 0
	.attribute stack_align, 16
	.text
.Ltext0:
	.cfi_sections	.debug_frame
	.section	.text.qcc74x_timer_deinit,"ax",@progbits
	.align	1
	.globl	qcc74x_timer_deinit
	.type	qcc74x_timer_deinit, @function
qcc74x_timer_deinit:
.LFB243:
	.file 1 "./drivers/lhal/src/qcc74x_timer.c"
	.loc 1 113 1
	.cfi_startproc
.LVL0:
	.loc 1 117 5
	.loc 1 118 5
	.loc 1 120 5
	.loc 1 122 5
	.loc 1 123 26 is_stmt 0
	lbu	a5,9(a0)
	.loc 1 122 58
	lw	a3,4(a0)
	.loc 1 123 32
	addi	a4,a5,1
	.loc 1 122 12
	lw	a2,132(a3)
.LVL1:
	.loc 1 123 5 is_stmt 1
	.loc 1 123 19 is_stmt 0
	li	a5,1
	sll	a5,a5,a4
	.loc 1 123 15
	not	a5,a5
	.loc 1 123 12
	and	a5,a5,a2
.LVL2:
	.loc 1 124 5 is_stmt 1
	.loc 1 124 59 is_stmt 0
	sw	a5,132(a3)
.LVL3:
	.loc 1 126 1
	ret
	.cfi_endproc
.LFE243:
	.size	qcc74x_timer_deinit, .-qcc74x_timer_deinit
	.section	.text.qcc74x_timer_start,"ax",@progbits
	.align	1
	.globl	qcc74x_timer_start
	.type	qcc74x_timer_start, @function
qcc74x_timer_start:
.LFB244:
	.loc 1 129 1 is_stmt 1
	.cfi_startproc
.LVL4:
	.loc 1 133 5
	.loc 1 134 5
	.loc 1 136 5
	.loc 1 138 5
	.loc 1 138 58 is_stmt 0
	lw	a3,4(a0)
	.loc 1 139 25
	lbu	a5,9(a0)
	.loc 1 138 12
	lw	a2,132(a3)
.LVL5:
	.loc 1 139 5 is_stmt 1
	.loc 1 139 31 is_stmt 0
	addi	a4,a5,1
	.loc 1 139 18
	li	a5,1
	sll	a5,a5,a4
	.loc 1 139 12
	or	a5,a5,a2
.LVL6:
	.loc 1 140 5 is_stmt 1
	.loc 1 140 59 is_stmt 0
	sw	a5,132(a3)
.LVL7:
	.loc 1 142 1
	ret
	.cfi_endproc
.LFE244:
	.size	qcc74x_timer_start, .-qcc74x_timer_start
	.section	.text.qcc74x_timer_stop,"ax",@progbits
	.align	1
	.globl	qcc74x_timer_stop
	.type	qcc74x_timer_stop, @function
qcc74x_timer_stop:
.LFB256:
	.cfi_startproc
	tail	qcc74x_timer_deinit
	.cfi_endproc
.LFE256:
	.size	qcc74x_timer_stop, .-qcc74x_timer_stop
	.section	.text.qcc74x_timer_set_preloadvalue,"ax",@progbits
	.align	1
	.globl	qcc74x_timer_set_preloadvalue
	.type	qcc74x_timer_set_preloadvalue, @function
qcc74x_timer_set_preloadvalue:
.LFB246:
	.loc 1 161 1 is_stmt 1
	.cfi_startproc
.LVL8:
	.loc 1 165 5
	.loc 1 167 5
	.loc 1 169 5
	.loc 1 169 58 is_stmt 0
	lw	a5,4(a0)
	.loc 1 169 67
	lbu	a4,9(a0)
	.loc 1 169 58
	addi	a5,a5,80
	.loc 1 169 74
	srw	a1,a5,a4,2
.LVL9:
	.loc 1 171 1
	ret
	.cfi_endproc
.LFE246:
	.size	qcc74x_timer_set_preloadvalue, .-qcc74x_timer_set_preloadvalue
	.section	.text.qcc74x_timer_set_compvalue,"ax",@progbits
	.align	1
	.globl	qcc74x_timer_set_compvalue
	.type	qcc74x_timer_set_compvalue, @function
qcc74x_timer_set_compvalue:
.LFB247:
	.loc 1 174 1 is_stmt 1
	.cfi_startproc
.LVL10:
	.loc 1 178 5
	.loc 1 180 5
	.loc 1 182 5
	.loc 1 182 70 is_stmt 0
	lbu	a4,9(a0)
	.loc 1 182 65
	li	a3,12
	.loc 1 182 76
	lw	a5,4(a0)
	.loc 1 182 65
	mul	a4,a4,a3
	.loc 1 182 76
	addi	a5,a5,16
	addsl	a5, a5, a1, 2
	.loc 1 182 90
	srw	a2,a5,a4,0
.LVL11:
	.loc 1 184 1
	ret
	.cfi_endproc
.LFE247:
	.size	qcc74x_timer_set_compvalue, .-qcc74x_timer_set_compvalue
	.section	.text.qcc74x_timer_get_compvalue,"ax",@progbits
	.align	1
	.globl	qcc74x_timer_get_compvalue
	.type	qcc74x_timer_get_compvalue, @function
qcc74x_timer_get_compvalue:
.LFB248:
	.loc 1 187 1 is_stmt 1
	.cfi_startproc
.LVL12:
	.loc 1 191 5
	.loc 1 193 5
	.loc 1 195 5
	.loc 1 195 77 is_stmt 0
	lbu	a4,9(a0)
	.loc 1 195 72
	li	a3,12
	.loc 1 195 83
	lw	a5,4(a0)
	.loc 1 195 72
	mul	a4,a4,a3
	.loc 1 195 83
	addi	a5,a5,16
	addsl	a5, a5, a1, 2
	.loc 1 195 13
	lrw	a0,a5,a4,0
.LVL13:
	.loc 1 197 1
	ret
	.cfi_endproc
.LFE248:
	.size	qcc74x_timer_get_compvalue, .-qcc74x_timer_get_compvalue
	.section	.text.qcc74x_timer_get_countervalue,"ax",@progbits
	.align	1
	.globl	qcc74x_timer_get_countervalue
	.type	qcc74x_timer_get_countervalue, @function
qcc74x_timer_get_countervalue:
.LFB249:
	.loc 1 200 1 is_stmt 1
	.cfi_startproc
.LVL14:
	.loc 1 204 5
	.loc 1 206 5
	.loc 1 208 5
	.loc 1 208 65 is_stmt 0
	lw	a5,4(a0)
	.loc 1 208 74
	lbu	a4,9(a0)
	.loc 1 208 65
	addi	a5,a5,44
	.loc 1 208 13
	lrw	a0,a5,a4,2
.LVL15:
	.loc 1 210 1
	ret
	.cfi_endproc
.LFE249:
	.size	qcc74x_timer_get_countervalue, .-qcc74x_timer_get_countervalue
	.section	.text.qcc74x_timer_compint_mask,"ax",@progbits
	.align	1
	.globl	qcc74x_timer_compint_mask
	.type	qcc74x_timer_compint_mask, @function
qcc74x_timer_compint_mask:
.LFB250:
	.loc 1 213 1 is_stmt 1
	.cfi_startproc
.LVL16:
	.loc 1 217 5
	.loc 1 218 5
	.loc 1 220 5
	.loc 1 221 5
	.loc 1 221 67 is_stmt 0
	lw	a4,4(a0)
	.loc 1 221 76
	lbu	a3,9(a0)
	.loc 1 223 23
	li	a5,1
	.loc 1 221 67
	addi	a4,a4,68
	.loc 1 221 12
	lrw	a0,a4,a3,2
.LVL17:
	.loc 1 222 5 is_stmt 1
	.loc 1 223 23 is_stmt 0
	sll	a1,a5,a1
.LVL18:
	.loc 1 225 16
	or	a5,a1,a0
	.loc 1 222 8
	beq	a2,zero,.L10
	.loc 1 223 9 is_stmt 1
	.loc 1 223 19 is_stmt 0
	not	a1,a1
	.loc 1 223 16
	and	a5,a1,a0
.LVL19:
.L10:
	.loc 1 227 5 is_stmt 1
	.loc 1 227 74 is_stmt 0
	srw	a5,a4,a3,2
	.loc 1 229 1
	ret
	.cfi_endproc
.LFE250:
	.size	qcc74x_timer_compint_mask, .-qcc74x_timer_compint_mask
	.section	.text.qcc74x_timer_get_compint_status,"ax",@progbits
	.align	1
	.globl	qcc74x_timer_get_compint_status
	.type	qcc74x_timer_get_compint_status, @function
qcc74x_timer_get_compint_status:
.LFB251:
	.loc 1 232 1 is_stmt 1
	.cfi_startproc
.LVL20:
	.loc 1 236 5
	.loc 1 237 5
	.loc 1 239 5
	.loc 1 240 5
	.loc 1 240 67 is_stmt 0
	lw	a5,4(a0)
	.loc 1 240 76
	lbu	a4,9(a0)
	.loc 1 242 21
	li	a0,1
.LVL21:
	.loc 1 240 67
	addi	a5,a5,56
.LVL22:
	.loc 1 240 12
	lrw	a5,a5,a4,2
.LVL23:
	.loc 1 242 5 is_stmt 1
	.loc 1 242 21 is_stmt 0
	sll	a0,a0,a1
	.loc 1 242 16
	and	a0,a0,a5
	.loc 1 248 1
	snez	a0,a0
	ret
	.cfi_endproc
.LFE251:
	.size	qcc74x_timer_get_compint_status, .-qcc74x_timer_get_compint_status
	.section	.text.qcc74x_timer_compint_clear,"ax",@progbits
	.align	1
	.globl	qcc74x_timer_compint_clear
	.type	qcc74x_timer_compint_clear, @function
qcc74x_timer_compint_clear:
.LFB252:
	.loc 1 251 1 is_stmt 1
	.cfi_startproc
.LVL24:
	.loc 1 255 5
	.loc 1 256 5
	.loc 1 258 5
	.loc 1 259 5
	.loc 1 259 67 is_stmt 0
	lw	a4,4(a0)
	.loc 1 259 76
	lbu	a3,9(a0)
	.loc 1 260 18
	li	a5,1
	.loc 1 259 67
	addi	a4,a4,120
	.loc 1 259 12
	lrw	a2,a4,a3,2
.LVL25:
	.loc 1 260 5 is_stmt 1
	.loc 1 260 18 is_stmt 0
	sll	a5,a5,a1
	.loc 1 260 12
	or	a5,a5,a2
.LVL26:
	.loc 1 261 5 is_stmt 1
	.loc 1 261 74 is_stmt 0
	srw	a5,a4,a3,2
.LVL27:
	.loc 1 263 1
	ret
	.cfi_endproc
.LFE252:
	.size	qcc74x_timer_compint_clear, .-qcc74x_timer_compint_clear
	.section	.text.qcc74x_timer_init,"ax",@progbits
	.align	1
	.globl	qcc74x_timer_init
	.type	qcc74x_timer_init, @function
qcc74x_timer_init:
.LFB242:
	.loc 1 11 1 is_stmt 1
	.cfi_startproc
.LVL28:
	.loc 1 12 5
	.loc 1 13 5
	.loc 1 14 5
	.loc 1 15 5
	.loc 1 16 5
	.loc 1 18 5
	.loc 1 18 8 is_stmt 0
	lw	a4,4(a1)
	li	a5,1
	bleu	a4,a5,.L15
	.loc 1 18 37 discriminator 1
	lw	a4,8(a1)
	bleu	a4,a5,.L15
	.loc 1 19 37
	lw	a4,12(a1)
	bgtu	a4,a5,.L16
.L15:
	.loc 1 21 9 is_stmt 1
.LVL29:
.LBB4:
.LBB5:
	.file 2 "./drivers/lhal/include/qcc74x_common.h"
	.loc 2 160 5
 #APP
# 160 "/home/sai/QCCSDK-QCC74x/drivers/lhal/include/qcc74x_common.h" 1
	ebreak
# 0 "" 2
 #NO_APP
.L17:
	.loc 2 161 5
	.loc 2 162 9
	.loc 2 161 11
	j	.L17
.LVL30:
.L16:
.LBE5:
.LBE4:
	.loc 1 11 1 is_stmt 0
	addi	sp,sp,-16
	.cfi_def_cfa_offset 16
	sw	ra,12(sp)
	sw	s0,8(sp)
	sw	s1,4(sp)
	sw	s2,0(sp)
	.cfi_offset 1, -4
	.cfi_offset 8, -8
	.cfi_offset 9, -12
	.cfi_offset 18, -16
	.loc 1 34 26
	lbu	a4,9(a0)
	.loc 1 30 14
	lw	s2,4(a0)
	mv	s1,a1
	.loc 1 27 5 is_stmt 1
	.loc 1 28 5
	.loc 1 30 5
.LVL31:
	.loc 1 33 5
	.loc 1 34 32 is_stmt 0
	addi	a4,a4,1
	.loc 1 33 12
	lw	a3,132(s2)
.LVL32:
	.loc 1 34 5 is_stmt 1
	.loc 1 34 19 is_stmt 0
	sll	a5,a5,a4
	.loc 1 34 15
	not	a5,a5
	.loc 1 34 12
	and	a5,a5,a3
.LVL33:
	.loc 1 35 5 is_stmt 1
	.loc 1 35 59 is_stmt 0
	sw	a5,132(s2)
	.loc 1 38 5 is_stmt 1
	li	a1,0
.LVL34:
	mv	s0,a0
	call	qcc74x_timer_compint_clear
.LVL35:
	.loc 1 39 5
	li	a1,1
	mv	a0,s0
	call	qcc74x_timer_compint_clear
.LVL36:
	.loc 1 40 5
	li	a1,2
	mv	a0,s0
	call	qcc74x_timer_compint_clear
.LVL37:
	.loc 1 43 5
	.loc 1 44 12 is_stmt 0
	lbu	a3,9(s0)
	.loc 1 43 12
	lw	a4,0(s2)
.LVL38:
	.loc 1 44 5 is_stmt 1
	lbu	a5,1(s1)
	.loc 1 44 8 is_stmt 0
	bne	a3,zero,.L18
	.loc 1 45 9 is_stmt 1
	.loc 1 45 16 is_stmt 0
	andi	a4,a4,-16
.LVL39:
	.loc 1 46 9 is_stmt 1
.L29:
	.loc 1 49 16 is_stmt 0
	or	a5,a5,a4
.LVL40:
	.loc 1 51 5 is_stmt 1
	.loc 1 51 58 is_stmt 0
	sw	a5,0(s2)
	.loc 1 54 5 is_stmt 1
	.loc 1 55 35 is_stmt 0
	slli	a4,a3,3
	.loc 1 55 31
	addi	a2,a4,8
	.loc 1 54 12
	lw	a1,188(s2)
.LVL41:
	.loc 1 55 5 is_stmt 1
	.loc 1 56 22 is_stmt 0
	lbu	a4,2(s1)
	.loc 1 55 22
	li	a5,255
	sll	a5,a5,a2
	.loc 1 55 15
	not	a5,a5
	.loc 1 56 34
	sll	a4,a4,a2
	.loc 1 55 12
	and	a5,a5,a1
.LVL42:
	.loc 1 56 5 is_stmt 1
	.loc 1 56 12 is_stmt 0
	or	a5,a4,a5
.LVL43:
	.loc 1 57 5 is_stmt 1
	.loc 1 57 59 is_stmt 0
	sw	a5,188(s2)
	.loc 1 60 5 is_stmt 1
	.loc 1 60 12 is_stmt 0
	lw	a1,136(s2)
.LVL44:
	.loc 1 61 5 is_stmt 1
	.loc 1 61 15 is_stmt 0
	lbu	a2,0(s1)
	.loc 1 62 29
	addi	a4,a3,1
	.loc 1 62 23
	li	a5,1
	sll	a5,a5,a4
	.loc 1 64 16
	or	a4,a5,a1
	.loc 1 61 8
	bne	a2,zero,.L21
	.loc 1 62 9 is_stmt 1
	.loc 1 62 19 is_stmt 0
	not	a5,a5
	.loc 1 62 16
	and	a4,a5,a1
.LVL45:
.L21:
	.loc 1 66 5 is_stmt 1
	.loc 1 66 59 is_stmt 0
	sw	a4,136(s2)
	.loc 1 69 5 is_stmt 1
	.loc 1 69 67 is_stmt 0
	addi	s2,s2,92
.LVL46:
	.loc 1 69 12
	lrw	a5,s2,a3,2
.LVL47:
	.loc 1 70 5 is_stmt 1
	.loc 1 71 15 is_stmt 0
	lbu	a4,3(s1)
	.loc 1 71 8
	li	a1,3
	.loc 1 70 12
	andi	a5,a5,-4
.LVL48:
	.loc 1 71 5 is_stmt 1
	.loc 1 71 8 is_stmt 0
	beq	a4,a1,.L22
	.loc 1 72 9 is_stmt 1
	.loc 1 72 50 is_stmt 0
	addi	a4,a4,1
	.loc 1 72 16
	or	a5,a5,a4
.LVL49:
.L22:
	.loc 1 74 5 is_stmt 1
	.loc 1 74 74 is_stmt 0
	srw	a5,s2,a3,2
	.loc 1 76 5 is_stmt 1
	.loc 1 76 8 is_stmt 0
	bne	a2,zero,.L23
	.loc 1 77 9 is_stmt 1
	lw	a1,16(s1)
	mv	a0,s0
	call	qcc74x_timer_set_preloadvalue
.LVL50:
.L23:
	.loc 1 80 5
	.loc 1 80 15 is_stmt 0
	lbu	a5,3(s1)
	.loc 1 80 8
	bne	a5,zero,.L24
	.loc 1 81 9 is_stmt 1
	li	a2,0
	li	a1,0
	mv	a0,s0
	call	qcc74x_timer_compint_mask
.LVL51:
	.loc 1 82 9
	li	a2,1
	li	a1,1
	mv	a0,s0
	call	qcc74x_timer_compint_mask
.LVL52:
	.loc 1 83 9
	li	a2,1
	li	a1,2
	mv	a0,s0
	call	qcc74x_timer_compint_mask
.LVL53:
	.loc 1 84 9
	lw	a2,4(s1)
	addi	a2,a2,-2
.L30:
	.loc 1 105 9 is_stmt 0
	li	a1,0
	mv	a0,s0
	call	qcc74x_timer_set_compvalue
.LVL54:
	.loc 1 106 9 is_stmt 1
	li	a2,-1
	j	.L32
.LVL55:
.L18:
	.loc 1 48 9
	.loc 1 48 16 is_stmt 0
	andi	a4,a4,-241
.LVL56:
	.loc 1 49 9 is_stmt 1
	.loc 1 49 41 is_stmt 0
	slli	a5,a5,4
	j	.L29
.LVL57:
.L24:
	.loc 1 87 12 is_stmt 1
	.loc 1 87 15 is_stmt 0
	li	a4,1
	bne	a5,a4,.L25
	.loc 1 88 9 is_stmt 1
	li	a2,0
	li	a1,0
	mv	a0,s0
	call	qcc74x_timer_compint_mask
.LVL58:
	.loc 1 89 9
	li	a2,0
	li	a1,1
	mv	a0,s0
	call	qcc74x_timer_compint_mask
.LVL59:
	.loc 1 90 9
	li	a2,1
	li	a1,2
	mv	a0,s0
	call	qcc74x_timer_compint_mask
.LVL60:
	.loc 1 91 9
	lw	a2,4(s1)
	li	a1,0
	mv	a0,s0
	addi	a2,a2,-2
	call	qcc74x_timer_set_compvalue
.LVL61:
	.loc 1 92 9
	lw	a2,8(s1)
	addi	a2,a2,-2
.L32:
	.loc 1 106 9 is_stmt 0
	li	a1,1
	mv	a0,s0
	call	qcc74x_timer_set_compvalue
.LVL62:
	.loc 1 107 9 is_stmt 1
	li	a2,-1
	j	.L31
.L25:
	.loc 1 94 12
	.loc 1 94 15 is_stmt 0
	li	a4,2
	bne	a5,a4,.L26
	.loc 1 95 9 is_stmt 1
	li	a2,0
	li	a1,0
	mv	a0,s0
	call	qcc74x_timer_compint_mask
.LVL63:
	.loc 1 96 9
	li	a2,0
	li	a1,1
	mv	a0,s0
	call	qcc74x_timer_compint_mask
.LVL64:
	.loc 1 97 9
	li	a2,0
	li	a1,2
	mv	a0,s0
	call	qcc74x_timer_compint_mask
.LVL65:
	.loc 1 98 9
	lw	a2,4(s1)
	li	a1,0
	mv	a0,s0
	addi	a2,a2,-2
	call	qcc74x_timer_set_compvalue
.LVL66:
	.loc 1 99 9
	lw	a2,8(s1)
	li	a1,1
	mv	a0,s0
	addi	a2,a2,-2
	call	qcc74x_timer_set_compvalue
.LVL67:
	.loc 1 100 9
	lw	a2,12(s1)
	addi	a2,a2,-2
.L31:
	.loc 1 107 9 is_stmt 0
	mv	a0,s0
	.loc 1 110 1
	lw	s0,8(sp)
	.cfi_remember_state
	.cfi_restore 8
.LVL68:
	lw	ra,12(sp)
	.cfi_restore 1
	lw	s1,4(sp)
	.cfi_restore 9
.LVL69:
	lw	s2,0(sp)
	.cfi_restore 18
.LVL70:
	.loc 1 107 9
	li	a1,2
	.loc 1 110 1
	addi	sp,sp,16
	.cfi_def_cfa_offset 0
	.loc 1 107 9
	tail	qcc74x_timer_set_compvalue
.LVL71:
.L26:
	.cfi_restore_state
	.loc 1 102 9 is_stmt 1
	li	a2,1
	li	a1,0
	mv	a0,s0
	call	qcc74x_timer_compint_mask
.LVL72:
	.loc 1 103 9
	li	a2,1
	li	a1,1
	mv	a0,s0
	call	qcc74x_timer_compint_mask
.LVL73:
	.loc 1 104 9
	li	a2,1
	li	a1,2
	mv	a0,s0
	call	qcc74x_timer_compint_mask
.LVL74:
	.loc 1 105 9
	li	a2,-1
	j	.L30
	.cfi_endproc
.LFE242:
	.size	qcc74x_timer_init, .-qcc74x_timer_init
	.section	.text.qcc74x_timer_feature_control,"ax",@progbits
	.align	1
	.globl	qcc74x_timer_feature_control
	.type	qcc74x_timer_feature_control, @function
qcc74x_timer_feature_control:
.LFB253:
	.loc 1 266 1
	.cfi_startproc
.LVL75:
	.loc 1 270 5
	.loc 1 278 5
	.loc 1 411 13
	.loc 1 412 13
	.loc 1 415 5
	.loc 1 417 1 is_stmt 0
	li	a0,-1
.LVL76:
	ret
	.cfi_endproc
.LFE253:
	.size	qcc74x_timer_feature_control, .-qcc74x_timer_feature_control
	.section	.rodata.qcc74x_timer_capture_init.str1.4,"aMS",@progbits,1
	.align	2
.LC0:
	.string	"gpio"
	.section	.text.qcc74x_timer_capture_init,"ax",@progbits
	.align	1
	.globl	qcc74x_timer_capture_init
	.type	qcc74x_timer_capture_init, @function
qcc74x_timer_capture_init:
.LFB254:
	.loc 1 571 1 is_stmt 1
	.cfi_startproc
.LVL77:
	.loc 1 575 5
	.loc 1 576 5
	.loc 1 577 5
	.loc 1 579 5
	.loc 1 571 1 is_stmt 0
	addi	sp,sp,-16
	.cfi_def_cfa_offset 16
	sw	ra,12(sp)
	sw	s0,8(sp)
	sw	s1,4(sp)
	sw	s2,0(sp)
	.cfi_offset 1, -4
	.cfi_offset 8, -8
	.cfi_offset 9, -12
	.cfi_offset 18, -16
	.loc 1 579 14
	lw	s1,4(a0)
.LVL78:
	.loc 1 580 5 is_stmt 1
	.loc 1 571 1 is_stmt 0
	mv	s2,a0
	.loc 1 580 5
	lbu	a0,0(a1)
.LVL79:
	.loc 1 571 1
	mv	s0,a1
	.loc 1 580 5
	call	GLB_Sel_MCU_TMR_GPIO_Clock
.LVL80:
	.loc 1 581 5 is_stmt 1
	.loc 1 581 12 is_stmt 0
	lui	a0,%hi(.LC0)
	addi	a0,a0,%lo(.LC0)
	call	qcc74x_device_get_by_name
.LVL81:
	.loc 1 582 5 is_stmt 1
	lbu	a1,0(s0)
	li	a2,8192
	addi	a2,a2,-1761
	call	qcc74x_gpio_init
.LVL82:
	.loc 1 584 5
	lbu	a3,9(s2)
	.loc 1 586 8 is_stmt 0
	lbu	a2,1(s0)
	.loc 1 584 12
	lw	a5,192(s1)
.LVL83:
	.loc 1 586 5 is_stmt 1
	.loc 1 586 8 is_stmt 0
	li	a4,1
	.loc 1 587 28
	addi	a3,a3,5
	.loc 1 586 8
	bne	a2,a4,.L35
	.loc 1 587 9 is_stmt 1
	.loc 1 587 22 is_stmt 0
	sll	a3,a2,a3
	.loc 1 587 16
	or	a5,a3,a5
.LVL84:
.L36:
	.loc 1 591 5 is_stmt 1
	.loc 1 594 1 is_stmt 0
	lw	ra,12(sp)
	.cfi_remember_state
	.cfi_restore 1
	lw	s0,8(sp)
	.cfi_restore 8
.LVL85:
	.loc 1 591 12
	ori	a5,a5,2
.LVL86:
	.loc 1 592 5 is_stmt 1
	.loc 1 592 59 is_stmt 0
	sw	a5,192(s1)
	.loc 1 594 1
	lw	s2,0(sp)
	.cfi_restore 18
.LVL87:
	lw	s1,4(sp)
	.cfi_restore 9
.LVL88:
	addi	sp,sp,16
	.cfi_def_cfa_offset 0
	jr	ra
.LVL89:
.L35:
	.cfi_restore_state
	.loc 1 589 9 is_stmt 1
	.loc 1 589 23 is_stmt 0
	sll	a4,a4,a3
	.loc 1 589 19
	not	a4,a4
	.loc 1 589 16
	and	a5,a4,a5
.LVL90:
	j	.L36
	.cfi_endproc
.LFE254:
	.size	qcc74x_timer_capture_init, .-qcc74x_timer_capture_init
	.text
.Letext0:
	.file 3 "./toolchain/linux_x86_64/riscv64-unknown-elf/include/machine/_default_types.h"
	.file 4 "./toolchain/linux_x86_64/riscv64-unknown-elf/include/sys/_stdint.h"
	.file 5 "./toolchain/linux_x86_64/lib/gcc/riscv64-unknown-elf/10.4.0/include/stddef.h"
	.file 6 "./drivers/lhal/include/qcc74x_core.h"
	.file 7 "./drivers/lhal/include/qcc74x_timer.h"
	.file 8 "./drivers/soc/qcc743/std/include/qcc743_glb.h"
	.file 9 "./drivers/lhal/include/qcc74x_gpio.h"