	.file	"system_qcc743.c"
	.option nopic
	.attribute arch, "rv32i2p0_m2p0_a2p0_f2p0_c2p0_p0p9_zpn0p9_zpsfoperand0p9_xtheade2p0"
	.attribute unaligned_access, 0
	.attribute stack_align, 16
	.text
.Ltext0:
	.cfi_sections	.debug_frame
	.section	.tcm_code../drivers/soc/qcc743/std/startup/system_qcc743.c207,"ax",@progbits
	.align	1
	.type	system_setup_xtal_config.isra.0, @function
system_setup_xtal_config.isra.0:
.LFB249:
	.file 1 "./drivers/soc/qcc743/std/startup/system_qcc743.c"
	.loc 1 207 134
	.cfi_startproc
	.loc 1 209 5
.LVL0:
	.loc 1 210 5
	.loc 1 211 5
	.loc 1 212 5
	.loc 1 214 5
	.loc 1 207 134 is_stmt 0
	addi	sp,sp,-16
	.cfi_def_cfa_offset 16
	sw	ra,12(sp)
	sw	s0,8(sp)
	sw	s1,4(sp)
	.cfi_offset 1, -4
	.cfi_offset 8, -8
	.cfi_offset 9, -12
	.loc 1 214 18
	call	HBN_Get_MCU_XCLK_Sel
.LVL1:
	mv	s1,a0
.LVL2:
	.loc 1 215 5 is_stmt 1
	.loc 1 215 21 is_stmt 0
	call	HBN_Get_MCU_Root_CLK_Sel
.LVL3:
	mv	s0,a0
.LVL4:
	.loc 1 218 5 is_stmt 1
	li	a0,0
	call	HBN_Set_MCU_XCLK_Sel
.LVL5:
	.loc 1 219 5
	li	a0,0
	call	HBN_Set_MCU_Root_CLK_Sel
.LVL6:
	.loc 1 222 5
	.loc 1 222 12 is_stmt 0
	li	a3,536936448
	lw	a5,-1916(a3)
.LVL7:
	.loc 1 230 5 is_stmt 1
	.loc 1 231 5
	li	a4,-49152
	addi	a4,a4,-9
	and	a5,a5,a4
.LVL8:
	.loc 1 231 12 is_stmt 0
	li	a4,32768
	or	a5,a5,a4
.LVL9:
	.loc 1 233 5 is_stmt 1
	.loc 1 233 76 is_stmt 0
	sw	a5,-1916(a3)
	.loc 1 235 5 is_stmt 1
	.loc 1 235 19
	.loc 1 233 76 is_stmt 0
	li	a5,16
.LVL10:
.L2:
	.loc 1 236 9 is_stmt 1
.LBB64:
.LBB65:
	.file 2 "./drivers/lhal/include/arch/risc-v/t-head/Core/Include/csi_rv32_gcc.h"
	.loc 2 1188 5
 #APP
# 1188 "/home/sai/QCCSDK-QCC74x/drivers/lhal/include/arch/risc-v/t-head/Core/Include/csi_rv32_gcc.h" 1
	nop
# 0 "" 2
 #NO_APP
.LBE65:
.LBE64:
	.loc 1 235 29
.LVL11:
	.loc 1 235 19
	.loc 1 235 5 is_stmt 0
	addi	a5,a5,-1
.LVL12:
	bne	a5,zero,.L2
	.loc 1 240 5 is_stmt 1
	mv	a0,s1
	call	HBN_Set_MCU_XCLK_Sel
.LVL13:
	.loc 1 241 5
	mv	a0,s0
	.loc 1 244 1 is_stmt 0
	lw	s0,8(sp)
	.cfi_restore 8
.LVL14:
	lw	ra,12(sp)
	.cfi_restore 1
	lw	s1,4(sp)
	.cfi_restore 9
.LVL15:
	addi	sp,sp,16
	.cfi_def_cfa_offset 0
	.loc 1 241 5
	tail	HBN_Set_MCU_Root_CLK_Sel
.LVL16:
	.cfi_endproc
.LFE249:
	.size	system_setup_xtal_config.isra.0, .-system_setup_xtal_config.isra.0
	.section	.text.System_BOD_Init,"ax",@progbits
	.align	1
	.globl	System_BOD_Init
	.type	System_BOD_Init, @function
System_BOD_Init:
.LFB245:
	.loc 1 113 1 is_stmt 1
	.cfi_startproc
	.loc 1 114 5
	.loc 1 115 5
	.loc 1 117 5
	.loc 1 119 5
	.loc 1 121 5
	.loc 1 113 1 is_stmt 0
	addi	sp,sp,-32
	.cfi_def_cfa_offset 32
	.loc 1 115 22
	li	a5,17235968
	addi	a5,a5,1
	.loc 1 122 5
	addi	a0,sp,12
	.loc 1 113 1
	sw	ra,28(sp)
	.cfi_offset 1, -4
	.loc 1 115 22
	sw	a5,12(sp)
	.loc 1 122 5 is_stmt 1
	call	HBN_Set_BOD_Cfg
.LVL17:
	.loc 1 123 1 is_stmt 0
	lw	ra,28(sp)
	.cfi_restore 1
	addi	sp,sp,32
	.cfi_def_cfa_offset 0
	jr	ra
	.cfi_endproc
.LFE245:
	.size	System_BOD_Init, .-System_BOD_Init
	.section	.text.SystemInit,"ax",@progbits
	.align	1
	.globl	SystemInit
	.type	SystemInit, @function
SystemInit:
.LFB246:
	.loc 1 126 1 is_stmt 1
	.cfi_startproc
	.loc 1 127 5
.LVL18:
	.loc 1 130 5
	.loc 1 130 40 is_stmt 0
	li	a5,536928256
	li	a4,32
	sw	a4,1280(a5)
	.loc 1 131 5 is_stmt 1
	.loc 1 131 40 is_stmt 0
	sw	zero,1284(a5)
	.loc 1 134 5 is_stmt 1
	.loc 1 134 13 is_stmt 0
	li	a5,536875008
	lw	a4,-1688(a5)
	.loc 1 126 1
	addi	sp,sp,-16
	.cfi_def_cfa_offset 16
	.loc 1 134 70
	andi	a4,a4,1
	.loc 1 134 779
	beq	a4,zero,.L8
	.loc 1 134 83 discriminator 1
	lw	a4,-1684(a5)
	.loc 1 134 140 discriminator 1
	andi	a4,a4,1
	.loc 1 134 78 discriminator 1
	beq	a4,zero,.L8
	.loc 1 134 153 discriminator 3
	lw	a4,-1680(a5)
	.loc 1 134 210 discriminator 3
	andi	a4,a4,1
	.loc 1 134 148 discriminator 3
	beq	a4,zero,.L8
	.loc 1 134 223 discriminator 5
	lw	a4,-1676(a5)
	.loc 1 134 280 discriminator 5
	andi	a4,a4,1
	.loc 1 134 218 discriminator 5
	beq	a4,zero,.L8
	.loc 1 134 293 discriminator 7
	lw	a4,-1672(a5)
	.loc 1 134 350 discriminator 7
	andi	a4,a4,1
	.loc 1 134 288 discriminator 7
	beq	a4,zero,.L8
	.loc 1 134 363 discriminator 9
	lw	a4,-1668(a5)
	.loc 1 134 420 discriminator 9
	andi	a4,a4,1
	.loc 1 134 358 discriminator 9
	beq	a4,zero,.L8
	.loc 1 134 433 discriminator 11
	lw	a4,-1664(a5)
	.loc 1 134 490 discriminator 11
	andi	a4,a4,1
	.loc 1 134 428 discriminator 11
	beq	a4,zero,.L8
	.loc 1 134 503 discriminator 13
	lw	a4,-1660(a5)
	.loc 1 134 560 discriminator 13
	andi	a4,a4,1
	.loc 1 134 498 discriminator 13
	beq	a4,zero,.L8
	.loc 1 134 573 discriminator 15
	lw	a4,-1656(a5)
	.loc 1 134 630 discriminator 15
	andi	a4,a4,1
	.loc 1 134 568 discriminator 15
	beq	a4,zero,.L8
	.loc 1 134 643 discriminator 17
	lw	a5,-1652(a5)
	.loc 1 134 700 discriminator 17
	andi	a5,a5,1
	.loc 1 134 638 discriminator 17
	beq	a5,zero,.L8
	.loc 1 134 713 discriminator 19
	li	a4,536875008
	lw	a5,-1648(a4)
	.loc 1 134 771 discriminator 19
	andi	a5,a5,1
	.loc 1 134 708 discriminator 19
	beq	a5,zero,.L8
	.loc 1 134 784 discriminator 21
	lw	a5,-1644(a4)
	.loc 1 134 842 discriminator 21
	andi	a5,a5,1
	.loc 1 134 779 discriminator 21
	bne	a5,zero,.L9
.L8:
	.loc 1 135 9 is_stmt 1
.LVL19:
.LBB116:
.LBB117:
	.loc 1 16 5
	.loc 1 18 5
	.loc 1 18 12 is_stmt 0
	li	a5,536891392
	addi	a5,a5,896
	lw	a4,32(a5)
.LVL20:
	.loc 1 19 5 is_stmt 1
	.loc 1 24 89 is_stmt 0
	li	a3,65536
	.loc 1 19 12
	andi	a4,a4,-4
.LVL21:
	.loc 1 20 5 is_stmt 1
	.loc 1 21 5
	.loc 1 21 76 is_stmt 0
	sw	a4,32(a5)
	.loc 1 23 5 is_stmt 1
.LVL22:
	.loc 1 24 5
	.loc 1 24 89 is_stmt 0
	addi	a4,a3,-1
	sw	a4,40(a5)
	.loc 1 27 5 is_stmt 1
	.loc 1 27 12 is_stmt 0
	lw	a4,32(a5)
.LVL23:
	.loc 1 28 5 is_stmt 1
	.loc 1 28 12 is_stmt 0
	or	a4,a4,a3
.LVL24:
	.loc 1 30 5 is_stmt 1
	.loc 1 30 76 is_stmt 0
	sw	a4,32(a5)
.LVL25:
.L9:
.LBE117:
.LBE116:
	.loc 1 137 5 is_stmt 1
.LBB118:
.LBB119:
	.loc 1 35 5
	.loc 1 36 5
	.loc 1 39 5
	.loc 1 41 5
	.loc 1 41 12 is_stmt 0
	li	a5,536891392
	lw	a4,64(a5)
.LVL26:
	.loc 1 42 5 is_stmt 1
	.loc 1 51 12 is_stmt 0
	li	a3,131072
	.loc 1 42 12
	andi	a4,a4,-241
.LVL27:
	.loc 1 43 5 is_stmt 1
	.loc 1 44 5
	.loc 1 44 75 is_stmt 0
	sw	a4,64(a5)
	.loc 1 46 5 is_stmt 1
.LVL28:
	.loc 1 47 5
	.loc 1 47 88 is_stmt 0
	li	a4,-1
	sw	a4,76(a5)
	.loc 1 50 5 is_stmt 1
	.loc 1 50 12 is_stmt 0
	lw	a4,64(a5)
.LVL29:
	.loc 1 51 5 is_stmt 1
	.loc 1 51 12 is_stmt 0
	or	a4,a4,a3
.LVL30:
	.loc 1 53 5 is_stmt 1
	.loc 1 53 75 is_stmt 0
	sw	a4,64(a5)
.LVL31:
.LBE119:
.LBE118:
	.loc 1 138 5 is_stmt 1
.LBB120:
.LBB121:
	.loc 1 103 5
	.loc 1 104 5
	.loc 1 105 5
	.loc 1 106 5
	.loc 1 106 12 is_stmt 0
	li	a4,536915968
	lw	a5,112(a4)
.LVL32:
	.loc 1 107 5 is_stmt 1
	.loc 1 108 5
	.loc 1 108 12 is_stmt 0
	li	a3,1610612736
	or	a5,a5,a3
.LVL33:
	.loc 1 109 5 is_stmt 1
	.loc 1 109 59 is_stmt 0
	sw	a5,112(a4)
.LVL34:
.LBE121:
.LBE120:
	.loc 1 142 5 is_stmt 1
.LBB122:
.LBB123:
	.loc 2 157 5
	.loc 2 159 5
 #APP
# 159 "/home/sai/QCCSDK-QCC74x/drivers/lhal/include/arch/risc-v/t-head/Core/Include/csi_rv32_gcc.h" 1
	csrr a5, mstatus
# 0 "" 2
.LVL35:
	.loc 2 161 5
 #NO_APP
.LBE123:
.LBE122:
	.loc 1 143 5
	.loc 1 144 5
.LBB124:
.LBB125:
	.loc 2 171 5
.LBE125:
.LBE124:
	.loc 1 143 13 is_stmt 0
	li	a4,8192
	or	a5,a5,a4
.LVL36:
.LBB127:
.LBB126:
	.loc 2 171 5
 #APP
# 171 "/home/sai/QCCSDK-QCC74x/drivers/lhal/include/arch/risc-v/t-head/Core/Include/csi_rv32_gcc.h" 1
	csrw mstatus, a5
# 0 "" 2
.LVL37:
 #NO_APP
.LBE126:
.LBE127:
	.loc 1 147 5 is_stmt 1
.LBB128:
.LBB129:
	.loc 2 65 5
	.loc 2 67 5
 #APP
# 67 "/home/sai/QCCSDK-QCC74x/drivers/lhal/include/arch/risc-v/t-head/Core/Include/csi_rv32_gcc.h" 1
	csrr a5, 0x7c0
# 0 "" 2
.LVL38:
	.loc 2 69 5
 #NO_APP
.LBE129:
.LBE128:
	.loc 1 148 5
	.loc 1 150 5
	.loc 1 151 5
.LBB130:
.LBB131:
	.loc 2 79 5
.LBE131:
.LBE130:
	.loc 1 150 14 is_stmt 0
	li	a4,4227072
	or	a5,a5,a4
.LVL39:
.LBB133:
.LBB132:
	.loc 2 79 5
 #APP
# 79 "/home/sai/QCCSDK-QCC74x/drivers/lhal/include/arch/risc-v/t-head/Core/Include/csi_rv32_gcc.h" 1
	csrw 0x7c0, a5
# 0 "" 2
.LVL40:
 #NO_APP
.LBE132:
.LBE133:
	.loc 1 154 5 is_stmt 1
	.loc 1 154 78 is_stmt 0
	li	a4,-528482304
	lw	a5,4(a4)
.LVL41:
	.loc 1 154 44
	lbu	a3,0(a4)
	li	a0,-528482304
	.loc 1 154 115
	srli	a5,a5,20
	andi	a5,a5,30
	.loc 1 154 44
	insb	a3,a5,0
	sb	a3,0(a4)
	.loc 1 157 5 is_stmt 1
	.loc 1 157 17
	.loc 1 158 54 is_stmt 0
	li	a5,4096
	.loc 1 157 12
	li	a4,0
	.loc 1 157 5
	li	a1,80
.LVL42:
.L10:
	.loc 1 158 9 is_stmt 1 discriminator 3
	addsl	a2, a0, a4, 2
	.loc 1 158 54 is_stmt 0 discriminator 3
	add	a3,a2,a5
	sb	zero,1(a3)
	.loc 1 159 9 is_stmt 1 discriminator 3
	.loc 1 159 54 is_stmt 0 discriminator 3
	srb	zero,a2,a5,0
	.loc 1 163 9 is_stmt 1 discriminator 3
	.loc 1 163 56 is_stmt 0 discriminator 3
	sb	zero,2(a3)
	.loc 1 157 32 is_stmt 1 discriminator 3
	.loc 1 157 33 is_stmt 0 discriminator 3
	addi	a4,a4,1
.LVL43:
	.loc 1 157 17 is_stmt 1 discriminator 3
	.loc 1 157 5 is_stmt 0 discriminator 3
	bne	a4,a1,.L10
	.loc 1 173 5 is_stmt 1
	.loc 1 173 61 is_stmt 0
	li	a4,-528478208
.LVL44:
	li	a3,2
	sb	a3,14(a4)
	.loc 1 174 5 is_stmt 1
	.loc 1 174 68 is_stmt 0
	sb	a3,78(a4)
	.loc 1 176 5 is_stmt 1
.LBB134:
.LBB135:
	.file 3 "./drivers/lhal/include/arch/risc-v/t-head/Core/Include/core_rv32.h"
	.loc 3 1120 5
	.loc 3 1121 5
.LBB136:
.LBB137:
	.loc 2 1269 5
 #APP
# 1269 "/home/sai/QCCSDK-QCC74x/drivers/lhal/include/arch/risc-v/t-head/Core/Include/csi_rv32_gcc.h" 1
	.word 0x0ff0000f

# 0 "" 2
 #NO_APP
.LBE137:
.LBE136:
	.loc 3 1122 5
.LBB138:
.LBB139:
	.loc 2 1256 5
 #APP
# 1256 "/home/sai/QCCSDK-QCC74x/drivers/lhal/include/arch/risc-v/t-head/Core/Include/csi_rv32_gcc.h" 1
	.word 0x0000100f

# 0 "" 2
 #NO_APP
.LBE139:
.LBE138:
	.loc 3 1123 5
.LBB140:
.LBB141:
	.loc 2 1305 5
 #APP
# 1305 "/home/sai/QCCSDK-QCC74x/drivers/lhal/include/arch/risc-v/t-head/Core/Include/csi_rv32_gcc.h" 1
	.word 0x0020000b

# 0 "" 2
 #NO_APP
.LBE141:
.LBE140:
	.loc 3 1124 5
.LBB142:
.LBB143:
	.loc 2 183 5
	.loc 2 185 5
 #APP
# 185 "/home/sai/QCCSDK-QCC74x/drivers/lhal/include/arch/risc-v/t-head/Core/Include/csi_rv32_gcc.h" 1
	csrr a4, 0x7c1
# 0 "" 2
.LVL45:
	.loc 2 187 5
 #NO_APP
.LBE143:
.LBE142:
	.loc 3 1125 5
	.loc 3 1126 5
.LBB144:
.LBB145:
	.loc 2 197 5
.LBE145:
.LBE144:
	.loc 3 1125 11 is_stmt 0
	addi	a5,a5,62
	or	a5,a4,a5
.LBB147:
.LBB146:
	.loc 2 197 5
 #APP
# 197 "/home/sai/QCCSDK-QCC74x/drivers/lhal/include/arch/risc-v/t-head/Core/Include/csi_rv32_gcc.h" 1
	csrw 0x7c1, a5
# 0 "" 2
.LVL46:
 #NO_APP
.LBE146:
.LBE147:
	.loc 3 1128 5 is_stmt 1
.LBB148:
.LBB149:
	.loc 2 1269 5
 #APP
# 1269 "/home/sai/QCCSDK-QCC74x/drivers/lhal/include/arch/risc-v/t-head/Core/Include/csi_rv32_gcc.h" 1
	.word 0x0ff0000f

# 0 "" 2
 #NO_APP
.LBE149:
.LBE148:
	.loc 3 1129 5
.LBB150:
.LBB151:
	.loc 2 1256 5
 #APP
# 1256 "/home/sai/QCCSDK-QCC74x/drivers/lhal/include/arch/risc-v/t-head/Core/Include/csi_rv32_gcc.h" 1
	.word 0x0000100f

# 0 "" 2
.LVL47:
 #NO_APP
.LBE151:
.LBE150:
.LBE135:
.LBE134:
	.loc 1 177 5
.LBB152:
.LBB153:
	.loc 3 1066 5
	.loc 3 1067 5
.LBB154:
.LBB155:
	.loc 2 1269 5
 #APP
# 1269 "/home/sai/QCCSDK-QCC74x/drivers/lhal/include/arch/risc-v/t-head/Core/Include/csi_rv32_gcc.h" 1
	.word 0x0ff0000f

# 0 "" 2
 #NO_APP
.LBE155:
.LBE154:
	.loc 3 1068 5
.LBB156:
.LBB157:
	.loc 2 1256 5
 #APP
# 1256 "/home/sai/QCCSDK-QCC74x/drivers/lhal/include/arch/risc-v/t-head/Core/Include/csi_rv32_gcc.h" 1
	.word 0x0000100f

# 0 "" 2
 #NO_APP
.LBE157:
.LBE156:
	.loc 3 1069 5
.LBB158:
.LBB159:
	.loc 2 1281 5
 #APP
# 1281 "/home/sai/QCCSDK-QCC74x/drivers/lhal/include/arch/risc-v/t-head/Core/Include/csi_rv32_gcc.h" 1
	.word 0x0100000b

# 0 "" 2
 #NO_APP
.LBE159:
.LBE158:
	.loc 3 1070 5
.LBB160:
.LBB161:
	.loc 2 183 5
	.loc 2 185 5
 #APP
# 185 "/home/sai/QCCSDK-QCC74x/drivers/lhal/include/arch/risc-v/t-head/Core/Include/csi_rv32_gcc.h" 1
	csrr a5, 0x7c1
# 0 "" 2
.LVL48:
	.loc 2 187 5
 #NO_APP
.LBE161:
.LBE160:
	.loc 3 1071 5
	.loc 3 1072 5
.LBB162:
.LBB163:
	.loc 2 197 5
.LBE163:
.LBE162:
	.loc 3 1071 11 is_stmt 0
	ori	a5,a5,1
.LVL49:
.LBB165:
.LBB164:
	.loc 2 197 5
 #APP
# 197 "/home/sai/QCCSDK-QCC74x/drivers/lhal/include/arch/risc-v/t-head/Core/Include/csi_rv32_gcc.h" 1
	csrw 0x7c1, a5
# 0 "" 2
.LVL50:
 #NO_APP
.LBE164:
.LBE165:
	.loc 3 1073 5 is_stmt 1
.LBB166:
.LBB167:
	.loc 2 1269 5
 #APP
# 1269 "/home/sai/QCCSDK-QCC74x/drivers/lhal/include/arch/risc-v/t-head/Core/Include/csi_rv32_gcc.h" 1
	.word 0x0ff0000f

# 0 "" 2
 #NO_APP
.LBE167:
.LBE166:
	.loc 3 1074 5
.LBB168:
.LBB169:
	.loc 2 1256 5
 #APP
# 1256 "/home/sai/QCCSDK-QCC74x/drivers/lhal/include/arch/risc-v/t-head/Core/Include/csi_rv32_gcc.h" 1
	.word 0x0000100f

# 0 "" 2
.LVL51:
 #NO_APP
.LBE169:
.LBE168:
.LBE153:
.LBE152:
	.loc 1 180 5
.LBB170:
.LBB171:
	.loc 2 91 5
	.loc 2 93 5
 #APP
# 93 "/home/sai/QCCSDK-QCC74x/drivers/lhal/include/arch/risc-v/t-head/Core/Include/csi_rv32_gcc.h" 1
	csrr a5, 0x7E1;
# 0 "" 2
.LVL52:
	.loc 2 95 5
 #NO_APP
.LBE171:
.LBE170:
	.loc 1 181 5
	.loc 1 182 5
.LBB172:
.LBB173:
	.loc 2 105 5
.LBE173:
.LBE172:
	.loc 1 181 15 is_stmt 0
	li	a4,-196608
	addi	a4,a4,-1
	and	a5,a5,a4
.LVL53:
.LBB175:
.LBB174:
	.loc 2 105 5
 #APP
# 105 "/home/sai/QCCSDK-QCC74x/drivers/lhal/include/arch/risc-v/t-head/Core/Include/csi_rv32_gcc.h" 1
	csrw 0x7E1, a5
# 0 "" 2
 #NO_APP
.LBE174:
.LBE175:
	.loc 1 184 5 is_stmt 1
	.loc 1 184 76 is_stmt 0
	li	a5,536870912
	li	a4,-1
	.loc 1 185 76
	li	a3,65536
	.loc 1 184 76
	sw	a4,340(a5)
	.loc 1 185 5 is_stmt 1
	.loc 1 185 76 is_stmt 0
	addi	a4,a3,-1
	sw	a4,344(a5)
	.loc 1 187 5 is_stmt 1
	.loc 1 188 5
	.loc 1 190 5
	.loc 1 190 15 is_stmt 0
	lui	a4,%hi(__LD_CONFIG_EM_SEL)
	addi	a4,a4,%lo(__LD_CONFIG_EM_SEL)
	.loc 1 190 13
	sw	a4,12(sp)
	.loc 1 192 5 is_stmt 1
.LVL54:
	.loc 1 193 5
	.loc 1 193 12 is_stmt 0
	lw	a5,1548(a5)
.LVL55:
	.loc 1 195 5 is_stmt 1
	.loc 1 195 17 is_stmt 0
	lw	a4,12(sp)
	.loc 1 195 8
	bne	a4,zero,.L11
	.loc 1 196 9 is_stmt 1
	.loc 1 196 16 is_stmt 0
	andi	a4,a5,-16
.LVL56:
.L12:
	.loc 1 204 5 is_stmt 1
	.loc 1 204 76 is_stmt 0
	li	a5,536870912
	sw	a4,1548(a5)
	.loc 1 205 1
	addi	sp,sp,16
	.cfi_remember_state
	.cfi_def_cfa_offset 0
	jr	ra
.LVL57:
.L11:
	.cfi_restore_state
	.loc 1 197 12 is_stmt 1
	.loc 1 197 24 is_stmt 0
	lw	a2,12(sp)
	.loc 1 197 15
	li	a4,32768
	bne	a2,a4,.L13
	.loc 1 198 9 is_stmt 1
	.loc 1 198 28 is_stmt 0
	andi	a5,a5,-16
.LVL58:
	.loc 1 198 16
	ori	a4,a5,3
.LVL59:
	j	.L12
.LVL60:
.L13:
	.loc 1 199 12 is_stmt 1
	.loc 1 199 24 is_stmt 0
	lw	a2,12(sp)
	.loc 1 202 16
	andi	a4,a5,-16
	.loc 1 199 15
	bne	a2,a3,.L12
	.loc 1 200 9 is_stmt 1
	.loc 1 200 16 is_stmt 0
	ori	a4,a5,15
.LVL61:
	j	.L12
	.cfi_endproc
.LFE246:
	.size	SystemInit, .-SystemInit
	.section	.text.System_Post_Init,"ax",@progbits
	.align	1
	.globl	System_Post_Init
	.type	System_Post_Init, @function
System_Post_Init:
.LFB248:
	.loc 1 247 1 is_stmt 1
	.cfi_startproc
	.loc 1 249 5
	.loc 1 247 1 is_stmt 0
	addi	sp,sp,-16
	.cfi_def_cfa_offset 16
	sw	ra,12(sp)
	.cfi_offset 1, -4
	.loc 1 249 5
	call	System_BOD_Init
.LVL62:
	.loc 1 253 5 is_stmt 1
	.loc 3 1175 5
.LBB198:
.LBB199:
.LBB200:
	.loc 2 1269 5
 #APP
# 1269 "/home/sai/QCCSDK-QCC74x/drivers/lhal/include/arch/risc-v/t-head/Core/Include/csi_rv32_gcc.h" 1
	.word 0x0ff0000f

# 0 "" 2
 #NO_APP
.LBE200:
.LBE199:
.LBE198:
	.loc 3 1176 5
.LBB205:
.LBB201:
.LBB202:
	.loc 2 1317 5
 #APP
# 1317 "/home/sai/QCCSDK-QCC74x/drivers/lhal/include/arch/risc-v/t-head/Core/Include/csi_rv32_gcc.h" 1
	.word 0x0010000b

# 0 "" 2
 #NO_APP
.LBE202:
.LBE201:
.LBE205:
	.loc 3 1177 5
.LBB206:
.LBB203:
.LBB204:
	.loc 2 1269 5
 #APP
# 1269 "/home/sai/QCCSDK-QCC74x/drivers/lhal/include/arch/risc-v/t-head/Core/Include/csi_rv32_gcc.h" 1
	.word 0x0ff0000f

# 0 "" 2
 #NO_APP
.LBE204:
.LBE203:
.LBE206:
	.loc 1 254 5
	.loc 3 1104 5
.LBB207:
.LBB208:
.LBB209:
	.loc 2 1269 5
 #APP
# 1269 "/home/sai/QCCSDK-QCC74x/drivers/lhal/include/arch/risc-v/t-head/Core/Include/csi_rv32_gcc.h" 1
	.word 0x0ff0000f

# 0 "" 2
 #NO_APP
.LBE209:
.LBE208:
.LBE207:
	.loc 3 1105 5
.LBB218:
.LBB210:
.LBB211:
	.loc 2 1256 5
 #APP
# 1256 "/home/sai/QCCSDK-QCC74x/drivers/lhal/include/arch/risc-v/t-head/Core/Include/csi_rv32_gcc.h" 1
	.word 0x0000100f

# 0 "" 2
 #NO_APP
.LBE211:
.LBE210:
.LBE218:
	.loc 3 1106 5
.LBB219:
.LBB212:
.LBB213:
	.loc 2 1281 5
 #APP
# 1281 "/home/sai/QCCSDK-QCC74x/drivers/lhal/include/arch/risc-v/t-head/Core/Include/csi_rv32_gcc.h" 1
	.word 0x0100000b

# 0 "" 2
 #NO_APP
.LBE213:
.LBE212:
.LBE219:
	.loc 3 1107 5
.LBB220:
.LBB214:
.LBB215:
	.loc 2 1269 5
 #APP
# 1269 "/home/sai/QCCSDK-QCC74x/drivers/lhal/include/arch/risc-v/t-head/Core/Include/csi_rv32_gcc.h" 1
	.word 0x0ff0000f

# 0 "" 2
 #NO_APP
.LBE215:
.LBE214:
.LBE220:
	.loc 3 1108 5
.LBB221:
.LBB216:
.LBB217:
	.loc 2 1256 5
 #APP
# 1256 "/home/sai/QCCSDK-QCC74x/drivers/lhal/include/arch/risc-v/t-head/Core/Include/csi_rv32_gcc.h" 1
	.word 0x0000100f

# 0 "" 2
 #NO_APP
.LBE217:
.LBE216:
.LBE221:
	.loc 1 257 5
	call	system_setup_xtal_config.isra.0
.LVL63:
	.loc 1 261 5
.LBB222:
.LBB223:
	.loc 2 45 5
 #APP
# 45 "/home/sai/QCCSDK-QCC74x/drivers/lhal/include/arch/risc-v/t-head/Core/Include/csi_rv32_gcc.h" 1
	csrs mstatus, 8
# 0 "" 2
 #NO_APP
.LBE223:
.LBE222:
	.loc 1 263 1 is_stmt 0
	lw	ra,12(sp)
	.cfi_restore 1
	addi	sp,sp,16
	.cfi_def_cfa_offset 0
	jr	ra
	.cfi_endproc
.LFE248:
	.size	System_Post_Init, .-System_Post_Init
	.text
.Letext0:
	.file 4 "./toolchain/linux_x86_64/riscv64-unknown-elf/include/machine/_default_types.h"
	.file 5 "./toolchain/linux_x86_64/riscv64-unknown-elf/include/sys/_stdint.h"
	.file 6 "./drivers/soc/qcc743/std/include/qcc743_hbn.h"
	.file 7 "./drivers/soc/qcc743/std/include/hardware/qcc743.h"